BL51 BANKED LINKER/LOCATER V5.03                                                        01/30/2013  19:55:46  PAGE 1


BL51 BANKED LINKER/LOCATER V5.03, INVOKED BY:
C:\KEIL\C51\BIN\BL51.EXE BANK1 {.\obj\main.obj}, BANK1 {.\obj\patch_info.obj}, BANK1 {.\obj\ee_process.obj}, BANK0 {.\ob
>> j\firmware_rev.obj}, COMMON {.\obj\L51_BANK.obj}, COMMON {.\obj\STARTUP.obj}, BANK1 {.\obj\ee_default.obj}, BANK1 {.\
>> obj\dma.obj}, BANK1 {.\obj\eeprom.obj}, BANK1 {.\obj\serial.obj}, BANK1 {.\obj\MACdriver.obj}, BANK1 {.\obj\timer.obj
>> }, BANK1 {.\obj\uart.obj}, BANK1 {.\obj\MDC_MDIO.obj}, BANK1 {.\obj\os_cbk.obj}, BANK1 {.\obj\vtag.obj}, BANK1 {.\obj
>> \fs16.obj}, BANK0 {.\obj\htmfiles0.obj}, BANK1 {.\obj\htmfiles1.obj}, BANK2 {.\obj\htmfiles2.obj}, BANK3 {.\obj\htmfi
>> les3.obj}, BANK4 {.\obj\htmfiles4.obj}, BANK5 {.\obj\htmfiles5.obj}, BANK6 {.\obj\htmfiles6.obj}, BANK7 {.\obj\htmfil
>> es7.obj}, BANK8 {.\obj\htmfiles8.obj}, BANK9 {.\obj\htmfiles9.obj}, BANK10 {.\obj\htmfiles10.obj}, BANK11 {.\obj\htmf
>> iles11.obj}, BANK12 {.\obj\htmfiles12.obj}, BANK13 {.\obj\htmfiles13.obj}, BANK14 {.\obj\htmfiles14.obj}, BANK15 {.\o
>> bj\htmfiles15.obj}, BANK1 {.\obj\uip.obj}, BANK6 {.\obj\uip_arp.obj}, BANK1 {.\obj\muip.obj}, BANK1 {.\obj\cgi.obj}, 
>> BANK1 {.\obj\cgiutil.obj}, BANK1 {.\obj\challenge.obj}, BANK1 {.\obj\cookie.obj}, BANK1 {.\obj\httpd.obj}, BANK1 {.\o
>> bj\application.obj}, BANK1 {.\obj\httpd_app.obj}, BANK5 {.\obj\checksum.obj}, BANK1 {.\obj\loginCbk.obj}, BANK1 {.\ob
>> j\errormsgCbk.obj}, BANK2 {.\obj\uartCbk.obj}, BANK2 {.\obj\telnetCbk.obj}, BANK5 {.\obj\setDefCbk.obj}, BANK1 {.\obj
>> \setIPCbk.obj}, BANK1 {.\obj\setPASSCbk.obj}, BANK1 {.\obj\statusCbk.obj}, BANK1 {.\obj\smtpCbk.obj}, BANK1 {.\obj\fw
>> _upCbk.obj}, BANK5 {.\obj\adcCbk.obj}, BANK5 {.\obj\udp_telCbk.obj}, BANK1 {.\obj\didoCbk.obj}, BANK6 {.\obj\CommandL
>> ine.obj}, BANK1 {.\obj\utility.obj}, BANK2 {.\obj\udp.obj}, BANK2 {.\obj\dhcpc.obj}, BANK2 {.\obj\gpio.obj}, BANK2 {.
>> \obj\dns.obj}, BANK2 {.\obj\wdg.obj}, BANK2 {.\obj\netuart_ctrl.obj}, BANK5 {.\obj\dido.obj}, BANK2 {F:\122_WorkingOn
>> _090619\130128a_三旺_fullsource\3Onedata_Net-UART144.3\Project\WebCtrl_flash_1M\LIB\NETUART.LIB}, BANK2 {F:\122_Worki
>> ngOn_090619\130128a_三旺_fullsource\3Onedata_Net-UART144.3\Project\WebCtrl_flash_1M\LIB\TELNET.LIB}, BANK2 {F:\122_Wo
>> rkingOn_090619\130128a_三旺_fullsource\3Onedata_Net-UART144.3\Project\WebCtrl_flash_1M\LIB\UDP_TEL.LIB}, BANK5 {.\obj
>> \net_cmd.obj}, BANK2 {.\obj\smtp.obj}, BANK2 {.\obj\base64.obj}, BANK2 {.\obj\cram_md5.obj}, BANK2 {.\obj\snmp_trap.o
>> bj} TO .\obj\NetUART BANKAREA (0X5000, 0XFF00) PRINT (.\NetUART.m51) RAMSIZE (256) NOOVERLAY, BANK0 (?CO?HTMFILES0 (0
>> X5000), ?CO?FIRMWARE_REV (0X6000)) BANK1 (?CO?HTMFILES1 (0X5000)) BANK2 (?CO?HTMFILES2 (0X5000)) BANK3 (?CO?HTMFILES3
>>  (0X5000)) BANK4 (?CO?HTMFILES4 (0X5000)) BANK5 (?CO?HTMFILES5 (0X5000)) BANK6 (?CO?HTMFILES6 (0X5000)) BANK7 (?CO?HT
>> MFILES7 (0X5000)) BANK8 (?CO?HTMFILES8 (0X5000)) BANK9 (?CO?HTMFILES9 (0X5000)) BANK10 (?CO?HTMFILES10 (0X5000)) BANK
>> 11 (?CO?HTMFILES11 (0X5000)) BANK12 (?CO?HTMFILES12 (0X5000)) BANK13 (?CO?HTMFILES13 (0X5000)) BANK14 (?CO?HTMFILES14
>>  (0X5000)) BANK15 (?CO?HTMFILES15 (0X5000)) CODE (0X0000-0X4FFF) XDATA (0X0000-0X3AFF)


MEMORY MODEL: LARGE


INPUT MODULES INCLUDED:
  .\obj\main.obj (MAIN)
  .\obj\patch_info.obj (PATCH_INFO)
  .\obj\ee_process.obj (EE_PROCESS)
  .\obj\firmware_rev.obj (FIRMWARE_REV)
  .\obj\L51_BANK.obj (?BANK?SWITCHING)
  .\obj\STARTUP.obj (?C_STARTUP)
  .\obj\ee_default.obj (EE_DEFAULT)
  .\obj\dma.obj (DMA)
  .\obj\eeprom.obj (EEPROM)
  .\obj\serial.obj (SERIAL)
  .\obj\MACdriver.obj (MACDRIVER)
  .\obj\timer.obj (TIMER)
  .\obj\uart.obj (UART)
  .\obj\MDC_MDIO.obj (MDC_MDIO)
  .\obj\os_cbk.obj (OS_CBK)
  .\obj\vtag.obj (VTAG)
  .\obj\fs16.obj (FS16)
  .\obj\htmfiles0.obj (HTMFILES0)
  .\obj\htmfiles1.obj (HTMFILES1)
  .\obj\htmfiles2.obj (HTMFILES2)
  .\obj\htmfiles3.obj (HTMFILES3)
  .\obj\htmfiles4.obj (HTMFILES4)
  .\obj\htmfiles5.obj (HTMFILES5)
  .\obj\htmfiles6.obj (HTMFILES6)
  .\obj\htmfiles7.obj (HTMFILES7)
BL51 BANKED LINKER/LOCATER V5.03                                                      01/30/2013  19:55:46  PAGE 2


  .\obj\htmfiles8.obj (HTMFILES8)
  .\obj\htmfiles9.obj (HTMFILES9)
  .\obj\htmfiles10.obj (HTMFILES10)
  .\obj\htmfiles11.obj (HTMFILES11)
  .\obj\htmfiles12.obj (HTMFILES12)
  .\obj\htmfiles13.obj (HTMFILES13)
  .\obj\htmfiles14.obj (HTMFILES14)
  .\obj\htmfiles15.obj (HTMFILES15)
  .\obj\uip.obj (UIP)
  .\obj\uip_arp.obj (UIP_ARP)
  .\obj\muip.obj (MUIP)
  .\obj\cgi.obj (CGI)
  .\obj\cgiutil.obj (CGIUTIL)
  .\obj\challenge.obj (CHALLENGE)
  .\obj\cookie.obj (COOKIE)
  .\obj\httpd.obj (HTTPD)
  .\obj\application.obj (APPLICATION)
  .\obj\httpd_app.obj (HTTPD_APP)
  .\obj\checksum.obj (CHECKSUM)
  .\obj\loginCbk.obj (LOGINCBK)
  .\obj\errormsgCbk.obj (ERRORMSGCBK)
  .\obj\uartCbk.obj (UARTCBK)
  .\obj\telnetCbk.obj (TELNETCBK)
  .\obj\setDefCbk.obj (SETDEFCBK)
  .\obj\setIPCbk.obj (SETIPCBK)
  .\obj\setPASSCbk.obj (SETPASSCBK)
  .\obj\statusCbk.obj (STATUSCBK)
  .\obj\smtpCbk.obj (SMTPCBK)
  .\obj\fw_upCbk.obj (FW_UPCBK)
  .\obj\adcCbk.obj (ADCCBK)
  .\obj\udp_telCbk.obj (UDP_TELCBK)
  .\obj\didoCbk.obj (DIDOCBK)
  .\obj\CommandLine.obj (COMMANDLINE)
  .\obj\utility.obj (UTILITY)
  .\obj\udp.obj (UDP)
  .\obj\dhcpc.obj (DHCPC)
  .\obj\gpio.obj (GPIO)
  .\obj\dns.obj (DNS)
  .\obj\wdg.obj (WDG)
  .\obj\netuart_ctrl.obj (NETUART_CTRL)
  .\obj\dido.obj (DIDO)
  F:\122_WorkingOn_090619\130128a_三旺_fullsource\3Onedata_Net-UART144.3\Project\WebCtrl_flash_1M\LIB\NETUART.LIB (NET_U
>> ART)
  F:\122_WorkingOn_090619\130128a_三旺_fullsource\3Onedata_Net-UART144.3\Project\WebCtrl_flash_1M\LIB\TELNET.LIB (TELNET
>> )
  F:\122_WorkingOn_090619\130128a_三旺_fullsource\3Onedata_Net-UART144.3\Project\WebCtrl_flash_1M\LIB\UDP_TEL.LIB (UDP_T
>> EL)
  .\obj\net_cmd.obj (NET_CMD)
  .\obj\smtp.obj (SMTP)
  .\obj\base64.obj (BASE64)
  .\obj\cram_md5.obj (CRAM_MD5)
  .\obj\snmp_trap.obj (SNMP_TRAP)
  C:\KEIL\C51\LIB\C51L.LIB (?C_INIT)
  C:\KEIL\C51\LIB\C51L.LIB (?C?COPY)
  C:\KEIL\C51\LIB\C51L.LIB (?C?CLDPTR)
  C:\KEIL\C51\LIB\C51L.LIB (?C?CLDOPTR)
  C:\KEIL\C51\LIB\C51L.LIB (?C?CLDIOPTR)
BL51 BANKED LINKER/LOCATER V5.03                                                      01/30/2013  19:55:46  PAGE 3


  C:\KEIL\C51\LIB\C51L.LIB (?C?CILDPTR)
  C:\KEIL\C51\LIB\C51L.LIB (?C?CILDOPTR)
  C:\KEIL\C51\LIB\C51L.LIB (?C?CSTPTR)
  C:\KEIL\C51\LIB\C51L.LIB (?C?CSTOPTR)
  C:\KEIL\C51\LIB\C51L.LIB (?C?IMUL)
  C:\KEIL\C51\LIB\C51L.LIB (?C?UIDIV)
  C:\KEIL\C51\LIB\C51L.LIB (?C?SIDIV)
  C:\KEIL\C51\LIB\C51L.LIB (?C?IILDX)
  C:\KEIL\C51\LIB\C51L.LIB (?C?ILDIX)
  C:\KEIL\C51\LIB\C51L.LIB (?C?ILDPTR)
  C:\KEIL\C51\LIB\C51L.LIB (?C?ILDOPTR)
  C:\KEIL\C51\LIB\C51L.LIB (?C?IILDPTR)
  C:\KEIL\C51\LIB\C51L.LIB (?C?IILDOPTR)
  C:\KEIL\C51\LIB\C51L.LIB (?C?ISTPTR)
  C:\KEIL\C51\LIB\C51L.LIB (?C?ISTOPTR)
  C:\KEIL\C51\LIB\C51L.LIB (?C?LMUL)
  C:\KEIL\C51\LIB\C51L.LIB (?C?ULDIV)
  C:\KEIL\C51\LIB\C51L.LIB (?C?LNOT)
  C:\KEIL\C51\LIB\C51L.LIB (?C?SLCMP)
  C:\KEIL\C51\LIB\C51L.LIB (?C?ULCMP)
  C:\KEIL\C51\LIB\C51L.LIB (?C?ULSHR)
  C:\KEIL\C51\LIB\C51L.LIB (?C?LSHL)
  C:\KEIL\C51\LIB\C51L.LIB (?C?LLDPTR)
  C:\KEIL\C51\LIB\C51L.LIB (?C?LLDOPTR)
  C:\KEIL\C51\LIB\C51L.LIB (?C?LSTPTR)
  C:\KEIL\C51\LIB\C51L.LIB (?C?LSTOPTR)
  C:\KEIL\C51\LIB\C51L.LIB (?C?LLDPTR0)
  C:\KEIL\C51\LIB\C51L.LIB (?C?LLDIXDATA)
  C:\KEIL\C51\LIB\C51L.LIB (?C?LSTXDATA)
  C:\KEIL\C51\LIB\C51L.LIB (?C?LSTKXDATA)
  C:\KEIL\C51\LIB\C51L.LIB (?C?LSTKOPTR)
  C:\KEIL\C51\LIB\C51L.LIB (?C?OFFX256)
  C:\KEIL\C51\LIB\C51L.LIB (?C?OFFXADD)
  C:\KEIL\C51\LIB\C51L.LIB (?C?PLDPTR)
  C:\KEIL\C51\LIB\C51L.LIB (?C?PSTPTR)
  C:\KEIL\C51\LIB\C51L.LIB (?C?PLDOPTR)
  C:\KEIL\C51\LIB\C51L.LIB (?C?PSTOPTR)
  C:\KEIL\C51\LIB\C51L.LIB (?C?CCASE)
  C:\KEIL\C51\LIB\C51L.LIB (?C?ICASE)
  C:\KEIL\C51\LIB\C51L.LIB (?C?ICALL)
  C:\KEIL\C51\LIB\C51L.LIB (PRINTF)
  C:\KEIL\C51\LIB\C51L.LIB (RAND)
  C:\KEIL\C51\LIB\C51L.LIB (SCANF)
  C:\KEIL\C51\LIB\C51L.LIB (STRCAT)
  C:\KEIL\C51\LIB\C51L.LIB (?C?STRCMP)
  C:\KEIL\C51\LIB\C51L.LIB (STRNCMP)
  C:\KEIL\C51\LIB\C51L.LIB (?C?STRCPY)
  C:\KEIL\C51\LIB\C51L.LIB (STRLEN)
  C:\KEIL\C51\LIB\C51L.LIB (STRCHR)
  C:\KEIL\C51\LIB\C51L.LIB (STRCSPN)
  C:\KEIL\C51\LIB\C51L.LIB (ATOL)
  C:\KEIL\C51\LIB\C51L.LIB (ATOI)
  C:\KEIL\C51\LIB\C51L.LIB (?C?MEMCMP)
  C:\KEIL\C51\LIB\C51L.LIB (?C?MEMSET)
  C:\KEIL\C51\LIB\C51L.LIB (?C?LNEG)
  C:\KEIL\C51\LIB\C51L.LIB (?C?LLDIDATA)
  C:\KEIL\C51\LIB\C51L.LIB (?C?LLDXDATA)
BL51 BANKED LINKER/LOCATER V5.03                                                      01/30/2013  19:55:46  PAGE 4


  C:\KEIL\C51\LIB\C51L.LIB (?C?LLDPDATA)
  C:\KEIL\C51\LIB\C51L.LIB (?C?LLDCODE)
  C:\KEIL\C51\LIB\C51L.LIB (?C?LLDIDATA0)
  C:\KEIL\C51\LIB\C51L.LIB (?C?LLDXDATA0)
  C:\KEIL\C51\LIB\C51L.LIB (?C?LLDPDATA0)
  C:\KEIL\C51\LIB\C51L.LIB (?C?LLDCODE0)
  C:\KEIL\C51\LIB\C51L.LIB (?C?LSTIDATA)
  C:\KEIL\C51\LIB\C51L.LIB (?C?LSTPDATA)
  C:\KEIL\C51\LIB\C51L.LIB (?C?LSTKIDATA)
  C:\KEIL\C51\LIB\C51L.LIB (?C?LSTKPDATA)
  C:\KEIL\C51\LIB\C51L.LIB (?C?PLDIDATA)
  C:\KEIL\C51\LIB\C51L.LIB (?C?PSTIDATA)
  C:\KEIL\C51\LIB\C51L.LIB (?C?PLDXDATA)
  C:\KEIL\C51\LIB\C51L.LIB (?C?PLDIXDATA)
  C:\KEIL\C51\LIB\C51L.LIB (?C?PILDXDATA)
  C:\KEIL\C51\LIB\C51L.LIB (?C?PSTXDATA)
  C:\KEIL\C51\LIB\C51L.LIB (?C?PLDPDATA)
  C:\KEIL\C51\LIB\C51L.LIB (?C?PSTPDATA)
  C:\KEIL\C51\LIB\C51L.LIB (?C?PLDCODE)
  C:\KEIL\C51\LIB\C51L.LIB (PUTCHAR)
  C:\KEIL\C51\LIB\C51L.LIB (GETCHAR)
  C:\KEIL\C51\LIB\C51L.LIB (UNGETC)
  C:\KEIL\C51\LIB\C51L.LIB (ISDIGIT)
  C:\KEIL\C51\LIB\C51L.LIB (ISSPACE)
  C:\KEIL\C51\LIB\C51L.LIB (_GETKEY)


LINK MAP OF MODULE:  .\obj\NetUART (MAIN)


            TYPE    BASE      LENGTH    RELOCATION   SEGMENT NAME
            -----------------------------------------------------

            * * * * * * *   D A T A   M E M O R Y   * * * * * * *
            REG     0000H     0008H     ABSOLUTE     "REG BANK 0"
            DATA    0008H     0018H     ABSOLUTE     
            BIT     0020H.0   0005H.0   ABSOLUTE     
            BIT     0025H.0   0001H.1   UNIT         ?BI?PRINTF?PRINTF
            BIT     0026H.1   0000H.6   UNIT         ?BI?SCANF?SCANF
            BIT     0026H.7   0000H.1   UNIT         ?BI?_ATOL?ATOL
            BIT     0027H.0   0000H.1   UNIT         ?BI?_ATOI?ATOI
            BIT     0027H.1   0000H.1   UNIT         ?BI?GETCHAR
                    0027H.2   0000H.6                *** GAP ***
            DATA    0028H     0005H     UNIT         ?DT?PRINTF?PRINTF
            DATA    002DH     0001H     UNIT         ?BANK?DATA
                    002EH     0002H                  *** GAP ***
            DATA    0030H     0030H     ABSOLUTE     
            DATA    0060H     0005H     UNIT         ?DT?SCANF?SCANF
            IDATA   0065H     0001H     UNIT         ?STACK

            * * * * * * *  X D A T A   M E M O R Y  * * * * * * *
            XDATA   0000H     0D7FH     UNIT         ?XD?HTTPD
            XDATA   0D7FH     0A7FH     UNIT         ?XD?UIP
            XDATA   17FEH     0720H     UNIT         ?XD?EE_PROCESS
            XDATA   1F1EH     0608H     UNIT         ?XD?MUIP
            XDATA   2526H     01FBH     UNIT         ?XD?HTMFILES3
            XDATA   2721H     0188H     UNIT         ?XD?BASE64
BL51 BANKED LINKER/LOCATER V5.03                                                      01/30/2013  19:55:46  PAGE 5


            XDATA   28A9H     0155H     UNIT         ?XD?SMTP
            XDATA   29FEH     0100H     UNIT         ?XD?UIP_ARP
            XDATA   2AFEH     00D7H     UNIT         ?XD?NET_CMD
            XDATA   2BD5H     00A8H     UNIT         ?XD?TELNET
            XDATA   2C7DH     00A5H     UNIT         ?XD?UART
            XDATA   2D22H     0098H     UNIT         ?XD?FS16
            XDATA   2DBAH     0092H     UNIT         ?XD?NET_UART
            XDATA   2E4CH     007DH     UNIT         ?XD?COM_PORT_OPTION?NET_UART
            XDATA   2EC9H     0073H     UNIT         ?XD?_CGI_SMTP?SMTPCBK
            XDATA   2F3CH     0073H     UNIT         ?XD?CRAM_MD5
            XDATA   2FAFH     0067H     UNIT         ?XD?_SSI_SMTP?SMTPCBK
            XDATA   3016H     0067H     UNIT         ?XD?_SMTP_SEND_AUTH_ID_PW?SMTP
            XDATA   307DH     005CH     UNIT         ?XD?SMTP_SEND_MAILBODY?SMTP
            XDATA   30D9H     005AH     UNIT         ?XD?UDP_TEL
            XDATA   3133H     004BH     UNIT         ?XD?COMMAND_SETTING?COMMANDLINE
            XDATA   317EH     0049H     UNIT         ?XD?COMMANDLINE
            XDATA   31C7H     003DH     UNIT         ?XD?NETCMD?NET_CMD
            XDATA   3204H     0033H     UNIT         ?XD?_CGI_LOGIN?LOGINCBK
            XDATA   3237H     0030H     UNIT         ?XD?DIDO_DATA_CONFIG?DIDO
            XDATA   3267H     002EH     UNIT         ?XD?SCANF?SCANF
            XDATA   3295H     0029H     UNIT         ?XD?APPLICATION
            XDATA   32BEH     0029H     UNIT         ?XD?_SSI_UDP_TEL?UDP_TELCBK
            XDATA   32E7H     0029H     UNIT         ?XD?DHCPC
            XDATA   3310H     0028H     UNIT         ?XD?PRINTF?PRINTF
            XDATA   3338H     0024H     UNIT         ?XD?_SSI_SETPASS?SETPASSCBK
            XDATA   335CH     0024H     UNIT         ?XD?_DNS_QUERY?DNS
            XDATA   3380H     001DH     UNIT         ?XD?DHCPCSENDDISCOVER?DHCPC
            XDATA   339DH     001BH     UNIT         ?XD?_DHCPCSENDREQUEST?DHCPC
            XDATA   33B8H     001AH     UNIT         ?XD?COMMAND_INFO?COMMANDLINE
            XDATA   33D2H     001AH     UNIT         ?XD?ONLOGINACCOUNT?NET_CMD
            XDATA   33ECH     0019H     UNIT         ?XD?UDP
            XDATA   3405H     0017H     UNIT         ?XD?DIDO
            XDATA   341CH     0016H     UNIT         ?XD?_VLAN_TAG_PKT?VTAG
            XDATA   3432H     0016H     UNIT         ?XD?_SSI_STATUS?STATUSCBK
            XDATA   3448H     0012H     UNIT         ?XD?COMMAND_TYPE?COMMANDLINE
            XDATA   345AH     0011H     UNIT         ?XD?HTTP_SERVER?HTTPD
            XDATA   346BH     0010H     UNIT         ?XD?_ETHERNETSEND?MACDRIVER
            XDATA   347BH     0010H     UNIT         ?XD?LOGINCBK
            XDATA   348BH     0010H     UNIT         ?XD?NUC_PROCESS_CMD?NETUART_CTRL
            XDATA   349BH     000FH     UNIT         ?XD?KBHIT_EE_LOAD_DEFAULT?MAIN
            XDATA   34AAH     000FH     UNIT         ?XD?_CGISTRCPY?SMTPCBK
            XDATA   34B9H     000FH     UNIT         ?XD?_NUC_SEND?NETUART_CTRL
            XDATA   34C8H     000EH     UNIT         ?XD?UARTCBK
            XDATA   34D6H     000EH     UNIT         ?XD?_CGI_UDP_TEL?UDP_TELCBK
            XDATA   34E4H     000EH     UNIT         ?XD?_CGI_DIDO?DIDOCBK
            XDATA   34F2H     000EH     UNIT         ?XD?_HEX_2_ASC?COMMANDLINE
            XDATA   3500H     000EH     UNIT         ?XD?DIDO_TCP_RX_FUN?DIDO
            XDATA   350EH     000DH     UNIT         ?XD?_ETHERNETRECEIVE?MACDRIVER
            XDATA   351BH     000DH     UNIT         ?XD?_STRFIND?HTTPD_APP
            XDATA   3528H     000DH     UNIT         ?XD?_CRC?NET_CMD
            XDATA   3535H     000CH     UNIT         ?XD?_SAVEMODULEINFO2EEPROM?EE_PROCESS
            XDATA   3541H     000CH     UNIT         ?XD?HTTPD_HEADER_INIT?HTTPD_APP
            XDATA   354DH     000CH     UNIT         ?XD?RE_RORN?COMMANDLINE
            XDATA   3559H     000CH     UNIT         ?XD?CRC_OPERATION?NET_CMD
            XDATA   3565H     000CH     UNIT         ?XD?MPPROCESS?NET_CMD
            XDATA   3571H     000CH     UNIT         ?XD?_B64DEC?BASE64
            XDATA   357DH     000CH     UNIT         ?XD?_CRAM_MD5?CRAM_MD5
BL51 BANKED LINKER/LOCATER V5.03                                                      01/30/2013  19:55:46  PAGE 6


            XDATA   3589H     000BH     UNIT         ?XD?MACDRIVER
            XDATA   3594H     000BH     UNIT         ?XD?_UIP_CONNECT?UIP
            XDATA   359FH     000BH     UNIT         ?XD?_CGI_SETIP?SETIPCBK
            XDATA   35AAH     000BH     UNIT         ?XD?_SSI_DIDO?DIDOCBK
            XDATA   35B5H     000BH     UNIT         ?XD?DNS_UDP_RECEIVE?DNS
            XDATA   35C0H     000BH     UNIT         ?XD?_SENDUARTRX2ETH?TELNET
            XDATA   35CBH     000AH     UNIT         ?XD?WITH_TAG_PAGE?CGIUTIL
            XDATA   35D5H     000AH     UNIT         ?XD?_SSI_SETIP?SETIPCBK
            XDATA   35DFH     000AH     UNIT         ?XD?_CGI_ADC?ADCCBK
            XDATA   35E9H     000AH     UNIT         ?XD?_B64ENC?BASE64
            XDATA   35F3H     0009H     UNIT         ?XD?_IP210_DMA?DMA
            XDATA   35FCH     0009H     UNIT         ?XD?OS_CBK
            XDATA   3605H     0009H     UNIT         ?XD?_FS_OPEN?FS16
            XDATA   360EH     0009H     UNIT         ?XD?_UIP_ARP_UPDATE?UIP_ARP
            XDATA   3617H     0009H     UNIT         ?XD?_STOUI?CGIUTIL
            XDATA   3620H     0009H     UNIT         ?XD?CHALLENGE
            XDATA   3629H     0009H     UNIT         ?XD?COOKIE
            XDATA   3632H     0009H     UNIT         ?XD?_REPLACEDOUBLEQUOTES?SMTPCBK
            XDATA   363BH     0009H     UNIT         ?XD?_UDP_INIT?UDP
            XDATA   3644H     0009H     UNIT         ?XD?DNS
            XDATA   364DH     0009H     UNIT         ?XD?RESENDUARTRX2ETH?TELNET
            XDATA   3656H     0009H     UNIT         ?XD?_SET_BIT?UDP_TEL
            XDATA   365FH     0009H     UNIT         ?XD?_STRCAT?STRCAT
            XDATA   3668H     0009H     UNIT         ?XD?_STRCSPN?STRCSPN
            XDATA   3671H     0008H     UNIT         ?XD?EEPROMLOADDEFAULT?EE_PROCESS
            XDATA   3679H     0008H     UNIT         ?XD?TIMER
            XDATA   3681H     0008H     UNIT         ?XD?FU_CHECK?HTMFILES0
            XDATA   3689H     0008H     UNIT         ?XD?_UITOS?CGIUTIL
            XDATA   3691H     0008H     UNIT         ?XD?HTTPD_PARSE_COOKIE?COOKIE
            XDATA   3699H     0008H     UNIT         ?XD?_CGI_RESET?ERRORMSGCBK
            XDATA   36A1H     0008H     UNIT         ?XD?_CGI_UART?UARTCBK
            XDATA   36A9H     0008H     UNIT         ?XD?_CGI_TELNET?TELNETCBK
            XDATA   36B1H     0008H     UNIT         ?XD?TELNETD?TELNET
            XDATA   36B9H     0008H     UNIT         ?XD?CLEARUARTRXBUF?TELNET
            XDATA   36C1H     0008H     UNIT         ?XD?CLEARUARTRXBUF_PARITYERROR?TELNET
            XDATA   36C9H     0008H     UNIT         ?XD?GENCONNID?NET_CMD
            XDATA   36D1H     0008H     UNIT         ?XD?_SENDLOGINRESULT?NET_CMD
            XDATA   36D9H     0008H     UNIT         ?XD?_STRCAT_MAIL_TO?SMTP
            XDATA   36E1H     0008H     UNIT         ?XD?_B64ENCODE?BASE64
            XDATA   36E9H     0008H     UNIT         ?XD?_B64DECODE?BASE64
            XDATA   36F1H     0008H     UNIT         ?XD?_STRNCMP?STRNCMP
            XDATA   36F9H     0007H     UNIT         ?XD?_CATNETWORKCONFIGMSG?MAIN
            XDATA   3700H     0007H     UNIT         ?XD?_CHECK_PACKET_TYPE?MACDRIVER
            XDATA   3707H     0007H     UNIT         ?XD?_ETHERNETRECEIVELOOKAHEAD?MACDRIVER
            XDATA   370EH     0007H     UNIT         ?XD?APPLICATION?APPLICATION
            XDATA   3715H     0007H     UNIT         ?XD?_CGI_SETPASS?SETPASSCBK
            XDATA   371CH     0007H     UNIT         ?XD?_ASC_TO_HEX?UTILITY
            XDATA   3723H     0007H     UNIT         ?XD?CHECK_RFC2217_SIGNAL?NET_UART
            XDATA   372AH     0007H     UNIT         ?XD?_UDP_TEL_GETIP?UDP_TEL
            XDATA   3731H     0007H     UNIT         ?XD?_MODIFYMAIL?SMTP
            XDATA   3738H     0007H     UNIT         ?XD?_ATOL?ATOL
            XDATA   373FH     0006H     UNIT         ?XD?_FS_OPEN00?HTMFILES0
            XDATA   3745H     0006H     UNIT         ?XD?_FS_OPEN01?HTMFILES1
            XDATA   374BH     0006H     UNIT         ?XD?_FS_OPEN02?HTMFILES2
            XDATA   3751H     0006H     UNIT         ?XD?_FS_OPEN03?HTMFILES3
            XDATA   3757H     0006H     UNIT         ?XD?_FS_OPEN04?HTMFILES4
            XDATA   375DH     0006H     UNIT         ?XD?_FS_OPEN05?HTMFILES5
BL51 BANKED LINKER/LOCATER V5.03                                                      01/30/2013  19:55:46  PAGE 7


            XDATA   3763H     0006H     UNIT         ?XD?_FS_OPEN06?HTMFILES6
            XDATA   3769H     0006H     UNIT         ?XD?_FS_OPEN07?HTMFILES7
            XDATA   376FH     0006H     UNIT         ?XD?_FS_OPEN08?HTMFILES8
            XDATA   3775H     0006H     UNIT         ?XD?_FS_OPEN09?HTMFILES9
            XDATA   377BH     0006H     UNIT         ?XD?_FS_OPEN10?HTMFILES10
            XDATA   3781H     0006H     UNIT         ?XD?_FS_OPEN11?HTMFILES11
            XDATA   3787H     0006H     UNIT         ?XD?_FS_OPEN12?HTMFILES12
            XDATA   378DH     0006H     UNIT         ?XD?_FS_OPEN13?HTMFILES13
            XDATA   3793H     0006H     UNIT         ?XD?_FS_OPEN14?HTMFILES14
            XDATA   3799H     0006H     UNIT         ?XD?_FS_OPEN15?HTMFILES15
            XDATA   379FH     0006H     UNIT         ?XD?MUIP_SEND?MUIP
            XDATA   37A5H     0006H     UNIT         ?XD?CGIUTIL
            XDATA   37ABH     0006H     UNIT         ?XD?_FINDCOOKIE?HTTPD_APP
            XDATA   37B1H     0006H     UNIT         ?XD?_SSI_LOGIN?LOGINCBK
            XDATA   37B7H     0006H     UNIT         ?XD?_CGI_STATUS?STATUSCBK
            XDATA   37BDH     0006H     UNIT         ?XD?DHCPCCHECKINFO?DHCPC
            XDATA   37C3H     0006H     UNIT         ?XD?UDP_TEL_UPDATA_IP_AVAL?UDP_TEL
            XDATA   37C9H     0006H     UNIT         ?XD?UDP_TEL_RX?UDP_TEL
            XDATA   37CFH     0006H     UNIT         ?XD?SEARCHEMPTYCONNTABLE?NET_CMD
            XDATA   37D5H     0006H     UNIT         ?XD?EEP_READ_REQ?NET_CMD
            XDATA   37DBH     0006H     UNIT         ?XD?EEP_WRITE_REQ?NET_CMD
            XDATA   37E1H     0006H     UNIT         ?XD?UDP_NET_CMD?NET_CMD
            XDATA   37E7H     0006H     UNIT         ?XD?_CRAM_MD5_ENCODE?CRAM_MD5
            XDATA   37EDH     0006H     UNIT         ?XD?_CRAM_MD5_DECODE?CRAM_MD5
            XDATA   37F3H     0005H     UNIT         ?XD?LOADEEPROM2MODULEINFO?EE_PROCESS
            XDATA   37F8H     0005H     UNIT         ?XD?LOADEEPROM2EECONFIG?EE_PROCESS
            XDATA   37FDH     0005H     UNIT         ?XD?_UART_TRANSMIT_MULTI?UART
            XDATA   3802H     0005H     UNIT         ?XD?VTAG
            XDATA   3807H     0005H     UNIT         ?XD?NETUART_CTRL
            XDATA   380CH     0005H     UNIT         ?XD?TELNET_CONNECT?TELNET
            XDATA   3811H     0005H     UNIT         ?XD?UDP_TEL_SEND_ONE_PKT?UDP_TEL
            XDATA   3816H     0005H     UNIT         ?XD?UDP_GET_DNS?UDP_TEL
            XDATA   381BH     0005H     UNIT         ?XD?_ATOI?ATOI
            XDATA   3820H     0004H     UNIT         ?XD?_UIP_PROCESS?UIP
            XDATA   3824H     0004H     UNIT         ?XD?FIBER_COVER2?APPLICATION
            XDATA   3828H     0004H     UNIT         ?XD?UIP_UDPCHKSUM?CHECKSUM
            XDATA   382CH     0004H     UNIT         ?XD?UIP_TCPCHKSUM?CHECKSUM
            XDATA   3830H     0004H     UNIT         ?XD?_SSI_UART?UARTCBK
            XDATA   3834H     0004H     UNIT         ?XD?_CGI_SETDEF?SETDEFCBK
            XDATA   3838H     0004H     UNIT         ?XD?_CGI_FW_UP?FW_UPCBK
            XDATA   383CH     0004H     UNIT         ?XD?_CGI_FU_UP?FW_UPCBK
            XDATA   3840H     0004H     UNIT         ?XD?_DHCPCFOUNDTAG?DHCPC
            XDATA   3844H     0004H     UNIT         ?XD?_DNS_RESULT?DNS
            XDATA   3848H     0004H     UNIT         ?XD?WRITEETHRX2UART?TELNET
            XDATA   384CH     0004H     UNIT         ?XD?RESENDUARTRX2UART?TELNET
            XDATA   3850H     0004H     UNIT         ?XD?ONCHANNELREQUEST?NET_CMD
            XDATA   3854H     0004H     UNIT         ?XD?SMTP?SMTP
            XDATA   3858H     0004H     UNIT         ?XD?RAND?RAND
            XDATA   385CH     0003H     UNIT         ?XD?MAIN
            XDATA   385FH     0003H     UNIT         ?XD?_SETUP_BLUPGRADE?EE_PROCESS
            XDATA   3862H     0003H     UNIT         ?XD?_EEPROM_READ_BYTE?EEPROM
            XDATA   3865H     0003H     UNIT         ?XD?_ETHERNETSEND2?MACDRIVER
            XDATA   3868H     0003H     UNIT         ?XD?_UART_RECEIVE_MULTI?UART
            XDATA   386BH     0003H     UNIT         ?XD?_DATACPY00?HTMFILES0
            XDATA   386EH     0003H     UNIT         ?XD?_DATACPY01?HTMFILES1
            XDATA   3871H     0003H     UNIT         ?XD?_DATACPY02?HTMFILES2
            XDATA   3874H     0003H     UNIT         ?XD?_DATACPY03?HTMFILES3
BL51 BANKED LINKER/LOCATER V5.03                                                      01/30/2013  19:55:46  PAGE 8


            XDATA   3877H     0003H     UNIT         ?XD?_DATACPY04?HTMFILES4
            XDATA   387AH     0003H     UNIT         ?XD?_DATACPY05?HTMFILES5
            XDATA   387DH     0003H     UNIT         ?XD?_DATACPY06?HTMFILES6
            XDATA   3880H     0003H     UNIT         ?XD?_DATACPY07?HTMFILES7
            XDATA   3883H     0003H     UNIT         ?XD?_DATACPY08?HTMFILES8
            XDATA   3886H     0003H     UNIT         ?XD?_DATACPY09?HTMFILES9
            XDATA   3889H     0003H     UNIT         ?XD?_DATACPY10?HTMFILES10
            XDATA   388CH     0003H     UNIT         ?XD?_DATACPY11?HTMFILES11
            XDATA   388FH     0003H     UNIT         ?XD?_DATACPY12?HTMFILES12
            XDATA   3892H     0003H     UNIT         ?XD?_DATACPY13?HTMFILES13
            XDATA   3895H     0003H     UNIT         ?XD?_DATACPY14?HTMFILES14
            XDATA   3898H     0003H     UNIT         ?XD?_DATACPY15?HTMFILES15
            XDATA   389BH     0003H     UNIT         ?XD?_UIP_LOG?UIP
            XDATA   389EH     0003H     UNIT         ?XD?UIP_ARP_OUT?UIP_ARP
            XDATA   38A1H     0003H     UNIT         ?XD?_HTTPD_CHECK_COOKIE?HTTPD
            XDATA   38A4H     0003H     UNIT         ?XD?_HTTPD_INIT_FILE?HTTPD_APP
            XDATA   38A7H     0003H     UNIT         ?XD?_SSI_ERRORMSG?ERRORMSGCBK
            XDATA   38AAH     0003H     UNIT         ?XD?_SSI_TELNET?TELNETCBK
            XDATA   38ADH     0003H     UNIT         ?XD?_SSI_ADC?ADCCBK
            XDATA   38B0H     0003H     UNIT         ?XD?_UP2LWR?COMMANDLINE
            XDATA   38B3H     0003H     UNIT         ?XD?_UDP_SET_BUF?UDP
            XDATA   38B6H     0003H     UNIT         ?XD?DHCPCCLTPKTINIT?DHCPC
            XDATA   38B9H     0003H     UNIT         ?XD?DHCPC_UDP_RECEIVE?DHCPC
            XDATA   38BCH     0003H     UNIT         ?XD?_NUC_CHK_PW?NETUART_CTRL
            XDATA   38BFH     0003H     UNIT         ?XD?TELNET_RFC?NET_UART
            XDATA   38C2H     0003H     UNIT         ?XD?TELNET_CONNECTED_INIT?TELNET
            XDATA   38C5H     0003H     UNIT         ?XD?NEW_BLOCK_INIT?UDP_TEL
            XDATA   38C8H     0003H     UNIT         ?XD?_FINDSA?NET_CMD
            XDATA   38CBH     0003H     UNIT         ?XD?_SENDLOGINMD5KEY?NET_CMD
            XDATA   38CEH     0003H     UNIT         ?XD?_B64ENCODE_ALLOC?BASE64
            XDATA   38D1H     0003H     UNIT         ?XD?_B64DECODE_ALLOC?BASE64
            XDATA   38D4H     0002H     UNIT         ?XD?EEPROMCHECKDATAAVAILABLE?EE_PROCESS
            XDATA   38D6H     0002H     UNIT         ?XD?_FILL_DMA_SETTING?DMA
            XDATA   38D8H     0002H     UNIT         ?XD?ETHERNETRECEIVESKIP?MACDRIVER
            XDATA   38DAH     0002H     UNIT         ?XD?_UIP_ADD32?MACDRIVER
            XDATA   38DCH     0002H     UNIT         ?XD?MDC_MDIO
            XDATA   38DEH     0002H     UNIT         ?XD?HTTPD_SET_COOKIE?COOKIE
            XDATA   38E0H     0002H     UNIT         ?XD?QUERYSTR_FUNC?HTTPD_APP
            XDATA   38E2H     0002H     UNIT         ?XD?_HTTPD_COPY_DATA?HTTPD_APP
            XDATA   38E4H     0002H     UNIT         ?XD?_UIP_CHKSUM?CHECKSUM
            XDATA   38E6H     0002H     UNIT         ?XD?ADC_CONVERT?ADCCBK
            XDATA   38E8H     0002H     UNIT         ?XD?ADCCBK
            XDATA   38EAH     0002H     UNIT         ?XD?_UDP_SEND?UDP
            XDATA   38ECH     0002H     UNIT         ?XD?WDG
            XDATA   38EEH     0002H     UNIT         ?XD?READETH2UARTTXBUF?TELNET
            XDATA   38F0H     0002H     UNIT         ?XD?UART_AUTO_SEND?TELNET
            XDATA   38F2H     0002H     UNIT         ?XD?LOCALCMD?NET_CMD
            XDATA   38F4H     0002H     UNIT         ?XD?ONLOGINREQUEST?NET_CMD
            XDATA   38F6H     0002H     UNIT         ?XD?ONGPIOREQUEST?NET_CMD
            XDATA   38F8H     0002H     UNIT         ?XD?SMTP_CHK_MAILTOTOTAL?SMTP
            XDATA   38FAH     0001H     UNIT         ?XD?MAIN?MAIN
            XDATA   38FBH     0001H     UNIT         ?XD?UART_EMPTY_RX_FIFO?UART
            XDATA   38FCH     0001H     UNIT         ?XD?_WRITE_MDC?MDC_MDIO
            XDATA   38FDH     0001H     UNIT         ?XD?CHECK_SPEED?OS_CBK
            XDATA   38FEH     0001H     UNIT         ?XD?CHECKSUM
            XDATA   38FFH     0001H     UNIT         ?XD?ERRORMSGCBK
            XDATA   3900H     0001H     UNIT         ?XD?SETIPCBK
BL51 BANKED LINKER/LOCATER V5.03                                                      01/30/2013  19:55:46  PAGE 9


            XDATA   3901H     0001H     UNIT         ?XD?NUC_ON_TCP_RX?NETUART_CTRL
            XDATA   3902H     0001H     UNIT         ?XD?DIDO_INIT?DIDO
            XDATA   3903H     0001H     UNIT         ?XD?_IP210_ISR_CTRL?TELNET
            XDATA   3904H     0001H     UNIT         ?XD?_GET_BIT?UDP_TEL
            XDATA   3905H     0001H     UNIT         ?XD?UDP_TEL_INIT?UDP_TEL
            XDATA   3906H     0001H     UNIT         ?XD?CHECKCONNID?NET_CMD
            XDATA   3907H     0001H     UNIT         ?XD?LOCALCMDTXPREFIX?NET_CMD
            XDATA   3908H     0001H     UNIT         ?XD?AGINGNETCMDCONNTABLE?NET_CMD
            XDATA   3909H     0001H     UNIT         ?XD?GETCHAR

            * * * * * * *   C O D E   M E M O R Y   * * * * * * *
            CODE    0000H     0003H     ABSOLUTE     
            CODE    0003H     0003H     ABSOLUTE     
            CODE    0006H     0002H     UNIT         ?CO?CGIUTIL
            CODE    0008H     0001H     UNIT         ?CO?CRAM_MD5
                    0009H     0002H                  *** GAP ***
            CODE    000BH     0003H     ABSOLUTE     
            CODE    000EH     0041H     UNIT         ?PR?RAND?RAND
                    004FH     0001H                  *** GAP ***
            CODE    0050H     0068H     ABSOLUTE     
            CODE    00B8H     0DB8H     UNIT         ?C?LIB_CODE
            CODE    0E70H     0781H     UNIT         ?CO?EE_DEFAULT
            CODE    15F1H     06B6H     UNIT         ?C_INITSEG
            CODE    1CA7H     0322H     UNIT         ?PR?SCANF?SCANF
            CODE    1FC9H     0037H     UNIT         ?CO?LOGINCBK
            CODE    2000H     068EH     PAGE         ?BANK?SWITCH
            CODE    268EH     03DBH     UNIT         ?CO?COMMANDLINE
            CODE    2A69H     0365H     UNIT         ?PR?PRINTF?PRINTF
            CODE    2DCEH     017BH     UNIT         ?CO?MAIN
            CODE    2F49H     0118H     UNIT         ?CO?HTTPD_APP
            CODE    3061H     0115H     UNIT         ?CO?SMTP
            CODE    3176H     0113H     UNIT         ?C_C51STARTUP
            CODE    3289H     010CH     UNIT         ?PR?_ATOL?ATOL
            CODE    3395H     00E2H     UNIT         ?CO?ERRORMSGCBK
            CODE    3477H     00DBH     UNIT         ?PR?_ATOI?ATOI
            CODE    3552H     00BDH     UNIT         ?CO?HTTPD
            CODE    360FH     00BCH     UNIT         ?CO?DIDO
            CODE    36CBH     00B8H     UNIT         ?CO?UARTCBK
            CODE    3783H     00B8H     UNIT         ?CO?TELNETCBK
            CODE    383BH     00B1H     UNIT         ?CO?SMTPCBK
            CODE    38ECH     0087H     UNIT         ?CO?UDP_TELCBK
            CODE    3973H     0081H     UNIT         ?PR?_STRCSPN?STRCSPN
            CODE    39F4H     0076H     UNIT         ?PR?_STRNCMP?STRNCMP
            CODE    3A6AH     006EH     UNIT         ?CO?SETIPCBK
            CODE    3AD8H     006BH     UNIT         ?PR?_STRCAT?STRCAT
            CODE    3B43H     0052H     UNIT         ?CO?DIDOCBK
            CODE    3B95H     004AH     UNIT         ?CO?NET_CMD
            CODE    3BDFH     0046H     UNIT         ?CO?APPLICATION
            CODE    3C25H     003FH     UNIT         ?CO?DHCPC
            CODE    3C64H     0033H     UNIT         ?CO?STATUSCBK
            CODE    3C97H     002BH     UNIT         ?CO?OS_CBK
            CODE    3CC2H     0029H     UNIT         ?BANK?SELECT
            CODE    3CEBH     0027H     UNIT         ?PR?PUTCHAR?PUTCHAR
            CODE    3D12H     0026H     UNIT         ?CO?MACDRIVER
            CODE    3D38H     0026H     UNIT         ?CO?SETPASSCBK
            CODE    3D5EH     0026H     UNIT         ?CO?TELNET
            CODE    3D84H     001CH     UNIT         ?PR?_STRCHR?STRCHR
BL51 BANKED LINKER/LOCATER V5.03                                                      01/30/2013  19:55:46  PAGE 10


            CODE    3DA0H     0019H     UNIT         ?CO?ADCCBK
            CODE    3DB9H     0018H     UNIT         ?CO?NET_UART
            CODE    3DD1H     0015H     UNIT         ?PR?_STRLEN?STRLEN
            CODE    3DE6H     0014H     UNIT         ?CO?EE_PROCESS
            CODE    3DFAH     0014H     UNIT         ?PR?GETCHAR?GETCHAR
            CODE    3E0EH     0014H     UNIT         ?PR?_ISSPACE?ISSPACE
            CODE    3E22H     0013H     UNIT         ?CO?SETDEFCBK
            CODE    3E35H     0010H     UNIT         ?CO?VTAG
            CODE    3E45H     0010H     UNIT         ?CO?DNS
            CODE    3E55H     000FH     UNIT         ?CO?FW_UPCBK
            CODE    3E64H     000FH     UNIT         ?PR?_ISDIGIT?ISDIGIT
            CODE    3E73H     000DH     UNIT         ?CO?COOKIE
            CODE    3E80H     000AH     UNIT         ?CO?NETUART_CTRL
            CODE    3E8AH     000AH     UNIT         ?PR?_GETKEY?_GETKEY
            CODE    3E94H     0008H     UNIT         ?CO?UDP_TEL
            CODE    3E9CH     0008H     UNIT         ?PR?GETCHAR?UNGETCHAR
                    3EA4H     C13CH                  *** GAP ***
            CODE    FFE0H     001BH     ABSOLUTE     
                    FFFBH     0002H                  *** GAP ***
            CODE    FFFDH     0003H     ABSOLUTE     

            * * * * * * *   C O D E   B A N K   0   * * * * * * *
                    0000H     5000H                  *** GAP ***
            BANK0   5000H     0077H     UNIT         ?CO?HTMFILES0
            BANK0   5077H     0178H     UNIT         ?PR?_FS_OPEN00?HTMFILES0
            BANK0   51EFH     00FBH     UNIT         ?PR?FU_CHECK?HTMFILES0
            BANK0   52EAH     0048H     UNIT         ?PR?_DATACPY00?HTMFILES0
            BANK0   5332H     0022H     UNIT         ?PR?_GET_TAG00?HTMFILES0
                    5354H     0CACH                  *** GAP ***
            BANK0   6000H     7FE0H     UNIT         ?CO?FIRMWARE_REV

            * * * * * * *   C O D E   B A N K   1   * * * * * * *
                    0000H     5000H                  *** GAP ***
            BANK1   5000H     000FH     UNIT         ?CO?HTMFILES1
            BANK1   500FH     1A90H     UNIT         ?PR?_UIP_PROCESS?UIP
            BANK1   6A9FH     0D4DH     UNIT         ?PR?HTTP_SERVER?HTTPD
            BANK1   77ECH     0737H     UNIT         ?PR?WITH_TAG_PAGE?CGIUTIL
            BANK1   7F23H     03CEH     UNIT         ?PR?_CGI_DIDO?DIDOCBK
            BANK1   82F1H     0375H     UNIT         ?PR?APPLICATION?APPLICATION
            BANK1   8666H     0374H     UNIT         ?PR?_ETHERNETSEND?MACDRIVER
            BANK1   89DAH     036EH     UNIT         ?PR?_CGI_SETIP?SETIPCBK
            BANK1   8D48H     0361H     UNIT         ?PR?_CATNETWORKCONFIGMSG?MAIN
            BANK1   90A9H     0317H     UNIT         ?PR?_CGI_SETPASS?SETPASSCBK
            BANK1   93C0H     0307H     UNIT         ?PR?_CGI_LOGIN?LOGINCBK
            BANK1   96C7H     02A1H     UNIT         ?PR?MUIP_SEND?MUIP
            BANK1   9968H     027DH     UNIT         ?PR?_SSI_ERRORMSG?ERRORMSGCBK
            BANK1   9BE5H     0249H     UNIT         ?PR?_CGI_SMTP?SMTPCBK
            BANK1   9E2EH     0242H     UNIT         ?PR?_SSI_SETIP?SETIPCBK
            BANK1   A070H     0241H     UNIT         ?PR?MUIP_PROCESS?MUIP
            BANK1   A2B1H     0232H     UNIT         ?PR?_SSI_DIDO?DIDOCBK
            BANK1   A4E3H     0228H     UNIT         ?PR?_UIP_CONNECT?UIP
            BANK1   A70BH     0211H     UNIT         ?PR?_ETHERNETRECEIVE?MACDRIVER
            BANK1   A91CH     020BH     UNIT         ?PR?HTTPD_HEADER_INIT?HTTPD_APP
            BANK1   AB27H     01FEH     UNIT         ?PR?_SSI_SMTP?SMTPCBK
            BANK1   AD25H     01DEH     UNIT         ?PR?_FINDCOOKIE?HTTPD_APP
            BANK1   AF03H     01A3H     UNIT         ?PR?HTTPD_DATA_PROCESSING?CGI
            BANK1   B0A6H     019BH     UNIT         ?PR?_CGISTRCPY?SMTPCBK
BL51 BANKED LINKER/LOCATER V5.03                                                      01/30/2013  19:55:46  PAGE 11


            BANK1   B241H     0178H     UNIT         ?PR?_FS_OPEN01?HTMFILES1
            BANK1   B3B9H     0177H     UNIT         ?PR?QUERYSTR_FUNC?HTTPD_APP
            BANK1   B530H     015BH     UNIT         ?PR?LAST_TAG_PAGE?CGIUTIL
            BANK1   B68BH     0144H     UNIT         ?PR?_HTTPD_INIT_FILE?HTTPD_APP
            BANK1   B7CFH     0143H     UNIT         ?PR?HTTPD_PARSE_COOKIE?COOKIE
            BANK1   B912H     012EH     UNIT         ?PR?_CHECK_PACKET_TYPE?MACDRIVER
            BANK1   BA40H     0123H     UNIT         ?PR?_REPLACEDOUBLEQUOTES?SMTPCBK
            BANK1   BB63H     0112H     UNIT         ?PR?_STRFIND?HTTPD_APP
            BANK1   BC75H     010BH     UNIT         ?PR?_ASC_TO_HEX?UTILITY
            BANK1   BD80H     00F8H     UNIT         ?PR?NETWORKCONFIG?MAIN
            BANK1   BE78H     00F8H     UNIT         ?PR?NO_TAG_PAGE?CGIUTIL
            BANK1   BF70H     00F4H     UNIT         ?PR?_SSI_STATUS?STATUSCBK
            BANK1   C064H     00F2H     UNIT         ?PR?_UITOS?CGIUTIL
            BANK1   C156H     00F1H     UNIT         ?PR?_CGI_RESET?ERRORMSGCBK
            BANK1   C247H     00EBH     UNIT         ?PR?_CGI_STATUS?STATUSCBK
            BANK1   C332H     00E6H     UNIT         ?PR?EEPROMLOADDEFAULT?EE_PROCESS
            BANK1   C418H     00E6H     UNIT         ?PR?_CGI_FW_UP?FW_UPCBK
            BANK1   C4FEH     00E6H     UNIT         ?PR?_CGI_FU_UP?FW_UPCBK
            BANK1   C5E4H     00E4H     UNIT         ?PR?_FS_OPEN?FS16
            BANK1   C6C8H     00DEH     UNIT         ?PR?KBHIT_EE_LOAD_DEFAULT?MAIN
            BANK1   C7A6H     00CCH     UNIT         ?PR?_SSI_SETPASS?SETPASSCBK
            BANK1   C872H     00C6H     UNIT         ?PR?_IP210_DMA?DMA
            BANK1   C938H     00C6H     UNIT         ?PR?TAG_ADDRESS_BIGGER_MSS?CGIUTIL
            BANK1   C9FEH     00BCH     UNIT         ?PR?ETHERNETRECEIVESKIP?MACDRIVER
            BANK1   CABAH     00B4H     UNIT         ?PR?_ETHERNETRECEIVELOOKAHEAD?MACDRIVER
            BANK1   CB6EH     00B0H     UNIT         ?PR?RE_INIT?VTAG
            BANK1   CC1EH     00AFH     UNIT         ?PR?_HTTPD_CHECK_COOKIE?HTTPD
            BANK1   CCCDH     00ACH     UNIT         ?PR?_VLAN_TAG_PKT?VTAG
            BANK1   CD79H     00AAH     UNIT         ?PR?_SSI_LOGIN?LOGINCBK
            BANK1   CE23H     00A7H     UNIT         ?PR?CHECKPKTSEND?APPLICATION
            BANK1   CECAH     009BH     UNIT         ?PR?_ETHERNETSEND2?MACDRIVER
            BANK1   CF65H     0095H     UNIT         ?PR?UART_SET_PROPERTY?UART
            BANK1   CFFAH     0094H     UNIT         ?PR?_SAVEMODULEINFO2EEPROM?EE_PROCESS
            BANK1   D08EH     008DH     UNIT         ?PR?HTTPD_SET_COOKIE?COOKIE
            BANK1   D11BH     0089H     UNIT         ?PR?_STOUI?CGIUTIL
            BANK1   D1A4H     0085H     UNIT         ?PR?HTTPD_FILE_NOT_FOUND?HTTPD_APP
            BANK1   D229H     0083H     UNIT         ?PR?_UIP_ADD32?MACDRIVER
            BANK1   D2ACH     0075H     UNIT         ?PR?EEPROMINIT?EE_PROCESS
            BANK1   D321H     0075H     UNIT         ?PR?LOADDEFAULT?OS_CBK
            BANK1   D396H     0071H     UNIT         ?PR?CHECK_VLAN_TAG?VTAG
            BANK1   D407H     0065H     UNIT         ?PR?MAIN?MAIN
            BANK1   D46CH     0064H     UNIT         ?PR?_SETUP_BLUPGRADE?EE_PROCESS
            BANK1   D4D0H     005FH     UNIT         ?PR?HTTPD_COPYDATA?HTTPD
            BANK1   D52FH     005EH     UNIT         ?PR?_EEPROM_READ_BYTE?EEPROM
            BANK1   D58DH     005CH     UNIT         ?PR?HTTPD_CHALLENGEERROR?HTTPD_APP
            BANK1   D5E9H     005BH     UNIT         ?PR?_UIP_ADD_RCV_NXT?UIP
            BANK1   D644H     005BH     UNIT         ?PR?_HTTPD_COPY_DATA?HTTPD_APP
            BANK1   D69FH     0059H     UNIT         ?PR?CHECK_SPEED?OS_CBK
            BANK1   D6F8H     0059H     UNIT         ?PR?UIP_INIT?UIP
            BANK1   D751H     0058H     UNIT         ?PR?LOADEEPROM2MODULEINFO?EE_PROCESS
            BANK1   D7A9H     0058H     UNIT         ?PR?LOADEEPROM2EECONFIG?EE_PROCESS
            BANK1   D801H     0058H     UNIT         ?PR?FIBER_COVER2?APPLICATION
            BANK1   D859H     0056H     UNIT         ?PR?EEPROMCHECKDATAAVAILABLE?EE_PROCESS
            BANK1   D8AFH     0056H     UNIT         ?PR?IP210_WRITE_TIMER_COUNTER?TIMER
            BANK1   D905H     004FH     UNIT         ?PR?ETHERNETRECEIVEFREESPACE?MACDRIVER
            BANK1   D954H     004BH     UNIT         ?PR?CHECK_MAC_STATUS?MACDRIVER
            BANK1   D99FH     004AH     UNIT         ?PR?EEPROMERR?ERRORMSGCBK
BL51 BANKED LINKER/LOCATER V5.03                                                      01/30/2013  19:55:46  PAGE 12


            BANK1   D9E9H     0049H     UNIT         ?PR?HTTPD_LOGIN_FAIL?HTTPD_APP
            BANK1   DA32H     0048H     UNIT         ?PR?_DATACPY01?HTMFILES1
            BANK1   DA7AH     0045H     UNIT         ?PR?_WRITE_MDC?MDC_MDIO
            BANK1   DABFH     0043H     UNIT         ?PR?_UIP_UNLISTEN?UIP
            BANK1   DB02H     0041H     UNIT         ?PR?_READ_MDC?MDC_MDIO
            BANK1   DB43H     0041H     UNIT         ?PR?HTTPD_LOGIN_PASS?HTTPD_APP
            BANK1   DB84H     0040H     UNIT         ?PR?_EEPROM_WRITE_BYTE?EEPROM
            BANK1   DBC4H     0040H     UNIT         ?PR?_UART_TRANSMIT_MULTI?UART
            BANK1   DC04H     0040H     UNIT         ?PR?_UIP_LISTEN?UIP
            BANK1   DC44H     003DH     UNIT         ?PR?CHECK_FIRMWAREUPDATE?OS_CBK
            BANK1   DC81H     0036H     UNIT         ?PR?ON_TCP_RX?APPLICATION
            BANK1   DCB7H     0030H     UNIT         ?PR?_HEX_TO_ASC?UTILITY
            BANK1   DCE7H     002FH     UNIT         ?PR?_UART_RECEIVE_MULTI?UART
            BANK1   DD16H     002DH     UNIT         ?PR?_FILL_DMA_SETTING?DMA
            BANK1   DD43H     002AH     UNIT         ?PR?MAC_INIT?MACDRIVER
            BANK1   DD6DH     002AH     UNIT         ?PR?FIBER_COVER?APPLICATION
            BANK1   DD97H     0029H     UNIT         ?PR?ENVLANCHECK?VTAG
            BANK1   DDC0H     0028H     UNIT         ?PR?RESTORE_UIP_BUF?UIP
            BANK1   DDE8H     0028H     UNIT         ?PR?HTTPD_INIT?HTTPD
            BANK1   DE10H     0025H     UNIT         ?PR?TFD_INDEX?MACDRIVER
            BANK1   DE35H     0024H     UNIT         ?PR?GATEWAY_TIMER?OS_CBK
            BANK1   DE59H     0023H     UNIT         ?PR?OS_LOOP_100MS?OS_CBK
            BANK1   DE7CH     0022H     UNIT         ?PR?_GET_TAG01?HTMFILES1
            BANK1   DE9EH     0021H     UNIT         ?PR?MAC_ADDRESS_FILL?MACDRIVER
            BANK1   DEBFH     0021H     UNIT         ?PR?IP_ADDRESS_FILL?MACDRIVER
            BANK1   DEE0H     001FH     UNIT         ?PR?TIMER_COUNTER_OVERFLOW?TIMER
            BANK1   DEFFH     001DH     UNIT         ?PR?_RESIZE_RX_BUF?MACDRIVER
            BANK1   DF1CH     001DH     UNIT         ?PR?_CHG_UIP_BUF?UIP
            BANK1   DF39H     001BH     UNIT         ?PR?WAIT_PACKET_SENT?MACDRIVER
            BANK1   DF54H     001BH     UNIT         ?PR?UART_EMPTY_RX_FIFO?UART
            BANK1   DF6FH     001AH     UNIT         ?PR?TIMERCOUNTER_INIT?TIMER
            BANK1   DF89H     0018H     UNIT         ?PR?IP210_DMA_SET_IDLE?DMA
            BANK1   DFA1H     0018H     UNIT         ?PR?_UART_SET_DIVISOR?UART
            BANK1   DFB9H     0018H     UNIT         ?PR?_GET_SYSTEM_PARAMETER?APPLICATION
            BANK1   DFD1H     0017H     UNIT         ?PR?GETDEVICEID?EE_PROCESS
            BANK1   DFE8H     0016H     UNIT         ?PR?_DELAY0?MAIN
            BANK1   DFFEH     0015H     UNIT         ?PR?UDP_RECEIVE?APPLICATION
            BANK1   E013H     0014H     UNIT         ?PR?SERIAL_INIT?SERIAL
            BANK1   E027H     0013H     UNIT         ?PR?_UART_RECEIVE_BYTE?UART
            BANK1   E03AH     0013H     UNIT         ?PR?_DELAY?UTILITY
            BANK1   E04DH     0012H     UNIT         ?PR?IP210_DMA_IDLE_RESTORE?DMA
            BANK1   E05FH     0012H     UNIT         ?PR?_SERIAL_CHECK_RX?SERIAL
            BANK1   E071H     000FH     UNIT         ?PR?OS_LOOP?OS_CBK
            BANK1   E080H     000FH     UNIT         ?PR?MUIP_INIT?MUIP
            BANK1   E08FH     000FH     UNIT         ?PR?IP210_SWRESET?UTILITY
            BANK1   E09EH     000EH     UNIT         ?PR?TIMER2_INIT?TIMER
            BANK1   E0ACH     000CH     UNIT         ?PR?TIMER0_INIT?TIMER
            BANK1   E0B8H     000CH     UNIT         ?PR?_UIP_LOG?UIP
            BANK1   E0C4H     000BH     UNIT         ?PR?SERIAL_POLLING_RX?SERIAL
            BANK1   E0CFH     000BH     UNIT         ?PR?OS_INITIAL?OS_CBK
            BANK1   E0DAH     000AH     UNIT         ?PR?IP210_WAIT_DMA_COMPLETE?DMA
            BANK1   E0E4H     0008H     UNIT         ?PR?GETCH2?MAIN
            BANK1   E0ECH     0008H     UNIT         ?PR?EEPROM_ENABLE?EEPROM
            BANK1   E0F4H     0008H     UNIT         ?PR?UART_SET_RTS?UART
            BANK1   E0FCH     0008H     UNIT         ?PR?UART_CLEAR_RTS?UART
            BANK1   E104H     0008H     UNIT         ?PR?CPUINIT?UTILITY
            BANK1   E10CH     0006H     UNIT         ?PR?UART_TX_FIFO_STATUS?UART
BL51 BANKED LINKER/LOCATER V5.03                                                      01/30/2013  19:55:46  PAGE 13


            BANK1   E112H     0006H     UNIT         ?PR?UART_RX_FIFO_STATUS?UART
            BANK1   E118H     0006H     UNIT         ?PR?_UART_TRANSMIT_BYTE?UART
            BANK1   E11EH     0003H     UNIT         ?PR?TIMERCOUNTER0_INIT?TIMER
            BANK1   E121H     0001H     UNIT         ?PR?FLASHLED?MAIN
            BANK1   E122H     0001H     UNIT         ?PR?UDP_XMIT?UIP

            * * * * * * *   C O D E   B A N K   2   * * * * * * *
                    0000H     5000H                  *** GAP ***
            BANK2   5000H     000FH     UNIT         ?CO?HTMFILES2
            BANK2   500FH     096FH     UNIT         ?PR?COM_PORT_OPTION?NET_UART
            BANK2   597EH     081CH     UNIT         ?PR?CLEARUARTRXBUF?TELNET
            BANK2   619AH     064CH     UNIT         ?PR?_CGI_TELNET?TELNETCBK
            BANK2   67E6H     059FH     UNIT         ?PR?TELNETD?TELNET
            BANK2   6D85H     055CH     UNIT         ?PR?_CGI_UART?UARTCBK
            BANK2   72E1H     04DBH     UNIT         ?PR?RESENDUARTRX2ETH?TELNET
            BANK2   77BCH     04C6H     UNIT         ?PR?_SSI_UART?UARTCBK
            BANK2   7C82H     0449H     UNIT         ?PR?_SSI_TELNET?TELNETCBK
            BANK2   80CBH     03B5H     UNIT         ?PR?SMTP_SEND_MAILBODY?SMTP
            BANK2   8480H     0393H     UNIT         ?PR?_SENDUARTRX2ETH?TELNET
            BANK2   8813H     0347H     UNIT         ?PR?UDP_TEL_SEND_ONE_PKT?UDP_TEL
            BANK2   8B5AH     033CH     UNIT         ?PR?_DNS_QUERY?DNS
            BANK2   8E96H     0336H     UNIT         ?PR?READETH2UARTTXBUF?TELNET
            BANK2   91CCH     0304H     UNIT         ?PR?TELNET_RFC?NET_UART
            BANK2   94D0H     02D0H     UNIT         ?PR?CLEARUARTRXBUF_PARITYERROR?TELNET
            BANK2   97A0H     02BCH     UNIT         ?PR?RESENDUARTRX2UART?TELNET
            BANK2   9A5CH     02A7H     UNIT         ?PR?UDP_TEL_INIT?UDP_TEL
            BANK2   9D03H     0284H     UNIT         ?PR?UDP_GET_DNS?UDP_TEL
            BANK2   9F87H     025BH     UNIT         ?PR?WRITEETHRX2UART?TELNET
            BANK2   A1E2H     0252H     UNIT         ?PR?NUC_PROCESS_CMD?NETUART_CTRL
            BANK2   A434H     0250H     UNIT         ?PR?SMTP?SMTP
            BANK2   A684H     021DH     UNIT         ?PR?UDP_TEL_RX?UDP_TEL
            BANK2   A8A1H     01F0H     UNIT         ?PR?_UDP_SEND?UDP
            BANK2   AA91H     01EDH     UNIT         ?PR?_NUC_SEND?NETUART_CTRL
            BANK2   AC7EH     01E9H     UNIT         ?PR?UDP_TEL_CHK_SEND?UDP_TEL
            BANK2   AE67H     01DAH     UNIT         ?PR?TELNET_INIT_COM?TELNET
            BANK2   B041H     0178H     UNIT         ?PR?_FS_OPEN02?HTMFILES2
            BANK2   B1B9H     014FH     UNIT         ?PR?_UDP_TEL_GETIP?UDP_TEL
            BANK2   B308H     014CH     UNIT         ?PR?_B64ENC?BASE64
            BANK2   B454H     014AH     UNIT         ?PR?DHCPCCHECKINFO?DHCPC
            BANK2   B59EH     0148H     UNIT         ?PR?_DHCPCSENDREQUEST?DHCPC
            BANK2   B6E6H     0135H     UNIT         ?PR?DHCPCCLTPKTINIT?DHCPC
            BANK2   B81BH     0134H     UNIT         ?PR?DNS_UDP_RECEIVE?DNS
            BANK2   B94FH     012CH     UNIT         ?PR?_B64DEC?BASE64
            BANK2   BA7BH     0112H     UNIT         ?PR?_CRAM_MD5?CRAM_MD5
            BANK2   BB8DH     0109H     UNIT         ?PR?TELNET_CONNECT?TELNET
            BANK2   BC96H     0103H     UNIT         ?PR?UDP_TEL_UPDATA_IP_AVAL?UDP_TEL
            BANK2   BD99H     00FDH     UNIT         ?PR?REVERSE_TELNET_ON_TCP_RX?TELNET
            BANK2   BE96H     00D3H     UNIT         ?PR?CHECK_RFC2217_SIGNAL?NET_UART
            BANK2   BF69H     00D1H     UNIT         ?PR?NETUARTONTCPRX?NET_UART
            BANK2   C03AH     00C9H     UNIT         ?PR?DHCPCTIMER?DHCPC
            BANK2   C103H     00C9H     UNIT         ?PR?SMTP_TIMER?SMTP
            BANK2   C1CCH     00C1H     UNIT         ?PR?NEW_BLOCK_INIT?UDP_TEL
            BANK2   C28DH     00B4H     UNIT         ?PR?SMTP_CHK_MAILTOTOTAL?SMTP
            BANK2   C341H     00B1H     UNIT         ?PR?_DHCPCFOUNDTAG?DHCPC
            BANK2   C3F2H     00B1H     UNIT         ?PR?DHCPCSENDDISCOVER?DHCPC
            BANK2   C4A3H     00ADH     UNIT         ?PR?UDP_LEARN_IP?UDP_TEL
            BANK2   C550H     00AAH     UNIT         ?PR?NUC_ON_TCP_RX?NETUART_CTRL
BL51 BANKED LINKER/LOCATER V5.03                                                      01/30/2013  19:55:46  PAGE 14


            BANK2   C5FAH     00A9H     UNIT         ?PR?UART_AUTO_SEND?TELNET
            BANK2   C6A3H     00A9H     UNIT         ?PR?_SMTP_SEND_AUTH_ID_PW?SMTP
            BANK2   C74CH     00A7H     UNIT         ?PR?_STRCAT_MAIL_TO?SMTP
            BANK2   C7F3H     00A3H     UNIT         ?PR?SMTP_SEND_CMD_MAIL?SMTP
            BANK2   C896H     00A0H     UNIT         ?PR?DHCPC_UDP_RECEIVE?DHCPC
            BANK2   C936H     009FH     UNIT         ?PR?_SET_BIT?UDP_TEL
            BANK2   C9D5H     009EH     UNIT         ?PR?SMTP_SEND_CMD_HELO?SMTP
            BANK2   CA73H     009DH     UNIT         ?PR?RFC_LOOP?NET_UART
            BANK2   CB10H     0093H     UNIT         ?PR?TELNET_SERVER_TIMEOUT?TELNET
            BANK2   CBA3H     008FH     UNIT         ?PR?TELNET_CONNECTED_INIT?TELNET
            BANK2   CC32H     008CH     UNIT         ?PR?SMTP_SEND_CMD_RCPT?SMTP
            BANK2   CCBEH     007BH     UNIT         ?PR?NETUARTTIMER?NET_UART
            BANK2   CD39H     007AH     UNIT         ?PR?_DNS_RESULT?DNS
            BANK2   CDB3H     0079H     UNIT         ?PR?SMTP_SEND_MAILBODY_END?SMTP
            BANK2   CE2CH     0073H     UNIT         ?PR?SMTP_INIT?SMTP
            BANK2   CE9FH     0072H     UNIT         ?PR?SMTP_SEND_PACKET?SMTP
            BANK2   CF11H     0071H     UNIT         ?PR?DHCPCAPPLYIP?DHCPC
            BANK2   CF82H     0070H     UNIT         ?PR?_B64ENCODE?BASE64
            BANK2   CFF2H     0070H     UNIT         ?PR?_B64DECODE?BASE64
            BANK2   D062H     0065H     UNIT         ?PR?_B64ENCODE_ALLOC?BASE64
            BANK2   D0C7H     0064H     UNIT         ?PR?DHCPCRECEIVEACK?DHCPC
            BANK2   D12BH     005DH     UNIT         ?PR?_MODIFYMAIL?SMTP
            BANK2   D188H     005DH     UNIT         ?PR?SMTP_SEND_STARTTLS?SMTP
            BANK2   D1E5H     005DH     UNIT         ?PR?SMTP_SEND_CMD_DATA?SMTP
            BANK2   D242H     005DH     UNIT         ?PR?SMTP_SEND_CMD_QUIT?SMTP
            BANK2   D29FH     005DH     UNIT         ?PR?SMTP_SEND_CMD_AUTH?SMTP
            BANK2   D2FCH     0057H     UNIT         ?PR?UDP_PROCESS?UDP
            BANK2   D353H     0055H     UNIT         ?PR?_CRAM_MD5_DECODE?CRAM_MD5
            BANK2   D3A8H     004FH     UNIT         ?PR?_B64DECODE_ALLOC?BASE64
            BANK2   D3F7H     004EH     UNIT         ?PR?_UDP_INIT?UDP
            BANK2   D445H     004EH     UNIT         ?PR?SMTP_CHECK_MAIL?SMTP
            BANK2   D493H     0048H     UNIT         ?PR?_DATACPY02?HTMFILES2
            BANK2   D4DBH     0042H     UNIT         ?PR?UDP_TEL_TIMER?UDP_TEL
            BANK2   D51DH     0041H     UNIT         ?PR?_UDP_SET_BUF?UDP
            BANK2   D55EH     0041H     UNIT         ?PR?NETUARTINIT?NET_UART
            BANK2   D59FH     003EH     UNIT         ?PR?_CRAM_MD5_ENCODE?CRAM_MD5
            BANK2   D5DDH     0036H     UNIT         ?PR?SMTPONTCPRX?SMTP
            BANK2   D613H     0031H     UNIT         ?PR?NUC_ON_LOOP?NETUART_CTRL
            BANK2   D644H     002EH     UNIT         ?PR?DHCPCINIT?DHCPC
            BANK2   D672H     002EH     UNIT         ?PR?_SMTP_SEND_MAIL?SMTP
            BANK2   D6A0H     002CH     UNIT         ?PR?_NUC_CHK_PW?NETUART_CTRL
            BANK2   D6CCH     002BH     UNIT         ?PR?DHCPCRECEIVEOFFER?DHCPC
            BANK2   D6F7H     002AH     UNIT         ?PR?TELNETD_LISTEN?TELNET
            BANK2   D721H     0028H     UNIT         ?PR?TELNETD_CLOSE?TELNET
            BANK2   D749H     0022H     UNIT         ?PR?_GET_TAG02?HTMFILES2
            BANK2   D76BH     0021H     UNIT         ?PR?NETUARTTELNETCLOSE?NET_UART
            BANK2   D78CH     001EH     UNIT         ?PR?CHECK_SIGNAL_CHANGE_OP?NETUART_CTRL
            BANK2   D7AAH     001DH     UNIT         ?PR?NETUARTLOOP?NET_UART
            BANK2   D7C7H     001DH     UNIT         ?PR?SMTP_CONNECT?SMTP
            BANK2   D7E4H     001DH     UNIT         ?PR?_B64ENCODE_LEN?BASE64
            BANK2   D801H     0019H     UNIT         ?PR?_B64DECODE_LEN?BASE64
            BANK2   D81AH     0017H     UNIT         ?PR?NUC_INIT?NETUART_CTRL
            BANK2   D831H     0016H     UNIT         ?PR?CHECK_RS485?TELNET
            BANK2   D847H     0016H     UNIT         ?PR?_GET_BIT?UDP_TEL
            BANK2   D85DH     0011H     UNIT         ?PR?TELNET_CLOSE?TELNET
            BANK2   D86EH     0010H     UNIT         ?PR?TELNET_INIT?TELNET
            BANK2   D87EH     000DH     UNIT         ?PR?WATCHDOGTIMERENABLE?WDG
BL51 BANKED LINKER/LOCATER V5.03                                                      01/30/2013  19:55:46  PAGE 15


            BANK2   D88BH     000AH     UNIT         ?PR?CHECK_210?NET_UART
            BANK2   D895H     000AH     UNIT         ?PR?UART_RS485_UPDATE_TXCONTROL?TELNET
            BANK2   D89FH     0007H     UNIT         ?PR?DHCPCRECEIVENACK?DHCPC
            BANK2   D8A6H     0007H     UNIT         ?PR?WATCHDOGTIMERRESET?WDG
            BANK2   D8ADH     0007H     UNIT         ?PR?WATCHDOGTIMERINIT?WDG
            BANK2   D8B4H     0006H     UNIT         ?PR?_IP210_ISR_CTRL?TELNET
            BANK2   D8BAH     0003H     UNIT         ?PR?WATCHDOGTIMERDISABLE?WDG
            BANK2   D8BDH     0003H     UNIT         ?PR?TELNETD_INIT?TELNET
            BANK2   D8C0H     0003H     UNIT         ?PR?TELNET?TELNET
            BANK2   D8C3H     0001H     UNIT         ?PR?IP210_UART_ISR_PROCESS?TELNET

            * * * * * * *   C O D E   B A N K   3   * * * * * * *
                    0000H     5000H                  *** GAP ***
            BANK3   5000H     7512H     UNIT         ?CO?HTMFILES3
            BANK3   C512H     0178H     UNIT         ?PR?_FS_OPEN03?HTMFILES3
            BANK3   C68AH     0048H     UNIT         ?PR?_DATACPY03?HTMFILES3
            BANK3   C6D2H     0022H     UNIT         ?PR?_GET_TAG03?HTMFILES3

            * * * * * * *   C O D E   B A N K   4   * * * * * * *
                    0000H     5000H                  *** GAP ***
            BANK4   5000H     0283H     UNIT         ?CO?HTMFILES4
            BANK4   5283H     0178H     UNIT         ?PR?_FS_OPEN04?HTMFILES4
            BANK4   53FBH     0048H     UNIT         ?PR?_DATACPY04?HTMFILES4
            BANK4   5443H     0022H     UNIT         ?PR?_GET_TAG04?HTMFILES4
            BANK4   5465H     0003H     UNIT         ?PR?FUU_RUN?HTMFILES4

            * * * * * * *   C O D E   B A N K   5   * * * * * * *
                    0000H     5000H                  *** GAP ***
            BANK5   5000H     000FH     UNIT         ?CO?HTMFILES5
            BANK5   500FH     09F6H     UNIT         ?PR?NETCMD?NET_CMD
            BANK5   5A05H     06DBH     UNIT         ?PR?DIDO_DATA_CONFIG?DIDO
            BANK5   60E0H     04B7H     UNIT         ?PR?_CGI_UDP_TEL?UDP_TELCBK
            BANK5   6597H     042AH     UNIT         ?PR?_SSI_UDP_TEL?UDP_TELCBK
            BANK5   69C1H     02C1H     UNIT         ?PR?UIP_TCPCHKSUM?CHECKSUM
            BANK5   6C82H     0281H     UNIT         ?PR?DIDO_TCP_RX_FUN?DIDO
            BANK5   6F03H     0213H     UNIT         ?PR?MPPROCESS?NET_CMD
            BANK5   7116H     01F2H     UNIT         ?PR?ONLOGINACCOUNT?NET_CMD
            BANK5   7308H     01B9H     UNIT         ?PR?UIP_UDPCHKSUM?CHECKSUM
            BANK5   74C1H     0178H     UNIT         ?PR?_FS_OPEN05?HTMFILES5
            BANK5   7639H     0146H     UNIT         ?PR?ONLOGINREQUEST?NET_CMD
            BANK5   777FH     0134H     UNIT         ?PR?UDP_NET_CMD?NET_CMD
            BANK5   78B3H     011FH     UNIT         ?PR?EEP_READ_REQ?NET_CMD
            BANK5   79D2H     0115H     UNIT         ?PR?EEP_WRITE_REQ?NET_CMD
            BANK5   7AE7H     0104H     UNIT         ?PR?_CGI_ADC?ADCCBK
            BANK5   7BEBH     00F2H     UNIT         ?PR?_CRC?NET_CMD
            BANK5   7CDDH     00E0H     UNIT         ?PR?CRC_OPERATION?NET_CMD
            BANK5   7DBDH     00AAH     UNIT         ?PR?ADC_CONVERT?ADCCBK
            BANK5   7E67H     009FH     UNIT         ?PR?LOCALCMDTXPREFIX?NET_CMD
            BANK5   7F06H     0096H     UNIT         ?PR?ONGPIOREQUEST?NET_CMD
            BANK5   7F9CH     0094H     UNIT         ?PR?GENCONNID?NET_CMD
            BANK5   8030H     008AH     UNIT         ?PR?AGINGNETCMDCONNTABLE?NET_CMD
            BANK5   80BAH     0083H     UNIT         ?PR?EN_LOOPBACK?NET_CMD
            BANK5   813DH     0080H     UNIT         ?PR?NETCMDSEND?NET_CMD
            BANK5   81BDH     0080H     UNIT         ?PR?DIS_LOOPBACK?NET_CMD
            BANK5   823DH     007DH     UNIT         ?PR?CRC_INFO?NET_CMD
            BANK5   82BAH     007BH     UNIT         ?PR?CHECKCONNID?NET_CMD
            BANK5   8335H     0071H     UNIT         ?PR?_UIP_CHKSUM?CHECKSUM
BL51 BANKED LINKER/LOCATER V5.03                                                      01/30/2013  19:55:46  PAGE 16


            BANK5   83A6H     0070H     UNIT         ?PR?_CGI_SETDEF?SETDEFCBK
            BANK5   8416H     006AH     UNIT         ?PR?_SENDLOGINRESULT?NET_CMD
            BANK5   8480H     0065H     UNIT         ?PR?LOCALCMD?NET_CMD
            BANK5   84E5H     0064H     UNIT         ?PR?_DIDO_READ?DIDO
            BANK5   8549H     005BH     UNIT         ?PR?_SENDLOGINMD5KEY?NET_CMD
            BANK5   85A4H     005AH     UNIT         ?PR?ONCHANNELREQUEST?NET_CMD
            BANK5   85FEH     0055H     UNIT         ?PR?_DIDO_WRITE?DIDO
            BANK5   8653H     0055H     UNIT         ?PR?_FINDSA?NET_CMD
            BANK5   86A8H     0055H     UNIT         ?PR?RESET_DEVICE_REQ?NET_CMD
            BANK5   86FDH     0052H     UNIT         ?PR?NETCMDONTCPRX?NET_CMD
            BANK5   874FH     004FH     UNIT         ?PR?_SSI_ADC?ADCCBK
            BANK5   879EH     004DH     UNIT         ?PR?DIDO_INIT?DIDO
            BANK5   87EBH     0048H     UNIT         ?PR?_DATACPY05?HTMFILES5
            BANK5   8833H     0038H     UNIT         ?PR?_ONCHANNELREQUESTACK?NET_CMD
            BANK5   886BH     002BH     UNIT         ?PR?NETCMDINIT?NET_CMD
            BANK5   8896H     0027H     UNIT         ?PR?_ONGPIOREQUESTACK?NET_CMD
            BANK5   88BDH     0026H     UNIT         ?PR?UIP_IPCHKSUM?CHECKSUM
            BANK5   88E3H     0022H     UNIT         ?PR?_GET_TAG05?HTMFILES5
            BANK5   8905H     001BH     UNIT         ?PR?SEARCHEMPTYCONNTABLE?NET_CMD
            BANK5   8920H     0007H     UNIT         ?PR?DIDO_SEND?DIDO
            BANK5   8927H     0003H     UNIT         ?PR?NETCMDTIMER?NET_CMD
            BANK5   892AH     0001H     UNIT         ?PR?SENDACCESSGPIOACK?NET_CMD
            BANK5   892BH     0001H     UNIT         ?PR?ONACCESSGPIOREQ?NET_CMD

            * * * * * * *   C O D E   B A N K   6   * * * * * * *
                    0000H     5000H                  *** GAP ***
            BANK6   5000H     000FH     UNIT         ?CO?HTMFILES6
            BANK6   500FH     305BH     UNIT         ?PR?COMMAND_SETTING?COMMANDLINE
            BANK6   806AH     0964H     UNIT         ?PR?COMMAND_TYPE?COMMANDLINE
            BANK6   89CEH     02ECH     UNIT         ?PR?UIP_ARP_OUT?UIP_ARP
            BANK6   8CBAH     029FH     UNIT         ?PR?COMMAND_INFO?COMMANDLINE
            BANK6   8F59H     022CH     UNIT         ?PR?CLI_TIMER?COMMANDLINE
            BANK6   9185H     01E6H     UNIT         ?PR?UIP_ARP_ARPIN?UIP_ARP
            BANK6   936BH     01CEH     UNIT         ?PR?_UIP_ARP_UPDATE?UIP_ARP
            BANK6   9539H     0178H     UNIT         ?PR?_FS_OPEN06?HTMFILES6
            BANK6   96B1H     013CH     UNIT         ?PR?ATD_LOOP?COMMANDLINE
            BANK6   97EDH     013AH     UNIT         ?PR?GATEWAY_MAC_REQ?UIP_ARP
            BANK6   9927H     013AH     UNIT         ?PR?_HEX_2_ASC?COMMANDLINE
            BANK6   9A61H     00AAH     UNIT         ?PR?RE_RORN?COMMANDLINE
            BANK6   9B0BH     00A9H     UNIT         ?PR?UIP_ARP_IPIN?UIP_ARP
            BANK6   9BB4H     0072H     UNIT         ?PR?UIP_ARP_TIMER?UIP_ARP
            BANK6   9C26H     0051H     UNIT         ?PR?CLI_INIT?COMMANDLINE
            BANK6   9C77H     004EH     UNIT         ?PR?_UP2LWR?COMMANDLINE
            BANK6   9CC5H     0048H     UNIT         ?PR?_DATACPY06?HTMFILES6
            BANK6   9D0DH     0037H     UNIT         ?PR?UIP_ARP_INIT?UIP_ARP
            BANK6   9D44H     0022H     UNIT         ?PR?_GET_TAG06?HTMFILES6
            BANK6   9D66H     0001H     UNIT         ?PR?HELP?COMMANDLINE

            * * * * * * *   C O D E   B A N K   7   * * * * * * *
                    0000H     5000H                  *** GAP ***
            BANK7   5000H     000FH     UNIT         ?CO?HTMFILES7
            BANK7   500FH     0178H     UNIT         ?PR?_FS_OPEN07?HTMFILES7
            BANK7   5187H     0048H     UNIT         ?PR?_DATACPY07?HTMFILES7
            BANK7   51CFH     0022H     UNIT         ?PR?_GET_TAG07?HTMFILES7

            * * * * * * *   C O D E   B A N K   8   * * * * * * *
                    0000H     5000H                  *** GAP ***
BL51 BANKED LINKER/LOCATER V5.03                                                      01/30/2013  19:55:46  PAGE 17


            BANK8   5000H     000FH     UNIT         ?CO?HTMFILES8
            BANK8   500FH     0178H     UNIT         ?PR?_FS_OPEN08?HTMFILES8
            BANK8   5187H     0048H     UNIT         ?PR?_DATACPY08?HTMFILES8
            BANK8   51CFH     0022H     UNIT         ?PR?_GET_TAG08?HTMFILES8

            * * * * * * *   C O D E   B A N K   9   * * * * * * *
                    0000H     5000H                  *** GAP ***
            BANK9   5000H     000FH     UNIT         ?CO?HTMFILES9
            BANK9   500FH     0178H     UNIT         ?PR?_FS_OPEN09?HTMFILES9
            BANK9   5187H     0048H     UNIT         ?PR?_DATACPY09?HTMFILES9
            BANK9   51CFH     0022H     UNIT         ?PR?_GET_TAG09?HTMFILES9

            * * * * * * *  C O D E   B A N K   1 0  * * * * * * *
                    0000H     5000H                  *** GAP ***
            BANK10  5000H     000FH     UNIT         ?CO?HTMFILES10
            BANK10  500FH     0178H     UNIT         ?PR?_FS_OPEN10?HTMFILES10
            BANK10  5187H     0048H     UNIT         ?PR?_DATACPY10?HTMFILES10
            BANK10  51CFH     0022H     UNIT         ?PR?_GET_TAG10?HTMFILES10

            * * * * * * *  C O D E   B A N K   1 1  * * * * * * *
                    0000H     5000H                  *** GAP ***
            BANK11  5000H     000FH     UNIT         ?CO?HTMFILES11
            BANK11  500FH     0178H     UNIT         ?PR?_FS_OPEN11?HTMFILES11
            BANK11  5187H     0048H     UNIT         ?PR?_DATACPY11?HTMFILES11
            BANK11  51CFH     0022H     UNIT         ?PR?_GET_TAG11?HTMFILES11

            * * * * * * *  C O D E   B A N K   1 2  * * * * * * *
                    0000H     5000H                  *** GAP ***
            BANK12  5000H     000FH     UNIT         ?CO?HTMFILES12
            BANK12  500FH     0178H     UNIT         ?PR?_FS_OPEN12?HTMFILES12
            BANK12  5187H     0048H     UNIT         ?PR?_DATACPY12?HTMFILES12
            BANK12  51CFH     0022H     UNIT         ?PR?_GET_TAG12?HTMFILES12

            * * * * * * *  C O D E   B A N K   1 3  * * * * * * *
                    0000H     5000H                  *** GAP ***
            BANK13  5000H     000FH     UNIT         ?CO?HTMFILES13
            BANK13  500FH     0178H     UNIT         ?PR?_FS_OPEN13?HTMFILES13
            BANK13  5187H     0048H     UNIT         ?PR?_DATACPY13?HTMFILES13
            BANK13  51CFH     0022H     UNIT         ?PR?_GET_TAG13?HTMFILES13

            * * * * * * *  C O D E   B A N K   1 4  * * * * * * *
                    0000H     5000H                  *** GAP ***
            BANK14  5000H     000FH     UNIT         ?CO?HTMFILES14
            BANK14  500FH     0178H     UNIT         ?PR?_FS_OPEN14?HTMFILES14
            BANK14  5187H     0048H     UNIT         ?PR?_DATACPY14?HTMFILES14
            BANK14  51CFH     0022H     UNIT         ?PR?_GET_TAG14?HTMFILES14

            * * * * * * *  C O D E   B A N K   1 5  * * * * * * *
                    0000H     5000H                  *** GAP ***
            BANK15  5000H     000FH     UNIT         ?CO?HTMFILES15
            BANK15  500FH     0178H     UNIT         ?PR?_FS_OPEN15?HTMFILES15
            BANK15  5187H     0048H     UNIT         ?PR?_DATACPY15?HTMFILES15
            BANK15  51CFH     0022H     UNIT         ?PR?_GET_TAG15?HTMFILES15



INTRABANK CALL TABLE OF MODULE:  .\obj\NetUART (MAIN)
BL51 BANKED LINKER/LOCATER V5.03                                                      01/30/2013  19:55:46  PAGE 18



ADDRESS    FUNCTION NAME
------------------------
 235EH     NETUARTLOOP
 2363H     WATCHDOGTIMERRESET
 2368H     FU_CHECK
 236DH     IP210_UART_ISR_PROCESS
 2372H     FUU_RUN
 2377H     GATEWAY_MAC_REQ
 237CH     CHECK_RS485
 2381H     CLI_TIMER
 2386H     UDP_TEL_TIMER
 238BH     TELNET_SERVER_TIMEOUT
 2390H     NUC_ON_LOOP
 2395H     RFC_LOOP
 239AH     WRITEETHRX2UART
 239FH     _UDP_INIT
 23A4H     _FS_OPEN00
 23A9H     _DATACPY00
 23AEH     _GET_TAG00
 23B3H     _FS_OPEN01
 23B8H     _DATACPY01
 23BDH     _GET_TAG01
 23C2H     _FS_OPEN02
 23C7H     _DATACPY02
 23CCH     _GET_TAG02
 23D1H     _FS_OPEN03
 23D6H     _DATACPY03
 23DBH     _GET_TAG03
 23E0H     _FS_OPEN04
 23E5H     _DATACPY04
 23EAH     _GET_TAG04
 23EFH     _FS_OPEN05
 23F4H     _DATACPY05
 23F9H     _GET_TAG05
 23FEH     _FS_OPEN06
 2403H     _DATACPY06
 2408H     _GET_TAG06
 240DH     _FS_OPEN07
 2412H     _DATACPY07
 2417H     _GET_TAG07
 241CH     _FS_OPEN08
 2421H     _DATACPY08
 2426H     _GET_TAG08
 242BH     _FS_OPEN09
 2430H     _DATACPY09
 2435H     _GET_TAG09
 243AH     _FS_OPEN10
 243FH     _DATACPY10
 2444H     _GET_TAG10
 2449H     _FS_OPEN11
 244EH     _DATACPY11
 2453H     _GET_TAG11
 2458H     _FS_OPEN12
 245DH     _DATACPY12
 2462H     _GET_TAG12
 2467H     _FS_OPEN13
BL51 BANKED LINKER/LOCATER V5.03                                                      01/30/2013  19:55:46  PAGE 19


 246CH     _DATACPY13
 2471H     _GET_TAG13
 2476H     _FS_OPEN14
 247BH     _DATACPY14
 2480H     _GET_TAG14
 2485H     _FS_OPEN15
 248AH     _DATACPY15
 248FH     _GET_TAG15
 2494H     _SSI_LOGIN
 2499H     _SSI_ERRORMSG
 249EH     _SSI_STATUS
 24A3H     _SSI_SETIP
 24A8H     _SSI_SETPASS
 24ADH     _SSI_UART
 24B2H     _SSI_TELNET
 24B7H     _SSI_SMTP
 24BCH     _SSI_ADC
 24C1H     _SSI_UDP_TEL
 24C6H     _SSI_DIDO
 24CBH     _CGI_LOGIN
 24D0H     _CGI_STATUS
 24D5H     _CGI_RESET
 24DAH     _CGI_SETDEF
 24DFH     _CGI_SETIP
 24E4H     _CGI_SETPASS
 24E9H     _CGI_UART
 24EEH     _CGI_TELNET
 24F3H     _CGI_SMTP
 24F8H     _CGI_ADC
 24FDH     _CGI_UDP_TEL
 2502H     _CGI_DIDO
 2507H     _CGI_FW_UP
 250CH     _CGI_FU_UP
 2511H     UIP_TCPCHKSUM
 2516H     UIP_IPCHKSUM
 251BH     CLEARUARTRXBUF
 2520H     NETUARTINIT
 2525H     CHECK_210
 252AH     UIP_ARP_OUT
 252FH     DNS_UDP_RECEIVE
 2534H     DHCPC_UDP_RECEIVE
 2539H     UDP_TEL_RX
 253EH     UDP_NET_CMD
 2543H     NETUARTONTCPRX
 2548H     NETCMDONTCPRX
 254DH     SMTPONTCPRX
 2552H     NUC_ON_TCP_RX
 2557H     DIDO_TCP_RX_FUN
 255CH     UIP_ARP_INIT
 2561H     DIDO_INIT
 2566H     DHCPCINIT
 256BH     SMTP_INIT
 2570H     NETCMDINIT
 2575H     NUC_INIT
 257AH     CLI_INIT
 257FH     UART_AUTO_SEND
 2584H     LOCALCMD
BL51 BANKED LINKER/LOCATER V5.03                                                      01/30/2013  19:55:46  PAGE 20


 2589H     UIP_ARP_IPIN
 258EH     UIP_ARP_ARPIN
 2593H     UDP_PROCESS
 2598H     NETUARTTIMER
 259DH     NETCMDTIMER
 25A2H     SMTP_CHECK_MAIL
 25A7H     SMTP_TIMER
 25ACH     DHCPCTIMER
 25B1H     UIP_ARP_TIMER
 25B6H     _HEX_TO_ASC
 25BBH     _ASC_TO_HEX
 25C0H     UART_SET_PROPERTY
 25C5H     UART_CLEAR_RTS
 25CAH     _SAVEMODULEINFO2EEPROM
 25CFH     _FS_OPEN
 25D4H     _HTTPD_INIT_FILE
 25D9H     EEPROMLOADDEFAULT
 25DEH     EEPROMERR
 25E3H     _EEPROM_READ_BYTE
 25E8H     NETUARTTELNETCLOSE
 25EDH     _DIDO_READ
 25F2H     _DIDO_WRITE
 25F7H     _UART_TRANSMIT_MULTI
 25FCH     _IP210_ISR_CTRL
 2601H     UDP_GET_DNS
 2606H     _EEPROM_WRITE_BYTE
 260BH     WATCHDOGTIMERINIT
 2610H     WATCHDOGTIMERENABLE
 2615H     UDP_RECEIVE
 261AH     UIP_UDPCHKSUM
 261FH     _CATNETWORKCONFIGMSG
 2624H     _STOUI
 2629H     _UIP_LISTEN
 262EH     _UP2LWR
 2633H     _UIP_UNLISTEN
 2638H     _UIP_CONNECT
 263DH     UART_RX_FIFO_STATUS
 2642H     UART_SET_RTS
 2647H     _UART_RECEIVE_MULTI
 264CH     RE_RORN
 2651H     UART_TX_FIFO_STATUS
 2656H     COMMAND_TYPE
 265BH     _IP210_DMA
 2660H     _UIP_PROCESS
 2665H     CHECKPKTSEND
 266AH     MUIP_SEND
 266FH     _CHG_UIP_BUF
 2674H     _ETHERNETSEND
 2679H     RESTORE_UIP_BUF
 267EH     _UDP_SEND
 2683H     GETDEVICEID
 2688H     MAIN



SYMBOL TABLE OF MODULE:  .\obj\NetUART (MAIN)

BL51 BANKED LINKER/LOCATER V5.03                                                      01/30/2013  19:55:46  PAGE 21


  VALUE           TYPE          NAME
  ----------------------------------

  -------         MODULE        MAIN
  C:0000H         SYMBOL        _ICE_DUMMY_
  D:0080H         PUBLIC        P0
  D:0090H         PUBLIC        P1
 C1:DFE8H         PUBLIC        _Delay0
  D:00A0H         PUBLIC        P2
  D:00B0H         PUBLIC        P3
  D:00E8H         PUBLIC        P4
  B:00D8H.1       PUBLIC        WDTEN
  B:00A8H.7       PUBLIC        EA
  D:00DAH         PUBLIC        OUTPUTEN
  D:00A8H         PUBLIC        IE
  D:00B8H         PUBLIC        IP
  B:0098H.0       PUBLIC        RI
  B:0098H.1       PUBLIC        TI
 C1:D407H         PUBLIC        main
 C1:E121H         PUBLIC        flashLed
  B:00D8H.3       PUBLIC        WDT_DIS
  D:0099H         PUBLIC        SBUF
  D:0098H         PUBLIC        SCON
  D:0089H         PUBLIC        TMOD
  D:0088H         PUBLIC        TCON
  X:385CH         PUBLIC        led_status
 C1:E0E4H         PUBLIC        getch2
  C:2F3BH         SYMBOL        _?ix1000
  C:2F42H         SYMBOL        _?ix1001
 C1:BD80H         PUBLIC        NetworkConfig
  X:385EH         PUBLIC        MODE_TYPE
  D:008CH         PUBLIC        TH0
  D:008AH         PUBLIC        TL0
  D:00D8H         PUBLIC        WDTCON
  B:0088H.4       PUBLIC        TR0
  D:00C8H         PUBLIC        T2CON
 C1:C6C8H         PUBLIC        Kbhit_EE_Load_Default
 C1:8D48H         PUBLIC        _CatNetworkConfigMsg
  D:00D0H         PUBLIC        PSW

  -------         PROC BANK=1   _CATNETWORKCONFIGMSG
  X:36F9H         SYMBOL        Msg
  X:36FCH         SYMBOL        endl
  -------         DO            
  X:36FFH         SYMBOL        i
  -------         ENDDO         
 C1:8D48H         LINE#         60
 C1:8D53H         LINE#         61
 C1:8D53H         LINE#         64
 C1:8D9FH         LINE#         65
 C1:8DEAH         LINE#         66
 C1:8DEFH         LINE#         67
 C1:8DEFH         LINE#         68
 C1:8E34H         LINE#         69
 C1:8E40H         LINE#         71
 C1:8E43H         LINE#         88
 C1:8EC6H         LINE#         89
BL51 BANKED LINKER/LOCATER V5.03                                                      01/30/2013  19:55:46  PAGE 22


 C1:8F49H         LINE#         90
 C1:8FCCH         LINE#         92
 C1:8FCFH         LINE#         97
 C1:9052H         LINE#         98
  -------         ENDPROC       _CATNETWORKCONFIGMSG

  -------         PROC BANK=1   NETWORKCONFIG
  -------         DO            
  D:0006H         SYMBOL        i
  -------         ENDDO         
 C1:BD80H         LINE#         102
 C1:BD80H         LINE#         103
 C1:BD80H         LINE#         106
 C1:BD83H         LINE#         107
 C1:BD83H         LINE#         108
 C1:BD9BH         LINE#         109
 C1:BDA6H         LINE#         110
 C1:BDB8H         LINE#         111
 C1:BDCAH         LINE#         112
 C1:BDDCH         LINE#         113
 C1:BDEEH         LINE#         114
 C1:BE00H         LINE#         115
 C1:BE12H         LINE#         116
 C1:BE24H         LINE#         117
 C1:BE36H         LINE#         119
 C1:BE4EH         LINE#         120
 C1:BE6AH         LINE#         121
  -------         ENDPROC       NETWORKCONFIG

  -------         PROC BANK=1   _DELAY0
  D:0006H         SYMBOL        H
 C1:DFE8H         LINE#         125
 C1:DFE8H         LINE#         126
 C1:DFE8H         LINE#         127
 C1:DFF7H         LINE#         128
 C1:DFF7H         LINE#         129
 C1:DFFAH         LINE#         130
 C1:DFFAH         LINE#         131
 C1:DFFBH         LINE#         132
 C1:DFFDH         LINE#         133
  -------         ENDPROC       _DELAY0

  -------         PROC BANK=1   GETCH2
  -------         DO            
  D:0007H         SYMBOL        a
  -------         ENDDO         
 C1:E0E4H         LINE#         134
 C1:E0E4H         LINE#         135
 C1:E0E4H         LINE#         136
 C1:E0E7H         LINE#         137
 C1:E0E9H         LINE#         138
 C1:E0EBH         LINE#         139
 C1:E0EBH         LINE#         140
  -------         ENDPROC       GETCH2

  -------         PROC BANK=1   KBHIT_EE_LOAD_DEFAULT
  -------         DO            
BL51 BANKED LINKER/LOCATER V5.03                                                      01/30/2013  19:55:46  PAGE 23


  X:349BH         SYMBOL        keyword
  X:34A2H         SYMBOL        cur_type
  X:34A9H         SYMBOL        i
  -------         ENDDO         
 C1:C6C8H         LINE#         142
 C1:C6C8H         LINE#         143
 C1:C6C8H         LINE#         144
 C1:C6CFH         LINE#         145
 C1:C6D5H         LINE#         146
 C1:C6D5H         LINE#         147
 C1:C6E4H         LINE#         148
 C1:C6E4H         LINE#         149
 C1:C6E4H         LINE#         150
 C1:C6EDH         LINE#         151
 C1:C6F0H         LINE#         152
 C1:C6F3H         LINE#         153
 C1:C6F3H         LINE#         154
 C1:C6F3H         LINE#         155
 C1:C6F3H         LINE#         156
 C1:C706H         LINE#         157
 C1:C719H         LINE#         158
 C1:C71FH         LINE#         159
 C1:C734H         LINE#         160
 C1:C734H         LINE#         161
 C1:C734H         LINE#         162
 C1:C749H         LINE#         163
 C1:C749H         LINE#         164
 C1:C758H         LINE#         165
 C1:C75EH         LINE#         166
 C1:C75EH         LINE#         167
 C1:C76DH         LINE#         168
 C1:C783H         LINE#         169
 C1:C793H         LINE#         170
 C1:C793H         LINE#         171
 C1:C793H         LINE#         172
 C1:C79CH         LINE#         173
 C1:C7A5H         LINE#         174
 C1:C7A5H         LINE#         175
 C1:C7A5H         LINE#         176
 C1:C7A5H         LINE#         177
  -------         ENDPROC       KBHIT_EE_LOAD_DEFAULT

  -------         PROC BANK=1   FLASHLED
 C1:E121H         LINE#         186
 C1:E121H         LINE#         187
 C1:E121H         LINE#         203
  -------         ENDPROC       FLASHLED

  -------         PROC BANK=1   MAIN
  -------         DO            
  X:38FAH         SYMBOL        RXFIFO_START
  -------         ENDDO         
 C1:D407H         LINE#         225
 C1:D407H         LINE#         226
 C1:D407H         LINE#         227
 C1:D40DH         LINE#         229
 C1:D40FH         LINE#         230
BL51 BANKED LINKER/LOCATER V5.03                                                      01/30/2013  19:55:46  PAGE 24


 C1:D412H         LINE#         231
 C1:D415H         LINE#         232
 C1:D418H         LINE#         234
 C1:D41AH         LINE#         235
 C1:D41CH         LINE#         240
 C1:D41FH         LINE#         241
 C1:D41FH         LINE#         242
 C1:D422H         LINE#         243
 C1:D425H         LINE#         245
 C1:D427H         LINE#         246
 C1:D429H         LINE#         249
 C1:D42CH         LINE#         250
 C1:D42FH         LINE#         252
 C1:D432H         LINE#         256
 C1:D435H         LINE#         257
 C1:D438H         LINE#         258
 C1:D441H         LINE#         260
 C1:D444H         LINE#         262
 C1:D447H         LINE#         269
 C1:D454H         LINE#         273
 C1:D454H         LINE#         274
 C1:D45BH         LINE#         275
 C1:D45BH         LINE#         278
 C1:D463H         LINE#         280
 C1:D466H         LINE#         289
 C1:D469H         LINE#         293
  -------         ENDPROC       MAIN
  -------         ENDMOD        MAIN

  -------         MODULE        PATCH_INFO
  N:0100H         SYMBOL        EE_LENGTH
  N:0002H         SYMBOL        SIZE_EEAPP_ID
  N:0002H         SYMBOL        SIZE_EECHIP_ID
  C:FFE0H         SYMBOL        _PATCH_INFO
  -------         ENDMOD        PATCH_INFO

  -------         MODULE        EE_PROCESS
  C:0000H         SYMBOL        _ICE_DUMMY_
  D:0090H         PUBLIC        P1
  D:00B0H         PUBLIC        P3
 C1:DFD1H         PUBLIC        GetDeviceID
  D:00A8H         PUBLIC        IE
 C1:C332H         PUBLIC        EEPROMLoadDefault
  D:00B8H         PUBLIC        IP
 C1:D46CH         PUBLIC        _Setup_BLUpgrade
 C1:D859H         PUBLIC        EEPROMCheckDataAvailable
  D:0098H         PUBLIC        SCON
  D:0088H         PUBLIC        TCON
  X:17FEH         PUBLIC        EE_Reserved_0
  X:1806H         PUBLIC        web_def
  D:00D8H         PUBLIC        WDTCON
 C1:D2ACH         PUBLIC        EEPROMInit
 C1:D7A9H         SYMBOL        LoadEEPROM2EEConfig
  D:00C8H         PUBLIC        T2CON
 C1:CFFAH         PUBLIC        _SaveModuleInfo2EEPROM
  X:1807H         PUBLIC        need_load_default
  X:1808H         PUBLIC        EE_Result
BL51 BANKED LINKER/LOCATER V5.03                                                      01/30/2013  19:55:46  PAGE 25


  X:1809H         PUBLIC        EEConfigInfo
  X:184CH         PUBLIC        ModuleInfo
 C1:D751H         SYMBOL        LoadEEPROM2ModuleInfo
  D:00D0H         PUBLIC        PSW

  -------         PROC BANK=1   GETDEVICEID
 C1:DFD1H         LINE#         71
 C1:DFD1H         LINE#         72
 C1:DFD1H         LINE#         73
 C1:DFE7H         LINE#         74
  -------         ENDPROC       GETDEVICEID

  -------         PROC BANK=1   LOADEEPROM2MODULEINFO
  -------         DO            
  X:37F3H         SYMBOL        i
  X:37F5H         SYMBOL        p
  -------         ENDDO         
 C1:D751H         LINE#         90
 C1:D751H         LINE#         91
 C1:D751H         LINE#         96
 C1:D75FH         LINE#         98
 C1:D766H         LINE#         99
 C1:D766H         LINE#         100
 C1:D787H         LINE#         101
 C1:D787H         LINE#         103
 C1:D789H         LINE#         104
 C1:D789H         LINE#         105
 C1:D7A6H         LINE#         117
 C1:D7A8H         LINE#         118
  -------         ENDPROC       LOADEEPROM2MODULEINFO

  -------         PROC BANK=1   _SAVEMODULEINFO2EEPROM
  X:3535H         SYMBOL        pSubModule
  X:3538H         SYMBOL        size
  -------         DO            
  X:353AH         SYMBOL        i
  X:353CH         SYMBOL        pu8SubMoudle
  X:353FH         SYMBOL        loc_EESubMoudle
  -------         ENDDO         
 C1:CFFAH         LINE#         135
 C1:D00DH         LINE#         136
 C1:D00DH         LINE#         138
 C1:D018H         LINE#         139
 C1:D034H         LINE#         140
 C1:D04FH         LINE#         141
 C1:D08BH         LINE#         142
 C1:D08DH         LINE#         143
  -------         ENDPROC       _SAVEMODULEINFO2EEPROM

  -------         PROC BANK=1   _SETUP_BLUPGRADE
  X:385FH         SYMBOL        uip_hostaddr
 C1:D46CH         LINE#         146
 C1:D477H         LINE#         147
 C1:D477H         LINE#         148
 C1:D482H         LINE#         149
 C1:D49BH         LINE#         150
 C1:D4B4H         LINE#         151
BL51 BANKED LINKER/LOCATER V5.03                                                      01/30/2013  19:55:46  PAGE 26


 C1:D4CDH         LINE#         153
 C1:D4CFH         LINE#         154
  -------         ENDPROC       _SETUP_BLUPGRADE

  -------         PROC BANK=1   LOADEEPROM2EECONFIG
  -------         DO            
  X:37F8H         SYMBOL        i
  X:37FAH         SYMBOL        p
  -------         ENDDO         
 C1:D7A9H         LINE#         173
 C1:D7A9H         LINE#         174
 C1:D7A9H         LINE#         178
 C1:D7B7H         LINE#         180
 C1:D7BEH         LINE#         181
 C1:D7BEH         LINE#         182
 C1:D7DFH         LINE#         183
 C1:D7DFH         LINE#         185
 C1:D7E1H         LINE#         186
 C1:D7E1H         LINE#         187
 C1:D7FEH         LINE#         249
 C1:D800H         LINE#         250
  -------         ENDPROC       LOADEEPROM2EECONFIG

  -------         PROC BANK=1   EEPROMCHECKDATAAVAILABLE
  -------         DO            
  X:38D4H         SYMBOL        eebyte
  X:38D5H         SYMBOL        i
  -------         ENDDO         
 C1:D859H         LINE#         273
 C1:D859H         LINE#         274
 C1:D859H         LINE#         280
 C1:D85FH         LINE#         307
 C1:D86EH         LINE#         308
 C1:D86EH         LINE#         309
 C1:D87CH         LINE#         310
 C1:D87CH         LINE#         312
 C1:D880H         LINE#         313
 C1:D882H         LINE#         314
 C1:D882H         LINE#         316
 C1:D898H         LINE#         317
 C1:D898H         LINE#         318
 C1:D8A1H         LINE#         319
 C1:D8A4H         LINE#         320
 C1:D8A4H         LINE#         321
 C1:D8ACH         LINE#         324
 C1:D8AEH         LINE#         326
  -------         ENDPROC       EEPROMCHECKDATAAVAILABLE

  -------         PROC BANK=1   EEPROMLOADDEFAULT
  -------         DO            
  X:3671H         SYMBOL        i
  X:3673H         SYMBOL        p
  X:3676H         SYMBOL        pEE_Reserved_0
  -------         ENDDO         
 C1:C332H         LINE#         344
 C1:C332H         LINE#         345
 C1:C332H         LINE#         351
BL51 BANKED LINKER/LOCATER V5.03                                                      01/30/2013  19:55:46  PAGE 27


 C1:C340H         LINE#         352
 C1:C34EH         LINE#         353
 C1:C368H         LINE#         354
 C1:C368H         LINE#         355
 C1:C36EH         LINE#         356
 C1:C387H         LINE#         358
 C1:C39FH         LINE#         359
 C1:C3AEH         LINE#         360
 C1:C3AEH         LINE#         361
 C1:C3B1H         LINE#         362
 C1:C3D4H         LINE#         363
 C1:C3D4H         LINE#         365
 C1:C3D7H         LINE#         366
 C1:C3D7H         LINE#         367
 C1:C3D7H         LINE#         368
 C1:C3D7H         LINE#         369
 C1:C3DAH         LINE#         370
 C1:C3FBH         LINE#         371
 C1:C3FBH         LINE#         373
 C1:C3FEH         LINE#         374
 C1:C3FEH         LINE#         375
 C1:C3FEH         LINE#         376
 C1:C401H         LINE#         377
 C1:C415H         LINE#         380
 C1:C417H         LINE#         381
  -------         ENDPROC       EEPROMLOADDEFAULT

  -------         PROC BANK=1   EEPROMINIT
 C1:D2ACH         LINE#         402
 C1:D2ACH         LINE#         403
 C1:D2ACH         LINE#         406
 C1:D2AFH         LINE#         408
 C1:D2B5H         LINE#         409
 C1:D2B5H         LINE#         410
 C1:D2BBH         LINE#         411
 C1:D2BBH         LINE#         412
 C1:D2BFH         LINE#         414
 C1:D2D1H         LINE#         415
 C1:D2D1H         LINE#         417
 C1:D2D7H         LINE#         418
 C1:D2D7H         LINE#         419
 C1:D2DBH         LINE#         421
 C1:D2EEH         LINE#         422
 C1:D2EEH         LINE#         424
 C1:D2EEH         LINE#         425
 C1:D2EEH         LINE#         428
 C1:D301H         LINE#         430
 C1:D314H         LINE#         431
 C1:D31AH         LINE#         432
 C1:D31AH         LINE#         436
 C1:D320H         LINE#         441
 C1:D320H         LINE#         442
 C1:D320H         LINE#         444
  -------         ENDPROC       EEPROMINIT
  -------         ENDMOD        EE_PROCESS

  -------         MODULE        FIRMWARE_REV
BL51 BANKED LINKER/LOCATER V5.03                                                      01/30/2013  19:55:46  PAGE 28


  C:0000H         SYMBOL        _ICE_DUMMY_
 C0:6000H         PUBLIC        FWARE_REV
  -------         ENDMOD        FIRMWARE_REV

  -------         MODULE        ?BANK?SWITCHING
  C:3CC2H         SEGMENT       ?BANK?SELECT
  D:002DH         SEGMENT       ?BANK?DATA
  C:2000H         SEGMENT       ?BANK?SWITCH
  C:205EH         PUBLIC        ?B_BANK0
  C:2076H         PUBLIC        ?B_BANK1
  C:214EH         PUBLIC        ?B_BANK10
  C:2166H         PUBLIC        ?B_BANK11
  C:217EH         PUBLIC        ?B_BANK12
  C:2196H         PUBLIC        ?B_BANK13
  C:21AEH         PUBLIC        ?B_BANK14
  C:21C6H         PUBLIC        ?B_BANK15
  C:21DEH         PUBLIC        ?B_BANK16
  C:21F6H         PUBLIC        ?B_BANK17
  C:220EH         PUBLIC        ?B_BANK18
  C:2226H         PUBLIC        ?B_BANK19
  C:208EH         PUBLIC        ?B_BANK2
  C:223EH         PUBLIC        ?B_BANK20
  C:2256H         PUBLIC        ?B_BANK21
  C:226EH         PUBLIC        ?B_BANK22
  C:2286H         PUBLIC        ?B_BANK23
  C:229EH         PUBLIC        ?B_BANK24
  C:22B6H         PUBLIC        ?B_BANK25
  C:22CEH         PUBLIC        ?B_BANK26
  C:22E6H         PUBLIC        ?B_BANK27
  C:22FEH         PUBLIC        ?B_BANK28
  C:2316H         PUBLIC        ?B_BANK29
  C:20A6H         PUBLIC        ?B_BANK3
  C:232EH         PUBLIC        ?B_BANK30
  C:2346H         PUBLIC        ?B_BANK31
  C:20BEH         PUBLIC        ?B_BANK4
  C:20D6H         PUBLIC        ?B_BANK5
  C:20EEH         PUBLIC        ?B_BANK6
  C:2106H         PUBLIC        ?B_BANK7
  C:211EH         PUBLIC        ?B_BANK8
  C:2136H         PUBLIC        ?B_BANK9
  D:002DH         PUBLIC        ?B_CURRENTBANK
  N:0000H         PUBLIC        ?B_FACTOR
  N:001FH         PUBLIC        ?B_MASK
  N:0004H         PUBLIC        ?B_MODE
  N:0020H         PUBLIC        ?B_NBANKS
  N:00FFH         PUBLIC        ?B_RST_BANK
  C:2000H         PUBLIC        ?B_SWITCH0
  C:2002H         PUBLIC        ?B_SWITCH1
  C:201CH         PUBLIC        ?B_SWITCH10
  C:201FH         PUBLIC        ?B_SWITCH11
  C:2022H         PUBLIC        ?B_SWITCH12
  C:2025H         PUBLIC        ?B_SWITCH13
  C:2028H         PUBLIC        ?B_SWITCH14
  C:202BH         PUBLIC        ?B_SWITCH15
  C:202EH         PUBLIC        ?B_SWITCH16
  C:2031H         PUBLIC        ?B_SWITCH17
  C:2034H         PUBLIC        ?B_SWITCH18
BL51 BANKED LINKER/LOCATER V5.03                                                      01/30/2013  19:55:46  PAGE 29


  C:2037H         PUBLIC        ?B_SWITCH19
  C:2004H         PUBLIC        ?B_SWITCH2
  C:203AH         PUBLIC        ?B_SWITCH20
  C:203DH         PUBLIC        ?B_SWITCH21
  C:2040H         PUBLIC        ?B_SWITCH22
  C:2043H         PUBLIC        ?B_SWITCH23
  C:2046H         PUBLIC        ?B_SWITCH24
  C:2049H         PUBLIC        ?B_SWITCH25
  C:204CH         PUBLIC        ?B_SWITCH26
  C:204FH         PUBLIC        ?B_SWITCH27
  C:2052H         PUBLIC        ?B_SWITCH28
  C:2055H         PUBLIC        ?B_SWITCH29
  C:2007H         PUBLIC        ?B_SWITCH3
  C:2058H         PUBLIC        ?B_SWITCH30
  C:205BH         PUBLIC        ?B_SWITCH31
  C:200AH         PUBLIC        ?B_SWITCH4
  C:200DH         PUBLIC        ?B_SWITCH5
  C:2010H         PUBLIC        ?B_SWITCH6
  C:2013H         PUBLIC        ?B_SWITCH7
  C:2016H         PUBLIC        ?B_SWITCH8
  C:2019H         PUBLIC        ?B_SWITCH9
  C:3CC3H         PUBLIC        ?B_SWITCHBANK_A
  C:3CC2H         PUBLIC        _SWITCHBANK
  N:0000H         SYMBOL        ?BANK?SWITCHING
  N:0000H         SYMBOL        ?B_FIRSTBIT
  C:3CC7H         SYMBOL        ?B_RESTORE_BANK
  N:0000H         SYMBOL        ?B_RTX
  C:2068H         SYMBOL        ?B_SWITCHJ0
  C:2080H         SYMBOL        ?B_SWITCHJ1
  C:2158H         SYMBOL        ?B_SWITCHJ10
  C:2170H         SYMBOL        ?B_SWITCHJ11
  C:2188H         SYMBOL        ?B_SWITCHJ12
  C:21A0H         SYMBOL        ?B_SWITCHJ13
  C:21B8H         SYMBOL        ?B_SWITCHJ14
  C:21D0H         SYMBOL        ?B_SWITCHJ15
  C:21E8H         SYMBOL        ?B_SWITCHJ16
  C:2200H         SYMBOL        ?B_SWITCHJ17
  C:2218H         SYMBOL        ?B_SWITCHJ18
  C:2230H         SYMBOL        ?B_SWITCHJ19
  C:2098H         SYMBOL        ?B_SWITCHJ2
  C:2248H         SYMBOL        ?B_SWITCHJ20
  C:2260H         SYMBOL        ?B_SWITCHJ21
  C:2278H         SYMBOL        ?B_SWITCHJ22
  C:2290H         SYMBOL        ?B_SWITCHJ23
  C:22A8H         SYMBOL        ?B_SWITCHJ24
  C:22C0H         SYMBOL        ?B_SWITCHJ25
  C:22D8H         SYMBOL        ?B_SWITCHJ26
  C:22F0H         SYMBOL        ?B_SWITCHJ27
  C:2308H         SYMBOL        ?B_SWITCHJ28
  C:2320H         SYMBOL        ?B_SWITCHJ29
  C:20B0H         SYMBOL        ?B_SWITCHJ3
  C:2338H         SYMBOL        ?B_SWITCHJ30
  C:2350H         SYMBOL        ?B_SWITCHJ31
  C:20C8H         SYMBOL        ?B_SWITCHJ4
  C:20E0H         SYMBOL        ?B_SWITCHJ5
  C:20F8H         SYMBOL        ?B_SWITCHJ6
  C:2110H         SYMBOL        ?B_SWITCHJ7
BL51 BANKED LINKER/LOCATER V5.03                                                      01/30/2013  19:55:46  PAGE 30


  C:2128H         SYMBOL        ?B_SWITCHJ8
  C:2140H         SYMBOL        ?B_SWITCHJ9
  N:0000H         SYMBOL        ?B_VAR_BANKING
  D:00E0H         SYMBOL        ACC
  N:035EH         SYMBOL        B_SWITCH_SIZE
  C:2000H         SYMBOL        B_SWITCH_START
  N:0020H         SYMBOL        CNT
  D:0083H         SYMBOL        DPH
  D:0082H         SYMBOL        DPL
  B:00B0H.5       SYMBOL        H16
  B:00B0H.4       SYMBOL        H17
  B:0090H.7       SYMBOL        H18
  B:00E8H.1       SYMBOL        H19
  B:00E8H.6       SYMBOL        H20
  N:0001H         SYMBOL        LONG_MACRO
  N:001FH         SYMBOL        MASK
  D:0090H         SYMBOL        P1
  D:00B0H         SYMBOL        P3
  D:00E8H         SYMBOL        P4
  C:3CCBH         SYMBOL        SWITCH_TAB
  C:2000H         LINE#         1001
  C:2002H         LINE#         1001
  C:2004H         LINE#         1001
  C:2007H         LINE#         1001
  C:200AH         LINE#         1001
  C:200DH         LINE#         1001
  C:2010H         LINE#         1001
  C:2013H         LINE#         1001
  C:2016H         LINE#         1001
  C:2019H         LINE#         1001
  C:201CH         LINE#         1001
  C:201FH         LINE#         1001
  C:2022H         LINE#         1001
  C:2025H         LINE#         1001
  C:2028H         LINE#         1001
  C:202BH         LINE#         1001
  C:202EH         LINE#         1001
  C:2031H         LINE#         1001
  C:2034H         LINE#         1001
  C:2037H         LINE#         1001
  C:203AH         LINE#         1001
  C:203DH         LINE#         1001
  C:2040H         LINE#         1001
  C:2043H         LINE#         1001
  C:2046H         LINE#         1001
  C:2049H         LINE#         1001
  C:204CH         LINE#         1001
  C:204FH         LINE#         1001
  C:2052H         LINE#         1001
  C:2055H         LINE#         1001
  C:2058H         LINE#         1001
  C:205BH         LINE#         1001
  C:205EH         LINE#         1012
  C:2060H         LINE#         1012
  C:2062H         LINE#         1012
  C:2064H         LINE#         1012
  C:2066H         LINE#         1012
BL51 BANKED LINKER/LOCATER V5.03                                                      01/30/2013  19:55:46  PAGE 31


  C:2068H         LINE#         1012
  C:206BH         LINE#         1012
  C:206DH         LINE#         1012
  C:206FH         LINE#         1012
  C:2071H         LINE#         1012
  C:2073H         LINE#         1012
  C:2075H         LINE#         1012
  C:2076H         LINE#         1012
  C:2078H         LINE#         1012
  C:207AH         LINE#         1012
  C:207CH         LINE#         1012
  C:207EH         LINE#         1012
  C:2080H         LINE#         1012
  C:2083H         LINE#         1012
  C:2085H         LINE#         1012
  C:2087H         LINE#         1012
  C:2089H         LINE#         1012
  C:208BH         LINE#         1012
  C:208DH         LINE#         1012
  C:208EH         LINE#         1012
  C:2090H         LINE#         1012
  C:2092H         LINE#         1012
  C:2094H         LINE#         1012
  C:2096H         LINE#         1012
  C:2098H         LINE#         1012
  C:209BH         LINE#         1012
  C:209DH         LINE#         1012
  C:209FH         LINE#         1012
  C:20A1H         LINE#         1012
  C:20A3H         LINE#         1012
  C:20A5H         LINE#         1012
  C:20A6H         LINE#         1012
  C:20A8H         LINE#         1012
  C:20AAH         LINE#         1012
  C:20ACH         LINE#         1012
  C:20AEH         LINE#         1012
  C:20B0H         LINE#         1012
  C:20B3H         LINE#         1012
  C:20B5H         LINE#         1012
  C:20B7H         LINE#         1012
  C:20B9H         LINE#         1012
  C:20BBH         LINE#         1012
  C:20BDH         LINE#         1012
  C:20BEH         LINE#         1012
  C:20C0H         LINE#         1012
  C:20C2H         LINE#         1012
  C:20C4H         LINE#         1012
  C:20C6H         LINE#         1012
  C:20C8H         LINE#         1012
  C:20CBH         LINE#         1012
  C:20CDH         LINE#         1012
  C:20CFH         LINE#         1012
  C:20D1H         LINE#         1012
  C:20D3H         LINE#         1012
  C:20D5H         LINE#         1012
  C:20D6H         LINE#         1012
  C:20D8H         LINE#         1012
BL51 BANKED LINKER/LOCATER V5.03                                                      01/30/2013  19:55:46  PAGE 32


  C:20DAH         LINE#         1012
  C:20DCH         LINE#         1012
  C:20DEH         LINE#         1012
  C:20E0H         LINE#         1012
  C:20E3H         LINE#         1012
  C:20E5H         LINE#         1012
  C:20E7H         LINE#         1012
  C:20E9H         LINE#         1012
  C:20EBH         LINE#         1012
  C:20EDH         LINE#         1012
  C:20EEH         LINE#         1012
  C:20F0H         LINE#         1012
  C:20F2H         LINE#         1012
  C:20F4H         LINE#         1012
  C:20F6H         LINE#         1012
  C:20F8H         LINE#         1012
  C:20FBH         LINE#         1012
  C:20FDH         LINE#         1012
  C:20FFH         LINE#         1012
  C:2101H         LINE#         1012
  C:2103H         LINE#         1012
  C:2105H         LINE#         1012
  C:2106H         LINE#         1012
  C:2108H         LINE#         1012
  C:210AH         LINE#         1012
  C:210CH         LINE#         1012
  C:210EH         LINE#         1012
  C:2110H         LINE#         1012
  C:2113H         LINE#         1012
  C:2115H         LINE#         1012
  C:2117H         LINE#         1012
  C:2119H         LINE#         1012
  C:211BH         LINE#         1012
  C:211DH         LINE#         1012
  C:211EH         LINE#         1012
  C:2120H         LINE#         1012
  C:2122H         LINE#         1012
  C:2124H         LINE#         1012
  C:2126H         LINE#         1012
  C:2128H         LINE#         1012
  C:212BH         LINE#         1012
  C:212DH         LINE#         1012
  C:212FH         LINE#         1012
  C:2131H         LINE#         1012
  C:2133H         LINE#         1012
  C:2135H         LINE#         1012
  C:2136H         LINE#         1012
  C:2138H         LINE#         1012
  C:213AH         LINE#         1012
  C:213CH         LINE#         1012
  C:213EH         LINE#         1012
  C:2140H         LINE#         1012
  C:2143H         LINE#         1012
  C:2145H         LINE#         1012
  C:2147H         LINE#         1012
  C:2149H         LINE#         1012
  C:214BH         LINE#         1012
BL51 BANKED LINKER/LOCATER V5.03                                                      01/30/2013  19:55:46  PAGE 33


  C:214DH         LINE#         1012
  C:214EH         LINE#         1012
  C:2150H         LINE#         1012
  C:2152H         LINE#         1012
  C:2154H         LINE#         1012
  C:2156H         LINE#         1012
  C:2158H         LINE#         1012
  C:215BH         LINE#         1012
  C:215DH         LINE#         1012
  C:215FH         LINE#         1012
  C:2161H         LINE#         1012
  C:2163H         LINE#         1012
  C:2165H         LINE#         1012
  C:2166H         LINE#         1012
  C:2168H         LINE#         1012
  C:216AH         LINE#         1012
  C:216CH         LINE#         1012
  C:216EH         LINE#         1012
  C:2170H         LINE#         1012
  C:2173H         LINE#         1012
  C:2175H         LINE#         1012
  C:2177H         LINE#         1012
  C:2179H         LINE#         1012
  C:217BH         LINE#         1012
  C:217DH         LINE#         1012
  C:217EH         LINE#         1012
  C:2180H         LINE#         1012
  C:2182H         LINE#         1012
  C:2184H         LINE#         1012
  C:2186H         LINE#         1012
  C:2188H         LINE#         1012
  C:218BH         LINE#         1012
  C:218DH         LINE#         1012
  C:218FH         LINE#         1012
  C:2191H         LINE#         1012
  C:2193H         LINE#         1012
  C:2195H         LINE#         1012
  C:2196H         LINE#         1012
  C:2198H         LINE#         1012
  C:219AH         LINE#         1012
  C:219CH         LINE#         1012
  C:219EH         LINE#         1012
  C:21A0H         LINE#         1012
  C:21A3H         LINE#         1012
  C:21A5H         LINE#         1012
  C:21A7H         LINE#         1012
  C:21A9H         LINE#         1012
  C:21ABH         LINE#         1012
  C:21ADH         LINE#         1012
  C:21AEH         LINE#         1012
  C:21B0H         LINE#         1012
  C:21B2H         LINE#         1012
  C:21B4H         LINE#         1012
  C:21B6H         LINE#         1012
  C:21B8H         LINE#         1012
  C:21BBH         LINE#         1012
  C:21BDH         LINE#         1012
BL51 BANKED LINKER/LOCATER V5.03                                                      01/30/2013  19:55:46  PAGE 34


  C:21BFH         LINE#         1012
  C:21C1H         LINE#         1012
  C:21C3H         LINE#         1012
  C:21C5H         LINE#         1012
  C:21C6H         LINE#         1012
  C:21C8H         LINE#         1012
  C:21CAH         LINE#         1012
  C:21CCH         LINE#         1012
  C:21CEH         LINE#         1012
  C:21D0H         LINE#         1012
  C:21D3H         LINE#         1012
  C:21D5H         LINE#         1012
  C:21D7H         LINE#         1012
  C:21D9H         LINE#         1012
  C:21DBH         LINE#         1012
  C:21DDH         LINE#         1012
  C:21DEH         LINE#         1012
  C:21E0H         LINE#         1012
  C:21E2H         LINE#         1012
  C:21E4H         LINE#         1012
  C:21E6H         LINE#         1012
  C:21E8H         LINE#         1012
  C:21EBH         LINE#         1012
  C:21EDH         LINE#         1012
  C:21EFH         LINE#         1012
  C:21F1H         LINE#         1012
  C:21F3H         LINE#         1012
  C:21F5H         LINE#         1012
  C:21F6H         LINE#         1012
  C:21F8H         LINE#         1012
  C:21FAH         LINE#         1012
  C:21FCH         LINE#         1012
  C:21FEH         LINE#         1012
  C:2200H         LINE#         1012
  C:2203H         LINE#         1012
  C:2205H         LINE#         1012
  C:2207H         LINE#         1012
  C:2209H         LINE#         1012
  C:220BH         LINE#         1012
  C:220DH         LINE#         1012
  C:220EH         LINE#         1012
  C:2210H         LINE#         1012
  C:2212H         LINE#         1012
  C:2214H         LINE#         1012
  C:2216H         LINE#         1012
  C:2218H         LINE#         1012
  C:221BH         LINE#         1012
  C:221DH         LINE#         1012
  C:221FH         LINE#         1012
  C:2221H         LINE#         1012
  C:2223H         LINE#         1012
  C:2225H         LINE#         1012
  C:2226H         LINE#         1012
  C:2228H         LINE#         1012
  C:222AH         LINE#         1012
  C:222CH         LINE#         1012
  C:222EH         LINE#         1012
BL51 BANKED LINKER/LOCATER V5.03                                                      01/30/2013  19:55:46  PAGE 35


  C:2230H         LINE#         1012
  C:2233H         LINE#         1012
  C:2235H         LINE#         1012
  C:2237H         LINE#         1012
  C:2239H         LINE#         1012
  C:223BH         LINE#         1012
  C:223DH         LINE#         1012
  C:223EH         LINE#         1012
  C:2240H         LINE#         1012
  C:2242H         LINE#         1012
  C:2244H         LINE#         1012
  C:2246H         LINE#         1012
  C:2248H         LINE#         1012
  C:224BH         LINE#         1012
  C:224DH         LINE#         1012
  C:224FH         LINE#         1012
  C:2251H         LINE#         1012
  C:2253H         LINE#         1012
  C:2255H         LINE#         1012
  C:2256H         LINE#         1012
  C:2258H         LINE#         1012
  C:225AH         LINE#         1012
  C:225CH         LINE#         1012
  C:225EH         LINE#         1012
  C:2260H         LINE#         1012
  C:2263H         LINE#         1012
  C:2265H         LINE#         1012
  C:2267H         LINE#         1012
  C:2269H         LINE#         1012
  C:226BH         LINE#         1012
  C:226DH         LINE#         1012
  C:226EH         LINE#         1012
  C:2270H         LINE#         1012
  C:2272H         LINE#         1012
  C:2274H         LINE#         1012
  C:2276H         LINE#         1012
  C:2278H         LINE#         1012
  C:227BH         LINE#         1012
  C:227DH         LINE#         1012
  C:227FH         LINE#         1012
  C:2281H         LINE#         1012
  C:2283H         LINE#         1012
  C:2285H         LINE#         1012
  C:2286H         LINE#         1012
  C:2288H         LINE#         1012
  C:228AH         LINE#         1012
  C:228CH         LINE#         1012
  C:228EH         LINE#         1012
  C:2290H         LINE#         1012
  C:2293H         LINE#         1012
  C:2295H         LINE#         1012
  C:2297H         LINE#         1012
  C:2299H         LINE#         1012
  C:229BH         LINE#         1012
  C:229DH         LINE#         1012
  C:229EH         LINE#         1012
  C:22A0H         LINE#         1012
BL51 BANKED LINKER/LOCATER V5.03                                                      01/30/2013  19:55:46  PAGE 36


  C:22A2H         LINE#         1012
  C:22A4H         LINE#         1012
  C:22A6H         LINE#         1012
  C:22A8H         LINE#         1012
  C:22ABH         LINE#         1012
  C:22ADH         LINE#         1012
  C:22AFH         LINE#         1012
  C:22B1H         LINE#         1012
  C:22B3H         LINE#         1012
  C:22B5H         LINE#         1012
  C:22B6H         LINE#         1012
  C:22B8H         LINE#         1012
  C:22BAH         LINE#         1012
  C:22BCH         LINE#         1012
  C:22BEH         LINE#         1012
  C:22C0H         LINE#         1012
  C:22C3H         LINE#         1012
  C:22C5H         LINE#         1012
  C:22C7H         LINE#         1012
  C:22C9H         LINE#         1012
  C:22CBH         LINE#         1012
  C:22CDH         LINE#         1012
  C:22CEH         LINE#         1012
  C:22D0H         LINE#         1012
  C:22D2H         LINE#         1012
  C:22D4H         LINE#         1012
  C:22D6H         LINE#         1012
  C:22D8H         LINE#         1012
  C:22DBH         LINE#         1012
  C:22DDH         LINE#         1012
  C:22DFH         LINE#         1012
  C:22E1H         LINE#         1012
  C:22E3H         LINE#         1012
  C:22E5H         LINE#         1012
  C:22E6H         LINE#         1012
  C:22E8H         LINE#         1012
  C:22EAH         LINE#         1012
  C:22ECH         LINE#         1012
  C:22EEH         LINE#         1012
  C:22F0H         LINE#         1012
  C:22F3H         LINE#         1012
  C:22F5H         LINE#         1012
  C:22F7H         LINE#         1012
  C:22F9H         LINE#         1012
  C:22FBH         LINE#         1012
  C:22FDH         LINE#         1012
  C:22FEH         LINE#         1012
  C:2300H         LINE#         1012
  C:2302H         LINE#         1012
  C:2304H         LINE#         1012
  C:2306H         LINE#         1012
  C:2308H         LINE#         1012
  C:230BH         LINE#         1012
  C:230DH         LINE#         1012
  C:230FH         LINE#         1012
  C:2311H         LINE#         1012
  C:2313H         LINE#         1012
BL51 BANKED LINKER/LOCATER V5.03                                                      01/30/2013  19:55:46  PAGE 37


  C:2315H         LINE#         1012
  C:2316H         LINE#         1012
  C:2318H         LINE#         1012
  C:231AH         LINE#         1012
  C:231CH         LINE#         1012
  C:231EH         LINE#         1012
  C:2320H         LINE#         1012
  C:2323H         LINE#         1012
  C:2325H         LINE#         1012
  C:2327H         LINE#         1012
  C:2329H         LINE#         1012
  C:232BH         LINE#         1012
  C:232DH         LINE#         1012
  C:232EH         LINE#         1012
  C:2330H         LINE#         1012
  C:2332H         LINE#         1012
  C:2334H         LINE#         1012
  C:2336H         LINE#         1012
  C:2338H         LINE#         1012
  C:233BH         LINE#         1012
  C:233DH         LINE#         1012
  C:233FH         LINE#         1012
  C:2341H         LINE#         1012
  C:2343H         LINE#         1012
  C:2345H         LINE#         1012
  C:2346H         LINE#         1012
  C:2348H         LINE#         1012
  C:234AH         LINE#         1012
  C:234CH         LINE#         1012
  C:234EH         LINE#         1012
  C:2350H         LINE#         1012
  C:2353H         LINE#         1012
  C:2355H         LINE#         1012
  C:2357H         LINE#         1012
  C:2359H         LINE#         1012
  C:235BH         LINE#         1012
  C:235DH         LINE#         1012
  C:3CC2H         LINE#         1033
  C:3CC3H         LINE#         1079
  C:3CC6H         LINE#         1080
  C:3CC7H         LINE#         1082
  C:3CCAH         LINE#         1083
  -------         ENDMOD        ?BANK?SWITCHING

  -------         MODULE        ?C_STARTUP
  C:3176H         SEGMENT       ?C_C51STARTUP
  I:0065H         SEGMENT       ?STACK
  C:0000H         PUBLIC        ?C_STARTUP
  C:31F5H         PUBLIC        CPU_GOTO_0000H
  C:31DEH         PUBLIC        CPU_GOTO_FFF7H
  C:31F8H         PUBLIC        CPU_GOTO_FFFDH
  C:0059H         PUBLIC        CPU_GOTO_FUU
  C:31F8H         PUBLIC        CPU_REBOOT
  B:00D0H.6       SYMBOL        AC
  D:00E0H         SYMBOL        ACC
  D:00F0H         SYMBOL        B
  B:0020H.0       SYMBOL        BITADDR
BL51 BANKED LINKER/LOCATER V5.03                                                      01/30/2013  19:55:46  PAGE 38


  B:00C8H.0       SYMBOL        CP_RL2
  B:00D0H.7       SYMBOL        CY
  B:00C8H.1       SYMBOL        C_T2
  D:0083H         SYMBOL        DPH
  D:0082H         SYMBOL        DPL
  B:00A8H.7       SYMBOL        EA
  C:31B1H         SYMBOL        END_POINT
  B:00A8H.4       SYMBOL        ES
  B:00A8H.1       SYMBOL        ET0
  B:00A8H.3       SYMBOL        ET1
  B:00A8H.5       SYMBOL        ET2
  B:00A8H.0       SYMBOL        EX0
  B:00A8H.2       SYMBOL        EX1
  B:00C8H.3       SYMBOL        EXEN2
  B:00C8H.6       SYMBOL        EXF2
  B:00D0H.5       SYMBOL        F0
  C:00A5H         SYMBOL        H16_1
  C:00ADH         SYMBOL        H16_CHECK_TI
  C:00A8H         SYMBOL        H16_SR
  C:008FH         SYMBOL        H17_1
  C:0097H         SYMBOL        H17_CHECK_TI
  C:0092H         SYMBOL        H17_SR
  C:0079H         SYMBOL        H18_1
  C:0081H         SYMBOL        H18_CHECK_TI
  C:007CH         SYMBOL        H18_SR
  N:0000H         SYMBOL        IBPSTACK
  N:0100H         SYMBOL        IBPSTACKTOP
  N:0080H         SYMBOL        IDATALEN
  C:31B8H         SYMBOL        IDATALOOP
  D:00A8H         SYMBOL        IE
  B:0088H.1       SYMBOL        IE0
  B:0088H.3       SYMBOL        IE1
  B:00B0H.2       SYMBOL        INT0
  B:00B0H.3       SYMBOL        INT1
  D:00B8H         SYMBOL        IP
  B:0088H.0       SYMBOL        IT0
  B:0088H.2       SYMBOL        IT1
  B:00D0H.2       SYMBOL        OV
  B:00D0H.0       SYMBOL        P
  D:0080H         SYMBOL        P0
  D:0090H         SYMBOL        P1
  D:00A0H         SYMBOL        P2
  D:00B0H         SYMBOL        P3
  D:00E8H         SYMBOL        P4
  D:00DAH         SYMBOL        P4ENON
  N:0000H         SYMBOL        PBPSTACK
  N:0000H         SYMBOL        PBPSTACKTOP
  D:0087H         SYMBOL        PCON
  N:0000H         SYMBOL        PDATALEN
  N:0000H         SYMBOL        PDATASTART
  N:0000H         SYMBOL        PPAGE
  N:0000H         SYMBOL        PPAGEENABLE
  D:00A0H         SYMBOL        PPAGE_SFR
  B:00B8H.4       SYMBOL        PS
  D:00D0H         SYMBOL        PSW
  B:00B8H.1       SYMBOL        PT0
  B:00B8H.3       SYMBOL        PT1
BL51 BANKED LINKER/LOCATER V5.03                                                      01/30/2013  19:55:46  PAGE 39


  B:00B8H.5       SYMBOL        PT2
  B:00B8H.0       SYMBOL        PX0
  B:00B8H.2       SYMBOL        PX1
  B:0098H.2       SYMBOL        RB8
  D:00CBH         SYMBOL        RCAP2H
  D:00CAH         SYMBOL        RCAP2L
  B:00C8H.5       SYMBOL        RCLK
  B:00B0H.7       SYMBOL        RD
  B:0098H.4       SYMBOL        REN
  D:0030H         SYMBOL        RESERVED_DATA
  B:0098H.0       SYMBOL        RI
  B:00D0H.3       SYMBOL        RS0
  B:00D0H.4       SYMBOL        RS1
  B:00B0H.0       SYMBOL        RXD
  D:0099H         SYMBOL        SBUF
  D:0098H         SYMBOL        SCON
  B:0098H.7       SYMBOL        SM0
  B:0098H.6       SYMBOL        SM1
  B:0098H.5       SYMBOL        SM2
  D:0081H         SYMBOL        SP
  I:0065H         SYMBOL        STACK_LABEL
  C:31B3H         SYMBOL        STARTUP1
  B:00B0H.4       SYMBOL        T0
  B:00B0H.5       SYMBOL        T1
  B:0090H.0       SYMBOL        T2
  D:00C8H         SYMBOL        T2CON
  B:0090H.1       SYMBOL        T2EX
  B:0098H.3       SYMBOL        TB8
  B:00C8H.4       SYMBOL        TCLK
  D:0088H         SYMBOL        TCON
  B:0088H.5       SYMBOL        TF0
  B:0088H.7       SYMBOL        TF1
  B:00C8H.7       SYMBOL        TF2
  D:008CH         SYMBOL        TH0
  D:008DH         SYMBOL        TH1
  D:00CDH         SYMBOL        TH2
  B:0098H.1       SYMBOL        TI
  D:008AH         SYMBOL        TL0
  D:008BH         SYMBOL        TL1
  D:00CCH         SYMBOL        TL2
  D:0089H         SYMBOL        TMOD
  B:0088H.4       SYMBOL        TR0
  B:0088H.6       SYMBOL        TR1
  B:00C8H.2       SYMBOL        TR2
  B:00B0H.1       SYMBOL        TXD
  C:3176H         SYMBOL        VECTOR_INT0_ET0
  C:3192H         SYMBOL        VEC_CLEAN_UART_ISR
  B:00D8H.1       SYMBOL        WDTEN
  B:00B0H.6       SYMBOL        WR
  N:0000H         SYMBOL        XBPSTACK
  N:0000H         SYMBOL        XBPSTACKTOP
  N:8000H         SYMBOL        XDATALEN
  C:31C3H         SYMBOL        XDATALOOP
  N:0000H         SYMBOL        XDATASTART
  C:0000H         LINE#         103
  C:0003H         LINE#         106
  C:FFFDH         LINE#         109
BL51 BANKED LINKER/LOCATER V5.03                                                      01/30/2013  19:55:46  PAGE 40


  C:000BH         LINE#         112
  C:3176H         LINE#         117
  C:3178H         LINE#         119
  C:317AH         LINE#         120
  C:317CH         LINE#         121
  C:317EH         LINE#         122
  C:3180H         LINE#         123
  C:3182H         LINE#         124
  C:3185H         LINE#         128
  C:3187H         LINE#         129
  C:3189H         LINE#         130
  C:318BH         LINE#         131
  C:318DH         LINE#         132
  C:318FH         LINE#         134
  C:3191H         LINE#         135
  C:3192H         LINE#         138
  C:3194H         LINE#         140
  C:3196H         LINE#         141
  C:3198H         LINE#         142
  C:319AH         LINE#         143
  C:319CH         LINE#         144
  C:319EH         LINE#         145
  C:31A1H         LINE#         147
  C:31A4H         LINE#         149
  C:31A6H         LINE#         150
  C:31A8H         LINE#         151
  C:31AAH         LINE#         152
  C:31ACH         LINE#         153
  C:31AEH         LINE#         155
  C:31B0H         LINE#         156
  C:31B1H         LINE#         159
  C:31B3H         LINE#         161
  C:31B5H         LINE#         164
  C:31B7H         LINE#         165
  C:31B8H         LINE#         166
  C:31B9H         LINE#         167
  C:31BBH         LINE#         171
  C:31BEH         LINE#         172
  C:31C0H         LINE#         176
  C:31C2H         LINE#         178
  C:31C3H         LINE#         179
  C:31C4H         LINE#         180
  C:31C5H         LINE#         181
  C:31C7H         LINE#         182
  C:31C9H         LINE#         217
  C:31CCH         LINE#         219
  C:31CEH         LINE#         220
  C:31D0H         LINE#         221
  C:31D2H         LINE#         222
  C:31D4H         LINE#         223
  C:31D6H         LINE#         227
  C:31D9H         LINE#         230
  C:31DCH         LINE#         231
  C:31DEH         LINE#         235
  C:31E0H         LINE#         236
  C:31E2H         LINE#         237
  C:31E4H         LINE#         238
BL51 BANKED LINKER/LOCATER V5.03                                                      01/30/2013  19:55:46  PAGE 41


  C:31E6H         LINE#         239
  C:31E8H         LINE#         240
  C:31EAH         LINE#         241
  C:31ECH         LINE#         245
  C:31EEH         LINE#         246
  C:31F0H         LINE#         247
  C:31F2H         LINE#         250
  C:31F5H         LINE#         253
  C:31F8H         LINE#         256
  C:31FAH         LINE#         257
  C:31FCH         LINE#         258
  C:31FEH         LINE#         259
  C:3200H         LINE#         260
  C:3202H         LINE#         261
  C:3204H         LINE#         262
  C:3206H         LINE#         263
  C:0059H         LINE#         272
  C:005BH         LINE#         274
  C:005EH         LINE#         275
  C:0061H         LINE#         276
  C:0064H         LINE#         277
  C:0067H         LINE#         278
  C:006AH         LINE#         279
  C:006CH         LINE#         280
  C:006EH         LINE#         283
  C:0070H         LINE#         284
  C:0072H         LINE#         285
  C:0074H         LINE#         286
  C:0077H         LINE#         287
  C:0079H         LINE#         290
  C:007CH         LINE#         293
  C:007EH         LINE#         294
  C:0081H         LINE#         296
  C:0084H         LINE#         299
  C:0086H         LINE#         300
  C:0088H         LINE#         301
  C:008AH         LINE#         302
  C:008DH         LINE#         303
  C:008FH         LINE#         306
  C:0092H         LINE#         309
  C:0094H         LINE#         310
  C:0097H         LINE#         312
  C:009AH         LINE#         315
  C:009CH         LINE#         316
  C:009EH         LINE#         317
  C:00A0H         LINE#         318
  C:00A3H         LINE#         319
  C:00A5H         LINE#         322
  C:00A8H         LINE#         325
  C:00AAH         LINE#         326
  C:00ADH         LINE#         328
  C:00B0H         LINE#         331
  C:00B2H         LINE#         333
  -------         ENDMOD        ?C_STARTUP

  -------         MODULE        EE_DEFAULT
  C:0000H         SYMBOL        _ICE_DUMMY_
BL51 BANKED LINKER/LOCATER V5.03                                                      01/30/2013  19:55:46  PAGE 42


  C:0E70H         PUBLIC        EE_Default
  -------         ENDMOD        EE_DEFAULT

  -------         MODULE        DMA
  C:0000H         SYMBOL        _ICE_DUMMY_
  D:0090H         PUBLIC        P1
  D:00B0H         PUBLIC        P3
  B:00A8H.7       PUBLIC        EA
 C1:E04DH         PUBLIC        IP210_DMA_Idle_Restore
  D:00A8H         PUBLIC        IE
  D:00B8H         PUBLIC        IP
  D:0087H         PUBLIC        PCON
  D:0098H         PUBLIC        SCON
  D:0088H         PUBLIC        TCON
 C1:C872H         PUBLIC        _IP210_DMA
  B:00A8H.0       PUBLIC        EX0
 C1:DF89H         PUBLIC        IP210_DMA_Set_Idle
  D:00D8H         PUBLIC        WDTCON
 C1:DD16H         PUBLIC        _Fill_DMA_Setting
  D:00C8H         PUBLIC        T2CON
  D:00E1H         PUBLIC        PDCON
 C1:E0DAH         PUBLIC        IP210_Wait_DMA_Complete
  D:00D0H         PUBLIC        PSW

  -------         PROC BANK=1   IP210_DMA_SET_IDLE
  -------         DO            
  D:0007H         SYMBOL        temp_ier
  -------         ENDDO         
 C1:DF89H         LINE#         27
 C1:DF89H         LINE#         28
 C1:DF89H         LINE#         34
 C1:DF8DH         LINE#         36
 C1:DF91H         LINE#         37
 C1:DF93H         LINE#         38
 C1:DF96H         LINE#         39
 C1:DF99H         LINE#         41
 C1:DF9BH         LINE#         42
 C1:DF9DH         LINE#         44
 C1:DFA0H         LINE#         45
  -------         ENDPROC       IP210_DMA_SET_IDLE

  -------         PROC BANK=1   IP210_DMA_IDLE_RESTORE
  -------         DO            
  D:0007H         SYMBOL        temp_ier
  -------         ENDDO         
 C1:E04DH         LINE#         58
 C1:E04DH         LINE#         59
 C1:E04DH         LINE#         64
 C1:E052H         LINE#         66
 C1:E056H         LINE#         67
 C1:E058H         LINE#         68
 C1:E05BH         LINE#         69
 C1:E05EH         LINE#         71
  -------         ENDPROC       IP210_DMA_IDLE_RESTORE

  -------         PROC BANK=1   _FILL_DMA_SETTING
  X:38D6H         SYMBOL        src_addr
BL51 BANKED LINKER/LOCATER V5.03                                                      01/30/2013  19:55:46  PAGE 43


  D:0004H         SYMBOL        des_addr
  D:0002H         SYMBOL        length
 C1:DD16H         LINE#         87
 C1:DD1EH         LINE#         88
 C1:DD1EH         LINE#         90
 C1:DD26H         LINE#         91
 C1:DD2EH         LINE#         93
 C1:DD33H         LINE#         94
 C1:DD38H         LINE#         96
 C1:DD3DH         LINE#         97
 C1:DD42H         LINE#         98
  -------         ENDPROC       _FILL_DMA_SETTING

  -------         PROC BANK=1   IP210_WAIT_DMA_COMPLETE
  -------         DO            
  D:0007H         SYMBOL        b
  -------         ENDDO         
 C1:E0DAH         LINE#         111
 C1:E0DAH         LINE#         112
 C1:E0DAH         LINE#         117
 C1:E0DAH         LINE#         118
 C1:E0DFH         LINE#         119
 C1:E0E3H         LINE#         122
  -------         ENDPROC       IP210_WAIT_DMA_COMPLETE

  -------         PROC BANK=1   _IP210_DMA
  X:35F3H         SYMBOL        src_addr
  X:35F5H         SYMBOL        des_addr
  X:35F7H         SYMBOL        length
  X:35F9H         SYMBOL        cmd
  -------         DO            
  D:0001H         SYMBOL        i
  X:35FAH         SYMBOL        loop_count
  X:35FBH         SYMBOL        mode
  -------         ENDDO         
 C1:C872H         LINE#         138
 C1:C886H         LINE#         139
 C1:C886H         LINE#         144
 C1:C88EH         LINE#         145
 C1:C896H         LINE#         146
 C1:C896H         LINE#         149
 C1:C899H         LINE#         150
 C1:C899H         LINE#         152
 C1:C8A7H         LINE#         153
 C1:C8B6H         LINE#         154
 C1:C8B6H         LINE#         155
 C1:C8C1H         LINE#         156
 C1:C8C1H         LINE#         157
 C1:C8C9H         LINE#         158
 C1:C8D6H         LINE#         160
 C1:C8E8H         LINE#         162
 C1:C8F0H         LINE#         164
 C1:C8F7H         LINE#         165
 C1:C8F7H         LINE#         166
 C1:C8FAH         LINE#         168
 C1:C8FAH         LINE#         170
 C1:C8FDH         LINE#         171
BL51 BANKED LINKER/LOCATER V5.03                                                      01/30/2013  19:55:46  PAGE 44


 C1:C904H         LINE#         172
 C1:C907H         LINE#         174
 C1:C915H         LINE#         175
 C1:C923H         LINE#         176
 C1:C931H         LINE#         177
 C1:C935H         LINE#         180
 C1:C937H         LINE#         181
  -------         ENDPROC       _IP210_DMA
  -------         ENDMOD        DMA

  -------         MODULE        EEPROM
  C:0000H         SYMBOL        _ICE_DUMMY_
 C1:D52FH         PUBLIC        _EEPROM_Read_Byte
  D:0090H         PUBLIC        P1
  D:00B0H         PUBLIC        P3
  D:00A8H         PUBLIC        IE
 C1:DB84H         PUBLIC        _EEPROM_Write_Byte
  D:00B8H         PUBLIC        IP
  D:0098H         PUBLIC        SCON
  D:0088H         PUBLIC        TCON
  D:00D8H         PUBLIC        WDTCON
  D:00C8H         PUBLIC        T2CON
 C1:E0ECH         PUBLIC        EEPROM_Enable
  D:00D0H         PUBLIC        PSW

  -------         PROC BANK=1   EEPROM_ENABLE
  -------         DO            
  D:0007H         SYMBOL        byte_data
  -------         ENDDO         
 C1:E0ECH         LINE#         29
 C1:E0ECH         LINE#         30
 C1:E0ECH         LINE#         33
 C1:E0F0H         LINE#         35
 C1:E0F3H         LINE#         40
  -------         ENDPROC       EEPROM_ENABLE

  -------         PROC BANK=1   _EEPROM_READ_BYTE
  D:0006H         SYMBOL        addr
  X:3862H         SYMBOL        read_data
  -------         DO            
  D:0005H         SYMBOL        EE_addr
  D:0007H         SYMBOL        EE_id
  D:0006H         SYMBOL        byte_data
  D:0004H         SYMBOL        ii
  D:0007H         SYMBOL        i
  -------         ENDDO         
 C1:D52FH         LINE#         84
 C1:D53AH         LINE#         85
 C1:D53AH         LINE#         91
 C1:D53CH         LINE#         92
 C1:D540H         LINE#         94
 C1:D545H         LINE#         95
 C1:D548H         LINE#         98
 C1:D54AH         LINE#         99
 C1:D54AH         LINE#         100
 C1:D550H         LINE#         102
 C1:D553H         LINE#         103
BL51 BANKED LINKER/LOCATER V5.03                                                      01/30/2013  19:55:46  PAGE 45


 C1:D553H         LINE#         104
 C1:D558H         LINE#         105
 C1:D55CH         LINE#         106
 C1:D55CH         LINE#         108
 C1:D55CH         LINE#         109
 C1:D55CH         LINE#         110
 C1:D561H         LINE#         111
 C1:D56AH         LINE#         114
 C1:D56EH         LINE#         115
 C1:D56EH         LINE#         116
 C1:D582H         LINE#         117
 C1:D585H         LINE#         118
 C1:D585H         LINE#         121
 C1:D58AH         LINE#         123
 C1:D58CH         LINE#         124
  -------         ENDPROC       _EEPROM_READ_BYTE

  -------         PROC BANK=1   _EEPROM_WRITE_BYTE
  D:0006H         SYMBOL        addr
  D:0005H         SYMBOL        write_data
  -------         DO            
  D:0004H         SYMBOL        EE_addr
  D:0007H         SYMBOL        EE_id
  D:0006H         SYMBOL        byte_data
  D:0004H         SYMBOL        ii
  D:0007H         SYMBOL        i
  -------         ENDDO         
 C1:DB84H         LINE#         142
 C1:DB84H         LINE#         143
 C1:DB84H         LINE#         149
 C1:DB86H         LINE#         150
 C1:DB8AH         LINE#         152
 C1:DB8FH         LINE#         153
 C1:DB92H         LINE#         154
 C1:DB95H         LINE#         158
 C1:DB97H         LINE#         159
 C1:DB97H         LINE#         160
 C1:DB9CH         LINE#         162
 C1:DB9EH         LINE#         163
 C1:DB9EH         LINE#         164
 C1:DBA3H         LINE#         165
 C1:DBA7H         LINE#         166
 C1:DBA7H         LINE#         168
 C1:DBA7H         LINE#         169
 C1:DBA7H         LINE#         170
 C1:DBACH         LINE#         171
 C1:DBB5H         LINE#         174
 C1:DBB9H         LINE#         175
 C1:DBB9H         LINE#         176
 C1:DBBCH         LINE#         177
 C1:DBBCH         LINE#         180
 C1:DBC1H         LINE#         181
 C1:DBC3H         LINE#         183
  -------         ENDPROC       _EEPROM_WRITE_BYTE
  -------         ENDMOD        EEPROM

  -------         MODULE        SERIAL
BL51 BANKED LINKER/LOCATER V5.03                                                      01/30/2013  19:55:46  PAGE 46


  C:0000H         SYMBOL        _ICE_DUMMY_
  D:0090H         PUBLIC        P1
  D:00B0H         PUBLIC        P3
  D:00A8H         PUBLIC        IE
  D:00B8H         PUBLIC        IP
  B:0098H.0       PUBLIC        RI
  B:0098H.1       PUBLIC        TI
 C1:E05FH         PUBLIC        _Serial_Check_Rx
  D:0099H         PUBLIC        SBUF
  D:0087H         PUBLIC        PCON
  D:0098H         PUBLIC        SCON
  D:0089H         PUBLIC        TMOD
  D:0088H         PUBLIC        TCON
 C1:E0C4H         PUBLIC        Serial_Polling_Rx
  D:008DH         PUBLIC        TH1
  D:00D8H         PUBLIC        WDTCON
  B:0088H.6       PUBLIC        TR1
 C1:E013H         PUBLIC        Serial_Init
  D:00C8H         PUBLIC        T2CON
  D:00D0H         PUBLIC        PSW

  -------         PROC BANK=1   SERIAL_INIT
 C1:E013H         LINE#         34
 C1:E013H         LINE#         35
 C1:E013H         LINE#         36
 C1:E016H         LINE#         37
 C1:E019H         LINE#         38
 C1:E01CH         LINE#         39
 C1:E01FH         LINE#         40
 C1:E022H         LINE#         41
 C1:E024H         LINE#         42
 C1:E026H         LINE#         43
  -------         ENDPROC       SERIAL_INIT

  -------         PROC BANK=1   _SERIAL_CHECK_RX
  D:0007H         SYMBOL        rx_byte
 C1:E05FH         LINE#         59
 C1:E05FH         LINE#         60
 C1:E05FH         LINE#         61
 C1:E062H         LINE#         62
 C1:E062H         LINE#         63
 C1:E064H         LINE#         64
 C1:E06EH         LINE#         65
 C1:E06EH         LINE#         66
 C1:E070H         LINE#         67
  -------         ENDPROC       _SERIAL_CHECK_RX

  -------         PROC BANK=1   SERIAL_POLLING_RX
 C1:E0C4H         LINE#         82
 C1:E0C4H         LINE#         83
 C1:E0C4H         LINE#         84
 C1:E0C7H         LINE#         85
 C1:E0C7H         LINE#         86
 C1:E0C9H         LINE#         87
 C1:E0CCH         LINE#         88
 C1:E0CCH         LINE#         89
 C1:E0CEH         LINE#         90
BL51 BANKED LINKER/LOCATER V5.03                                                      01/30/2013  19:55:46  PAGE 47


  -------         ENDPROC       SERIAL_POLLING_RX
  -------         ENDMOD        SERIAL

  -------         MODULE        MACDRIVER
  C:0000H         SYMBOL        _ICE_DUMMY_
  D:0080H         PUBLIC        P0
  D:0090H         PUBLIC        P1
 C1:D905H         PUBLIC        EthernetReceiveFreeSpace
  D:00A0H         PUBLIC        P2
  D:00B0H         PUBLIC        P3
  D:00E8H         PUBLIC        P4
  B:00D8H.1       PUBLIC        WDTEN
  X:3589H         PUBLIC        RWmismatch
 C1:DE9EH         PUBLIC        MAC_Address_fill
  D:00A8H         PUBLIC        IE
  X:358BH         PUBLIC        Tx_Current
  D:00B8H         PUBLIC        IP
 C1:D229H         PUBLIC        _uip_add32
 C1:C9FEH         PUBLIC        EthernetReceiveSkip
 C1:DF39H         PUBLIC        wait_packet_sent
 C1:8666H         PUBLIC        _EthernetSend
  B:00D8H.3       PUBLIC        WDT_DIS
  D:0098H         PUBLIC        SCON
  D:0088H         PUBLIC        TCON
  X:358CH         PUBLIC        turn_around
 C1:D954H         PUBLIC        check_MAC_status
  C:3D34H         SYMBOL        _?ix1000
 C1:DEBFH         PUBLIC        IP_Address_fill
  D:00D8H         PUBLIC        WDTCON
 C1:DE23H         PUBLIC        TFD_index
 C1:CABAH         PUBLIC        _EthernetReceiveLookAhead
  X:358DH         PUBLIC        Tx_bak
  X:358EH         PUBLIC        TxTime
 C1:DEFFH         PUBLIC        _Resize_RX_Buf
 C1:B912H         PUBLIC        _check_packet_type
 C1:CECAH         PUBLIC        _EthernetSend2
  D:00C8H         PUBLIC        T2CON
 C1:DD43H         PUBLIC        MAC_init
  X:3592H         PUBLIC        Read_Point
 C1:A70BH         PUBLIC        _EthernetReceive
  D:00D0H         PUBLIC        PSW

  -------         PROC BANK=1   MAC_ADDRESS_FILL
  -------         DO            
  D:0007H         SYMBOL        i
  -------         ENDDO         
 C1:DE9EH         LINE#         69
 C1:DE9EH         LINE#         70
 C1:DE9EH         LINE#         71
 C1:DEA0H         LINE#         72
 C1:DEBEH         LINE#         73
  -------         ENDPROC       MAC_ADDRESS_FILL

  -------         PROC BANK=1   IP_ADDRESS_FILL
  -------         DO            
  D:0007H         SYMBOL        i
  -------         ENDDO         
BL51 BANKED LINKER/LOCATER V5.03                                                      01/30/2013  19:55:46  PAGE 48


 C1:DEBFH         LINE#         87
 C1:DEBFH         LINE#         88
 C1:DEBFH         LINE#         89
 C1:DEC1H         LINE#         90
 C1:DEDFH         LINE#         91
  -------         ENDPROC       IP_ADDRESS_FILL

  -------         PROC BANK=1   _RESIZE_RX_BUF
  D:0007H         SYMBOL        rx_start
  -------         DO            
  D:0005H         SYMBOL        MAC_Setting
  -------         ENDDO         
 C1:DEFFH         LINE#         105
 C1:DEFFH         LINE#         106
 C1:DF04H         LINE#         108
 C1:DF07H         LINE#         109
 C1:DF0CH         LINE#         110
 C1:DF14H         LINE#         111
 C1:DF1BH         LINE#         112
  -------         ENDPROC       _RESIZE_RX_BUF

  -------         PROC BANK=1   MAC_INIT
  -------         DO            
  D:0007H         SYMBOL        reg_value
  -------         ENDDO         
 C1:DD43H         LINE#         125
 C1:DD43H         LINE#         126
 C1:DD43H         LINE#         129
 C1:DD49H         LINE#         131
 C1:DD4FH         LINE#         133
 C1:DD52H         LINE#         135
 C1:DD56H         LINE#         136
 C1:DD5BH         LINE#         137
 C1:DD5CH         LINE#         138
 C1:DD67H         LINE#         140
 C1:DD6AH         LINE#         141
  -------         ENDPROC       MAC_INIT
  -------         PROC          L?0102
  -------         ENDPROC       L?0102

  -------         PROC BANK=1   TFD_INDEX
 C1:DE23H         LINE#         158
 C1:DE23H         LINE#         159
 C1:DE23H         LINE#         160
 C1:DE2BH         LINE#         161
 C1:DE30H         LINE#         162
 C1:DE34H         LINE#         163
  -------         ENDPROC       TFD_INDEX

  -------         PROC BANK=1   _CHECK_PACKET_TYPE
  X:3700H         SYMBOL        tx_buf
  -------         DO            
  X:3703H         SYMBOL        ether_type_offset
  X:3704H         SYMBOL        ip_type_offset
  X:3705H         SYMBOL        VLAN_TAG
  X:3706H         SYMBOL        value
  -------         ENDDO         
BL51 BANKED LINKER/LOCATER V5.03                                                      01/30/2013  19:55:46  PAGE 49


 C1:B912H         LINE#         196
 C1:B91DH         LINE#         197
 C1:B91DH         LINE#         198
 C1:B922H         LINE#         200
 C1:B929H         LINE#         202
 C1:B92CH         LINE#         207
 C1:B978H         LINE#         208
 C1:B978H         LINE#         209
 C1:B97EH         LINE#         210
 C1:B982H         LINE#         211
 C1:B984H         LINE#         214
 C1:B984H         LINE#         215
 C1:B98AH         LINE#         216
 C1:B98EH         LINE#         217
 C1:B98EH         LINE#         219
 C1:B9D6H         LINE#         220
 C1:B9D6H         LINE#         221
 C1:B9DEH         LINE#         222
 C1:B9E3H         LINE#         223
 C1:B9E6H         LINE#         224
 C1:B9E6H         LINE#         227
 C1:B9E6H         LINE#         228
 C1:B9ECH         LINE#         229
 C1:B9EFH         LINE#         231
 C1:BA0DH         LINE#         232
 C1:BA0DH         LINE#         233
 C1:BA17H         LINE#         234
 C1:BA1AH         LINE#         235
 C1:BA1EH         LINE#         236
 C1:BA21H         LINE#         237
 C1:BA2AH         LINE#         238
 C1:BA2DH         LINE#         239
 C1:BA2DH         LINE#         240
 C1:BA3AH         LINE#         241
 C1:BA3DH         LINE#         242
 C1:BA3FH         LINE#         243
 C1:BA3FH         LINE#         244
  -------         ENDPROC       _CHECK_PACKET_TYPE

  -------         PROC BANK=1   _ETHERNETSEND
  X:346BH         SYMBOL        tx_buf
  X:346EH         SYMBOL        plen
  -------         DO            
  X:3470H         SYMBOL        ptype
  X:3471H         SYMBOL        chr
  X:3472H         SYMBOL        send_buf
  X:3475H         SYMBOL        tag_buf
  X:3479H         SYMBOL        f_tag
  X:347AH         SYMBOL        value
  -------         ENDDO         
 C1:8666H         LINE#         285
 C1:8679H         LINE#         286
 C1:8679H         LINE#         287
 C1:8680H         LINE#         288
 C1:8689H         LINE#         290
 C1:869CH         LINE#         291
 C1:86A3H         LINE#         292
BL51 BANKED LINKER/LOCATER V5.03                                                      01/30/2013  19:55:46  PAGE 50


 C1:86C0H         LINE#         293
 C1:86C0H         LINE#         294
 C1:86D2H         LINE#         295
 C1:86E0H         LINE#         296
 C1:86EEH         LINE#         297
 C1:86F4H         LINE#         299
 C1:86F7H         LINE#         304
 C1:870CH         LINE#         305
 C1:870CH         LINE#         306
 C1:870CH         LINE#         307
 C1:870FH         LINE#         309
 C1:870FH         LINE#         311
 C1:8712H         LINE#         316
 C1:8752H         LINE#         317
 C1:8752H         LINE#         318
 C1:8768H         LINE#         319
 C1:8768H         LINE#         320
 C1:8776H         LINE#         321
 C1:8784H         LINE#         322
 C1:878AH         LINE#         323
 C1:879BH         LINE#         324
 C1:87C7H         LINE#         325
 C1:87E8H         LINE#         326
 C1:87EBH         LINE#         330
 C1:881FH         LINE#         331
 C1:881FH         LINE#         332
 C1:882DH         LINE#         333
 C1:883BH         LINE#         334
 C1:8841H         LINE#         335
 C1:8858H         LINE#         336
 C1:8884H         LINE#         337
 C1:88A5H         LINE#         338
 C1:88AAH         LINE#         339
 C1:88ACH         LINE#         341
 C1:88C7H         LINE#         342
 C1:88C7H         LINE#         344
 C1:88DEH         LINE#         345
 C1:88E1H         LINE#         346
 C1:88F2H         LINE#         347
 C1:88F5H         LINE#         348
 C1:8908H         LINE#         351
 C1:890BH         LINE#         356
 C1:8929H         LINE#         357
 C1:8943H         LINE#         359
 C1:8955H         LINE#         360
 C1:8962H         LINE#         361
 C1:8966H         LINE#         362
 C1:8973H         LINE#         363
 C1:8976H         LINE#         364
 C1:8976H         LINE#         368
 C1:8979H         LINE#         371
 C1:8981H         LINE#         372
 C1:8983H         LINE#         373
 C1:8987H         LINE#         374
 C1:898DH         LINE#         375
 C1:89A9H         LINE#         376
 C1:89C2H         LINE#         377
BL51 BANKED LINKER/LOCATER V5.03                                                      01/30/2013  19:55:46  PAGE 51


 C1:89C7H         LINE#         378
 C1:89D4H         LINE#         379
 C1:89D4H         LINE#         382
 C1:89D7H         LINE#         387
 C1:89D9H         LINE#         388
  -------         ENDPROC       _ETHERNETSEND

  -------         PROC BANK=1   _ETHERNETSEND2
  D:0001H         SYMBOL        tx_buf
  X:3865H         SYMBOL        plen
  -------         DO            
  X:3867H         SYMBOL        ptype
  D:0007H         SYMBOL        chr
  -------         ENDDO         
 C1:CECAH         LINE#         415
 C1:CED2H         LINE#         416
 C1:CED5H         LINE#         417
 C1:CEECH         LINE#         418
 C1:CEEFH         LINE#         419
 C1:CF00H         LINE#         420
 C1:CF03H         LINE#         422
 C1:CF1AH         LINE#         423
 C1:CF34H         LINE#         425
 C1:CF46H         LINE#         426
 C1:CF4EH         LINE#         427
 C1:CF52H         LINE#         428
 C1:CF5DH         LINE#         429
 C1:CF5FH         LINE#         430
 C1:CF5FH         LINE#         434
 C1:CF62H         LINE#         435
 C1:CF64H         LINE#         436
  -------         ENDPROC       _ETHERNETSEND2

  -------         PROC BANK=1   _ETHERNETRECEIVELOOKAHEAD
  X:3707H         SYMBOL        len
  -------         DO            
  X:370AH         SYMBOL        pkt_addr
  X:370CH         SYMBOL        packet_len
  -------         ENDDO         
 C1:CABAH         LINE#         493
 C1:CAC5H         LINE#         494
 C1:CAD4H         LINE#         495
 C1:CADBH         LINE#         497
 C1:CAEAH         LINE#         498
 C1:CB00H         LINE#         499
 C1:CB0AH         LINE#         500
 C1:CB13H         LINE#         501
 C1:CB1CH         LINE#         502
 C1:CB2FH         LINE#         504
 C1:CB43H         LINE#         505
 C1:CB5BH         LINE#         506
 C1:CB6DH         LINE#         507
 C1:CB6DH         LINE#         508
  -------         ENDPROC       _ETHERNETRECEIVELOOKAHEAD

  -------         PROC BANK=1   CHECK_MAC_STATUS
 C1:D954H         LINE#         511
BL51 BANKED LINKER/LOCATER V5.03                                                      01/30/2013  19:55:46  PAGE 52


 C1:D954H         LINE#         512
 C1:D954H         LINE#         513
 C1:D972H         LINE#         514
 C1:D972H         LINE#         515
 C1:D980H         LINE#         516
 C1:D980H         LINE#         517
 C1:D98FH         LINE#         518
 C1:D98FH         LINE#         519
 C1:D998H         LINE#         520
 C1:D99CH         LINE#         521
 C1:D99EH         LINE#         522
 C1:D99EH         LINE#         523
  -------         ENDPROC       CHECK_MAC_STATUS

  -------         PROC BANK=1   _ETHERNETRECEIVE
  X:350EH         SYMBOL        rx_buf
  -------         DO            
  X:3511H         SYMBOL        packet_len
  X:3513H         SYMBOL        pkt_addr
  X:3515H         SYMBOL        p_type
  -------         DO            
  X:3516H         SYMBOL        fst_len
  X:3518H         SYMBOL        sec_len
  X:351AH         SYMBOL        offset
  -------         ENDDO         
  -------         ENDDO         
 C1:A70BH         LINE#         542
 C1:A716H         LINE#         543
 C1:A716H         LINE#         545
 C1:A725H         LINE#         546
 C1:A728H         LINE#         547
 C1:A72CH         LINE#         548
 C1:A72CH         LINE#         549
 C1:A733H         LINE#         551
 C1:A742H         LINE#         552
 C1:A758H         LINE#         553
 C1:A771H         LINE#         554
 C1:A77DH         LINE#         555
 C1:A786H         LINE#         556
 C1:A78FH         LINE#         557
 C1:A7A2H         LINE#         559
 C1:A7B6H         LINE#         561
 C1:A7C4H         LINE#         563
 C1:A7E3H         LINE#         564
 C1:A7F1H         LINE#         565
 C1:A7F6H         LINE#         566
 C1:A805H         LINE#         567
 C1:A820H         LINE#         568
 C1:A824H         LINE#         569
 C1:A848H         LINE#         571
 C1:A850H         LINE#         572
 C1:A87AH         LINE#         573
 C1:A87CH         LINE#         575
 C1:A89EH         LINE#         578
 C1:A8B2H         LINE#         579
 C1:A8BFH         LINE#         580
 C1:A8BFH         LINE#         581
BL51 BANKED LINKER/LOCATER V5.03                                                      01/30/2013  19:55:46  PAGE 53


 C1:A8D9H         LINE#         582
 C1:A8E3H         LINE#         583
 C1:A8E3H         LINE#         585
 C1:A8F3H         LINE#         586
 C1:A8F9H         LINE#         587
 C1:A903H         LINE#         588
 C1:A913H         LINE#         590
 C1:A91BH         LINE#         591
  -------         ENDPROC       _ETHERNETRECEIVE

  -------         PROC BANK=1   ETHERNETRECEIVESKIP
  -------         DO            
  X:38D8H         SYMBOL        packet_len
  D:0004H         SYMBOL        pkt_addr
  -------         ENDDO         
 C1:C9FEH         LINE#         601
 C1:C9FEH         LINE#         602
 C1:C9FEH         LINE#         603
 C1:CA0EH         LINE#         604
 C1:CA12H         LINE#         606
 C1:CA12H         LINE#         607
 C1:CA20H         LINE#         608
 C1:CA2AH         LINE#         609
 C1:CA33H         LINE#         610
 C1:CA3CH         LINE#         611
 C1:CA48H         LINE#         613
 C1:CA5CH         LINE#         615
 C1:CA70H         LINE#         616
 C1:CA79H         LINE#         617
 C1:CA79H         LINE#         618
 C1:CA8DH         LINE#         619
 C1:CA97H         LINE#         620
 C1:CA97H         LINE#         622
 C1:CA9FH         LINE#         623
 C1:CAA5H         LINE#         624
 C1:CAA9H         LINE#         625
 C1:CAB1H         LINE#         626
 C1:CAB9H         LINE#         627
  -------         ENDPROC       ETHERNETRECEIVESKIP

  -------         PROC BANK=1   ETHERNETRECEIVEFREESPACE
  -------         DO            
  D:0004H         SYMBOL        WritePtr
  -------         ENDDO         
 C1:D905H         LINE#         699
 C1:D905H         LINE#         700
 C1:D911H         LINE#         701
 C1:D91DH         LINE#         702
 C1:D921H         LINE#         703
 C1:D92FH         LINE#         704
 C1:D936H         LINE#         706
 C1:D953H         LINE#         707
  -------         ENDPROC       ETHERNETRECEIVEFREESPACE

  -------         PROC BANK=1   _UIP_ADD32
  D:0001H         SYMBOL        op32
  X:38DAH         SYMBOL        op16
BL51 BANKED LINKER/LOCATER V5.03                                                      01/30/2013  19:55:46  PAGE 54


 C1:D229H         LINE#         814
 C1:D231H         LINE#         815
 C1:D231H         LINE#         817
 C1:D241H         LINE#         818
 C1:D251H         LINE#         819
 C1:D25BH         LINE#         820
 C1:D262H         LINE#         822
 C1:D277H         LINE#         823
 C1:D27DH         LINE#         824
 C1:D280H         LINE#         825
 C1:D286H         LINE#         826
 C1:D286H         LINE#         827
 C1:D286H         LINE#         830
 C1:D293H         LINE#         831
 C1:D299H         LINE#         832
 C1:D29CH         LINE#         833
 C1:D2A2H         LINE#         834
 C1:D2A5H         LINE#         835
 C1:D2ABH         LINE#         836
 C1:D2ABH         LINE#         837
 C1:D2ABH         LINE#         838
 C1:D2ABH         LINE#         839
  -------         ENDPROC       _UIP_ADD32

  -------         PROC BANK=1   WAIT_PACKET_SENT
 C1:DF39H         LINE#         845
 C1:DF39H         LINE#         846
 C1:DF39H         LINE#         848
 C1:DF39H         LINE#         849
 C1:DF3CH         LINE#         850
 C1:DF53H         LINE#         851
  -------         ENDPROC       WAIT_PACKET_SENT
  -------         ENDMOD        MACDRIVER

  -------         MODULE        TIMER
  C:0000H         SYMBOL        _ICE_DUMMY_
 C1:DF6FH         PUBLIC        Timercounter_Init
  D:0090H         PUBLIC        P1
  D:00B0H         PUBLIC        P3
 C1:DEE0H         PUBLIC        Timer_Counter_Overflow
  D:00A8H         PUBLIC        IE
  D:00B8H         PUBLIC        IP
  D:00CBH         PUBLIC        RCAP2H
  D:00CAH         PUBLIC        RCAP2L
  X:3679H         PUBLIC        timercounter
 C1:E0ACH         PUBLIC        Timer0_Init
 C1:E09EH         PUBLIC        Timer2_Init
  X:367DH         PUBLIC        high_timercounter
 C1:E11EH         PUBLIC        Timercounter0_Init
  D:0098H         PUBLIC        SCON
  D:0089H         PUBLIC        TMOD
  D:0088H         PUBLIC        TCON
 C1:D8AFH         PUBLIC        IP210_Write_Timer_Counter
  D:008CH         PUBLIC        TH0
  D:00CDH         PUBLIC        TH2
  D:008AH         PUBLIC        TL0
  D:00D8H         PUBLIC        WDTCON
BL51 BANKED LINKER/LOCATER V5.03                                                      01/30/2013  19:55:46  PAGE 55


  D:00CCH         PUBLIC        TL2
  B:00C8H.2       PUBLIC        TR2
  D:00C8H         PUBLIC        T2CON
  D:00D0H         PUBLIC        PSW

  -------         PROC BANK=1   TIMER2_INIT
 C1:E09EH         LINE#         33
 C1:E09EH         LINE#         34
 C1:E09EH         LINE#         35
 C1:E0A1H         LINE#         36
 C1:E0A4H         LINE#         37
 C1:E0A7H         LINE#         38
 C1:E0A9H         LINE#         39
 C1:E0ABH         LINE#         40
  -------         ENDPROC       TIMER2_INIT

  -------         PROC BANK=1   TIMER0_INIT
 C1:E0ACH         LINE#         42
 C1:E0ACH         LINE#         43
 C1:E0ACH         LINE#         44
 C1:E0AFH         LINE#         45
 C1:E0B2H         LINE#         46
 C1:E0B5H         LINE#         47
 C1:E0B7H         LINE#         51
  -------         ENDPROC       TIMER0_INIT

  -------         PROC BANK=1   IP210_WRITE_TIMER_COUNTER
 C1:D8AFH         LINE#         64
 C1:D8AFH         LINE#         65
 C1:D8AFH         LINE#         66
 C1:D8BCH         LINE#         67
 C1:D8D4H         LINE#         68
 C1:D8ECH         LINE#         69
 C1:D904H         LINE#         70
  -------         ENDPROC       IP210_WRITE_TIMER_COUNTER

  -------         PROC BANK=1   TIMERCOUNTER_INIT
 C1:DF6FH         LINE#         84
 C1:DF6FH         LINE#         85
 C1:DF6FH         LINE#         88
 C1:DF72H         LINE#         90
 C1:DF7CH         LINE#         91
 C1:DF86H         LINE#         92
  -------         ENDPROC       TIMERCOUNTER_INIT

  -------         PROC BANK=1   TIMERCOUNTER0_INIT
 C1:E11EH         LINE#         97
 C1:E11EH         LINE#         98
 C1:E11EH         LINE#         101
  -------         ENDPROC       TIMERCOUNTER0_INIT

  -------         PROC BANK=1   TIMER_COUNTER_OVERFLOW
 C1:DEE0H         LINE#         119
 C1:DEE0H         LINE#         120
 C1:DEE0H         LINE#         121
  -------         ENDPROC       TIMER_COUNTER_OVERFLOW
  -------         ENDMOD        TIMER
BL51 BANKED LINKER/LOCATER V5.03                                                      01/30/2013  19:55:46  PAGE 56



  -------         MODULE        UART
  C:0000H         SYMBOL        _ICE_DUMMY_
  D:0090H         PUBLIC        P1
  D:00B0H         PUBLIC        P3
  D:00A8H         PUBLIC        IE
 C1:CF65H         PUBLIC        UART_Set_Property
  D:00B8H         PUBLIC        IP
 C1:E0F4H         PUBLIC        UART_Set_RTS
 C1:DCE7H         PUBLIC        _UART_Receive_Multi
  D:0098H         PUBLIC        SCON
  D:0088H         PUBLIC        TCON
 C1:E027H         PUBLIC        _UART_Receive_Byte
 C1:DBC4H         PUBLIC        _UART_Transmit_Multi
  X:2C7DH         PUBLIC        UART_Baudrate
 C1:E118H         PUBLIC        _UART_Transmit_Byte
  D:00D8H         PUBLIC        WDTCON
 C1:E112H         PUBLIC        UART_Rx_FIFO_Status
 C1:E10CH         PUBLIC        UART_Tx_FIFO_Status
 C1:DF54H         PUBLIC        UART_Empty_Rx_FIFO
 C1:E0FCH         PUBLIC        UART_Clear_RTS
  D:00C8H         PUBLIC        T2CON
 C1:DFA1H         PUBLIC        _UART_Set_Divisor
  X:2D19H         PUBLIC        UART_Settings
  D:00D0H         PUBLIC        PSW

  -------         PROC BANK=1   _UART_SET_DIVISOR
  D:0007H         SYMBOL        divisor_H
  D:0005H         SYMBOL        divisor_L
  -------         DO            
  D:0006H         SYMBOL        byte_data
  -------         ENDDO         
 C1:DFA1H         LINE#         21
 C1:DFA1H         LINE#         22
 C1:DFA1H         LINE#         26
 C1:DFA5H         LINE#         27
 C1:DFA8H         LINE#         28
 C1:DFA9H         LINE#         30
 C1:DFAEH         LINE#         31
 C1:DFB1H         LINE#         34
 C1:DFB4H         LINE#         35
 C1:DFB8H         LINE#         37
  -------         ENDPROC       _UART_SET_DIVISOR

  -------         PROC BANK=1   UART_SET_PROPERTY
  -------         DO            
  D:0005H         SYMBOL        divisor_L
  D:0007H         SYMBOL        divisor_H
  D:0007H         SYMBOL        byte_data
  -------         ENDDO         
 C1:CF65H         LINE#         39
 C1:CF65H         LINE#         40
 C1:CF65H         LINE#         46
 C1:CF70H         LINE#         47
 C1:CF70H         LINE#         48
 C1:CF74H         LINE#         49
 C1:CF77H         LINE#         50
BL51 BANKED LINKER/LOCATER V5.03                                                      01/30/2013  19:55:46  PAGE 57


 C1:CF78H         LINE#         53
 C1:CF7CH         LINE#         54
 C1:CF7EH         LINE#         57
 C1:CF83H         LINE#         58
 C1:CF88H         LINE#         60
 C1:CF8BH         LINE#         62
 C1:CF8FH         LINE#         63
 C1:CF91H         LINE#         67
 C1:CF95H         LINE#         71
 C1:CF98H         LINE#         72
 C1:CF9EH         LINE#         73
 C1:CFA0H         LINE#         76
 C1:CFA7H         LINE#         77
 C1:CFADH         LINE#         79
 C1:CFB1H         LINE#         82
 C1:CFB5H         LINE#         83
 C1:CFBAH         LINE#         84
 C1:CFBEH         LINE#         86
 C1:CFBFH         LINE#         90
 C1:CFC5H         LINE#         91
 C1:CFC5H         LINE#         92
 C1:CFC5H         LINE#         93
 C1:CFC9H         LINE#         94
 C1:CFCAH         LINE#         97
 C1:CFCEH         LINE#         100
 C1:CFD0H         LINE#         101
 C1:CFD1H         LINE#         102
 C1:CFD2H         LINE#         105
 C1:CFD2H         LINE#         106
 C1:CFD9H         LINE#         107
 C1:CFD9H         LINE#         108
 C1:CFDDH         LINE#         110
 C1:CFE0H         LINE#         111
 C1:CFE1H         LINE#         112
 C1:CFE2H         LINE#         114
 C1:CFE2H         LINE#         117
 C1:CFE6H         LINE#         118
 C1:CFE9H         LINE#         121
 C1:CFEFH         LINE#         122
 C1:CFF3H         LINE#         123
 C1:CFF8H         LINE#         124
 C1:CFF9H         LINE#         126
 C1:CFF9H         LINE#         128
  -------         ENDPROC       UART_SET_PROPERTY

  -------         PROC BANK=1   _UART_TRANSMIT_MULTI
  X:37FDH         SYMBOL        ptr_src
  X:3800H         SYMBOL        length
  -------         DO            
  D:0006H         SYMBOL        tx_count
  D:0005H         SYMBOL        tx_byte
  -------         ENDDO         
 C1:DBC4H         LINE#         130
 C1:DBD5H         LINE#         131
 C1:DBD5H         LINE#         132
 C1:DBD8H         LINE#         133
 C1:DBD8H         LINE#         135
BL51 BANKED LINKER/LOCATER V5.03                                                      01/30/2013  19:55:46  PAGE 58


 C1:DBE5H         LINE#         136
 C1:DBE5H         LINE#         137
 C1:DBF8H         LINE#         138
 C1:DBFCH         LINE#         139
 C1:DC03H         LINE#         140
  -------         ENDPROC       _UART_TRANSMIT_MULTI

  -------         PROC BANK=1   _UART_RECEIVE_MULTI
  X:3868H         SYMBOL        ptr_des
  D:0005H         SYMBOL        length
  -------         DO            
  D:0007H         SYMBOL        rx_count
  D:0006H         SYMBOL        rx_byte
  -------         ENDDO         
 C1:DCE7H         LINE#         142
 C1:DCF2H         LINE#         143
 C1:DCF2H         LINE#         144
 C1:DCF4H         LINE#         146
 C1:DCF9H         LINE#         147
 C1:DCF9H         LINE#         148
 C1:DCFEH         LINE#         151
 C1:DD12H         LINE#         152
 C1:DD15H         LINE#         153
  -------         ENDPROC       _UART_RECEIVE_MULTI

  -------         PROC BANK=1   UART_TX_FIFO_STATUS
 C1:E10CH         LINE#         157
 C1:E10CH         LINE#         158
 C1:E10CH         LINE#         159
 C1:E111H         LINE#         160
  -------         ENDPROC       UART_TX_FIFO_STATUS

  -------         PROC BANK=1   UART_RX_FIFO_STATUS
 C1:E112H         LINE#         162
 C1:E112H         LINE#         163
 C1:E112H         LINE#         164
 C1:E117H         LINE#         165
  -------         ENDPROC       UART_RX_FIFO_STATUS

  -------         PROC BANK=1   UART_EMPTY_RX_FIFO
  -------         DO            
  D:0007H         SYMBOL        rx_count
  X:38FBH         SYMBOL        rx_byte
  D:0006H         SYMBOL        i
  -------         ENDDO         
 C1:DF54H         LINE#         167
 C1:DF54H         LINE#         168
 C1:DF54H         LINE#         169
 C1:DF56H         LINE#         171
 C1:DF59H         LINE#         172
 C1:DF5CH         LINE#         173
 C1:DF5CH         LINE#         174
 C1:DF63H         LINE#         175
 C1:DF63H         LINE#         176
 C1:DF6BH         LINE#         177
 C1:DF6EH         LINE#         178
 C1:DF6EH         LINE#         180
BL51 BANKED LINKER/LOCATER V5.03                                                      01/30/2013  19:55:46  PAGE 59


  -------         ENDPROC       UART_EMPTY_RX_FIFO

  -------         PROC BANK=1   _UART_RECEIVE_BYTE
  D:0001H         SYMBOL        Rx_byte
 C1:E027H         LINE#         182
 C1:E027H         LINE#         183
 C1:E027H         LINE#         185
 C1:E02DH         LINE#         186
 C1:E02DH         LINE#         187
 C1:E034H         LINE#         188
 C1:E037H         LINE#         189
 C1:E037H         LINE#         191
 C1:E037H         LINE#         192
 C1:E039H         LINE#         193
 C1:E039H         LINE#         195
  -------         ENDPROC       _UART_RECEIVE_BYTE

  -------         PROC BANK=1   _UART_TRANSMIT_BYTE
  D:0007H         SYMBOL        Tx_byte
 C1:E118H         LINE#         198
 C1:E118H         LINE#         199
 C1:E118H         LINE#         200
 C1:E11DH         LINE#         201
  -------         ENDPROC       _UART_TRANSMIT_BYTE

  -------         PROC BANK=1   UART_SET_RTS
  -------         DO            
  D:0007H         SYMBOL        tmp
  -------         ENDDO         
 C1:E0F4H         LINE#         202
 C1:E0F4H         LINE#         203
 C1:E0F4H         LINE#         205
 C1:E0F8H         LINE#         206
 C1:E0FBH         LINE#         207
  -------         ENDPROC       UART_SET_RTS

  -------         PROC BANK=1   UART_CLEAR_RTS
  -------         DO            
  D:0007H         SYMBOL        tmp
  -------         ENDDO         
 C1:E0FCH         LINE#         209
 C1:E0FCH         LINE#         210
 C1:E0FCH         LINE#         212
 C1:E100H         LINE#         213
 C1:E103H         LINE#         214
  -------         ENDPROC       UART_CLEAR_RTS
  -------         ENDMOD        UART

  -------         MODULE        MDC_MDIO
  C:0000H         SYMBOL        _ICE_DUMMY_
  D:0090H         PUBLIC        P1
  D:00B0H         PUBLIC        P3
  D:00A8H         PUBLIC        IE
 C1:DB02H         PUBLIC        _Read_MDC
  D:00B8H         PUBLIC        IP
 C1:DA7AH         PUBLIC        _Write_MDC
  X:38DCH         PUBLIC        MDC_PREM_OFF
BL51 BANKED LINKER/LOCATER V5.03                                                      01/30/2013  19:55:46  PAGE 60


  X:38DDH         PUBLIC        MDC_SPEED
  D:0098H         PUBLIC        SCON
  D:0088H         PUBLIC        TCON
  D:00D8H         PUBLIC        WDTCON
  D:00C8H         PUBLIC        T2CON
  D:00D0H         PUBLIC        PSW

  -------         PROC BANK=1   _READ_MDC
  D:0007H         SYMBOL        phyad
  D:0005H         SYMBOL        regad
  -------         DO            
  D:0007H         SYMBOL        reg
  D:0006H         SYMBOL        ret_reg
  D:0002H         SYMBOL        i
  -------         ENDDO         
 C1:DB02H         LINE#         31
 C1:DB02H         LINE#         32
 C1:DB02H         LINE#         33
 C1:DB05H         LINE#         34
 C1:DB0AH         LINE#         35
 C1:DB0DH         LINE#         37
 C1:DB1FH         LINE#         38
 C1:DB1FH         LINE#         39
 C1:DB24H         LINE#         40
 C1:DB29H         LINE#         41
 C1:DB36H         LINE#         42
 C1:DB3AH         LINE#         43
 C1:DB3BH         LINE#         44
 C1:DB42H         LINE#         45
 C1:DB42H         LINE#         46
  -------         ENDPROC       _READ_MDC

  -------         PROC BANK=1   _WRITE_MDC
  X:38FCH         SYMBOL        phyad
  D:0001H         SYMBOL        regad
  D:0002H         SYMBOL        Regdata
  -------         DO            
  D:0007H         SYMBOL        reg
  D:0004H         SYMBOL        i
  -------         ENDDO         
 C1:DA7AH         LINE#         62
 C1:DA81H         LINE#         63
 C1:DA81H         LINE#         65
 C1:DA84H         LINE#         66
 C1:DA89H         LINE#         67
 C1:DA8EH         LINE#         68
 C1:DA96H         LINE#         69
 C1:DA99H         LINE#         71
 C1:DAA7H         LINE#         72
 C1:DAA7H         LINE#         73
 C1:DAACH         LINE#         74
 C1:DAB1H         LINE#         75
 C1:DABEH         LINE#         76
  -------         ENDPROC       _WRITE_MDC
  -------         ENDMOD        MDC_MDIO

  -------         MODULE        OS_CBK
BL51 BANKED LINKER/LOCATER V5.03                                                      01/30/2013  19:55:46  PAGE 61


  C:0000H         SYMBOL        _ICE_DUMMY_
  D:0080H         PUBLIC        P0
 C1:E071H         PUBLIC        os_loop
  D:0090H         PUBLIC        P1
  D:00A0H         PUBLIC        P2
  D:00B0H         PUBLIC        P3
  D:00E8H         PUBLIC        P4
  X:35FCH         PUBLIC        gateway_count
  D:00A8H         PUBLIC        IE
  B:00E8H.5       PUBLIC        P4_5
  D:00B8H         PUBLIC        IP
  X:35FEH         PUBLIC        Link_Status_Change
  X:35FFH         PUBLIC        firm_flag
 C1:E0CFH         PUBLIC        os_initial
  X:3600H         PUBLIC        boot_flag
  D:0098H         PUBLIC        SCON
  D:0088H         PUBLIC        TCON
 C1:D69FH         PUBLIC        Check_Speed
  X:3601H         PUBLIC        firm_count
 C1:D321H         PUBLIC        LoadDefault
  D:00D8H         PUBLIC        WDTCON
 C1:DE59H         PUBLIC        os_loop_100ms
 C1:DE35H         PUBLIC        Gateway_timer
  X:3603H         PUBLIC        force_reset_countdown
  D:00C8H         PUBLIC        T2CON
 C1:DC44H         PUBLIC        Check_FirmwareUpdate
  X:3604H         PUBLIC        load_default_pin_pressed
  D:00D0H         PUBLIC        PSW

  -------         PROC BANK=1   LOADDEFAULT
 C1:D321H         LINE#         27
 C1:D321H         LINE#         28
 C1:D32DH         LINE#         29
 C1:D32DH         LINE#         30
 C1:D348H         LINE#         31
 C1:D348H         LINE#         32
 C1:D36BH         LINE#         33
 C1:D36EH         LINE#         34
 C1:D371H         LINE#         35
 C1:D376H         LINE#         36
 C1:D37AH         LINE#         37
 C1:D383H         LINE#         38
 C1:D389H         LINE#         39
 C1:D389H         LINE#         40
 C1:D389H         LINE#         41
 C1:D393H         LINE#         42
 C1:D393H         LINE#         43
 C1:D395H         LINE#         44
 C1:D395H         LINE#         45
  -------         ENDPROC       LOADDEFAULT

  -------         PROC BANK=1   OS_INITIAL
 C1:E0CFH         LINE#         47
 C1:E0CFH         LINE#         52
 C1:E0D5H         LINE#         53
 C1:E0D7H         LINE#         60
  -------         ENDPROC       OS_INITIAL
BL51 BANKED LINKER/LOCATER V5.03                                                      01/30/2013  19:55:46  PAGE 62



  -------         PROC BANK=1   CHECK_FIRMWAREUPDATE
 C1:DC44H         LINE#         89
 C1:DC44H         LINE#         90
 C1:DC52H         LINE#         91
 C1:DC52H         LINE#         92
 C1:DC60H         LINE#         93
 C1:DC6FH         LINE#         94
 C1:DC6FH         LINE#         95
 C1:DC73H         LINE#         96
 C1:DC76H         LINE#         97
 C1:DC7DH         LINE#         98
 C1:DC80H         LINE#         99
 C1:DC80H         LINE#         100
 C1:DC80H         LINE#         101
  -------         ENDPROC       CHECK_FIRMWAREUPDATE

  -------         PROC BANK=1   GATEWAY_TIMER
 C1:DE35H         LINE#         104
 C1:DE35H         LINE#         105
 C1:DE43H         LINE#         106
 C1:DE52H         LINE#         107
 C1:DE52H         LINE#         108
 C1:DE55H         LINE#         110
 C1:DE58H         LINE#         115
 C1:DE58H         LINE#         116
  -------         ENDPROC       GATEWAY_TIMER

  -------         PROC BANK=1   OS_LOOP
 C1:E071H         LINE#         118
 C1:E071H         LINE#         120
 C1:E074H         LINE#         123
 C1:E077H         LINE#         129
 C1:E07AH         LINE#         132
 C1:E07DH         LINE#         135
  -------         ENDPROC       OS_LOOP

  -------         PROC BANK=1   CHECK_SPEED
  -------         DO            
  D:0004H         SYMBOL        status
  X:38FDH         SYMBOL        tmpvalue
  -------         ENDDO         
 C1:D69FH         LINE#         139
 C1:D69FH         LINE#         140
 C1:D6A2H         LINE#         141
 C1:D6A6H         LINE#         143
 C1:D6B0H         LINE#         144
 C1:D6B4H         LINE#         145
 C1:D6BAH         LINE#         147
 C1:D6C6H         LINE#         148
 C1:D6C8H         LINE#         150
 C1:D6D0H         LINE#         152
 C1:D6D8H         LINE#         153
 C1:D6DCH         LINE#         155
 C1:D6E0H         LINE#         156
 C1:D6E4H         LINE#         158
 C1:D6E4H         LINE#         160
BL51 BANKED LINKER/LOCATER V5.03                                                      01/30/2013  19:55:46  PAGE 63


 C1:D6E4H         LINE#         161
 C1:D6E8H         LINE#         162
 C1:D6EFH         LINE#         164
 C1:D6EFH         LINE#         166
 C1:D6EFH         LINE#         167
 C1:D6F7H         LINE#         168
 C1:D6F7H         LINE#         169
  -------         ENDPROC       CHECK_SPEED

  -------         PROC BANK=1   OS_LOOP_100MS
 C1:DE59H         LINE#         171
 C1:DE59H         LINE#         173
 C1:DE5CH         LINE#         179
 C1:DE5FH         LINE#         182
 C1:DE62H         LINE#         185
 C1:DE65H         LINE#         191
 C1:DE68H         LINE#         193
 C1:DE6BH         LINE#         194
 C1:DE71H         LINE#         195
 C1:DE78H         LINE#         196
 C1:DE7BH         LINE#         197
 C1:DE7BH         LINE#         198
  -------         ENDPROC       OS_LOOP_100MS
  -------         ENDMOD        OS_CBK

  -------         MODULE        VTAG
  C:0000H         SYMBOL        _ICE_DUMMY_
  D:0080H         PUBLIC        P0
  D:0090H         PUBLIC        P1
  D:00A0H         PUBLIC        P2
  D:00B0H         PUBLIC        P3
  D:00E8H         PUBLIC        P4
  D:00A8H         PUBLIC        IE
  D:00B8H         PUBLIC        IP
 C1:DD97H         PUBLIC        EnVlanCheck
  X:3802H         PUBLIC        vlan_value
  D:0098H         PUBLIC        SCON
  D:0088H         PUBLIC        TCON
  C:3E35H         SYMBOL        _?ix1000
  D:00D8H         PUBLIC        WDTCON
 C1:D396H         PUBLIC        Check_Vlan_Tag
  X:3806H         PUBLIC        eth_vlan
 C1:CCCDH         PUBLIC        _vlan_tag_pkt
  D:00C8H         PUBLIC        T2CON
 C1:CB6EH         PUBLIC        re_init
  D:00D0H         PUBLIC        PSW

  -------         PROC BANK=1   CHECK_VLAN_TAG
 C1:D396H         LINE#         12
 C1:D396H         LINE#         13
 C1:D39EH         LINE#         14
 C1:D39EH         LINE#         16
 C1:D3A1H         LINE#         21
 C1:D3ADH         LINE#         22
 C1:D3ADH         LINE#         23
 C1:D3C3H         LINE#         24
 C1:D3D1H         LINE#         25
BL51 BANKED LINKER/LOCATER V5.03                                                      01/30/2013  19:55:46  PAGE 64


 C1:D3DFH         LINE#         26
 C1:D3E5H         LINE#         27
 C1:D3E7H         LINE#         29
 C1:D3E7H         LINE#         30
 C1:D3F5H         LINE#         31
 C1:D403H         LINE#         32
 C1:D403H         LINE#         33
 C1:D406H         LINE#         34
 C1:D406H         LINE#         35
  -------         ENDPROC       CHECK_VLAN_TAG

  -------         PROC BANK=1   _VLAN_TAG_PKT
  X:341CH         SYMBOL        input_buf
  X:341FH         SYMBOL        len_ptr
  -------         DO            
  X:3422H         SYMBOL        tag_buf
  -------         ENDDO         
 C1:CCCDH         LINE#         37
 C1:CCD8H         LINE#         38
 C1:CCD8H         LINE#         39
 C1:CCEBH         LINE#         41
 C1:CCEEH         LINE#         46
 C1:CD0BH         LINE#         47
 C1:CD1EH         LINE#         48
 C1:CD36H         LINE#         49
 C1:CD52H         LINE#         50
 C1:CD65H         LINE#         52
 C1:CD68H         LINE#         57
 C1:CD78H         LINE#         58
  -------         ENDPROC       _VLAN_TAG_PKT

  -------         PROC BANK=1   ENVLANCHECK
 C1:DD97H         LINE#         60
 C1:DD97H         LINE#         61
 C1:DD97H         LINE#         63
 C1:DD9AH         LINE#         68
 C1:DDA1H         LINE#         69
 C1:DDA1H         LINE#         70
 C1:DDB7H         LINE#         71
 C1:DDBAH         LINE#         72
 C1:DDBAH         LINE#         74
 C1:DDBDH         LINE#         79
 C1:DDBFH         LINE#         80
  -------         ENDPROC       ENVLANCHECK

  -------         PROC BANK=1   RE_INIT
 C1:CB6EH         LINE#         82
 C1:CB6EH         LINE#         83
 C1:CB6EH         LINE#         84
 C1:CB71H         LINE#         85
 C1:CB74H         LINE#         86
 C1:CBA9H         LINE#         87
 C1:CBC6H         LINE#         89
 C1:CBC6H         LINE#         90
 C1:CBDBH         LINE#         91
 C1:CBE7H         LINE#         92
 C1:CBE9H         LINE#         94
BL51 BANKED LINKER/LOCATER V5.03                                                      01/30/2013  19:55:46  PAGE 65


 C1:CBE9H         LINE#         95
 C1:CC04H         LINE#         96
 C1:CC1DH         LINE#         97
 C1:CC1DH         LINE#         98
  -------         ENDPROC       RE_INIT
  -------         ENDMOD        VTAG

  -------         MODULE        FS16
  C:0000H         SYMBOL        _ICE_DUMMY_
  X:2D22H         PUBLIC        fsop
 C1:C5E4H         PUBLIC        _fs_open
  X:2DB2H         PUBLIC        indata

  -------         PROC BANK=1   _FS_OPEN
  X:3605H         SYMBOL        name
  X:3608H         SYMBOL        fsop_idx
  -------         DO            
  X:360BH         SYMBOL        ptr
  -------         ENDDO         
 C1:C5E4H         LINE#         119
 C1:C5EFH         LINE#         120
 C1:C5EFH         LINE#         124
 C1:C5FCH         LINE#         125
 C1:C632H         LINE#         126
 C1:C632H         LINE#         127
 C1:C666H         LINE#         128
 C1:C674H         LINE#         129
 C1:C674H         LINE#         149
 C1:C69AH         LINE#         150
 C1:C6A6H         LINE#         151
 C1:C6A6H         LINE#         152
 C1:C6C1H         LINE#         153
 C1:C6C7H         LINE#         154
  -------         ENDPROC       _FS_OPEN
  -------         ENDMOD        FS16

  -------         MODULE        HTMFILES0
  C:0000H         SYMBOL        _ICE_DUMMY_
 C0:506DH         PUBLIC        cgi_table00
  D:0090H         PUBLIC        P1
  D:00B0H         PUBLIC        P3
  D:00A8H         PUBLIC        IE
  D:00B8H         PUBLIC        IP
 C0:5332H         PUBLIC        _get_tag00
 C0:52EAH         PUBLIC        _datacpy00
 C0:5077H         PUBLIC        _fs_open00
  D:0098H         PUBLIC        SCON
  D:0088H         PUBLIC        TCON
 C0:5073H         SYMBOL        _?ix1000
  D:00D8H         PUBLIC        WDTCON
 C0:51EFH         PUBLIC        FU_Check
 C0:5064H         PUBLIC        files_table00
  D:00C8H         PUBLIC        T2CON
  D:00D0H         PUBLIC        PSW

  -------         PROC BANK=0   _FS_OPEN00
  X:373FH         SYMBOL        name
BL51 BANKED LINKER/LOCATER V5.03                                                      01/30/2013  19:55:46  PAGE 66


  -------         DO            
  X:3742H         SYMBOL        ptr
  -------         ENDDO         
 C0:5077H         LINE#         69
 C0:5082H         LINE#         70
 C0:5082H         LINE#         72
 C0:509AH         LINE#         73
 C0:50ABH         LINE#         74
 C0:50ABH         LINE#         75
 C0:50B5H         LINE#         76
 C0:50C5H         LINE#         77
 C0:50C9H         LINE#         78
 C0:50C9H         LINE#         79
 C0:50EDH         LINE#         80
 C0:50EDH         LINE#         81
 C0:511BH         LINE#         82
 C0:511BH         LINE#         83
 C0:5148H         LINE#         84
 C0:515DH         LINE#         85
 C0:515DH         LINE#         86
 C0:519AH         LINE#         87
 C0:51C3H         LINE#         88
 C0:51C3H         LINE#         89
 C0:51DBH         LINE#         90
 C0:51DBH         LINE#         91
 C0:51E8H         LINE#         92
 C0:51EEH         LINE#         93
  -------         ENDPROC       _FS_OPEN00

  -------         PROC BANK=0   _DATACPY00
  X:386BH         SYMBOL        inputdata
 C0:52EAH         LINE#         106
 C0:52F5H         LINE#         107
 C0:52F5H         LINE#         108
  -------         ENDPROC       _DATACPY00

  -------         PROC BANK=0   _GET_TAG00
  D:0007H         SYMBOL        index
 C0:5332H         LINE#         122
 C0:5332H         LINE#         123
 C0:5332H         LINE#         124
 C0:5353H         LINE#         125
  -------         ENDPROC       _GET_TAG00

  -------         PROC BANK=0   FU_CHECK
  -------         DO            
  X:3681H         SYMBOL        i
  X:3683H         SYMBOL        bRun_FUU
  X:3684H         SYMBOL        checksum
  X:3685H         SYMBOL        magic_code
  -------         ENDDO         
 C0:51EFH         LINE#         127
 C0:51EFH         LINE#         128
 C0:51EFH         LINE#         130
 C0:51F4H         LINE#         131
 C0:51F6H         LINE#         132
 C0:5208H         LINE#         135
BL51 BANKED LINKER/LOCATER V5.03                                                      01/30/2013  19:55:46  PAGE 67


 C0:5208H         LINE#         142
 C0:521FH         LINE#         143
 C0:521FH         LINE#         144
 C0:523AH         LINE#         145
 C0:523AH         LINE#         146
 C0:524AH         LINE#         147
 C0:5256H         LINE#         148
 C0:5256H         LINE#         149
 C0:525CH         LINE#         150
 C0:525CH         LINE#         151
 C0:525EH         LINE#         152
 C0:525EH         LINE#         154
 C0:5275H         LINE#         155
 C0:5275H         LINE#         156
 C0:5287H         LINE#         157
 C0:5297H         LINE#         158
 C0:52ADH         LINE#         159
 C0:52BAH         LINE#         160
 C0:52BAH         LINE#         161
 C0:52D1H         LINE#         162
 C0:52D7H         LINE#         163
 C0:52D7H         LINE#         164
 C0:52D7H         LINE#         166
 C0:52DDH         LINE#         167
 C0:52DDH         LINE#         168
 C0:52E6H         LINE#         169
 C0:52E9H         LINE#         170
 C0:52E9H         LINE#         171
  -------         ENDPROC       FU_CHECK
  -------         ENDMOD        HTMFILES0

  -------         MODULE        HTMFILES1
  C:0000H         SYMBOL        _ICE_DUMMY_
 C1:5009H         PUBLIC        cgi_table01
 C1:DE7CH         PUBLIC        _get_tag01
 C1:DA32H         PUBLIC        _datacpy01
 C1:B241H         PUBLIC        _fs_open01
 C1:5000H         PUBLIC        files_table01

  -------         PROC BANK=1   _FS_OPEN01
  X:3745H         SYMBOL        name
  -------         DO            
  X:3748H         SYMBOL        ptr
  -------         ENDDO         
 C1:B241H         LINE#         68
 C1:B24CH         LINE#         69
 C1:B24CH         LINE#         71
 C1:B264H         LINE#         72
 C1:B275H         LINE#         73
 C1:B275H         LINE#         74
 C1:B27FH         LINE#         75
 C1:B28FH         LINE#         76
 C1:B293H         LINE#         77
 C1:B293H         LINE#         78
 C1:B2B7H         LINE#         79
 C1:B2B7H         LINE#         80
 C1:B2E5H         LINE#         81
BL51 BANKED LINKER/LOCATER V5.03                                                      01/30/2013  19:55:46  PAGE 68


 C1:B2E5H         LINE#         82
 C1:B312H         LINE#         83
 C1:B327H         LINE#         84
 C1:B327H         LINE#         85
 C1:B364H         LINE#         86
 C1:B38DH         LINE#         87
 C1:B38DH         LINE#         88
 C1:B3A5H         LINE#         89
 C1:B3A5H         LINE#         90
 C1:B3B2H         LINE#         91
 C1:B3B8H         LINE#         92
  -------         ENDPROC       _FS_OPEN01

  -------         PROC BANK=1   _DATACPY01
  X:386EH         SYMBOL        inputdata
 C1:DA32H         LINE#         105
 C1:DA3DH         LINE#         106
 C1:DA3DH         LINE#         107
  -------         ENDPROC       _DATACPY01

  -------         PROC BANK=1   _GET_TAG01
  D:0007H         SYMBOL        index
 C1:DE7CH         LINE#         121
 C1:DE7CH         LINE#         122
 C1:DE7CH         LINE#         123
 C1:DE9DH         LINE#         124
  -------         ENDPROC       _GET_TAG01
  -------         ENDMOD        HTMFILES1

  -------         MODULE        HTMFILES2
  C:0000H         SYMBOL        _ICE_DUMMY_
 C2:5009H         PUBLIC        cgi_table02
 C2:D749H         PUBLIC        _get_tag02
 C2:D493H         PUBLIC        _datacpy02
 C2:B041H         PUBLIC        _fs_open02
 C2:5000H         PUBLIC        files_table02

  -------         PROC BANK=2   _FS_OPEN02
  X:374BH         SYMBOL        name
  -------         DO            
  X:374EH         SYMBOL        ptr
  -------         ENDDO         
 C2:B041H         LINE#         68
 C2:B04CH         LINE#         69
 C2:B04CH         LINE#         71
 C2:B064H         LINE#         72
 C2:B075H         LINE#         73
 C2:B075H         LINE#         74
 C2:B07FH         LINE#         75
 C2:B08FH         LINE#         76
 C2:B093H         LINE#         77
 C2:B093H         LINE#         78
 C2:B0B7H         LINE#         79
 C2:B0B7H         LINE#         80
 C2:B0E5H         LINE#         81
 C2:B0E5H         LINE#         82
 C2:B112H         LINE#         83
BL51 BANKED LINKER/LOCATER V5.03                                                      01/30/2013  19:55:46  PAGE 69


 C2:B127H         LINE#         84
 C2:B127H         LINE#         85
 C2:B164H         LINE#         86
 C2:B18DH         LINE#         87
 C2:B18DH         LINE#         88
 C2:B1A5H         LINE#         89
 C2:B1A5H         LINE#         90
 C2:B1B2H         LINE#         91
 C2:B1B8H         LINE#         92
  -------         ENDPROC       _FS_OPEN02

  -------         PROC BANK=2   _DATACPY02
  X:3871H         SYMBOL        inputdata
 C2:D493H         LINE#         105
 C2:D49EH         LINE#         106
 C2:D49EH         LINE#         107
  -------         ENDPROC       _DATACPY02

  -------         PROC BANK=2   _GET_TAG02
  D:0007H         SYMBOL        index
 C2:D749H         LINE#         121
 C2:D749H         LINE#         122
 C2:D749H         LINE#         123
 C2:D76AH         LINE#         124
  -------         ENDPROC       _GET_TAG02
  -------         ENDMOD        HTMFILES2

  -------         MODULE        HTMFILES3
  C:0000H         SYMBOL        _ICE_DUMMY_
 C3:C482H         PUBLIC        cgi_table03
  X:2526H         PUBLIC        smtp_htm_tags
  X:2559H         PUBLIC        login2_htm_tags
 C3:8160H         PUBLIC        setDef_htm_file
 C3:8210H         PUBLIC        setIP_htm_file
 C3:AF04H         PUBLIC        udp_tel_htm_file
 C3:C6D2H         PUBLIC        _get_tag03
  X:2562H         PUBLIC        setIP_htm_tags
 C3:5FAAH         PUBLIC        errormsg_htm_file
 C3:C68AH         PUBLIC        _datacpy03
  X:25A7H         PUBLIC        udp_tel_htm_tags
 C3:C512H         PUBLIC        _fs_open03
  X:25EFH         PUBLIC        errormsg_htm_tags
 C3:952CH         PUBLIC        setPASS_htm_file
 C3:9BEFH         PUBLIC        Status_htm_file
 C3:7011H         PUBLIC        telnet_htm_file
  X:2610H         PUBLIC        setPASS_htm_tags
  X:261FH         PUBLIC        Status_htm_tags
 C3:515EH         PUBLIC        index_htm_file
 C3:5CD3H         PUBLIC        login_htm_file
  X:262EH         PUBLIC        telnet_htm_tags
 C3:BD70H         PUBLIC        dido_htm_file
 C3:ABA0H         PUBLIC        adc_htm_file
 C3:5211H         PUBLIC        left_htm_file
  X:2676H         PUBLIC        dido_htm_tags
 C3:C37DH         PUBLIC        files_table03
  X:2694H         PUBLIC        adc_htm_tags
 C3:614CH         PUBLIC        fw_up_wait_htm_file
BL51 BANKED LINKER/LOCATER V5.03                                                      01/30/2013  19:55:46  PAGE 70


 C3:624EH         PUBLIC        uart_htm_file
 C3:9ECDH         PUBLIC        smtp_htm_file
  X:26A0H         PUBLIC        uart_htm_tags
 C3:5D5FH         PUBLIC        login2_htm_file

  -------         PROC BANK=3   _FS_OPEN03
  X:3751H         SYMBOL        name
  -------         DO            
  X:3754H         SYMBOL        ptr
  -------         ENDDO         
 C3:C512H         LINE#         337
 C3:C51DH         LINE#         338
 C3:C51DH         LINE#         340
 C3:C535H         LINE#         341
 C3:C546H         LINE#         342
 C3:C546H         LINE#         343
 C3:C550H         LINE#         344
 C3:C560H         LINE#         345
 C3:C564H         LINE#         346
 C3:C564H         LINE#         347
 C3:C588H         LINE#         348
 C3:C588H         LINE#         349
 C3:C5B6H         LINE#         350
 C3:C5B6H         LINE#         351
 C3:C5E3H         LINE#         352
 C3:C5F8H         LINE#         353
 C3:C5F8H         LINE#         354
 C3:C635H         LINE#         355
 C3:C65EH         LINE#         356
 C3:C65EH         LINE#         357
 C3:C676H         LINE#         358
 C3:C676H         LINE#         359
 C3:C683H         LINE#         360
 C3:C689H         LINE#         361
  -------         ENDPROC       _FS_OPEN03

  -------         PROC BANK=3   _DATACPY03
  X:3874H         SYMBOL        inputdata
 C3:C68AH         LINE#         374
 C3:C695H         LINE#         375
 C3:C695H         LINE#         376
  -------         ENDPROC       _DATACPY03

  -------         PROC BANK=3   _GET_TAG03
  D:0007H         SYMBOL        index
 C3:C6D2H         LINE#         390
 C3:C6D2H         LINE#         391
 C3:C6D2H         LINE#         392
 C3:C6F3H         LINE#         393
  -------         ENDPROC       _GET_TAG03
  -------         ENDMOD        HTMFILES3

  -------         MODULE        HTMFILES4
  C:0000H         SYMBOL        _ICE_DUMMY_
 C4:5271H         PUBLIC        cgi_table04
 C4:5465H         PUBLIC        FUU_Run
 C4:5443H         PUBLIC        _get_tag04
BL51 BANKED LINKER/LOCATER V5.03                                                      01/30/2013  19:55:46  PAGE 71


 C4:53FBH         PUBLIC        _datacpy04
 C4:5283H         PUBLIC        _fs_open04
 C4:5136H         PUBLIC        fu_up_htm_file
 C4:5030H         PUBLIC        fw_up_htm_file
 C4:5244H         PUBLIC        files_table04

  -------         PROC BANK=4   _FS_OPEN04
  X:3757H         SYMBOL        name
  -------         DO            
  X:375AH         SYMBOL        ptr
  -------         ENDDO         
 C4:5283H         LINE#         78
 C4:528EH         LINE#         79
 C4:528EH         LINE#         81
 C4:52A6H         LINE#         82
 C4:52B7H         LINE#         83
 C4:52B7H         LINE#         84
 C4:52C1H         LINE#         85
 C4:52D1H         LINE#         86
 C4:52D5H         LINE#         87
 C4:52D5H         LINE#         88
 C4:52F9H         LINE#         89
 C4:52F9H         LINE#         90
 C4:5327H         LINE#         91
 C4:5327H         LINE#         92
 C4:5354H         LINE#         93
 C4:5369H         LINE#         94
 C4:5369H         LINE#         95
 C4:53A6H         LINE#         96
 C4:53CFH         LINE#         97
 C4:53CFH         LINE#         98
 C4:53E7H         LINE#         99
 C4:53E7H         LINE#         100
 C4:53F4H         LINE#         101
 C4:53FAH         LINE#         102
  -------         ENDPROC       _FS_OPEN04

  -------         PROC BANK=4   _DATACPY04
  X:3877H         SYMBOL        inputdata
 C4:53FBH         LINE#         115
 C4:5406H         LINE#         116
 C4:5406H         LINE#         117
  -------         ENDPROC       _DATACPY04

  -------         PROC BANK=4   _GET_TAG04
  D:0007H         SYMBOL        index
 C4:5443H         LINE#         131
 C4:5443H         LINE#         132
 C4:5443H         LINE#         133
 C4:5464H         LINE#         134
  -------         ENDPROC       _GET_TAG04

  -------         PROC BANK=4   FUU_RUN
 C4:5465H         LINE#         136
 C4:5465H         LINE#         137
 C4:5465H         LINE#         138
  -------         ENDPROC       FUU_RUN
BL51 BANKED LINKER/LOCATER V5.03                                                      01/30/2013  19:55:46  PAGE 72


  -------         ENDMOD        HTMFILES4

  -------         MODULE        HTMFILES5
  C:0000H         SYMBOL        _ICE_DUMMY_
 C5:5009H         PUBLIC        cgi_table05
 C5:88E3H         PUBLIC        _get_tag05
 C5:87EBH         PUBLIC        _datacpy05
 C5:74C1H         PUBLIC        _fs_open05
 C5:5000H         PUBLIC        files_table05

  -------         PROC BANK=5   _FS_OPEN05
  X:375DH         SYMBOL        name
  -------         DO            
  X:3760H         SYMBOL        ptr
  -------         ENDDO         
 C5:74C1H         LINE#         68
 C5:74CCH         LINE#         69
 C5:74CCH         LINE#         71
 C5:74E4H         LINE#         72
 C5:74F5H         LINE#         73
 C5:74F5H         LINE#         74
 C5:74FFH         LINE#         75
 C5:750FH         LINE#         76
 C5:7513H         LINE#         77
 C5:7513H         LINE#         78
 C5:7537H         LINE#         79
 C5:7537H         LINE#         80
 C5:7565H         LINE#         81
 C5:7565H         LINE#         82
 C5:7592H         LINE#         83
 C5:75A7H         LINE#         84
 C5:75A7H         LINE#         85
 C5:75E4H         LINE#         86
 C5:760DH         LINE#         87
 C5:760DH         LINE#         88
 C5:7625H         LINE#         89
 C5:7625H         LINE#         90
 C5:7632H         LINE#         91
 C5:7638H         LINE#         92
  -------         ENDPROC       _FS_OPEN05

  -------         PROC BANK=5   _DATACPY05
  X:387AH         SYMBOL        inputdata
 C5:87EBH         LINE#         105
 C5:87F6H         LINE#         106
 C5:87F6H         LINE#         107
  -------         ENDPROC       _DATACPY05

  -------         PROC BANK=5   _GET_TAG05
  D:0007H         SYMBOL        index
 C5:88E3H         LINE#         121
 C5:88E3H         LINE#         122
 C5:88E3H         LINE#         123
 C5:8904H         LINE#         124
  -------         ENDPROC       _GET_TAG05
  -------         ENDMOD        HTMFILES5

BL51 BANKED LINKER/LOCATER V5.03                                                      01/30/2013  19:55:46  PAGE 73


  -------         MODULE        HTMFILES6
  C:0000H         SYMBOL        _ICE_DUMMY_
 C6:5009H         PUBLIC        cgi_table06
 C6:9D44H         PUBLIC        _get_tag06
 C6:9CC5H         PUBLIC        _datacpy06
 C6:9539H         PUBLIC        _fs_open06
 C6:5000H         PUBLIC        files_table06

  -------         PROC BANK=6   _FS_OPEN06
  X:3763H         SYMBOL        name
  -------         DO            
  X:3766H         SYMBOL        ptr
  -------         ENDDO         
 C6:9539H         LINE#         68
 C6:9544H         LINE#         69
 C6:9544H         LINE#         71
 C6:955CH         LINE#         72
 C6:956DH         LINE#         73
 C6:956DH         LINE#         74
 C6:9577H         LINE#         75
 C6:9587H         LINE#         76
 C6:958BH         LINE#         77
 C6:958BH         LINE#         78
 C6:95AFH         LINE#         79
 C6:95AFH         LINE#         80
 C6:95DDH         LINE#         81
 C6:95DDH         LINE#         82
 C6:960AH         LINE#         83
 C6:961FH         LINE#         84
 C6:961FH         LINE#         85
 C6:965CH         LINE#         86
 C6:9685H         LINE#         87
 C6:9685H         LINE#         88
 C6:969DH         LINE#         89
 C6:969DH         LINE#         90
 C6:96AAH         LINE#         91
 C6:96B0H         LINE#         92
  -------         ENDPROC       _FS_OPEN06

  -------         PROC BANK=6   _DATACPY06
  X:387DH         SYMBOL        inputdata
 C6:9CC5H         LINE#         105
 C6:9CD0H         LINE#         106
 C6:9CD0H         LINE#         107
  -------         ENDPROC       _DATACPY06

  -------         PROC BANK=6   _GET_TAG06
  D:0007H         SYMBOL        index
 C6:9D44H         LINE#         121
 C6:9D44H         LINE#         122
 C6:9D44H         LINE#         123
 C6:9D65H         LINE#         124
  -------         ENDPROC       _GET_TAG06
  -------         ENDMOD        HTMFILES6

  -------         MODULE        HTMFILES7
  C:0000H         SYMBOL        _ICE_DUMMY_
BL51 BANKED LINKER/LOCATER V5.03                                                      01/30/2013  19:55:46  PAGE 74


 C7:5009H         PUBLIC        cgi_table07
 C7:51CFH         PUBLIC        _get_tag07
 C7:5187H         PUBLIC        _datacpy07
 C7:500FH         PUBLIC        _fs_open07
 C7:5000H         PUBLIC        files_table07

  -------         PROC BANK=7   _FS_OPEN07
  X:3769H         SYMBOL        name
  -------         DO            
  X:376CH         SYMBOL        ptr
  -------         ENDDO         
 C7:500FH         LINE#         68
 C7:501AH         LINE#         69
 C7:501AH         LINE#         71
 C7:5032H         LINE#         72
 C7:5043H         LINE#         73
 C7:5043H         LINE#         74
 C7:504DH         LINE#         75
 C7:505DH         LINE#         76
 C7:5061H         LINE#         77
 C7:5061H         LINE#         78
 C7:5085H         LINE#         79
 C7:5085H         LINE#         80
 C7:50B3H         LINE#         81
 C7:50B3H         LINE#         82
 C7:50E0H         LINE#         83
 C7:50F5H         LINE#         84
 C7:50F5H         LINE#         85
 C7:5132H         LINE#         86
 C7:515BH         LINE#         87
 C7:515BH         LINE#         88
 C7:5173H         LINE#         89
 C7:5173H         LINE#         90
 C7:5180H         LINE#         91
 C7:5186H         LINE#         92
  -------         ENDPROC       _FS_OPEN07

  -------         PROC BANK=7   _DATACPY07
  X:3880H         SYMBOL        inputdata
 C7:5187H         LINE#         105
 C7:5192H         LINE#         106
 C7:5192H         LINE#         107
  -------         ENDPROC       _DATACPY07

  -------         PROC BANK=7   _GET_TAG07
  D:0007H         SYMBOL        index
 C7:51CFH         LINE#         121
 C7:51CFH         LINE#         122
 C7:51CFH         LINE#         123
 C7:51F0H         LINE#         124
  -------         ENDPROC       _GET_TAG07
  -------         ENDMOD        HTMFILES7

  -------         MODULE        HTMFILES8
  C:0000H         SYMBOL        _ICE_DUMMY_
 C8:5009H         PUBLIC        cgi_table08
 C8:51CFH         PUBLIC        _get_tag08
BL51 BANKED LINKER/LOCATER V5.03                                                      01/30/2013  19:55:46  PAGE 75


 C8:5187H         PUBLIC        _datacpy08
 C8:500FH         PUBLIC        _fs_open08
 C8:5000H         PUBLIC        files_table08

  -------         PROC BANK=8   _FS_OPEN08
  X:376FH         SYMBOL        name
  -------         DO            
  X:3772H         SYMBOL        ptr
  -------         ENDDO         
 C8:500FH         LINE#         68
 C8:501AH         LINE#         69
 C8:501AH         LINE#         71
 C8:5032H         LINE#         72
 C8:5043H         LINE#         73
 C8:5043H         LINE#         74
 C8:504DH         LINE#         75
 C8:505DH         LINE#         76
 C8:5061H         LINE#         77
 C8:5061H         LINE#         78
 C8:5085H         LINE#         79
 C8:5085H         LINE#         80
 C8:50B3H         LINE#         81
 C8:50B3H         LINE#         82
 C8:50E0H         LINE#         83
 C8:50F5H         LINE#         84
 C8:50F5H         LINE#         85
 C8:5132H         LINE#         86
 C8:515BH         LINE#         87
 C8:515BH         LINE#         88
 C8:5173H         LINE#         89
 C8:5173H         LINE#         90
 C8:5180H         LINE#         91
 C8:5186H         LINE#         92
  -------         ENDPROC       _FS_OPEN08

  -------         PROC BANK=8   _DATACPY08
  X:3883H         SYMBOL        inputdata
 C8:5187H         LINE#         105
 C8:5192H         LINE#         106
 C8:5192H         LINE#         107
  -------         ENDPROC       _DATACPY08

  -------         PROC BANK=8   _GET_TAG08
  D:0007H         SYMBOL        index
 C8:51CFH         LINE#         121
 C8:51CFH         LINE#         122
 C8:51CFH         LINE#         123
 C8:51F0H         LINE#         124
  -------         ENDPROC       _GET_TAG08
  -------         ENDMOD        HTMFILES8

  -------         MODULE        HTMFILES9
  C:0000H         SYMBOL        _ICE_DUMMY_
 C9:5009H         PUBLIC        cgi_table09
 C9:51CFH         PUBLIC        _get_tag09
 C9:5187H         PUBLIC        _datacpy09
 C9:500FH         PUBLIC        _fs_open09
BL51 BANKED LINKER/LOCATER V5.03                                                      01/30/2013  19:55:46  PAGE 76


 C9:5000H         PUBLIC        files_table09

  -------         PROC BANK=9   _FS_OPEN09
  X:3775H         SYMBOL        name
  -------         DO            
  X:3778H         SYMBOL        ptr
  -------         ENDDO         
 C9:500FH         LINE#         68
 C9:501AH         LINE#         69
 C9:501AH         LINE#         71
 C9:5032H         LINE#         72
 C9:5043H         LINE#         73
 C9:5043H         LINE#         74
 C9:504DH         LINE#         75
 C9:505DH         LINE#         76
 C9:5061H         LINE#         77
 C9:5061H         LINE#         78
 C9:5085H         LINE#         79
 C9:5085H         LINE#         80
 C9:50B3H         LINE#         81
 C9:50B3H         LINE#         82
 C9:50E0H         LINE#         83
 C9:50F5H         LINE#         84
 C9:50F5H         LINE#         85
 C9:5132H         LINE#         86
 C9:515BH         LINE#         87
 C9:515BH         LINE#         88
 C9:5173H         LINE#         89
 C9:5173H         LINE#         90
 C9:5180H         LINE#         91
 C9:5186H         LINE#         92
  -------         ENDPROC       _FS_OPEN09

  -------         PROC BANK=9   _DATACPY09
  X:3886H         SYMBOL        inputdata
 C9:5187H         LINE#         105
 C9:5192H         LINE#         106
 C9:5192H         LINE#         107
  -------         ENDPROC       _DATACPY09

  -------         PROC BANK=9   _GET_TAG09
  D:0007H         SYMBOL        index
 C9:51CFH         LINE#         121
 C9:51CFH         LINE#         122
 C9:51CFH         LINE#         123
 C9:51F0H         LINE#         124
  -------         ENDPROC       _GET_TAG09
  -------         ENDMOD        HTMFILES9

  -------         MODULE        HTMFILES10
  C:0000H         SYMBOL        _ICE_DUMMY_
C10:5009H         PUBLIC        cgi_table10
C10:51CFH         PUBLIC        _get_tag10
C10:5187H         PUBLIC        _datacpy10
C10:500FH         PUBLIC        _fs_open10
C10:5000H         PUBLIC        files_table10

BL51 BANKED LINKER/LOCATER V5.03                                                      01/30/2013  19:55:46  PAGE 77


  -------         PROC BANK=10  _FS_OPEN10
  X:377BH         SYMBOL        name
  -------         DO            
  X:377EH         SYMBOL        ptr
  -------         ENDDO         
C10:500FH         LINE#         68
C10:501AH         LINE#         69
C10:501AH         LINE#         71
C10:5032H         LINE#         72
C10:5043H         LINE#         73
C10:5043H         LINE#         74
C10:504DH         LINE#         75
C10:505DH         LINE#         76
C10:5061H         LINE#         77
C10:5061H         LINE#         78
C10:5085H         LINE#         79
C10:5085H         LINE#         80
C10:50B3H         LINE#         81
C10:50B3H         LINE#         82
C10:50E0H         LINE#         83
C10:50F5H         LINE#         84
C10:50F5H         LINE#         85
C10:5132H         LINE#         86
C10:515BH         LINE#         87
C10:515BH         LINE#         88
C10:5173H         LINE#         89
C10:5173H         LINE#         90
C10:5180H         LINE#         91
C10:5186H         LINE#         92
  -------         ENDPROC       _FS_OPEN10

  -------         PROC BANK=10  _DATACPY10
  X:3889H         SYMBOL        inputdata
C10:5187H         LINE#         105
C10:5192H         LINE#         106
C10:5192H         LINE#         107
  -------         ENDPROC       _DATACPY10

  -------         PROC BANK=10  _GET_TAG10
  D:0007H         SYMBOL        index
C10:51CFH         LINE#         121
C10:51CFH         LINE#         122
C10:51CFH         LINE#         123
C10:51F0H         LINE#         124
  -------         ENDPROC       _GET_TAG10
  -------         ENDMOD        HTMFILES10

  -------         MODULE        HTMFILES11
  C:0000H         SYMBOL        _ICE_DUMMY_
C11:5009H         PUBLIC        cgi_table11
C11:51CFH         PUBLIC        _get_tag11
C11:5187H         PUBLIC        _datacpy11
C11:500FH         PUBLIC        _fs_open11
C11:5000H         PUBLIC        files_table11

  -------         PROC BANK=11  _FS_OPEN11
  X:3781H         SYMBOL        name
BL51 BANKED LINKER/LOCATER V5.03                                                      01/30/2013  19:55:46  PAGE 78


  -------         DO            
  X:3784H         SYMBOL        ptr
  -------         ENDDO         
C11:500FH         LINE#         68
C11:501AH         LINE#         69
C11:501AH         LINE#         71
C11:5032H         LINE#         72
C11:5043H         LINE#         73
C11:5043H         LINE#         74
C11:504DH         LINE#         75
C11:505DH         LINE#         76
C11:5061H         LINE#         77
C11:5061H         LINE#         78
C11:5085H         LINE#         79
C11:5085H         LINE#         80
C11:50B3H         LINE#         81
C11:50B3H         LINE#         82
C11:50E0H         LINE#         83
C11:50F5H         LINE#         84
C11:50F5H         LINE#         85
C11:5132H         LINE#         86
C11:515BH         LINE#         87
C11:515BH         LINE#         88
C11:5173H         LINE#         89
C11:5173H         LINE#         90
C11:5180H         LINE#         91
C11:5186H         LINE#         92
  -------         ENDPROC       _FS_OPEN11

  -------         PROC BANK=11  _DATACPY11
  X:388CH         SYMBOL        inputdata
C11:5187H         LINE#         105
C11:5192H         LINE#         106
C11:5192H         LINE#         107
  -------         ENDPROC       _DATACPY11

  -------         PROC BANK=11  _GET_TAG11
  D:0007H         SYMBOL        index
C11:51CFH         LINE#         121
C11:51CFH         LINE#         122
C11:51CFH         LINE#         123
C11:51F0H         LINE#         124
  -------         ENDPROC       _GET_TAG11
  -------         ENDMOD        HTMFILES11

  -------         MODULE        HTMFILES12
  C:0000H         SYMBOL        _ICE_DUMMY_
C12:5009H         PUBLIC        cgi_table12
C12:51CFH         PUBLIC        _get_tag12
C12:5187H         PUBLIC        _datacpy12
C12:500FH         PUBLIC        _fs_open12
C12:5000H         PUBLIC        files_table12

  -------         PROC BANK=12  _FS_OPEN12
  X:3787H         SYMBOL        name
  -------         DO            
  X:378AH         SYMBOL        ptr
BL51 BANKED LINKER/LOCATER V5.03                                                      01/30/2013  19:55:46  PAGE 79


  -------         ENDDO         
C12:500FH         LINE#         68
C12:501AH         LINE#         69
C12:501AH         LINE#         71
C12:5032H         LINE#         72
C12:5043H         LINE#         73
C12:5043H         LINE#         74
C12:504DH         LINE#         75
C12:505DH         LINE#         76
C12:5061H         LINE#         77
C12:5061H         LINE#         78
C12:5085H         LINE#         79
C12:5085H         LINE#         80
C12:50B3H         LINE#         81
C12:50B3H         LINE#         82
C12:50E0H         LINE#         83
C12:50F5H         LINE#         84
C12:50F5H         LINE#         85
C12:5132H         LINE#         86
C12:515BH         LINE#         87
C12:515BH         LINE#         88
C12:5173H         LINE#         89
C12:5173H         LINE#         90
C12:5180H         LINE#         91
C12:5186H         LINE#         92
  -------         ENDPROC       _FS_OPEN12

  -------         PROC BANK=12  _DATACPY12
  X:388FH         SYMBOL        inputdata
C12:5187H         LINE#         105
C12:5192H         LINE#         106
C12:5192H         LINE#         107
  -------         ENDPROC       _DATACPY12

  -------         PROC BANK=12  _GET_TAG12
  D:0007H         SYMBOL        index
C12:51CFH         LINE#         121
C12:51CFH         LINE#         122
C12:51CFH         LINE#         123
C12:51F0H         LINE#         124
  -------         ENDPROC       _GET_TAG12
  -------         ENDMOD        HTMFILES12

  -------         MODULE        HTMFILES13
  C:0000H         SYMBOL        _ICE_DUMMY_
C13:5009H         PUBLIC        cgi_table13
C13:51CFH         PUBLIC        _get_tag13
C13:5187H         PUBLIC        _datacpy13
C13:500FH         PUBLIC        _fs_open13
C13:5000H         PUBLIC        files_table13

  -------         PROC BANK=13  _FS_OPEN13
  X:378DH         SYMBOL        name
  -------         DO            
  X:3790H         SYMBOL        ptr
  -------         ENDDO         
C13:500FH         LINE#         68
BL51 BANKED LINKER/LOCATER V5.03                                                      01/30/2013  19:55:46  PAGE 80


C13:501AH         LINE#         69
C13:501AH         LINE#         71
C13:5032H         LINE#         72
C13:5043H         LINE#         73
C13:5043H         LINE#         74
C13:504DH         LINE#         75
C13:505DH         LINE#         76
C13:5061H         LINE#         77
C13:5061H         LINE#         78
C13:5085H         LINE#         79
C13:5085H         LINE#         80
C13:50B3H         LINE#         81
C13:50B3H         LINE#         82
C13:50E0H         LINE#         83
C13:50F5H         LINE#         84
C13:50F5H         LINE#         85
C13:5132H         LINE#         86
C13:515BH         LINE#         87
C13:515BH         LINE#         88
C13:5173H         LINE#         89
C13:5173H         LINE#         90
C13:5180H         LINE#         91
C13:5186H         LINE#         92
  -------         ENDPROC       _FS_OPEN13

  -------         PROC BANK=13  _DATACPY13
  X:3892H         SYMBOL        inputdata
C13:5187H         LINE#         105
C13:5192H         LINE#         106
C13:5192H         LINE#         107
  -------         ENDPROC       _DATACPY13

  -------         PROC BANK=13  _GET_TAG13
  D:0007H         SYMBOL        index
C13:51CFH         LINE#         121
C13:51CFH         LINE#         122
C13:51CFH         LINE#         123
C13:51F0H         LINE#         124
  -------         ENDPROC       _GET_TAG13
  -------         ENDMOD        HTMFILES13

  -------         MODULE        HTMFILES14
  C:0000H         SYMBOL        _ICE_DUMMY_
C14:5009H         PUBLIC        cgi_table14
C14:51CFH         PUBLIC        _get_tag14
C14:5187H         PUBLIC        _datacpy14
C14:500FH         PUBLIC        _fs_open14
C14:5000H         PUBLIC        files_table14

  -------         PROC BANK=14  _FS_OPEN14
  X:3793H         SYMBOL        name
  -------         DO            
  X:3796H         SYMBOL        ptr
  -------         ENDDO         
C14:500FH         LINE#         68
C14:501AH         LINE#         69
C14:501AH         LINE#         71
BL51 BANKED LINKER/LOCATER V5.03                                                      01/30/2013  19:55:46  PAGE 81


C14:5032H         LINE#         72
C14:5043H         LINE#         73
C14:5043H         LINE#         74
C14:504DH         LINE#         75
C14:505DH         LINE#         76
C14:5061H         LINE#         77
C14:5061H         LINE#         78
C14:5085H         LINE#         79
C14:5085H         LINE#         80
C14:50B3H         LINE#         81
C14:50B3H         LINE#         82
C14:50E0H         LINE#         83
C14:50F5H         LINE#         84
C14:50F5H         LINE#         85
C14:5132H         LINE#         86
C14:515BH         LINE#         87
C14:515BH         LINE#         88
C14:5173H         LINE#         89
C14:5173H         LINE#         90
C14:5180H         LINE#         91
C14:5186H         LINE#         92
  -------         ENDPROC       _FS_OPEN14

  -------         PROC BANK=14  _DATACPY14
  X:3895H         SYMBOL        inputdata
C14:5187H         LINE#         105
C14:5192H         LINE#         106
C14:5192H         LINE#         107
  -------         ENDPROC       _DATACPY14

  -------         PROC BANK=14  _GET_TAG14
  D:0007H         SYMBOL        index
C14:51CFH         LINE#         121
C14:51CFH         LINE#         122
C14:51CFH         LINE#         123
C14:51F0H         LINE#         124
  -------         ENDPROC       _GET_TAG14
  -------         ENDMOD        HTMFILES14

  -------         MODULE        HTMFILES15
  C:0000H         SYMBOL        _ICE_DUMMY_
C15:5009H         PUBLIC        cgi_table15
C15:51CFH         PUBLIC        _get_tag15
C15:5187H         PUBLIC        _datacpy15
C15:500FH         PUBLIC        _fs_open15
C15:5000H         PUBLIC        files_table15

  -------         PROC BANK=15  _FS_OPEN15
  X:3799H         SYMBOL        name
  -------         DO            
  X:379CH         SYMBOL        ptr
  -------         ENDDO         
C15:500FH         LINE#         68
C15:501AH         LINE#         69
C15:501AH         LINE#         71
C15:5032H         LINE#         72
C15:5043H         LINE#         73
BL51 BANKED LINKER/LOCATER V5.03                                                      01/30/2013  19:55:46  PAGE 82


C15:5043H         LINE#         74
C15:504DH         LINE#         75
C15:505DH         LINE#         76
C15:5061H         LINE#         77
C15:5061H         LINE#         78
C15:5085H         LINE#         79
C15:5085H         LINE#         80
C15:50B3H         LINE#         81
C15:50B3H         LINE#         82
C15:50E0H         LINE#         83
C15:50F5H         LINE#         84
C15:50F5H         LINE#         85
C15:5132H         LINE#         86
C15:515BH         LINE#         87
C15:515BH         LINE#         88
C15:5173H         LINE#         89
C15:5173H         LINE#         90
C15:5180H         LINE#         91
C15:5186H         LINE#         92
  -------         ENDPROC       _FS_OPEN15

  -------         PROC BANK=15  _DATACPY15
  X:3898H         SYMBOL        inputdata
C15:5187H         LINE#         105
C15:5192H         LINE#         106
C15:5192H         LINE#         107
  -------         ENDPROC       _DATACPY15

  -------         PROC BANK=15  _GET_TAG15
  D:0007H         SYMBOL        index
C15:51CFH         LINE#         121
C15:51CFH         LINE#         122
C15:51CFH         LINE#         123
C15:51F0H         LINE#         124
  -------         ENDPROC       _GET_TAG15
  -------         ENDMOD        HTMFILES15

  -------         MODULE        UIP
  C:0000H         SYMBOL        _ICE_DUMMY_
  X:0D7FH         SYMBOL        lastport
 C1:A4E3H         PUBLIC        _uip_connect
  X:0D81H         PUBLIC        uip_listenports
  D:0080H         PUBLIC        P0
  D:0090H         PUBLIC        P1
  D:00A0H         PUBLIC        P2
  D:00B0H         PUBLIC        P3
  D:00E8H         PUBLIC        P4
  X:0D8FH         PUBLIC        uip_sappdata
 C1:DABFH         PUBLIC        _uip_unlisten
  D:00A8H         PUBLIC        IE
  X:0D92H         PUBLIC        uip_hostaddr
  X:0D96H         PUBLIC        uip_appdata
 C1:500FH         PUBLIC        _uip_process
  X:0D99H         PUBLIC        uip_dnsaddr
  D:00B8H         PUBLIC        IP
  X:0D9DH         PUBLIC        uip_urgdata
 C1:DC04H         PUBLIC        _uip_listen
BL51 BANKED LINKER/LOCATER V5.03                                                      01/30/2013  19:55:46  PAGE 83


 C1:D5F8H         SYMBOL        _uip_add_rcv_nxt
  X:0DA0H         PUBLIC        ipid
  D:0098H         PUBLIC        SCON
  D:0088H         PUBLIC        TCON
  X:0DA2H         PUBLIC        uip_surglen
  X:0DA3H         SYMBOL        tmp16
  X:0DA5H         PUBLIC        uip_acc32
  X:0DA9H         PUBLIC        PKT_FLAGS
  X:0DABH         PUBLIC        uip_flags
  X:0DACH         PUBLIC        uip_urglen
  X:0DADH         PUBLIC        uip_arp_draddr
  X:0DB1H         PUBLIC        uip_arp_netmask
  X:0DB5H         SYMBOL        iss
  D:00D8H         PUBLIC        WDTCON
 C1:E0B8H         PUBLIC        _uip_log
  X:0DB9H         SYMBOL        opt
  X:0DBAH         PUBLIC        uip_conns
 C1:DDC0H         PUBLIC        restore_uip_buf
  X:11CAH         PUBLIC        uip_conn
  X:11CDH         SYMBOL        c
 C1:DF1CH         PUBLIC        _chg_uip_buf
  X:11CEH         PUBLIC        uip_slen
 C1:D6F8H         PUBLIC        uip_init
  D:00C8H         PUBLIC        T2CON
  X:11D0H         PUBLIC        uip_stat
  X:11FCH         PUBLIC        uip_buf
 C1:E122H         PUBLIC        udp_xmit
  X:11FFH         PUBLIC        uip_len
  X:1201H         PUBLIC        uip_buf_real
  X:1204H         PUBLIC        eth_vlan_buf
  D:00D0H         PUBLIC        PSW

  -------         PROC BANK=1   _UIP_LOG
  D:0001H         SYMBOL        msg
  -------         DO            
  X:389BH         SYMBOL        x
  -------         ENDDO         
 C1:E0B8H         LINE#         68
  -------         ENDPROC       _UIP_LOG

  -------         PROC BANK=1   UDP_XMIT
 C1:E122H         LINE#         69
  -------         ENDPROC       UDP_XMIT

  -------         PROC BANK=1   _CHG_UIP_BUF
  D:0001H         SYMBOL        new_buf
 C1:DF1CH         LINE#         212
 C1:DF1CH         LINE#         213
 C1:DF1CH         LINE#         214
 C1:DF27H         LINE#         215
 C1:DF38H         LINE#         216
  -------         ENDPROC       _CHG_UIP_BUF

  -------         PROC BANK=1   RESTORE_UIP_BUF
 C1:DDC0H         LINE#         218
 C1:DDC0H         LINE#         219
 C1:DDC0H         LINE#         220
BL51 BANKED LINKER/LOCATER V5.03                                                      01/30/2013  19:55:46  PAGE 84


 C1:DDD6H         LINE#         221
 C1:DDE7H         LINE#         222
  -------         ENDPROC       RESTORE_UIP_BUF

  -------         PROC BANK=1   UIP_INIT
 C1:D6F8H         LINE#         225
 C1:D6F8H         LINE#         226
 C1:D6F8H         LINE#         240
 C1:D707H         LINE#         241
 C1:D717H         LINE#         242
 C1:D71FH         LINE#         243
 C1:D72EH         LINE#         244
 C1:D73FH         LINE#         245
 C1:D747H         LINE#         247
 C1:D750H         LINE#         262
  -------         ENDPROC       UIP_INIT

  -------         PROC BANK=1   _UIP_CONNECT
  X:3594H         SYMBOL        ripaddr
  X:3597H         SYMBOL        rport
  -------         DO            
  X:3599H         SYMBOL        conn
  X:359CH         SYMBOL        cconn
 C1:A4F4H         SYMBOL        again
  -------         ENDDO         
 C1:A4E3H         LINE#         277
 C1:A4F4H         LINE#         278
 C1:A4F4H         LINE#         282
 C1:A4F4H         LINE#         283
 C1:A502H         LINE#         285
 C1:A50BH         LINE#         286
 C1:A511H         LINE#         287
 C1:A511H         LINE#         291
 C1:A520H         LINE#         292
 C1:A53AH         LINE#         293
 C1:A561H         LINE#         294
 C1:A561H         LINE#         295
 C1:A561H         LINE#         296
 C1:A561H         LINE#         297
 C1:A569H         LINE#         298
 C1:A572H         LINE#         299
 C1:A583H         LINE#         300
 C1:A59DH         LINE#         301
 C1:A5A6H         LINE#         302
 C1:A5BBH         LINE#         303
 C1:A5BDH         LINE#         304
 C1:A5BDH         LINE#         305
 C1:A5C2H         LINE#         306
 C1:A5F4H         LINE#         307
 C1:A5F4H         LINE#         308
 C1:A609H         LINE#         309
 C1:A609H         LINE#         310
 C1:A609H         LINE#         311
 C1:A612H         LINE#         313
 C1:A61DH         LINE#         314
 C1:A621H         LINE#         315
 C1:A621H         LINE#         317
BL51 BANKED LINKER/LOCATER V5.03                                                      01/30/2013  19:55:46  PAGE 85


 C1:A634H         LINE#         319
 C1:A63EH         LINE#         320
 C1:A648H         LINE#         321
 C1:A652H         LINE#         322
 C1:A65CH         LINE#         324
 C1:A672H         LINE#         326
 C1:A67CH         LINE#         327
 C1:A683H         LINE#         328
 C1:A68BH         LINE#         329
 C1:A693H         LINE#         330
 C1:A69AH         LINE#         331
 C1:A6A2H         LINE#         332
 C1:A6B2H         LINE#         333
 C1:A6C2H         LINE#         334
 C1:A6E3H         LINE#         335
 C1:A70AH         LINE#         337
 C1:A70AH         LINE#         338
  -------         ENDPROC       _UIP_CONNECT

  -------         PROC BANK=1   _UIP_UNLISTEN
  D:0006H         SYMBOL        port
 C1:DABFH         LINE#         406
 C1:DABFH         LINE#         407
 C1:DABFH         LINE#         408
 C1:DACEH         LINE#         409
 C1:DACEH         LINE#         410
 C1:DAE5H         LINE#         411
 C1:DAE5H         LINE#         412
 C1:DAF9H         LINE#         414
 C1:DAF9H         LINE#         415
 C1:DB01H         LINE#         416
  -------         ENDPROC       _UIP_UNLISTEN

  -------         PROC BANK=1   _UIP_LISTEN
  D:0006H         SYMBOL        port
 C1:DC04H         LINE#         430
 C1:DC04H         LINE#         431
 C1:DC04H         LINE#         432
 C1:DC13H         LINE#         433
 C1:DC13H         LINE#         434
 C1:DC26H         LINE#         435
 C1:DC26H         LINE#         436
 C1:DC3BH         LINE#         438
 C1:DC3BH         LINE#         439
 C1:DC43H         LINE#         440
  -------         ENDPROC       _UIP_LISTEN
 C1:D5F3H         SYMBOL        L?0270
  -------         PROC          L?0269
  -------         ENDPROC       L?0269
 C1:D5F3H         SYMBOL        L?0270

  -------         PROC BANK=1   _UIP_ADD_RCV_NXT
  D:0006H         SYMBOL        n
 C1:D5F8H         LINE#         602
 C1:D5F8H         LINE#         603
 C1:D5F8H         LINE#         604
 C1:D60FH         LINE#         605
BL51 BANKED LINKER/LOCATER V5.03                                                      01/30/2013  19:55:46  PAGE 86


 C1:D626H         LINE#         606
 C1:D630H         LINE#         607
 C1:D63AH         LINE#         608
  -------         ENDPROC       _UIP_ADD_RCV_NXT

  -------         PROC BANK=1   _UIP_PROCESS
  D:0007H         SYMBOL        flag
  -------         DO            
  X:3820H         SYMBOL        uip_connr
 C1:6681H         SYMBOL        tcp_send_nodata
 C1:5B88H         SYMBOL        tcp_send_synack
 C1:5BA0H         SYMBOL        tcp_send_syn
 C1:6477H         SYMBOL        apprexmit
 C1:621EH         SYMBOL        tcp_send_finack
 C1:6336H         SYMBOL        appsend
 C1:6A97H         SYMBOL        drop
 C1:53A1H         SYMBOL        icmp_input
 C1:54ACH         SYMBOL        tcp_input
 C1:6A88H         SYMBOL        send
 C1:5C00H         SYMBOL        found
 C1:563AH         SYMBOL        reset
 C1:57BDH         SYMBOL        found_listen
 C1:690DH         SYMBOL        tcp_send_noconn
 C1:66A2H         SYMBOL        tcp_send
 C1:6669H         SYMBOL        tcp_send_ack
 C1:668AH         SYMBOL        tcp_send_noopts
  -------         DO            
  X:3823H         SYMBOL        m
  -------         ENDDO         
  -------         ENDDO         
 C1:500FH         LINE#         623
 C1:500FH         LINE#         624
 C1:500FH         LINE#         625
 C1:5024H         LINE#         626
 C1:503FH         LINE#         628
 C1:5047H         LINE#         635
 C1:504FH         LINE#         636
 C1:5057H         LINE#         637
 C1:505FH         LINE#         638
 C1:5065H         LINE#         639
 C1:5065H         LINE#         640
 C1:5065H         LINE#         641
 C1:5065H         LINE#         642
 C1:506CH         LINE#         643
 C1:5086H         LINE#         644
 C1:5086H         LINE#         645
 C1:508EH         LINE#         646
 C1:509BH         LINE#         647
 C1:50A9H         LINE#         648
 C1:50A9H         LINE#         649
 C1:50C2H         LINE#         653
 C1:50CFH         LINE#         654
 C1:50DCH         LINE#         655
 C1:50FCH         LINE#         658
 C1:50FCH         LINE#         659
 C1:5103H         LINE#         665
 C1:5108H         LINE#         666
BL51 BANKED LINKER/LOCATER V5.03                                                      01/30/2013  19:55:46  PAGE 87


 C1:510CH         LINE#         668
 C1:5112H         LINE#         669
 C1:5141H         LINE#         670
 C1:5145H         LINE#         671
 C1:5145H         LINE#         672
 C1:5148H         LINE#         674
 C1:5148H         LINE#         675
 C1:514BH         LINE#         676
 C1:514BH         LINE#         679
 C1:5179H         LINE#         682
 C1:5181H         LINE#         690
 C1:518FH         LINE#         691
 C1:51BCH         LINE#         692
 C1:51BCH         LINE#         695
 C1:51BCH         LINE#         698
 C1:51BCH         LINE#         700
 C1:51D0H         LINE#         701
 C1:51D3H         LINE#         704
 C1:51D3H         LINE#         709
 C1:51DAH         LINE#         710
 C1:51E0H         LINE#         711
 C1:51E6H         LINE#         712
 C1:51E9H         LINE#         713
 C1:51ECH         LINE#         715
 C1:51ECH         LINE#         716
 C1:51ECH         LINE#         717
 C1:51ECH         LINE#         719
 C1:51ECH         LINE#         721
 C1:51ECH         LINE#         722
 C1:51ECH         LINE#         723
 C1:5206H         LINE#         726
 C1:520CH         LINE#         727
 C1:5212H         LINE#         728
 C1:5218H         LINE#         729
 C1:5218H         LINE#         730
 C1:521BH         LINE#         731
 C1:521BH         LINE#         732
 C1:521BH         LINE#         733
 C1:521BH         LINE#         734
 C1:521BH         LINE#         750
 C1:5229H         LINE#         762
 C1:523EH         LINE#         763
 C1:524CH         LINE#         764
 C1:525AH         LINE#         766
 C1:525DH         LINE#         767
 C1:525DH         LINE#         773
 C1:5275H         LINE#         774
 C1:5284H         LINE#         775
 C1:5284H         LINE#         776
 C1:52A5H         LINE#         777
 C1:52B2H         LINE#         778
 C1:52B2H         LINE#         782
 C1:52D4H         LINE#         789
 C1:52E2H         LINE#         790
 C1:52F0H         LINE#         792
 C1:52F3H         LINE#         794
 C1:52F3H         LINE#         800
BL51 BANKED LINKER/LOCATER V5.03                                                      01/30/2013  19:55:46  PAGE 88


 C1:530BH         LINE#         801
 C1:5318H         LINE#         803
 C1:531BH         LINE#         804
 C1:531BH         LINE#         806
 C1:531BH         LINE#         807
 C1:531BH         LINE#         808
 C1:531BH         LINE#         812
 C1:5329H         LINE#         813
 C1:5337H         LINE#         815
 C1:533AH         LINE#         816
 C1:533AH         LINE#         818
 C1:534EH         LINE#         819
 C1:535CH         LINE#         821
 C1:535FH         LINE#         822
 C1:535FH         LINE#         834
 C1:537DH         LINE#         836
 C1:537DH         LINE#         843
 C1:5382H         LINE#         845
 C1:5390H         LINE#         846
 C1:539EH         LINE#         848
 C1:53A1H         LINE#         849
 C1:53A1H         LINE#         851
 C1:53A1H         LINE#         852
 C1:53AFH         LINE#         857
 C1:53C9H         LINE#         858
 C1:53D7H         LINE#         859
 C1:53E5H         LINE#         861
 C1:53E8H         LINE#         862
 C1:53E8H         LINE#         868
 C1:53FCH         LINE#         869
 C1:540CH         LINE#         870
 C1:541CH         LINE#         871
 C1:541CH         LINE#         874
 C1:5433H         LINE#         877
 C1:543CH         LINE#         878
 C1:5445H         LINE#         889
 C1:5456H         LINE#         890
 C1:5467H         LINE#         891
 C1:5470H         LINE#         892
 C1:5481H         LINE#         893
 C1:5492H         LINE#         894
 C1:549BH         LINE#         896
 C1:54A9H         LINE#         897
 C1:54ACH         LINE#         993
 C1:54ACH         LINE#         994
 C1:54BAH         LINE#         1009
 C1:54DEH         LINE#         1014
 C1:55BCH         LINE#         1015
 C1:55BCH         LINE#         1016
 C1:55BCH         LINE#         1017
 C1:55C9H         LINE#         1023
 C1:55E5H         LINE#         1024
 C1:55E5H         LINE#         1026
 C1:55F5H         LINE#         1028
 C1:5604H         LINE#         1029
 C1:5624H         LINE#         1030
 C1:5624H         LINE#         1031
BL51 BANKED LINKER/LOCATER V5.03                                                      01/30/2013  19:55:46  PAGE 89


 C1:562CH         LINE#         1034
 C1:563AH         LINE#         1035
 C1:563AH         LINE#         1038
 C1:5656H         LINE#         1039
 C1:5656H         LINE#         1041
 C1:5664H         LINE#         1043
 C1:566CH         LINE#         1044
 C1:5675H         LINE#         1045
 C1:567DH         LINE#         1048
 C1:5688H         LINE#         1049
 C1:5694H         LINE#         1050
 C1:569BH         LINE#         1052
 C1:56A6H         LINE#         1053
 C1:56B2H         LINE#         1054
 C1:56B9H         LINE#         1056
 C1:56C4H         LINE#         1057
 C1:56D0H         LINE#         1058
 C1:56D7H         LINE#         1060
 C1:56E2H         LINE#         1061
 C1:56EEH         LINE#         1062
 C1:56F5H         LINE#         1067
 C1:56FFH         LINE#         1068
 C1:5719H         LINE#         1069
 C1:5722H         LINE#         1070
 C1:5729H         LINE#         1071
 C1:5729H         LINE#         1072
 C1:5729H         LINE#         1073
 C1:5729H         LINE#         1076
 C1:574AH         LINE#         1077
 C1:575BH         LINE#         1078
 C1:5764H         LINE#         1081
 C1:5775H         LINE#         1082
 C1:5786H         LINE#         1083
 C1:578FH         LINE#         1084
 C1:57A0H         LINE#         1085
 C1:57B1H         LINE#         1086
 C1:57BAH         LINE#         1090
 C1:57BDH         LINE#         1095
 C1:57BDH         LINE#         1102
 C1:57C6H         LINE#         1103
 C1:57D7H         LINE#         1104
 C1:57E9H         LINE#         1105
 C1:5805H         LINE#         1106
 C1:5807H         LINE#         1107
 C1:5807H         LINE#         1108
 C1:581FH         LINE#         1109
 C1:5848H         LINE#         1110
 C1:5848H         LINE#         1111
 C1:5864H         LINE#         1112
 C1:5864H         LINE#         1113
 C1:5864H         LINE#         1114
 C1:586DH         LINE#         1116
 C1:5878H         LINE#         1120
 C1:5886H         LINE#         1122
 C1:5889H         LINE#         1123
 C1:5889H         LINE#         1124
 C1:589EH         LINE#         1127
BL51 BANKED LINKER/LOCATER V5.03                                                      01/30/2013  19:55:46  PAGE 90


 C1:58B7H         LINE#         1128
 C1:58BEH         LINE#         1129
 C1:58C6H         LINE#         1130
 C1:58CDH         LINE#         1131
 C1:58F9H         LINE#         1132
 C1:5925H         LINE#         1133
 C1:594EH         LINE#         1134
 C1:597AH         LINE#         1135
 C1:5982H         LINE#         1137
 C1:598CH         LINE#         1138
 C1:5996H         LINE#         1139
 C1:59A0H         LINE#         1140
 C1:59AAH         LINE#         1141
 C1:59B4H         LINE#         1144
 C1:59DDH         LINE#         1145
 C1:5A06H         LINE#         1146
 C1:5A2FH         LINE#         1147
 C1:5A58H         LINE#         1148
 C1:5A5FH         LINE#         1151
 C1:5A7FH         LINE#         1152
 C1:5AB5H         LINE#         1153
 C1:5AD0H         LINE#         1154
 C1:5AD5H         LINE#         1156
 C1:5AD5H         LINE#         1157
 C1:5ADDH         LINE#         1158
 C1:5AE3H         LINE#         1160
 C1:5AFAH         LINE#         1161
 C1:5AFAH         LINE#         1164
 C1:5B2BH         LINE#         1165
 C1:5B5EH         LINE#         1169
 C1:5B60H         LINE#         1170
 C1:5B60H         LINE#         1173
 C1:5B7FH         LINE#         1176
 C1:5B7FH         LINE#         1177
 C1:5B7FH         LINE#         1178
 C1:5B85H         LINE#         1179
 C1:5B85H         LINE#         1180
 C1:5B88H         LINE#         1181
 C1:5B88H         LINE#         1185
 C1:5B88H         LINE#         1186
 C1:5BA0H         LINE#         1188
 C1:5BA0H         LINE#         1189
 C1:5BBFH         LINE#         1197
 C1:5BD7H         LINE#         1198
 C1:5BDFH         LINE#         1199
 C1:5BE7H         LINE#         1200
 C1:5BEFH         LINE#         1201
 C1:5BF8H         LINE#         1202
 C1:5BFDH         LINE#         1203
 C1:5C00H         LINE#         1206
 C1:5C00H         LINE#         1208
 C1:5C15H         LINE#         1209
 C1:5C1AH         LINE#         1215
 C1:5C33H         LINE#         1216
 C1:5C45H         LINE#         1218
 C1:5C4AH         LINE#         1219
 C1:5C4AH         LINE#         1220
BL51 BANKED LINKER/LOCATER V5.03                                                      01/30/2013  19:55:46  PAGE 91


 C1:5C4DH         LINE#         1221
 C1:5C4DH         LINE#         1224
 C1:5C6FH         LINE#         1228
 C1:5C86H         LINE#         1237
 C1:5D40H         LINE#         1238
 C1:5D40H         LINE#         1239
 C1:5D40H         LINE#         1245
 C1:5D76H         LINE#         1247
 C1:5D7FH         LINE#         1249
 C1:5D7FH         LINE#         1250
 C1:5D89H         LINE#         1254
 C1:5DDDH         LINE#         1256
 C1:5DF4H         LINE#         1257
 C1:5DFEH         LINE#         1258
 C1:5E08H         LINE#         1259
 C1:5E12H         LINE#         1263
 C1:5E1DH         LINE#         1265
 C1:5E3CH         LINE#         1267
 C1:5E4FH         LINE#         1268
 C1:5E57H         LINE#         1269
 C1:5E5FH         LINE#         1270
 C1:5E66H         LINE#         1271
 C1:5E66H         LINE#         1272
 C1:5E88H         LINE#         1273
 C1:5E8EH         LINE#         1274
 C1:5EA7H         LINE#         1275
 C1:5EA7H         LINE#         1277
 C1:5EADH         LINE#         1279
 C1:5EC4H         LINE#         1280
 C1:5EC4H         LINE#         1281
 C1:5EC6H         LINE#         1283
 C1:5EC6H         LINE#         1284
 C1:5ECCH         LINE#         1285
 C1:5ECCH         LINE#         1287
 C1:5ECCH         LINE#         1289
 C1:5F0EH         LINE#         1294
 C1:5F0EH         LINE#         1299
 C1:5F18H         LINE#         1300
 C1:5F18H         LINE#         1301
 C1:5F20H         LINE#         1302
 C1:5F26H         LINE#         1303
 C1:5F2FH         LINE#         1304
 C1:5F3EH         LINE#         1305
 C1:5F3EH         LINE#         1306
 C1:5F3EH         LINE#         1307
 C1:5F41H         LINE#         1308
 C1:5F41H         LINE#         1309
 C1:5F48H         LINE#         1310
 C1:5F48H         LINE#         1311
 C1:5F4BH         LINE#         1312
 C1:5F4BH         LINE#         1313
 C1:5F4BH         LINE#         1315
 C1:5F4BH         LINE#         1321
 C1:5F72H         LINE#         1324
 C1:5F82H         LINE#         1325
 C1:5FB8H         LINE#         1326
 C1:5FD3H         LINE#         1327
BL51 BANKED LINKER/LOCATER V5.03                                                      01/30/2013  19:55:46  PAGE 92


 C1:5FD8H         LINE#         1329
 C1:5FD8H         LINE#         1330
 C1:5FE0H         LINE#         1331
 C1:5FE6H         LINE#         1333
 C1:5FFDH         LINE#         1334
 C1:5FFDH         LINE#         1336
 C1:602EH         LINE#         1338
 C1:6061H         LINE#         1342
 C1:6063H         LINE#         1343
 C1:6063H         LINE#         1346
 C1:6082H         LINE#         1349
 C1:6082H         LINE#         1350
 C1:6082H         LINE#         1351
 C1:6088H         LINE#         1352
 C1:6088H         LINE#         1353
 C1:608BH         LINE#         1354
 C1:608BH         LINE#         1355
 C1:609EH         LINE#         1356
 C1:60C7H         LINE#         1357
 C1:60F0H         LINE#         1358
 C1:6119H         LINE#         1359
 C1:6142H         LINE#         1360
 C1:6149H         LINE#         1361
 C1:614FH         LINE#         1362
 C1:6163H         LINE#         1363
 C1:616AH         LINE#         1364
 C1:6170H         LINE#         1365
 C1:6170H         LINE#         1366
 C1:6173H         LINE#         1367
 C1:6173H         LINE#         1368
 C1:6173H         LINE#         1371
 C1:6173H         LINE#         1383
 C1:618FH         LINE#         1386
 C1:6192H         LINE#         1389
 C1:61AAH         LINE#         1390
 C1:61AAH         LINE#         1391
 C1:61AAH         LINE#         1392
 C1:61BBH         LINE#         1393
 C1:61C1H         LINE#         1394
 C1:61D0H         LINE#         1395
 C1:61D7H         LINE#         1396
 C1:61D7H         LINE#         1399
 C1:61F0H         LINE#         1400
 C1:61F0H         LINE#         1401
 C1:61F7H         LINE#         1402
 C1:61F7H         LINE#         1405
 C1:61FAH         LINE#         1406
 C1:620FH         LINE#         1407
 C1:6217H         LINE#         1408
 C1:621EH         LINE#         1409
 C1:621EH         LINE#         1410
 C1:621EH         LINE#         1411
 C1:6221H         LINE#         1412
 C1:6221H         LINE#         1416
 C1:623AH         LINE#         1430
 C1:6253H         LINE#         1431
 C1:6260H         LINE#         1432
BL51 BANKED LINKER/LOCATER V5.03                                                      01/30/2013  19:55:46  PAGE 93


 C1:6260H         LINE#         1440
 C1:6283H         LINE#         1441
 C1:6283H         LINE#         1442
 C1:6286H         LINE#         1443
 C1:6286H         LINE#         1444
 C1:629AH         LINE#         1445
 C1:629AH         LINE#         1446
 C1:629AH         LINE#         1447
 C1:629DH         LINE#         1448
 C1:629DH         LINE#         1461
 C1:62C8H         LINE#         1463
 C1:62D8H         LINE#         1465
 C1:62FDH         LINE#         1466
 C1:62FDH         LINE#         1467
 C1:6305H         LINE#         1468
 C1:6305H         LINE#         1469
 C1:6321H         LINE#         1487
 C1:632CH         LINE#         1488
 C1:6333H         LINE#         1489
 C1:6336H         LINE#         1491
 C1:6336H         LINE#         1492
 C1:633DH         LINE#         1493
 C1:6344H         LINE#         1494
 C1:6356H         LINE#         1495
 C1:636BH         LINE#         1496
 C1:636EH         LINE#         1497
 C1:636EH         LINE#         1498
 C1:6375H         LINE#         1499
 C1:637CH         LINE#         1500
 C1:6391H         LINE#         1501
 C1:6399H         LINE#         1502
 C1:63A0H         LINE#         1503
 C1:63B5H         LINE#         1504
 C1:63B8H         LINE#         1505
 C1:63B8H         LINE#         1507
 C1:63C7H         LINE#         1510
 C1:63CEH         LINE#         1511
 C1:63E2H         LINE#         1512
 C1:63E2H         LINE#         1516
 C1:63F7H         LINE#         1521
 C1:640DH         LINE#         1522
 C1:6412H         LINE#         1523
 C1:6412H         LINE#         1527
 C1:641FH         LINE#         1528
 C1:6421H         LINE#         1533
 C1:643CH         LINE#         1534
 C1:643CH         LINE#         1535
 C1:643EH         LINE#         1537
 C1:6445H         LINE#         1538
 C1:6445H         LINE#         1540
 C1:644BH         LINE#         1542
 C1:645FH         LINE#         1543
 C1:645FH         LINE#         1547
 C1:645FH         LINE#         1549
 C1:6465H         LINE#         1551
 C1:6477H         LINE#         1552
 C1:6477H         LINE#         1553
BL51 BANKED LINKER/LOCATER V5.03                                                      01/30/2013  19:55:46  PAGE 94


 C1:648CH         LINE#         1557
 C1:64B7H         LINE#         1559
 C1:64C4H         LINE#         1561
 C1:64D9H         LINE#         1563
 C1:64DBH         LINE#         1565
 C1:64DBH         LINE#         1568
 C1:64E5H         LINE#         1569
 C1:64EEH         LINE#         1570
 C1:6506H         LINE#         1571
 C1:6509H         LINE#         1572
 C1:6509H         LINE#         1573
 C1:6509H         LINE#         1574
 C1:6509H         LINE#         1575
 C1:6509H         LINE#         1578
 C1:6513H         LINE#         1579
 C1:6525H         LINE#         1580
 C1:652BH         LINE#         1581
 C1:652EH         LINE#         1582
 C1:652EH         LINE#         1583
 C1:6531H         LINE#         1585
 C1:6531H         LINE#         1589
 C1:6540H         LINE#         1590
 C1:6543H         LINE#         1591
 C1:6543H         LINE#         1592
 C1:655CH         LINE#         1593
 C1:6566H         LINE#         1594
 C1:6576H         LINE#         1595
 C1:657DH         LINE#         1596
 C1:6586H         LINE#         1597
 C1:6589H         LINE#         1598
 C1:6599H         LINE#         1599
 C1:6599H         LINE#         1600
 C1:6599H         LINE#         1601
 C1:6599H         LINE#         1602
 C1:6599H         LINE#         1603
 C1:659CH         LINE#         1604
 C1:65A3H         LINE#         1605
 C1:65B6H         LINE#         1606
 C1:65BFH         LINE#         1607
 C1:65C2H         LINE#         1608
 C1:65C2H         LINE#         1609
 C1:65D4H         LINE#         1610
 C1:65D7H         LINE#         1611
 C1:65D7H         LINE#         1612
 C1:65D7H         LINE#         1614
 C1:65D7H         LINE#         1615
 C1:65E6H         LINE#         1616
 C1:65E9H         LINE#         1617
 C1:65E9H         LINE#         1618
 C1:6602H         LINE#         1619
 C1:6615H         LINE#         1620
 C1:661CH         LINE#         1621
 C1:6623H         LINE#         1622
 C1:6629H         LINE#         1623
 C1:662CH         LINE#         1624
 C1:662EH         LINE#         1625
 C1:662EH         LINE#         1626
BL51 BANKED LINKER/LOCATER V5.03                                                      01/30/2013  19:55:46  PAGE 95


 C1:6640H         LINE#         1627
 C1:6642H         LINE#         1628
 C1:6642H         LINE#         1629
 C1:6642H         LINE#         1631
 C1:6642H         LINE#         1632
 C1:6642H         LINE#         1634
 C1:6642H         LINE#         1635
 C1:664CH         LINE#         1636
 C1:665FH         LINE#         1637
 C1:6666H         LINE#         1638
 C1:6666H         LINE#         1639
 C1:6666H         LINE#         1640
 C1:6669H         LINE#         1645
 C1:6669H         LINE#         1646
 C1:6681H         LINE#         1647
 C1:6681H         LINE#         1648
 C1:668AH         LINE#         1649
 C1:668AH         LINE#         1650
 C1:66A2H         LINE#         1651
 C1:66A2H         LINE#         1656
 C1:66CBH         LINE#         1657
 C1:66F4H         LINE#         1658
 C1:671DH         LINE#         1659
 C1:6746H         LINE#         1661
 C1:676FH         LINE#         1662
 C1:6798H         LINE#         1663
 C1:67C1H         LINE#         1664
 C1:67EAH         LINE#         1666
 C1:67F2H         LINE#         1668
 C1:681EH         LINE#         1669
 C1:684AH         LINE#         1671
 C1:685AH         LINE#         1672
 C1:686AH         LINE#         1673
 C1:6893H         LINE#         1674
 C1:68BFH         LINE#         1677
 C1:68D6H         LINE#         1680
 C1:68EEH         LINE#         1681
 C1:68F0H         LINE#         1682
 C1:6905H         LINE#         1683
 C1:690DH         LINE#         1684
 C1:690DH         LINE#         1686
 C1:690DH         LINE#         1688
 C1:6929H         LINE#         1689
 C1:6933H         LINE#         1692
 C1:693CH         LINE#         1694
 C1:6945H         LINE#         1700
 C1:6988H         LINE#         1701
 C1:69AAH         LINE#         1708
 C1:69BDH         LINE#         1709
 C1:69CBH         LINE#         1710
 C1:69D9H         LINE#         1711
 C1:69E1H         LINE#         1712
 C1:69EFH         LINE#         1713
 C1:69F9H         LINE#         1714
 C1:6A03H         LINE#         1717
 C1:6A0CH         LINE#         1719
 C1:6A15H         LINE#         1725
BL51 BANKED LINKER/LOCATER V5.03                                                      01/30/2013  19:55:46  PAGE 96


 C1:6A58H         LINE#         1726
 C1:6A7AH         LINE#         1729
 C1:6A88H         LINE#         1730
 C1:6A88H         LINE#         1731
 C1:6A97H         LINE#         1734
 C1:6A97H         LINE#         1735
 C1:6A9EH         LINE#         1737
  -------         ENDPROC       _UIP_PROCESS
  -------         ENDMOD        UIP

  -------         MODULE        UIP_ARP
  C:0000H         SYMBOL        _ICE_DUMMY_
  D:0080H         PUBLIC        P0
  D:0090H         PUBLIC        P1
  X:29FEH         SYMBOL        tmpage
  D:00A0H         PUBLIC        P2
  D:00B0H         PUBLIC        P3
  D:00E8H         PUBLIC        P4
 C6:9B0BH         PUBLIC        uip_arp_ipin
 C6:9D0DH         PUBLIC        uip_arp_init
  D:00A8H         PUBLIC        IE
  X:2A00H         PUBLIC        uip_ethaddr
  D:00B8H         PUBLIC        IP
 C6:89CEH         PUBLIC        uip_arp_out
  X:2A06H         PUBLIC        arp_table
 C6:97EDH         PUBLIC        gateway_mac_req
  D:0098H         PUBLIC        SCON
  D:0088H         PUBLIC        TCON
 C6:936BH         SYMBOL        _uip_arp_update
  D:00D8H         PUBLIC        WDTCON
  X:2AF6H         SYMBOL        c
  D:00C8H         PUBLIC        T2CON
  X:2AF7H         SYMBOL        i
 C6:9185H         PUBLIC        uip_arp_arpin
  X:2AF8H         SYMBOL        arptime
  X:2AFAH         SYMBOL        ipaddr
 C6:9BB4H         PUBLIC        uip_arp_timer
  D:00D0H         PUBLIC        PSW

  -------         PROC BANK=6   UIP_ARP_INIT
 C6:9D0DH         LINE#         175
 C6:9D0DH         LINE#         176
 C6:9D0DH         LINE#         184
 C6:9D1CH         LINE#         185
 C6:9D3BH         LINE#         186
 C6:9D43H         LINE#         187
  -------         ENDPROC       UIP_ARP_INIT

  -------         PROC BANK=6   UIP_ARP_TIMER
  -------         DO            
  D:0001H         SYMBOL        tabptr
  -------         ENDDO         
 C6:9BB4H         LINE#         199
 C6:9BB4H         LINE#         200
 C6:9BB4H         LINE#         203
 C6:9BC2H         LINE#         204
 C6:9BD1H         LINE#         205
BL51 BANKED LINKER/LOCATER V5.03                                                      01/30/2013  19:55:46  PAGE 97


 C6:9BE0H         LINE#         206
 C6:9C14H         LINE#         207
 C6:9C14H         LINE#         208
 C6:9C1DH         LINE#         209
 C6:9C1DH         LINE#         210
 C6:9C25H         LINE#         212
  -------         ENDPROC       UIP_ARP_TIMER

  -------         PROC BANK=6   _UIP_ARP_UPDATE
  X:360EH         SYMBOL        ipaddr
  X:3611H         SYMBOL        ethaddr
  -------         DO            
  X:3614H         SYMBOL        tabptr
  -------         ENDDO         
 C6:936BH         LINE#         215
 C6:9376H         LINE#         216
 C6:9376H         LINE#         221
 C6:9388H         LINE#         223
 C6:93A2H         LINE#         225
 C6:93BEH         LINE#         226
 C6:93BEH         LINE#         230
 C6:9407H         LINE#         231
 C6:9407H         LINE#         234
 C6:9407H         LINE#         235
 C6:940AH         LINE#         238
 C6:940AH         LINE#         239
 C6:940AH         LINE#         240
 C6:9413H         LINE#         246
 C6:9422H         LINE#         247
 C6:943CH         LINE#         248
 C6:9458H         LINE#         249
 C6:9458H         LINE#         250
 C6:9458H         LINE#         251
 C6:9458H         LINE#         252
 C6:9460H         LINE#         256
 C6:9468H         LINE#         257
 C6:946EH         LINE#         258
 C6:9472H         LINE#         259
 C6:947EH         LINE#         260
 C6:9498H         LINE#         261
 C6:94BAH         LINE#         262
 C6:94BFH         LINE#         263
 C6:94C7H         LINE#         264
 C6:94C7H         LINE#         265
 C6:94CFH         LINE#         266
 C6:94D5H         LINE#         267
 C6:94D5H         LINE#         271
 C6:94F6H         LINE#         272
 C6:951CH         LINE#         273
 C6:9538H         LINE#         274
  -------         ENDPROC       _UIP_ARP_UPDATE

  -------         PROC BANK=6   UIP_ARP_IPIN
 C6:9B0BH         LINE#         290
 C6:9B0BH         LINE#         291
 C6:9B0BH         LINE#         292
 C6:9B19H         LINE#         296
BL51 BANKED LINKER/LOCATER V5.03                                                      01/30/2013  19:55:46  PAGE 98


 C6:9B4AH         LINE#         297
 C6:9B4AH         LINE#         299
 C6:9B4AH         LINE#         300
 C6:9B7BH         LINE#         301
 C6:9B7BH         LINE#         303
 C6:9B7BH         LINE#         304
 C6:9BB3H         LINE#         307
  -------         ENDPROC       UIP_ARP_IPIN

  -------         PROC BANK=6   UIP_ARP_ARPIN
 C6:9185H         LINE#         332
 C6:9185H         LINE#         333
 C6:9185H         LINE#         335
 C6:9194H         LINE#         336
 C6:9199H         LINE#         338
 C6:9199H         LINE#         340
 C6:91A0H         LINE#         342
 C6:91C9H         LINE#         343
 C6:91C9H         LINE#         347
 C6:91F7H         LINE#         349
 C6:920CH         LINE#         351
 C6:923AH         LINE#         352
 C6:925BH         LINE#         353
 C6:927CH         LINE#         354
 C6:92A8H         LINE#         356
 C6:92C4H         LINE#         357
 C6:92D5H         LINE#         358
 C6:92E5H         LINE#         359
 C6:92F5H         LINE#         361
 C6:9300H         LINE#         362
 C6:9309H         LINE#         363
 C6:9309H         LINE#         364
 C6:930AH         LINE#         365
 C6:930AH         LINE#         369
 C6:933BH         LINE#         370
 C6:936AH         LINE#         371
 C6:936AH         LINE#         372
 C6:936AH         LINE#         373
 C6:936AH         LINE#         376
  -------         ENDPROC       UIP_ARP_ARPIN

  -------         PROC BANK=6   UIP_ARP_OUT
  -------         DO            
  X:389EH         SYMBOL        tabptr
  -------         ENDDO         
 C6:89CEH         LINE#         406
 C6:89CEH         LINE#         407
 C6:89CEH         LINE#         421
 C6:8A25H         LINE#         422
 C6:8A25H         LINE#         428
 C6:8A34H         LINE#         429
 C6:8A3FH         LINE#         430
 C6:8A41H         LINE#         432
 C6:8A5CH         LINE#         433
 C6:8A6CH         LINE#         434
 C6:8A6CH         LINE#         435
 C6:8A7BH         LINE#         436
BL51 BANKED LINKER/LOCATER V5.03                                                      01/30/2013  19:55:46  PAGE 99


 C6:8A95H         LINE#         437
 C6:8AC4H         LINE#         439
 C6:8AC4H         LINE#         440
 C6:8ACCH         LINE#         441
 C6:8AF7H         LINE#         443
 C6:8B02H         LINE#         446
 C6:8B15H         LINE#         447
 C6:8B2EH         LINE#         448
 C6:8B4FH         LINE#         449
 C6:8B70H         LINE#         451
 C6:8B8CH         LINE#         452
 C6:8B9CH         LINE#         453
 C6:8BACH         LINE#         454
 C6:8BBCH         LINE#         455
 C6:8BC6H         LINE#         456
 C6:8BD0H         LINE#         457
 C6:8BDBH         LINE#         458
 C6:8BE3H         LINE#         459
 C6:8BEBH         LINE#         460
 C6:8BF6H         LINE#         462
 C6:8C08H         LINE#         463
 C6:8C12H         LINE#         465
 C6:8C12H         LINE#         468
 C6:8C3BH         LINE#         469
 C6:8C3BH         LINE#         470
 C6:8C44H         LINE#         471
 C6:8C46H         LINE#         473
 C6:8C46H         LINE#         474
 C6:8C74H         LINE#         475
 C6:8C74H         LINE#         476
 C6:8C95H         LINE#         477
 C6:8CABH         LINE#         478
 C6:8CB9H         LINE#         479
  -------         ENDPROC       UIP_ARP_OUT

  -------         PROC BANK=6   GATEWAY_MAC_REQ
 C6:97EDH         LINE#         482
 C6:97EDH         LINE#         483
 C6:97EDH         LINE#         484
 C6:97F3H         LINE#         485
 C6:97F3H         LINE#         486
 C6:9808H         LINE#         487
 C6:980FH         LINE#         488
 C6:980FH         LINE#         489
 C6:9823H         LINE#         490
 C6:983CH         LINE#         491
 C6:985DH         LINE#         492
 C6:987EH         LINE#         494
 C6:989AH         LINE#         495
 C6:98AAH         LINE#         496
 C6:98BAH         LINE#         497
 C6:98CAH         LINE#         498
 C6:98D4H         LINE#         499
 C6:98DEH         LINE#         500
 C6:98E9H         LINE#         501
 C6:98F1H         LINE#         502
 C6:98F9H         LINE#         503
BL51 BANKED LINKER/LOCATER V5.03                                                      01/30/2013  19:55:46  PAGE 100


 C6:9904H         LINE#         505
 C6:9916H         LINE#         506
 C6:991FH         LINE#         507
 C6:9926H         LINE#         508
  -------         ENDPROC       GATEWAY_MAC_REQ
  -------         ENDMOD        UIP_ARP

  -------         MODULE        MUIP
  C:0000H         SYMBOL        _ICE_DUMMY_
  D:0080H         PUBLIC        P0
  D:0090H         PUBLIC        P1
  D:00A0H         PUBLIC        P2
  D:00B0H         PUBLIC        P3
  D:00E8H         PUBLIC        P4
  X:1F1EH         PUBLIC        muip_buf_cnt
  D:00A8H         PUBLIC        IE
  D:00B8H         PUBLIC        IP
 C1:A070H         PUBLIC        muip_process
  D:0098H         PUBLIC        SCON
  D:0088H         PUBLIC        TCON
  X:1F1FH         PUBLIC        muip_need_send
 C1:96C7H         PUBLIC        muip_send
  X:1F20H         PUBLIC        muip_conn
  D:00D8H         PUBLIC        WDTCON
  X:1F23H         PUBLIC        muip_snd_nxt0
  X:1F27H         PUBLIC        muip_snd_nxt1
 C1:E080H         PUBLIC        muip_init
  X:1F2BH         PUBLIC        muip_first_ack
  X:1F2CH         PUBLIC        muip_buf
  X:2522H         PUBLIC        muip_len
  D:00C8H         PUBLIC        T2CON
  X:2524H         PUBLIC        uip_window_size
  D:00D0H         PUBLIC        PSW

  -------         PROC BANK=1   MUIP_INIT
 C1:E080H         LINE#         51
 C1:E080H         LINE#         52
 C1:E080H         LINE#         53
 C1:E085H         LINE#         54
 C1:E08EH         LINE#         55
  -------         ENDPROC       MUIP_INIT

  -------         PROC BANK=1   MUIP_SEND
  -------         DO            
  X:379FH         SYMBOL        i
  X:37A0H         SYMBOL        len
  X:37A2H         SYMBOL        MBUF
  -------         ENDDO         
 C1:96C7H         LINE#         70
 C1:96C7H         LINE#         71
 C1:96C7H         LINE#         76
 C1:96D0H         LINE#         80
 C1:96D6H         LINE#         81
 C1:96DCH         LINE#         84
 C1:96E1H         LINE#         86
 C1:96F4H         LINE#         87
 C1:96FEH         LINE#         88
BL51 BANKED LINKER/LOCATER V5.03                                                      01/30/2013  19:55:46  PAGE 101


 C1:9708H         LINE#         89
 C1:9712H         LINE#         96
 C1:9727H         LINE#         97
 C1:9727H         LINE#         99
 C1:972AH         LINE#         104
 C1:9756H         LINE#         113
 C1:975CH         LINE#         114
 C1:975CH         LINE#         115
 C1:9776H         LINE#         116
 C1:9778H         LINE#         118
 C1:9778H         LINE#         119
 C1:979EH         LINE#         120
 C1:979EH         LINE#         122
 C1:97B7H         LINE#         123
 C1:97CCH         LINE#         124
 C1:97E1H         LINE#         125
 C1:97F6H         LINE#         129
 C1:9816H         LINE#         133
 C1:982FH         LINE#         134
 C1:9844H         LINE#         135
 C1:985DH         LINE#         136
 C1:9872H         LINE#         138
 C1:9891H         LINE#         139
 C1:989BH         LINE#         140
 C1:98A5H         LINE#         141
 C1:98B3H         LINE#         142
 C1:98BDH         LINE#         143
 C1:98C7H         LINE#         144
 C1:98D0H         LINE#         145
 C1:98D9H         LINE#         147
 C1:98DFH         LINE#         148
 C1:98DFH         LINE#         149
 C1:98FCH         LINE#         150
 C1:9919H         LINE#         151
 C1:9919H         LINE#         154
 C1:9927H         LINE#         155
 C1:992AH         LINE#         157
 C1:994BH         LINE#         158
 C1:9952H         LINE#         159
 C1:995BH         LINE#         161
 C1:9960H         LINE#         162
 C1:9964H         LINE#         164
 C1:9967H         LINE#         165
  -------         ENDPROC       MUIP_SEND

  -------         PROC BANK=1   MUIP_PROCESS
 C1:A070H         LINE#         177
 C1:A070H         LINE#         178
 C1:A070H         LINE#         179
 C1:A07EH         LINE#         180
 C1:A087H         LINE#         183
 C1:A09FH         LINE#         186
 C1:A0BDH         LINE#         187
 C1:A0D4H         LINE#         190
 C1:A0E1H         LINE#         193
 C1:A106H         LINE#         194
 C1:A13BH         LINE#         196
BL51 BANKED LINKER/LOCATER V5.03                                                      01/30/2013  19:55:46  PAGE 102


 C1:A158H         LINE#         200
 C1:A1A0H         LINE#         201
 C1:A1A0H         LINE#         204
 C1:A1A6H         LINE#         205
 C1:A1A6H         LINE#         207
 C1:A1A9H         LINE#         213
 C1:A1CFH         LINE#         217
 C1:A223H         LINE#         218
 C1:A223H         LINE#         220
 C1:A24CH         LINE#         221
 C1:A261H         LINE#         222
 C1:A27AH         LINE#         223
 C1:A28FH         LINE#         224
 C1:A2A7H         LINE#         225
 C1:A2ACH         LINE#         226
 C1:A2B0H         LINE#         227
 C1:A2B0H         LINE#         228
  -------         ENDPROC       MUIP_PROCESS
  -------         ENDMOD        MUIP

  -------         MODULE        CGI
  C:0000H         SYMBOL        _ICE_DUMMY_
 C1:AF03H         PUBLIC        Httpd_Data_Processing

  -------         PROC BANK=1   HTTPD_DATA_PROCESSING
 C1:AF03H         LINE#         41
 C1:AF03H         LINE#         42
 C1:AF03H         LINE#         44
 C1:AF19H         LINE#         45
 C1:AF19H         LINE#         46
 C1:AF35H         LINE#         47
 C1:AF59H         LINE#         48
 C1:AF72H         LINE#         49
 C1:AF72H         LINE#         53
 C1:AF75H         LINE#         54
 C1:AF77H         LINE#         55
 C1:AF77H         LINE#         57
 C1:AF77H         LINE#         59
 C1:B00EH         LINE#         60
 C1:B00EH         LINE#         64
 C1:B011H         LINE#         65
 C1:B013H         LINE#         66
 C1:B013H         LINE#         68
 C1:B013H         LINE#         75
 C1:B09AH         LINE#         76
 C1:B09AH         LINE#         80
 C1:B09DH         LINE#         81
 C1:B09FH         LINE#         82
 C1:B09FH         LINE#         84
 C1:B09FH         LINE#         88
 C1:B0A2H         LINE#         89
 C1:B0A4H         LINE#         90
 C1:B0A4H         LINE#         91
 C1:B0A4H         LINE#         92
 C1:B0A4H         LINE#         93
 C1:B0A4H         LINE#         94
 C1:B0A5H         LINE#         95
BL51 BANKED LINKER/LOCATER V5.03                                                      01/30/2013  19:55:46  PAGE 103


  -------         ENDPROC       HTTPD_DATA_PROCESSING
  -------         ENDMOD        CGI

  -------         MODULE        CGIUTIL
  C:0000H         SYMBOL        _ICE_DUMMY_
 C1:C938H         PUBLIC        tag_address_bigger_mss
 C1:C064H         PUBLIC        _uitos
 C1:D11BH         PUBLIC        _stoui
 C1:B530H         PUBLIC        last_tag_page
 C1:77ECH         PUBLIC        with_tag_page
 C1:BE78H         PUBLIC        no_tag_page

  -------         PROC BANK=1   _STOUI
  X:3617H         SYMBOL        str_value
  -------         DO            
  X:361AH         SYMBOL        value
  X:361CH         SYMBOL        i
  X:361EH         SYMBOL        len
  -------         ENDDO         
 C1:D11BH         LINE#         71
 C1:D126H         LINE#         72
 C1:D126H         LINE#         73
 C1:D12BH         LINE#         75
 C1:D136H         LINE#         76
 C1:D159H         LINE#         77
 C1:D159H         LINE#         78
 C1:D18BH         LINE#         79
 C1:D19BH         LINE#         80
 C1:D1A3H         LINE#         81
  -------         ENDPROC       _STOUI

  -------         PROC BANK=1   _UITOS
  X:3689H         SYMBOL        int_value
  -------         DO            
  D:0002H         SYMBOL        i
  X:37A5H         SYMBOL        str
  X:368BH         SYMBOL        base
  X:368DH         SYMBOL        last_div
  X:368FH         SYMBOL        div
  -------         ENDDO         
 C1:C064H         LINE#         86
 C1:C06CH         LINE#         87
 C1:C06CH         LINE#         88
 C1:C06FH         LINE#         90
 C1:C080H         LINE#         91
 C1:C091H         LINE#         92
 C1:C091H         LINE#         93
 C1:C0A5H         LINE#         94
 C1:C0BCH         LINE#         95
 C1:C0BEH         LINE#         96
 C1:C0D2H         LINE#         97
 C1:C0D2H         LINE#         98
 C1:C0EAH         LINE#         99
 C1:C108H         LINE#         100
 C1:C110H         LINE#         101
 C1:C127H         LINE#         102
 C1:C12EH         LINE#         103
BL51 BANKED LINKER/LOCATER V5.03                                                      01/30/2013  19:55:46  PAGE 104


 C1:C140H         LINE#         104
 C1:C14FH         LINE#         105
 C1:C155H         LINE#         106
  -------         ENDPROC       _UITOS

  -------         PROC BANK=1   NO_TAG_PAGE
 C1:BE78H         LINE#         118
 C1:BE78H         LINE#         119
 C1:BE78H         LINE#         120
 C1:BEB1H         LINE#         121
 C1:BEB1H         LINE#         122
 C1:BECFH         LINE#         123
 C1:BEEAH         LINE#         125
 C1:BEECH         LINE#         127
 C1:BEECH         LINE#         128
 C1:BF08H         LINE#         129
 C1:BF14H         LINE#         130
 C1:BF14H         LINE#         131
 C1:BF51H         LINE#         132
 C1:BF6DH         LINE#         133
 C1:BF6FH         LINE#         134
  -------         ENDPROC       NO_TAG_PAGE

  -------         PROC BANK=1   LAST_TAG_PAGE
 C1:B530H         LINE#         148
 C1:B530H         LINE#         149
 C1:B530H         LINE#         150
 C1:B587H         LINE#         151
 C1:B587H         LINE#         152
 C1:B5A5H         LINE#         153
 C1:B5C0H         LINE#         154
 C1:B5D6H         LINE#         155
 C1:B5D8H         LINE#         157
 C1:B5D8H         LINE#         158
 C1:B610H         LINE#         159
 C1:B61CH         LINE#         160
 C1:B625H         LINE#         162
 C1:B625H         LINE#         163
 C1:B662H         LINE#         164
 C1:B67EH         LINE#         165
 C1:B688H         LINE#         166
 C1:B68AH         LINE#         167
  -------         ENDPROC       LAST_TAG_PAGE

  -------         PROC BANK=1   TAG_ADDRESS_BIGGER_MSS
 C1:C938H         LINE#         181
 C1:C938H         LINE#         182
 C1:C938H         LINE#         183
 C1:C961H         LINE#         184
 C1:C97CH         LINE#         185
 C1:C9B9H         LINE#         186
 C1:C9D5H         LINE#         187
 C1:C9DFH         LINE#         188
 C1:C9FBH         LINE#         189
 C1:C9FDH         LINE#         190
  -------         ENDPROC       TAG_ADDRESS_BIGGER_MSS

BL51 BANKED LINKER/LOCATER V5.03                                                      01/30/2013  19:55:46  PAGE 105


  -------         PROC BANK=1   WITH_TAG_PAGE
  -------         DO            
  X:35CBH         SYMBOL        tag_value
  X:35CFH         SYMBOL        tag_mss_flag
  D:0007H         SYMBOL        switch_varid
  X:35D0H         SYMBOL        tag_value_len
  X:35D2H         SYMBOL        tag_asc_value
  -------         ENDDO         
 C1:77ECH         LINE#         202
 C1:77ECH         LINE#         203
 C1:77ECH         LINE#         205
 C1:77F1H         LINE#         209
 C1:77F1H         LINE#         211
 C1:7888H         LINE#         212
 C1:7888H         LINE#         213
 C1:7888H         LINE#         214
 C1:788BH         LINE#         216
 C1:788BH         LINE#         217
 C1:7915H         LINE#         218
 C1:7915H         LINE#         219
 C1:797DH         LINE#         220
 C1:79E0H         LINE#         221
 C1:7A1DH         LINE#         222
 C1:7A39H         LINE#         223
 C1:7A43H         LINE#         224
 C1:7A4AH         LINE#         225
 C1:7A97H         LINE#         226
 C1:7AAAH         LINE#         227
 C1:7AC5H         LINE#         228
 C1:7AC5H         LINE#         229
 C1:7AC5H         LINE#         230
 C1:7ACDH         LINE#         231
 C1:7ADBH         LINE#         232
 C1:7ADBH         LINE#         233
 C1:7AE6H         LINE#         234
 C1:7AE6H         LINE#         235
 C1:7AE9H         LINE#         236
 C1:7AE9H         LINE#         237
 C1:7AFCH         LINE#         238
 C1:7B04H         LINE#         239
 C1:7B0CH         LINE#         240
 C1:7B15H         LINE#         244
 C1:7B18H         LINE#         245
 C1:7B18H         LINE#         246
 C1:7B2BH         LINE#         247
 C1:7B36H         LINE#         248
 C1:7B36H         LINE#         249
 C1:7B48H         LINE#         250
 C1:7B50H         LINE#         251
 C1:7B89H         LINE#         252
 C1:7B89H         LINE#         253
 C1:7B96H         LINE#         254
 C1:7B9EH         LINE#         255
 C1:7B9EH         LINE#         259
 C1:7BA0H         LINE#         261
 C1:7BA0H         LINE#         262
 C1:7BB2H         LINE#         263
BL51 BANKED LINKER/LOCATER V5.03                                                      01/30/2013  19:55:46  PAGE 106


 C1:7BB7H         LINE#         264
 C1:7BB7H         LINE#         265
 C1:7BB7H         LINE#         266
 C1:7BBAH         LINE#         267
 C1:7BBAH         LINE#         268
 C1:7BD0H         LINE#         269
 C1:7BD0H         LINE#         270
 C1:7BD8H         LINE#         271
 C1:7BE0H         LINE#         272
 C1:7BE9H         LINE#         273
 C1:7BE9H         LINE#         274
 C1:7BEBH         LINE#         275
 C1:7BEBH         LINE#         276
 C1:7C01H         LINE#         277
 C1:7C01H         LINE#         278
 C1:7C09H         LINE#         279
 C1:7C42H         LINE#         280
 C1:7C42H         LINE#         281
 C1:7C4FH         LINE#         282
 C1:7C57H         LINE#         286
 C1:7C5AH         LINE#         288
 C1:7C5AH         LINE#         289
 C1:7C6CH         LINE#         290
 C1:7C6CH         LINE#         291
 C1:7C6CH         LINE#         292
 C1:7C6FH         LINE#         293
 C1:7C6FH         LINE#         297
 C1:7C87H         LINE#         298
 C1:7C87H         LINE#         299
 C1:7CFBH         LINE#         300
 C1:7CFBH         LINE#         305
 C1:7D06H         LINE#         306
 C1:7D06H         LINE#         307
 C1:7D06H         LINE#         308
 C1:7D11H         LINE#         309
 C1:7D11H         LINE#         310
 C1:7D13H         LINE#         311
 C1:7D13H         LINE#         312
 C1:7D29H         LINE#         313
 C1:7D34H         LINE#         314
 C1:7D34H         LINE#         315
 C1:7D34H         LINE#         316
 C1:7D34H         LINE#         317
 C1:7D34H         LINE#         318
 C1:7D34H         LINE#         319
 C1:7D34H         LINE#         320
 C1:7D65H         LINE#         321
 C1:7D65H         LINE#         322
 C1:7D70H         LINE#         323
 C1:7D70H         LINE#         324
 C1:7D9BH         LINE#         325
 C1:7DAFH         LINE#         327
 C1:7DAFH         LINE#         328
 C1:7DC5H         LINE#         329
 C1:7DC5H         LINE#         331
 C1:7E15H         LINE#         332
 C1:7E35H         LINE#         333
BL51 BANKED LINKER/LOCATER V5.03                                                      01/30/2013  19:55:46  PAGE 107


 C1:7E91H         LINE#         335
 C1:7E91H         LINE#         337
 C1:7E91H         LINE#         340
 C1:7E91H         LINE#         341
 C1:7E97H         LINE#         342
 C1:7EB3H         LINE#         343
 C1:7ED7H         LINE#         344
 C1:7EDEH         LINE#         345
 C1:7EF1H         LINE#         346
 C1:7EF3H         LINE#         348
 C1:7EF3H         LINE#         349
 C1:7EF4H         LINE#         350
 C1:7EF4H         LINE#         351
 C1:7EF6H         LINE#         353
 C1:7EF6H         LINE#         354
 C1:7EFBH         LINE#         355
 C1:7EFBH         LINE#         356
 C1:7EFBH         LINE#         357
 C1:7F04H         LINE#         358
 C1:7F20H         LINE#         371
 C1:7F22H         LINE#         372
  -------         ENDPROC       WITH_TAG_PAGE
  -------         ENDMOD        CGIUTIL

  -------         MODULE        CHALLENGE
  C:0000H         SYMBOL        _ICE_DUMMY_
  D:0090H         PUBLIC        P1
  D:00B0H         PUBLIC        P3
  D:00A8H         PUBLIC        IE
  D:00B8H         PUBLIC        IP
  X:3620H         PUBLIC        challenge_data
  D:0098H         PUBLIC        SCON
  D:0088H         PUBLIC        TCON
  D:00D8H         PUBLIC        WDTCON
  D:00C8H         PUBLIC        T2CON
  D:00D0H         PUBLIC        PSW
  -------         ENDMOD        CHALLENGE

  -------         MODULE        COOKIE
  C:0000H         SYMBOL        _ICE_DUMMY_
  D:0090H         PUBLIC        P1
  D:00B0H         PUBLIC        P3
 C1:B7CFH         PUBLIC        httpd_parse_cookie
  D:00A8H         PUBLIC        IE
  D:00B8H         PUBLIC        IP
  D:0098H         PUBLIC        SCON
 C1:D08EH         PUBLIC        httpd_set_cookie
  D:0088H         PUBLIC        TCON
  D:00D8H         PUBLIC        WDTCON
  D:00C8H         PUBLIC        T2CON
  D:00D0H         PUBLIC        PSW
  X:3629H         PUBLIC        cookie_data

  -------         PROC BANK=1   HTTPD_PARSE_COOKIE
  -------         DO            
  X:3691H         SYMBOL        currentage
  X:3695H         SYMBOL        sum_age
BL51 BANKED LINKER/LOCATER V5.03                                                      01/30/2013  19:55:46  PAGE 108


  -------         ENDDO         
 C1:B7CFH         LINE#         34
 C1:B7CFH         LINE#         35
 C1:B7CFH         LINE#         37
 C1:B7F5H         LINE#         38
 C1:B809H         LINE#         39
 C1:B834H         LINE#         43
 C1:B84DH         LINE#         44
 C1:B84DH         LINE#         45
 C1:B871H         LINE#         46
 C1:B871H         LINE#         47
 C1:B88FH         LINE#         48
 C1:B88FH         LINE#         49
 C1:B89EH         LINE#         51
 C1:B8A0H         LINE#         53
 C1:B8A0H         LINE#         54
 C1:B8C3H         LINE#         55
 C1:B8C3H         LINE#         57
 C1:B8E6H         LINE#         58
 C1:B8E6H         LINE#         59
 C1:B8FAH         LINE#         60
 C1:B90EH         LINE#         61
 C1:B910H         LINE#         62
 C1:B910H         LINE#         64
 C1:B910H         LINE#         66
 C1:B910H         LINE#         67
 C1:B911H         LINE#         68
  -------         ENDPROC       HTTPD_PARSE_COOKIE

  -------         PROC BANK=1   HTTPD_SET_COOKIE
  -------         DO            
  X:38DEH         SYMBOL        i_cookie
  X:38DFH         SYMBOL        buff
  -------         ENDDO         
 C1:D08EH         LINE#         80
 C1:D08EH         LINE#         81
 C1:D08EH         LINE#         84
 C1:D099H         LINE#         85
 C1:D09EH         LINE#         86
 C1:D09EH         LINE#         89
 C1:D09EH         LINE#         90
 C1:D0AFH         LINE#         91
 C1:D0BBH         LINE#         93
 C1:D0CAH         LINE#         94
 C1:D0D6H         LINE#         95
 C1:D0DBH         LINE#         96
 C1:D100H         LINE#         97
 C1:D114H         LINE#         98
 C1:D11AH         LINE#         99
  -------         ENDPROC       HTTPD_SET_COOKIE
  -------         ENDMOD        COOKIE

  -------         MODULE        HTTPD
  C:0000H         SYMBOL        _ICE_DUMMY_
  D:0080H         PUBLIC        P0
  D:0090H         PUBLIC        P1
  D:00A0H         PUBLIC        P2
BL51 BANKED LINKER/LOCATER V5.03                                                      01/30/2013  19:55:46  PAGE 109


  X:0000H         PUBLIC        getlen
  D:00B0H         PUBLIC        P3
  D:00E8H         PUBLIC        P4
  B:00A8H.7       PUBLIC        EA
  D:00A8H         PUBLIC        IE
  D:00B8H         PUBLIC        IP
  X:0002H         PUBLIC        EE_TMPBUFFER
  D:0098H         PUBLIC        SCON
  D:0088H         PUBLIC        TCON
 C1:6A9FH         PUBLIC        http_server
 C1:DDE8H         PUBLIC        httpd_init
 C1:CC1EH         PUBLIC        _httpd_check_cookie
  D:00D8H         PUBLIC        WDTCON
  X:0BBAH         PUBLIC        hs
 C1:D4D0H         PUBLIC        httpd_copydata
  X:0BBDH         PUBLIC        reqdata
  D:00C8H         PUBLIC        T2CON
  D:00D0H         PUBLIC        PSW

  -------         PROC BANK=1   HTTPD_INIT
 C1:DDE8H         LINE#         80
 C1:DDE8H         LINE#         81
 C1:DDE8H         LINE#         83
 C1:DDEFH         LINE#         86
 C1:DDFEH         LINE#         87
 C1:DE0DH         LINE#         90
  -------         ENDPROC       HTTPD_INIT

  -------         PROC BANK=1   HTTP_SERVER
  -------         DO            
  X:345AH         SYMBOL        hfile_ptr
  X:345DH         SYMBOL        p_reqfile
  X:3460H         SYMBOL        filenum
  D:0001H         SYMBOL        CR_ptr
  X:3461H         SYMBOL        str_ptr
  X:3464H         SYMBOL        requestname_ptr
  X:3465H         SYMBOL        count
  X:3466H         SYMBOL        i_httpd
  X:3468H         SYMBOL        tmp_EA
  -------         DO            
  X:3469H         SYMBOL        acklen
  -------         ENDDO         
  -------         ENDDO         
 C1:6A9FH         LINE#         108
 C1:6A9FH         LINE#         109
 C1:6A9FH         LINE#         112
 C1:6AA6H         LINE#         114
 C1:6AADH         LINE#         116
 C1:6AAFH         LINE#         118
 C1:6AB2H         LINE#         120
 C1:6AB5H         LINE#         125
 C1:6ABEH         LINE#         127
 C1:6AD9H         LINE#         136
 C1:6AE0H         LINE#         137
 C1:6AE0H         LINE#         144
 C1:6AF7H         LINE#         145
 C1:6B09H         LINE#         146
BL51 BANKED LINKER/LOCATER V5.03                                                      01/30/2013  19:55:46  PAGE 110


 C1:6B18H         LINE#         147
 C1:6B1FH         LINE#         148
 C1:6B33H         LINE#         149
 C1:6B3AH         LINE#         150
 C1:6B3DH         LINE#         153
 C1:6B3DH         LINE#         154
 C1:6B44H         LINE#         155
 C1:6B44H         LINE#         163
 C1:6B58H         LINE#         164
 C1:6B58H         LINE#         165
 C1:6B70H         LINE#         166
 C1:6B70H         LINE#         167
 C1:6B76H         LINE#         168
 C1:6B76H         LINE#         169
 C1:6B76H         LINE#         170
 C1:6B79H         LINE#         172
 C1:6B79H         LINE#         173
 C1:6B81H         LINE#         174
 C1:6B81H         LINE#         175
 C1:6B84H         LINE#         177
 C1:6B84H         LINE#         178
 C1:6B8EH         LINE#         179
 C1:6B8EH         LINE#         180
 C1:6BA4H         LINE#         181
 C1:6BA4H         LINE#         182
 C1:6BAAH         LINE#         187
 C1:6BD0H         LINE#         188
 C1:6BD0H         LINE#         189
 C1:6BF6H         LINE#         190
 C1:6BF6H         LINE#         192
 C1:6BFBH         LINE#         193
 C1:6BFEH         LINE#         195
 C1:6BFEH         LINE#         197
 C1:6BFEH         LINE#         198
 C1:6C04H         LINE#         199
 C1:6C17H         LINE#         200
 C1:6C17H         LINE#         201
 C1:6C19H         LINE#         203
 C1:6C19H         LINE#         204
 C1:6C1FH         LINE#         205
 C1:6C32H         LINE#         207
 C1:6C3BH         LINE#         208
 C1:6C3BH         LINE#         210
 C1:6C3BH         LINE#         211
 C1:6C59H         LINE#         212
 C1:6C59H         LINE#         213
 C1:6C71H         LINE#         214
 C1:6C71H         LINE#         216
 C1:6C71H         LINE#         217
 C1:6C71H         LINE#         219
 C1:6C71H         LINE#         221
 C1:6C71H         LINE#         222
 C1:6C71H         LINE#         223
 C1:6C8BH         LINE#         225
 C1:6CC0H         LINE#         226
 C1:6CC0H         LINE#         227
 C1:6CC3H         LINE#         228
BL51 BANKED LINKER/LOCATER V5.03                                                      01/30/2013  19:55:46  PAGE 111


 C1:6CFBH         LINE#         231
 C1:6CFBH         LINE#         232
 C1:6D15H         LINE#         233
 C1:6D17H         LINE#         234
 C1:6D17H         LINE#         235
 C1:6D28H         LINE#         236
 C1:6D45H         LINE#         238
 C1:6D5DH         LINE#         239
 C1:6D5DH         LINE#         240
 C1:6D8CH         LINE#         241
 C1:6DB9H         LINE#         242
 C1:6DCFH         LINE#         243
 C1:6DCFH         LINE#         244
 C1:6DE4H         LINE#         245
 C1:6DFAH         LINE#         250
 C1:6E02H         LINE#         251
 C1:6E02H         LINE#         253
 C1:6E02H         LINE#         256
 C1:6E38H         LINE#         260
 C1:6E4CH         LINE#         263
 C1:6E64H         LINE#         264
 C1:6E64H         LINE#         267
 C1:6E6EH         LINE#         268
 C1:6E77H         LINE#         269
 C1:6EA4H         LINE#         270
 C1:6EB2H         LINE#         271
 C1:6EB2H         LINE#         272
 C1:6EB7H         LINE#         273
 C1:6EC5H         LINE#         274
 C1:6ED7H         LINE#         275
 C1:6ED9H         LINE#         278
 C1:6ED9H         LINE#         279
 C1:6F12H         LINE#         281
 C1:6F28H         LINE#         282
 C1:6F2DH         LINE#         283
 C1:6F2DH         LINE#         284
 C1:6F31H         LINE#         285
 C1:6F31H         LINE#         287
 C1:6F47H         LINE#         288
 C1:6F47H         LINE#         289
 C1:6F4FH         LINE#         290
 C1:6F4FH         LINE#         291
 C1:6F4FH         LINE#         292
 C1:6F4FH         LINE#         293
 C1:6F64H         LINE#         294
 C1:6F6FH         LINE#         295
 C1:6F92H         LINE#         297
 C1:6F9BH         LINE#         298
 C1:6FC1H         LINE#         299
 C1:6FCFH         LINE#         300
 C1:6FCFH         LINE#         316
 C1:6FE6H         LINE#         317
 C1:6FE6H         LINE#         318
 C1:6FF6H         LINE#         319
 C1:6FF6H         LINE#         322
 C1:700DH         LINE#         323
 C1:700DH         LINE#         324
BL51 BANKED LINKER/LOCATER V5.03                                                      01/30/2013  19:55:46  PAGE 112


 C1:703CH         LINE#         325
 C1:703CH         LINE#         326
 C1:703CH         LINE#         329
 C1:7057H         LINE#         330
 C1:7057H         LINE#         333
 C1:7072H         LINE#         334
 C1:7072H         LINE#         340
 C1:70ACH         LINE#         341
 C1:70C7H         LINE#         342
 C1:70C7H         LINE#         344
 C1:70CAH         LINE#         345
 C1:70CAH         LINE#         346
 C1:70CAH         LINE#         347
 C1:70CAH         LINE#         349
 C1:70DAH         LINE#         350
 C1:70DAH         LINE#         351
 C1:7109H         LINE#         352
 C1:7109H         LINE#         355
 C1:7126H         LINE#         357
 C1:7139H         LINE#         358
 C1:7139H         LINE#         359
 C1:7160H         LINE#         360
 C1:716EH         LINE#         361
 C1:7197H         LINE#         362
 C1:7197H         LINE#         366
 C1:7197H         LINE#         368
 C1:7197H         LINE#         373
 C1:719AH         LINE#         382
 C1:719AH         LINE#         383
 C1:71A0H         LINE#         384
 C1:71A0H         LINE#         385
 C1:71BDH         LINE#         386
 C1:71C2H         LINE#         387
 C1:71E9H         LINE#         389
 C1:71ECH         LINE#         391
 C1:71ECH         LINE#         393
 C1:71FFH         LINE#         394
 C1:7218H         LINE#         395
 C1:7218H         LINE#         397
 C1:7218H         LINE#         398
 C1:721DH         LINE#         399
 C1:7223H         LINE#         401
 C1:7223H         LINE#         402
 C1:7235H         LINE#         403
 C1:7252H         LINE#         404
 C1:7252H         LINE#         405
 C1:7255H         LINE#         406
 C1:7274H         LINE#         409
 C1:7274H         LINE#         410
 C1:7286H         LINE#         411
 C1:7288H         LINE#         412
 C1:7288H         LINE#         413
 C1:7298H         LINE#         415
 C1:72B5H         LINE#         416
 C1:72E2H         LINE#         417
 C1:72F8H         LINE#         418
 C1:72F8H         LINE#         419
BL51 BANKED LINKER/LOCATER V5.03                                                      01/30/2013  19:55:46  PAGE 113


 C1:730DH         LINE#         420
 C1:7323H         LINE#         425
 C1:732BH         LINE#         426
 C1:732BH         LINE#         428
 C1:7334H         LINE#         429
 C1:7343H         LINE#         431
 C1:734DH         LINE#         432
 C1:7358H         LINE#         433
 C1:737FH         LINE#         435
 C1:738DH         LINE#         436
 C1:73A4H         LINE#         439
 C1:73B4H         LINE#         440
 C1:73B4H         LINE#         441
 C1:73E3H         LINE#         442
 C1:73E3H         LINE#         445
 C1:7400H         LINE#         447
 C1:7413H         LINE#         448
 C1:7413H         LINE#         449
 C1:743AH         LINE#         450
 C1:7448H         LINE#         451
 C1:746EH         LINE#         452
 C1:746EH         LINE#         456
 C1:74A2H         LINE#         458
 C1:74A2H         LINE#         463
 C1:74A4H         LINE#         465
 C1:74A4H         LINE#         467
 C1:74A7H         LINE#         468
 C1:74A7H         LINE#         469
 C1:74A7H         LINE#         470
 C1:74A7H         LINE#         471
 C1:74A7H         LINE#         480
 C1:74A7H         LINE#         482
 C1:74A7H         LINE#         484
 C1:74B1H         LINE#         485
 C1:74B1H         LINE#         486
 C1:74C3H         LINE#         487
 C1:74CAH         LINE#         488
 C1:74E6H         LINE#         489
 C1:74E6H         LINE#         491
 C1:7502H         LINE#         492
 C1:7512H         LINE#         493
 C1:7512H         LINE#         495
 C1:751AH         LINE#         496
 C1:7527H         LINE#         497
 C1:7527H         LINE#         498
 C1:756AH         LINE#         499
 C1:758FH         LINE#         501
 C1:7591H         LINE#         503
 C1:7591H         LINE#         504
 C1:75B6H         LINE#         505
 C1:75CBH         LINE#         506
 C1:75CBH         LINE#         507
 C1:75CDH         LINE#         509
 C1:75CDH         LINE#         510
 C1:75E1H         LINE#         511
 C1:75E1H         LINE#         512
 C1:75E3H         LINE#         514
BL51 BANKED LINKER/LOCATER V5.03                                                      01/30/2013  19:55:46  PAGE 114


 C1:75E3H         LINE#         515
 C1:75F6H         LINE#         516
 C1:7607H         LINE#         517
 C1:7613H         LINE#         518
 C1:761FH         LINE#         519
 C1:762BH         LINE#         525
 C1:762BH         LINE#         526
 C1:7647H         LINE#         527
 C1:7650H         LINE#         528
 C1:7650H         LINE#         529
 C1:7663H         LINE#         530
 C1:7663H         LINE#         531
 C1:7678H         LINE#         532
 C1:7678H         LINE#         533
 C1:767EH         LINE#         534
 C1:7681H         LINE#         536
 C1:7681H         LINE#         537
 C1:7681H         LINE#         538
 C1:7688H         LINE#         540
 C1:7692H         LINE#         541
 C1:7692H         LINE#         542
 C1:76A4H         LINE#         547
 C1:76AEH         LINE#         548
 C1:76AEH         LINE#         549
 C1:76B6H         LINE#         550
 C1:76C1H         LINE#         551
 C1:76C1H         LINE#         552
 C1:76C7H         LINE#         553
 C1:76CAH         LINE#         555
 C1:76CAH         LINE#         558
 C1:76E1H         LINE#         559
 C1:7711H         LINE#         560
 C1:771DH         LINE#         561
 C1:7729H         LINE#         563
 C1:7749H         LINE#         564
 C1:7766H         LINE#         565
 C1:7782H         LINE#         579
 C1:7782H         LINE#         580
 C1:7782H         LINE#         583
 C1:7797H         LINE#         585
 C1:7797H         LINE#         586
 C1:779FH         LINE#         587
 C1:779FH         LINE#         588
 C1:77B2H         LINE#         589
 C1:77B2H         LINE#         591
 C1:77B5H         LINE#         592
 C1:77B5H         LINE#         594
 C1:77B8H         LINE#         595
 C1:77C7H         LINE#         596
 C1:77E3H         LINE#         597
 C1:77E3H         LINE#         598
 C1:77E3H         LINE#         599
 C1:77E3H         LINE#         600
 C1:77EBH         LINE#         603
  -------         ENDPROC       HTTP_SERVER

  -------         PROC BANK=1   HTTPD_COPYDATA
BL51 BANKED LINKER/LOCATER V5.03                                                      01/30/2013  19:55:46  PAGE 115


 C1:D4D0H         LINE#         605
 C1:D4D0H         LINE#         606
 C1:D4D0H         LINE#         607
 C1:D4EDH         LINE#         608
 C1:D4EDH         LINE#         609
 C1:D4F0H         LINE#         610
 C1:D4F0H         LINE#         612
 C1:D4F0H         LINE#         613
 C1:D518H         LINE#         614
 C1:D52CH         LINE#         615
 C1:D52EH         LINE#         616
 C1:D52EH         LINE#         617
  -------         ENDPROC       HTTPD_COPYDATA

  -------         PROC BANK=1   _HTTPD_CHECK_COOKIE
  X:38A1H         SYMBOL        reqfile
 C1:CC1EH         LINE#         619
 C1:CC29H         LINE#         620
 C1:CC29H         LINE#         621
 C1:CC7DH         LINE#         624
 C1:CC7DH         LINE#         625
 C1:CCB4H         LINE#         627
 C1:CCB4H         LINE#         628
 C1:CCC7H         LINE#         629
 C1:CCCAH         LINE#         630
 C1:CCCAH         LINE#         635
 C1:CCCAH         LINE#         636
 C1:CCCCH         LINE#         637
  -------         ENDPROC       _HTTPD_CHECK_COOKIE
  -------         ENDMOD        HTTPD

  -------         MODULE        APPLICATION
  C:0000H         SYMBOL        _ICE_DUMMY_
  D:0080H         PUBLIC        P0
  D:0090H         PUBLIC        P1
  D:00A0H         PUBLIC        P2
  D:00B0H         PUBLIC        P3
  D:00E8H         PUBLIC        P4
  X:3295H         SYMBOL        current
  X:3299H         PUBLIC        in_isr
 C1:DD6DH         PUBLIC        fiber_cover
  D:00A8H         PUBLIC        IE
  X:329AH         PUBLIC        f_auto_send
  B:00E8H.0       PUBLIC        P4_0
  B:00B0H.2       PUBLIC        P3_2
  B:00B0H.3       PUBLIC        P3_3
  D:00B8H         PUBLIC        IP
 C1:82F1H         PUBLIC        application
 C1:CE23H         PUBLIC        CheckPktSend
  X:329BH         SYMBOL        start
  D:0098H         PUBLIC        SCON
  X:329FH         PUBLIC        conn_timer
  D:0088H         PUBLIC        TCON
 C1:D801H         PUBLIC        fiber_cover2
  X:32A3H         PUBLIC        config_g
 C1:DFFEH         PUBLIC        UDP_RECEIVE
  X:32B9H         PUBLIC        system_parameter
BL51 BANKED LINKER/LOCATER V5.03                                                      01/30/2013  19:55:46  PAGE 116


  D:00D8H         PUBLIC        WDTCON
 C1:DC81H         PUBLIC        on_tcp_rx
 C1:DFB9H         PUBLIC        _get_system_parameter
  B:0088H.4       PUBLIC        TR0
  D:00C8H         PUBLIC        T2CON
  X:32BDH         PUBLIC        fiber_not_link_cnt
  D:00D0H         PUBLIC        PSW

  -------         PROC BANK=1   CHECKPKTSEND
 C1:CE23H         LINE#         106
 C1:CE23H         LINE#         107
 C1:CE23H         LINE#         108
 C1:CE30H         LINE#         109
 C1:CE30H         LINE#         111
 C1:CE33H         LINE#         117
 C1:CE3BH         LINE#         118
 C1:CE3BH         LINE#         119
 C1:CE41H         LINE#         120
 C1:CE41H         LINE#         121
 C1:CE43H         LINE#         122
 C1:CE6FH         LINE#         123
 C1:CE90H         LINE#         124
 C1:CE9EH         LINE#         125
 C1:CEA0H         LINE#         127
 C1:CEA3H         LINE#         128
 C1:CEA9H         LINE#         129
 C1:CEABH         LINE#         132
 C1:CEAEH         LINE#         134
 C1:CEB1H         LINE#         140
 C1:CEC2H         LINE#         144
 C1:CEC9H         LINE#         145
 C1:CEC9H         LINE#         146
  -------         ENDPROC       CHECKPKTSEND

  -------         PROC BANK=1   FIBER_COVER
 C1:DD6DH         LINE#         149
 C1:DD6DH         LINE#         150
 C1:DD6DH         LINE#         151
 C1:DD78H         LINE#         152
 C1:DD78H         LINE#         153
 C1:DD78H         LINE#         154
 C1:DD7AH         LINE#         156
 C1:DD7AH         LINE#         157
 C1:DD80H         LINE#         158
 C1:DD86H         LINE#         159
 C1:DD86H         LINE#         160
 C1:DD91H         LINE#         161
 C1:DD96H         LINE#         162
 C1:DD96H         LINE#         163
 C1:DD96H         LINE#         164
  -------         ENDPROC       FIBER_COVER

  -------         PROC BANK=1   FIBER_COVER2
  -------         DO            
  X:3824H         SYMBOL        tmp10
  X:3826H         SYMBOL        tmp00
  D:0006H         SYMBOL        tmp00b
BL51 BANKED LINKER/LOCATER V5.03                                                      01/30/2013  19:55:46  PAGE 117


  -------         ENDDO         
 C1:D801H         LINE#         165
 C1:D801H         LINE#         166
 C1:D801H         LINE#         169
 C1:D810H         LINE#         170
 C1:D81FH         LINE#         171
 C1:D82EH         LINE#         172
 C1:D835H         LINE#         173
 C1:D839H         LINE#         174
 C1:D839H         LINE#         175
 C1:D84AH         LINE#         176
 C1:D84AH         LINE#         177
  -------         ENDPROC       FIBER_COVER2

  -------         PROC BANK=1   UDP_RECEIVE
 C1:DFFEH         LINE#         180
 C1:DFFEH         LINE#         181
 C1:DFFEH         LINE#         183
 C1:E001H         LINE#         186
 C1:E004H         LINE#         190
 C1:E00AH         LINE#         192
 C1:E00DH         LINE#         195
 C1:E010H         LINE#         201
  -------         ENDPROC       UDP_RECEIVE

  -------         PROC BANK=1   ON_TCP_RX
 C1:DC81H         LINE#         205
 C1:DC81H         LINE#         206
 C1:DC81H         LINE#         209
 C1:DC87H         LINE#         211
 C1:DC90H         LINE#         215
 C1:DC99H         LINE#         219
 C1:DCA2H         LINE#         223
 C1:DCABH         LINE#         227
 C1:DCB4H         LINE#         229
 C1:DCB6H         LINE#         230
  -------         ENDPROC       ON_TCP_RX

  -------         PROC BANK=1   _GET_SYSTEM_PARAMETER
  D:0006H         SYMBOL        ID
 C1:DFB9H         LINE#         232
 C1:DFB9H         LINE#         233
 C1:DFB9H         LINE#         234
 C1:DFC0H         LINE#         235
 C1:DFC0H         LINE#         236
 C1:DFCAH         LINE#         237
 C1:DFCAH         LINE#         238
 C1:DFD0H         LINE#         239
  -------         ENDPROC       _GET_SYSTEM_PARAMETER

  -------         PROC BANK=1   APPLICATION
  -------         DO            
  X:370EH         SYMBOL        tmpvalue
  X:370FH         SYMBOL        i
  X:3710H         SYMBOL        l
  X:3711H         SYMBOL        j
  -------         DO            
BL51 BANKED LINKER/LOCATER V5.03                                                      01/30/2013  19:55:46  PAGE 118


  X:3713H         SYMBOL        uip_len_tmp
  -------         ENDDO         
  -------         ENDDO         
 C1:82F1H         LINE#         254
 C1:82F1H         LINE#         255
 C1:82F1H         LINE#         256
 C1:82F6H         LINE#         257
 C1:82FAH         LINE#         259
 C1:82FEH         LINE#         264
 C1:8301H         LINE#         266
 C1:8304H         LINE#         267
 C1:8307H         LINE#         269
 C1:830AH         LINE#         274
 C1:830CH         LINE#         277
 C1:830FH         LINE#         280
 C1:8312H         LINE#         285
 C1:8347H         LINE#         290
 C1:834AH         LINE#         293
 C1:8361H         LINE#         294
 C1:8378H         LINE#         296
 C1:839EH         LINE#         297
 C1:83B2H         LINE#         298
 C1:83C6H         LINE#         299
 C1:83CDH         LINE#         302
 C1:83D0H         LINE#         306
 C1:83D2H         LINE#         307
 C1:83D4H         LINE#         308
 C1:83D7H         LINE#         312
 C1:83DAH         LINE#         316
 C1:83DDH         LINE#         320
 C1:83E0H         LINE#         323
 C1:83E3H         LINE#         325
 C1:83E6H         LINE#         327
 C1:83E8H         LINE#         329
 C1:83E8H         LINE#         330
 C1:83E8H         LINE#         333
 C1:83EBH         LINE#         338
 C1:83EEH         LINE#         340
 C1:83F1H         LINE#         342
 C1:83F4H         LINE#         345
 C1:83F7H         LINE#         350
 C1:83FAH         LINE#         352
 C1:83FDH         LINE#         356
 C1:840EH         LINE#         360
 C1:8420H         LINE#         361
 C1:8420H         LINE#         365
 C1:8423H         LINE#         368
 C1:8426H         LINE#         373
 C1:8435H         LINE#         377
 C1:8438H         LINE#         382
 C1:843BH         LINE#         383
 C1:8445H         LINE#         384
 C1:8445H         LINE#         386
 C1:8456H         LINE#         390
 C1:8456H         LINE#         392
 C1:8465H         LINE#         393
 C1:8468H         LINE#         394
BL51 BANKED LINKER/LOCATER V5.03                                                      01/30/2013  19:55:46  PAGE 119


 C1:8477H         LINE#         395
 C1:847AH         LINE#         397
 C1:847DH         LINE#         402
 C1:8487H         LINE#         403
 C1:8487H         LINE#         405
 C1:8498H         LINE#         409
 C1:8498H         LINE#         411
 C1:84A7H         LINE#         412
 C1:84AAH         LINE#         414
 C1:84ADH         LINE#         419
 C1:84B0H         LINE#         422
 C1:84BFH         LINE#         423
 C1:84C2H         LINE#         425
 C1:84D1H         LINE#         426
 C1:84D6H         LINE#         428
 C1:84D9H         LINE#         433
 C1:84DCH         LINE#         435
 C1:84DFH         LINE#         438
 C1:84E2H         LINE#         441
 C1:84E5H         LINE#         446
 C1:84E5H         LINE#         447
 C1:850BH         LINE#         448
 C1:851FH         LINE#         449
 C1:8564H         LINE#         450
 C1:8564H         LINE#         451
 C1:8567H         LINE#         453
 C1:856AH         LINE#         454
 C1:8574H         LINE#         455
 C1:8574H         LINE#         457
 C1:8585H         LINE#         461
 C1:858CH         LINE#         462
 C1:858CH         LINE#         464
 C1:858FH         LINE#         468
 C1:8592H         LINE#         469
 C1:8595H         LINE#         470
 C1:859CH         LINE#         473
 C1:859FH         LINE#         476
 C1:85A2H         LINE#         489
 C1:85A5H         LINE#         490
 C1:85A8H         LINE#         492
 C1:85ABH         LINE#         497
 C1:85AEH         LINE#         498
 C1:85B5H         LINE#         501
 C1:85B8H         LINE#         505
 C1:85BBH         LINE#         510
 C1:85BEH         LINE#         511
 C1:85C8H         LINE#         512
 C1:85C8H         LINE#         513
 C1:85CBH         LINE#         515
 C1:85DCH         LINE#         519
 C1:85E3H         LINE#         520
 C1:85E3H         LINE#         522
 C1:85E8H         LINE#         523
 C1:85E8H         LINE#         525
 C1:85EBH         LINE#         530
 C1:8607H         LINE#         531
 C1:860CH         LINE#         533
BL51 BANKED LINKER/LOCATER V5.03                                                      01/30/2013  19:55:46  PAGE 120


 C1:860FH         LINE#         538
 C1:8612H         LINE#         540
 C1:8615H         LINE#         543
 C1:8618H         LINE#         546
 C1:861BH         LINE#         551
 C1:8627H         LINE#         552
 C1:863BH         LINE#         553
 C1:863EH         LINE#         554
 C1:8648H         LINE#         555
 C1:8648H         LINE#         558
 C1:8659H         LINE#         562
 C1:8660H         LINE#         563
 C1:8660H         LINE#         564
 C1:8660H         LINE#         566
 C1:8663H         LINE#         571
  -------         ENDPROC       APPLICATION
  -------         ENDMOD        APPLICATION

  -------         MODULE        HTTPD_APP
  C:0000H         SYMBOL        _ICE_DUMMY_
 C1:AD25H         PUBLIC        _findcookie
 C1:A91CH         PUBLIC        httpd_header_init
 C1:D58DH         PUBLIC        httpd_ChallengeError
 C1:B68BH         PUBLIC        _httpd_init_file
 C1:D64EH         PUBLIC        _httpd_copy_data
 C1:D9E9H         PUBLIC        httpd_login_fail
 C1:B3B9H         PUBLIC        querystr_func
 C1:DB43H         PUBLIC        httpd_login_pass
  C:3055H         SYMBOL        _?ix1000
 C1:D1A4H         PUBLIC        httpd_file_not_found
 C1:BB63H         PUBLIC        _strfind

  -------         PROC BANK=1   QUERYSTR_FUNC
  -------         DO            
  X:38E0H         SYMBOL        count
  D:0006H         SYMBOL        index
  -------         ENDDO         
 C1:B3B9H         LINE#         26
 C1:B3B9H         LINE#         27
 C1:B3B9H         LINE#         29
 C1:B3C0H         LINE#         30
 C1:B3D9H         LINE#         31
 C1:B3D9H         LINE#         32
 C1:B40BH         LINE#         33
 C1:B438H         LINE#         34
 C1:B451H         LINE#         35
 C1:B451H         LINE#         36
 C1:B466H         LINE#         37
 C1:B47CH         LINE#         38
 C1:B4AEH         LINE#         39
 C1:B4D0H         LINE#         40
 C1:B4E5H         LINE#         41
 C1:B4FCH         LINE#         42
 C1:B4FCH         LINE#         43
 C1:B500H         LINE#         44
 C1:B516H         LINE#         45
 C1:B516H         LINE#         46
BL51 BANKED LINKER/LOCATER V5.03                                                      01/30/2013  19:55:46  PAGE 121


 C1:B527H         LINE#         47
 C1:B52AH         LINE#         54
 C1:B52FH         LINE#         55
  -------         ENDPROC       QUERYSTR_FUNC

  -------         PROC BANK=1   _STRFIND
  X:351BH         SYMBOL        srcstr
  X:351EH         SYMBOL        findstr
  -------         DO            
  X:3521H         SYMBOL        ptr
  X:3524H         SYMBOL        srcstr_end
  X:3527H         SYMBOL        len
  D:0006H         SYMBOL        i
  D:0007H         SYMBOL        check_count
  -------         ENDDO         
 C1:BB63H         LINE#         68
 C1:BB6EH         LINE#         69
 C1:BB6EH         LINE#         72
 C1:BB8BH         LINE#         74
 C1:BB9EH         LINE#         75
 C1:BBCAH         LINE#         76
 C1:BBCAH         LINE#         77
 C1:BBF2H         LINE#         78
 C1:BBF6H         LINE#         79
 C1:BBF6H         LINE#         80
 C1:BBF8H         LINE#         81
 C1:BC04H         LINE#         82
 C1:BC04H         LINE#         83
 C1:BC2EH         LINE#         84
 C1:BC2EH         LINE#         85
 C1:BC2FH         LINE#         86
 C1:BC2FH         LINE#         87
 C1:BC32H         LINE#         88
 C1:BC3AH         LINE#         89
 C1:BC3AH         LINE#         90
 C1:BC50H         LINE#         91
 C1:BC50H         LINE#         92
 C1:BC50H         LINE#         96
 C1:BC50H         LINE#         97
 C1:BC6BH         LINE#         98
 C1:BC6EH         LINE#         99
 C1:BC74H         LINE#         100
  -------         ENDPROC       _STRFIND

  -------         PROC BANK=1   _FINDCOOKIE
  X:37ABH         SYMBOL        srcstr
  -------         DO            
  X:37AEH         SYMBOL        ptr
  -------         ENDDO         
 C1:AD25H         LINE#         112
 C1:AD30H         LINE#         113
 C1:AD30H         LINE#         114
 C1:AD37H         LINE#         118
 C1:AD5EH         LINE#         119
 C1:AD62H         LINE#         120
 C1:AD62H         LINE#         121
 C1:AD8FH         LINE#         122
BL51 BANKED LINKER/LOCATER V5.03                                                      01/30/2013  19:55:46  PAGE 122


 C1:AD8FH         LINE#         123
 C1:ADA2H         LINE#         124
 C1:ADA2H         LINE#         126
 C1:ADB3H         LINE#         127
 C1:ADB3H         LINE#         128
 C1:ADBDH         LINE#         129
 C1:ADBFH         LINE#         131
 C1:ADE1H         LINE#         133
 C1:AE0EH         LINE#         134
 C1:AE19H         LINE#         135
 C1:AE3BH         LINE#         137
 C1:AE44H         LINE#         138
 C1:AE65H         LINE#         139
 C1:AE69H         LINE#         140
 C1:AE69H         LINE#         141
 C1:AE78H         LINE#         142
 C1:AE81H         LINE#         143
 C1:AEA3H         LINE#         144
 C1:AEA3H         LINE#         145
 C1:AEACH         LINE#         146
 C1:AECDH         LINE#         147
 C1:AED1H         LINE#         148
 C1:AED1H         LINE#         149
 C1:AEE0H         LINE#         150
 C1:AF02H         LINE#         151
 C1:AF02H         LINE#         155
 C1:AF02H         LINE#         157
 C1:AF02H         LINE#         161
 C1:AF02H         LINE#         162
  -------         ENDPROC       _FINDCOOKIE

  -------         PROC BANK=1   HTTPD_LOGIN_PASS
 C1:DB43H         LINE#         176
 C1:DB43H         LINE#         177
 C1:DB43H         LINE#         178
 C1:DB5DH         LINE#         179
  -------         ENDPROC       HTTPD_LOGIN_PASS

  -------         PROC BANK=1   HTTPD_LOGIN_FAIL
 C1:D9E9H         LINE#         194
 C1:D9E9H         LINE#         195
 C1:D9E9H         LINE#         196
 C1:DA06H         LINE#         197
 C1:DA0BH         LINE#         198
  -------         ENDPROC       HTTPD_LOGIN_FAIL

  -------         PROC BANK=1   HTTPD_CHALLENGEERROR
 C1:D58DH         LINE#         212
 C1:D58DH         LINE#         213
 C1:D58DH         LINE#         214
 C1:D5AAH         LINE#         215
 C1:D5B0H         LINE#         216
 C1:D5C2H         LINE#         217
  -------         ENDPROC       HTTPD_CHALLENGEERROR
 C1:D644H         SYMBOL        L?0039
 C1:D64AH         SYMBOL        L?0040
  -------         PROC          L?0038
BL51 BANKED LINKER/LOCATER V5.03                                                      01/30/2013  19:55:46  PAGE 123


  -------         ENDPROC       L?0038
 C1:D644H         SYMBOL        L?0039
 C1:D64AH         SYMBOL        L?0040

  -------         PROC BANK=1   _HTTPD_COPY_DATA
  D:0001H         SYMBOL        indata
  X:38E2H         SYMBOL        length
 C1:D64EH         LINE#         230
 C1:D656H         LINE#         231
 C1:D656H         LINE#         232
 C1:D65EH         LINE#         233
 C1:D65EH         LINE#         234
 C1:D68AH         LINE#         235
 C1:D69EH         LINE#         236
 C1:D69EH         LINE#         237
  -------         ENDPROC       _HTTPD_COPY_DATA

  -------         PROC BANK=1   HTTPD_HEADER_INIT
  -------         DO            
  X:3541H         SYMBOL        info
  -------         ENDDO         
 C1:A91CH         LINE#         249
 C1:A91CH         LINE#         250
 C1:A91CH         LINE#         251
 C1:A92FH         LINE#         253
 C1:A936H         LINE#         254
 C1:A942H         LINE#         255
 C1:A96EH         LINE#         256
 C1:A971H         LINE#         257
 C1:A97AH         LINE#         258
 C1:A990H         LINE#         259
 C1:A990H         LINE#         260
 C1:A9ADH         LINE#         261
 C1:A9BAH         LINE#         262
 C1:A9E6H         LINE#         263
 C1:A9E9H         LINE#         264
 C1:A9E9H         LINE#         266
 C1:AA04H         LINE#         267
 C1:AA04H         LINE#         268
 C1:AA55H         LINE#         269
 C1:AA7DH         LINE#         270
 C1:AA7DH         LINE#         271
 C1:AA93H         LINE#         272
 C1:AA93H         LINE#         273
 C1:AAE5H         LINE#         274
 C1:AB0DH         LINE#         275
 C1:AB0DH         LINE#         276
 C1:AB10H         LINE#         277
  -------         ENDPROC       HTTPD_HEADER_INIT

  -------         PROC BANK=1   _HTTPD_INIT_FILE
  X:38A4H         SYMBOL        infile
 C1:B68BH         LINE#         291
 C1:B696H         LINE#         292
 C1:B696H         LINE#         293
 C1:B6A8H         LINE#         294
 C1:B6AFH         LINE#         295
BL51 BANKED LINKER/LOCATER V5.03                                                      01/30/2013  19:55:46  PAGE 124


 C1:B6D6H         LINE#         297
 C1:B6F5H         LINE#         298
 C1:B71DH         LINE#         299
 C1:B730H         LINE#         301
 C1:B737H         LINE#         302
 C1:B73EH         LINE#         303
 C1:B747H         LINE#         304
 C1:B750H         LINE#         305
 C1:B759H         LINE#         306
 C1:B760H         LINE#         307
 C1:B767H         LINE#         308
 C1:B76EH         LINE#         309
 C1:B775H         LINE#         310
 C1:B77CH         LINE#         311
 C1:B783H         LINE#         312
 C1:B78AH         LINE#         313
 C1:B793H         LINE#         314
 C1:B7B0H         LINE#         315
 C1:B7CDH         LINE#         317
 C1:B7CEH         LINE#         318
  -------         ENDPROC       _HTTPD_INIT_FILE

  -------         PROC BANK=1   HTTPD_FILE_NOT_FOUND
 C1:D1A4H         LINE#         330
 C1:D1A4H         LINE#         331
 C1:D1A4H         LINE#         332
 C1:D1ABH         LINE#         333
 C1:D1BFH         LINE#         334
 C1:D1D9H         LINE#         335
 C1:D1F6H         LINE#         336
 C1:D209H         LINE#         337
 C1:D226H         LINE#         338
  -------         ENDPROC       HTTPD_FILE_NOT_FOUND
  -------         ENDMOD        HTTPD_APP

  -------         MODULE        CHECKSUM
  C:0000H         SYMBOL        _ICE_DUMMY_
 C5:69C1H         PUBLIC        uip_tcpchksum
 C5:7308H         PUBLIC        uip_udpchksum
 C5:88BDH         PUBLIC        uip_ipchksum
  X:38FEH         PUBLIC        muip_check_flag
 C5:8335H         PUBLIC        _uip_chksum

  -------         PROC BANK=5   _UIP_CHKSUM
  D:0001H         SYMBOL        sdata
  X:38E4H         SYMBOL        len
  -------         DO            
  D:0004H         SYMBOL        acc
  -------         ENDDO         
 C5:8335H         LINE#         32
 C5:833DH         LINE#         33
 C5:833DH         LINE#         36
 C5:834FH         LINE#         37
 C5:835AH         LINE#         38
 C5:8361H         LINE#         41
 C5:8366H         LINE#         42
 C5:8366H         LINE#         43
BL51 BANKED LINKER/LOCATER V5.03                                                      01/30/2013  19:55:46  PAGE 125


 C5:836DH         LINE#         44
 C5:837DH         LINE#         47
 C5:8389H         LINE#         48
 C5:8395H         LINE#         49
 C5:839CH         LINE#         50
 C5:83A1H         LINE#         51
 C5:83A1H         LINE#         52
 C5:83A1H         LINE#         54
 C5:83A5H         LINE#         55
  -------         ENDPROC       _UIP_CHKSUM

  -------         PROC BANK=5   UIP_IPCHKSUM
 C5:88BDH         LINE#         69
 C5:88BDH         LINE#         70
 C5:88BDH         LINE#         71
 C5:88C3H         LINE#         72
 C5:88CBH         LINE#         74
 C5:88E2H         LINE#         75
  -------         ENDPROC       UIP_IPCHKSUM

  -------         PROC BANK=5   UIP_UDPCHKSUM
  -------         DO            
  X:3828H         SYMBOL        hsum
  X:382AH         SYMBOL        sum
  -------         ENDDO         
 C5:7308H         LINE#         90
 C5:7308H         LINE#         91
 C5:7308H         LINE#         95
 C5:7327H         LINE#         100
 C5:7374H         LINE#         102
 C5:738CH         LINE#         103
 C5:739AH         LINE#         104
 C5:739AH         LINE#         106
 C5:73C5H         LINE#         107
 C5:73D3H         LINE#         108
 C5:73D3H         LINE#         109
 C5:73EEH         LINE#         110
 C5:73FCH         LINE#         111
 C5:73FCH         LINE#         112
 C5:7417H         LINE#         113
 C5:7425H         LINE#         114
 C5:7425H         LINE#         115
 C5:7440H         LINE#         116
 C5:744EH         LINE#         117
 C5:744EH         LINE#         118
 C5:7463H         LINE#         119
 C5:7471H         LINE#         120
 C5:7471H         LINE#         121
 C5:7492H         LINE#         123
 C5:74AAH         LINE#         124
 C5:74B8H         LINE#         125
 C5:74B8H         LINE#         126
 C5:74C0H         LINE#         127
  -------         ENDPROC       UIP_UDPCHKSUM

  -------         PROC BANK=5   UIP_TCPCHKSUM
  -------         DO            
BL51 BANKED LINKER/LOCATER V5.03                                                      01/30/2013  19:55:46  PAGE 126


  X:382CH         SYMBOL        hsum
  X:382EH         SYMBOL        sum
  -------         ENDDO         
 C5:69C1H         LINE#         131
 C5:69C1H         LINE#         132
 C5:69C1H         LINE#         136
 C5:69C7H         LINE#         137
 C5:69CFH         LINE#         139
 C5:69EEH         LINE#         143
 C5:69F4H         LINE#         144
 C5:69F4H         LINE#         146
 C5:6A10H         LINE#         147
 C5:6A12H         LINE#         149
 C5:6A12H         LINE#         151
 C5:6A5FH         LINE#         152
 C5:6A5FH         LINE#         154
 C5:6A77H         LINE#         155
 C5:6A85H         LINE#         156
 C5:6A85H         LINE#         157
 C5:6A8EH         LINE#         158
 C5:6A8EH         LINE#         159
 C5:6AA8H         LINE#         160
 C5:6AB6H         LINE#         161
 C5:6AB6H         LINE#         162
 C5:6AD0H         LINE#         163
 C5:6ADEH         LINE#         164
 C5:6ADEH         LINE#         165
 C5:6AF8H         LINE#         166
 C5:6B06H         LINE#         167
 C5:6B06H         LINE#         168
 C5:6B20H         LINE#         169
 C5:6B2EH         LINE#         170
 C5:6B2EH         LINE#         171
 C5:6B43H         LINE#         172
 C5:6B51H         LINE#         173
 C5:6B51H         LINE#         174
 C5:6B58H         LINE#         175
 C5:6B5BH         LINE#         177
 C5:6B5BH         LINE#         178
 C5:6B86H         LINE#         179
 C5:6B94H         LINE#         180
 C5:6B94H         LINE#         181
 C5:6BAFH         LINE#         182
 C5:6BBDH         LINE#         183
 C5:6BBDH         LINE#         184
 C5:6BD8H         LINE#         185
 C5:6BE6H         LINE#         186
 C5:6BE6H         LINE#         187
 C5:6C01H         LINE#         188
 C5:6C0FH         LINE#         189
 C5:6C0FH         LINE#         190
 C5:6C24H         LINE#         191
 C5:6C32H         LINE#         192
 C5:6C32H         LINE#         193
 C5:6C53H         LINE#         194
 C5:6C53H         LINE#         196
 C5:6C6BH         LINE#         197
BL51 BANKED LINKER/LOCATER V5.03                                                      01/30/2013  19:55:46  PAGE 127


 C5:6C79H         LINE#         198
 C5:6C79H         LINE#         199
 C5:6C81H         LINE#         200
  -------         ENDPROC       UIP_TCPCHKSUM
  -------         ENDMOD        CHECKSUM

  -------         MODULE        LOGINCBK
  C:0000H         SYMBOL        _ICE_DUMMY_
  D:0090H         PUBLIC        P1
  D:00B0H         PUBLIC        P3
  D:00A8H         PUBLIC        IE
 C1:93C0H         PUBLIC        _cgi_login
  X:347BH         PUBLIC        ipbuf
  D:00B8H         PUBLIC        IP
 C1:CD79H         PUBLIC        _ssi_login
  D:0098H         PUBLIC        SCON
  D:0088H         PUBLIC        TCON
  D:00D8H         PUBLIC        WDTCON
  D:00C8H         PUBLIC        T2CON
  D:00D0H         PUBLIC        PSW

  -------         PROC BANK=1   _SSI_LOGIN
  D:0007H         SYMBOL        varid
  X:37B1H         SYMBOL        vp
  -------         DO            
  X:37B4H         SYMBOL        ipa
  -------         ENDDO         
 C1:CD79H         LINE#         53
 C1:CD84H         LINE#         54
 C1:CD84H         LINE#         56
 C1:CD8AH         LINE#         57
 C1:CD8AH         LINE#         58
 C1:CD8AH         LINE#         59
 C1:CD98H         LINE#         60
 C1:CD9EH         LINE#         61
 C1:CDACH         LINE#         62
 C1:CDF3H         LINE#         63
 C1:CE0DH         LINE#         64
 C1:CE20H         LINE#         65
 C1:CE20H         LINE#         74
 C1:CE20H         LINE#         75
 C1:CE22H         LINE#         76
  -------         ENDPROC       _SSI_LOGIN

  -------         PROC BANK=1   _CGI_LOGIN
  X:3204H         SYMBOL        cnt
  X:3205H         SYMBOL        vptr
  -------         DO            
  X:3208H         SYMBOL        i
  X:3209H         SYMBOL        username
  X:320CH         SYMBOL        passwd
  X:320FH         SYMBOL        resp
  X:3212H         SYMBOL        name
  X:3222H         SYMBOL        pass
  X:3232H         SYMBOL        vp
  X:3235H         SYMBOL        login_valid
  X:3236H         SYMBOL        challenge_valid
BL51 BANKED LINKER/LOCATER V5.03                                                      01/30/2013  19:55:46  PAGE 128


  -------         ENDDO         
 C1:93C0H         LINE#         88
 C1:93CEH         LINE#         89
 C1:93CEH         LINE#         91
 C1:93E7H         LINE#         94
 C1:93FCH         LINE#         95
 C1:9401H         LINE#         100
 C1:940EH         LINE#         101
 C1:941DH         LINE#         103
 C1:9426H         LINE#         104
 C1:9426H         LINE#         105
 C1:9439H         LINE#         106
 C1:9442H         LINE#         107
 C1:9442H         LINE#         108
 C1:9444H         LINE#         109
 C1:9444H         LINE#         110
 C1:944CH         LINE#         111
 C1:944CH         LINE#         112
 C1:9475H         LINE#         113
 C1:9475H         LINE#         114
 C1:94AEH         LINE#         115
 C1:94C5H         LINE#         116
 C1:94CDH         LINE#         117
 C1:94CDH         LINE#         118
 C1:94CDH         LINE#         119
 C1:94CDH         LINE#         122
 C1:94D5H         LINE#         123
 C1:94D5H         LINE#         127
 C1:94D9H         LINE#         128
 C1:94D9H         LINE#         129
 C1:94F0H         LINE#         133
 C1:94FCH         LINE#         137
 C1:9501H         LINE#         138
 C1:9501H         LINE#         139
 C1:9518H         LINE#         143
 C1:9526H         LINE#         144
 C1:9526H         LINE#         146
 C1:9526H         LINE#         147
 C1:9535H         LINE#         148
 C1:9544H         LINE#         149
 C1:9544H         LINE#         155
 C1:9559H         LINE#         156
 C1:9559H         LINE#         157
 C1:9579H         LINE#         158
 C1:9579H         LINE#         159
 C1:958DH         LINE#         160
 C1:958FH         LINE#         161
 C1:95AFH         LINE#         162
 C1:95AFH         LINE#         163
 C1:95C3H         LINE#         165
 C1:95C5H         LINE#         166
 C1:95E5H         LINE#         167
 C1:95E5H         LINE#         168
 C1:9601H         LINE#         169
 C1:9601H         LINE#         171
 C1:9607H         LINE#         187
 C1:961AH         LINE#         188
BL51 BANKED LINKER/LOCATER V5.03                                                      01/30/2013  19:55:46  PAGE 129


 C1:965CH         LINE#         189
 C1:965CH         LINE#         190
 C1:969EH         LINE#         191
 C1:969EH         LINE#         192
 C1:96A3H         LINE#         193
 C1:96A3H         LINE#         194
 C1:96A3H         LINE#         195
 C1:96ADH         LINE#         196
 C1:96ADH         LINE#         197
 C1:96B0H         LINE#         198
 C1:96B2H         LINE#         200
 C1:96B2H         LINE#         201
 C1:96B8H         LINE#         202
 C1:96B8H         LINE#         203
 C1:96BBH         LINE#         204
 C1:96BBH         LINE#         206
 C1:96C1H         LINE#         207
 C1:96C1H         LINE#         208
 C1:96C4H         LINE#         209
 C1:96C4H         LINE#         211
 C1:96C4H         LINE#         212
 C1:96C6H         LINE#         213
  -------         ENDPROC       _CGI_LOGIN
  -------         ENDMOD        LOGINCBK

  -------         MODULE        ERRORMSGCBK
  C:0000H         SYMBOL        _ICE_DUMMY_
 C1:9968H         PUBLIC        _ssi_errormsg
 C1:C156H         PUBLIC        _cgi_reset
  X:38FFH         PUBLIC        errmsgflag
 C1:D99FH         PUBLIC        eepromerr

  -------         PROC BANK=1   _SSI_ERRORMSG
  D:0007H         SYMBOL        varid
  X:38A7H         SYMBOL        vp
 C1:9968H         LINE#         28
 C1:9973H         LINE#         29
 C1:9973H         LINE#         30
 C1:999EH         LINE#         31
 C1:999EH         LINE#         32
 C1:999EH         LINE#         33
 C1:99B8H         LINE#         34
 C1:99BFH         LINE#         35
 C1:99D9H         LINE#         36
 C1:99E0H         LINE#         37
 C1:99FAH         LINE#         38
 C1:9A0BH         LINE#         39
 C1:9A25H         LINE#         40
 C1:9A28H         LINE#         41
 C1:9A28H         LINE#         42
 C1:9A4DH         LINE#         43
 C1:9A4DH         LINE#         44
 C1:9A50H         LINE#         46
 C1:9A50H         LINE#         47
 C1:9A6AH         LINE#         48
 C1:9A77H         LINE#         49
 C1:9A91H         LINE#         50
BL51 BANKED LINKER/LOCATER V5.03                                                      01/30/2013  19:55:46  PAGE 130


 C1:9A91H         LINE#         51
 C1:9A94H         LINE#         52
 C1:9A94H         LINE#         53
 C1:9AAEH         LINE#         54
 C1:9ACFH         LINE#         55
 C1:9ACFH         LINE#         56
 C1:9AD2H         LINE#         58
 C1:9AD2H         LINE#         59
 C1:9ADFH         LINE#         60
 C1:9ADFH         LINE#         61
 C1:9AE5H         LINE#         62
 C1:9AE7H         LINE#         63
 C1:9AF2H         LINE#         64
 C1:9AF2H         LINE#         65
 C1:9AF8H         LINE#         66
 C1:9AFAH         LINE#         68
 C1:9B14H         LINE#         69
 C1:9B14H         LINE#         70
 C1:9B17H         LINE#         71
 C1:9B17H         LINE#         72
 C1:9B20H         LINE#         73
 C1:9B26H         LINE#         75
 C1:9B3EH         LINE#         76
 C1:9B3EH         LINE#         77
 C1:9B41H         LINE#         78
 C1:9B41H         LINE#         79
 C1:9B4AH         LINE#         80
 C1:9B50H         LINE#         82
 C1:9B68H         LINE#         83
 C1:9B68H         LINE#         84
 C1:9B6AH         LINE#         85
 C1:9B6AH         LINE#         86
 C1:9B77H         LINE#         87
 C1:9B77H         LINE#         88
 C1:9B7DH         LINE#         89
 C1:9B7FH         LINE#         91
 C1:9B99H         LINE#         92
 C1:9B99H         LINE#         93
 C1:9B9BH         LINE#         94
 C1:9B9BH         LINE#         95
 C1:9BADH         LINE#         96
 C1:9BB5H         LINE#         98
 C1:9BCFH         LINE#         99
 C1:9BE2H         LINE#         100
 C1:9BE2H         LINE#         101
 C1:9BE2H         LINE#         102
 C1:9BE4H         LINE#         103
  -------         ENDPROC       _SSI_ERRORMSG

  -------         PROC BANK=1   EEPROMERR
 C1:D99FH         LINE#         115
 C1:D99FH         LINE#         116
 C1:D99FH         LINE#         117
 C1:D9BCH         LINE#         118
 C1:D9C2H         LINE#         119
  -------         ENDPROC       EEPROMERR

BL51 BANKED LINKER/LOCATER V5.03                                                      01/30/2013  19:55:46  PAGE 131


  -------         PROC BANK=1   _CGI_RESET
  X:3699H         SYMBOL        cnt
  D:0001H         SYMBOL        vp
  -------         DO            
  X:369AH         SYMBOL        i
  X:369BH         SYMBOL        vp2
  X:369EH         SYMBOL        filename
  -------         ENDDO         
 C1:C156H         LINE#         139
 C1:C15BH         LINE#         140
 C1:C15BH         LINE#         142
 C1:C166H         LINE#         143
 C1:C172H         LINE#         144
 C1:C18FH         LINE#         145
 C1:C195H         LINE#         146
 C1:C1A5H         LINE#         147
 C1:C1A5H         LINE#         148
 C1:C1C3H         LINE#         149
 C1:C1C3H         LINE#         150
 C1:C1CFH         LINE#         151
 C1:C1CFH         LINE#         152
 C1:C1D5H         LINE#         153
 C1:C1DBH         LINE#         154
 C1:C1DBH         LINE#         155
 C1:C1DDH         LINE#         157
 C1:C1DDH         LINE#         158
 C1:C1E3H         LINE#         159
 C1:C200H         LINE#         160
 C1:C206H         LINE#         161
 C1:C206H         LINE#         162
 C1:C206H         LINE#         163
 C1:C218H         LINE#         164
 C1:C244H         LINE#         165
 C1:C246H         LINE#         166
  -------         ENDPROC       _CGI_RESET
  -------         ENDMOD        ERRORMSGCBK

  -------         MODULE        UARTCBK
  C:0000H         SYMBOL        _ICE_DUMMY_
  D:0080H         PUBLIC        P0
  D:0090H         PUBLIC        P1
  D:00A0H         PUBLIC        P2
  D:00B0H         PUBLIC        P3
  D:00E8H         PUBLIC        P4
  D:00A8H         PUBLIC        IE
  B:00E8H.0       PUBLIC        P4_0
  C:375CH         PUBLIC        fc_n
  B:00E8H.5       PUBLIC        P4_5
  D:00B8H         PUBLIC        IP
  C:3771H         PUBLIC        md_n
  C:375AH         PUBLIC        fc_v
  C:3748H         PUBLIC        sb_n
  X:34C8H         PUBLIC        s_tmp
  C:376EH         PUBLIC        md_v
  C:3746H         PUBLIC        sb_v
  C:3728H         PUBLIC        pr_n
 C2:6D85H         PUBLIC        _cgi_uart
BL51 BANKED LINKER/LOCATER V5.03                                                      01/30/2013  19:55:46  PAGE 132


  D:0098H         PUBLIC        SCON
  D:0088H         PUBLIC        TCON
  C:3723H         PUBLIC        pr_v
  X:34CDH         PUBLIC        selected
 C2:77BCH         PUBLIC        _ssi_uart
  D:00D8H         PUBLIC        WDTCON
  D:00C8H         PUBLIC        T2CON
  D:00D0H         PUBLIC        PSW

  -------         PROC BANK=2   _SSI_UART
  X:3830H         SYMBOL        varid
  X:3831H         SYMBOL        vp
 C2:77BCH         LINE#         46
 C2:77CAH         LINE#         47
 C2:77CAH         LINE#         49
 C2:77F3H         LINE#         50
 C2:77F3H         LINE#         51
 C2:77F3H         LINE#         52
 C2:77F3H         LINE#         53
 C2:77F3H         LINE#         54
 C2:77F3H         LINE#         55
 C2:77F3H         LINE#         57
 C2:77F3H         LINE#         59
 C2:77F6H         LINE#         60
 C2:77F6H         LINE#         61
 C2:7810H         LINE#         62
 C2:7823H         LINE#         63
 C2:788DH         LINE#         64
 C2:788DH         LINE#         65
 C2:788DH         LINE#         66
 C2:78B8H         LINE#         67
 C2:78BBH         LINE#         68
 C2:78BBH         LINE#         69
 C2:78BBH         LINE#         70
 C2:78D7H         LINE#         71
 C2:78EBH         LINE#         72
 C2:78EEH         LINE#         74
 C2:78EEH         LINE#         75
 C2:78EEH         LINE#         76
 C2:790AH         LINE#         77
 C2:7912H         LINE#         78
 C2:7912H         LINE#         79
 C2:7915H         LINE#         80
 C2:7915H         LINE#         81
 C2:7946H         LINE#         82
 C2:7949H         LINE#         84
 C2:7949H         LINE#         85
 C2:7965H         LINE#         86
 C2:796FH         LINE#         87
 C2:796FH         LINE#         88
 C2:7972H         LINE#         89
 C2:7972H         LINE#         90
 C2:7991H         LINE#         91
 C2:7994H         LINE#         92
 C2:7994H         LINE#         93
 C2:79C9H         LINE#         94
 C2:79CCH         LINE#         96
BL51 BANKED LINKER/LOCATER V5.03                                                      01/30/2013  19:55:46  PAGE 133


 C2:79CCH         LINE#         97
 C2:79E8H         LINE#         98
 C2:79F2H         LINE#         99
 C2:79F2H         LINE#         100
 C2:79F5H         LINE#         101
 C2:79F5H         LINE#         102
 C2:7A14H         LINE#         103
 C2:7A17H         LINE#         104
 C2:7A17H         LINE#         105
 C2:7A4CH         LINE#         106
 C2:7A4FH         LINE#         108
 C2:7A4FH         LINE#         109
 C2:7A6BH         LINE#         110
 C2:7A75H         LINE#         111
 C2:7A75H         LINE#         112
 C2:7A78H         LINE#         113
 C2:7A78H         LINE#         114
 C2:7A97H         LINE#         115
 C2:7A9AH         LINE#         116
 C2:7A9AH         LINE#         117
 C2:7ACFH         LINE#         118
 C2:7AD2H         LINE#         120
 C2:7AD2H         LINE#         121
 C2:7AEEH         LINE#         122
 C2:7AF8H         LINE#         123
 C2:7AF8H         LINE#         124
 C2:7AFBH         LINE#         125
 C2:7AFBH         LINE#         126
 C2:7B1AH         LINE#         127
 C2:7B1DH         LINE#         128
 C2:7B1DH         LINE#         129
 C2:7B4FH         LINE#         130
 C2:7B52H         LINE#         133
 C2:7B52H         LINE#         134
 C2:7B55H         LINE#         135
 C2:7B55H         LINE#         136
 C2:7B57H         LINE#         138
 C2:7B57H         LINE#         139
 C2:7B5AH         LINE#         140
 C2:7B5AH         LINE#         141
 C2:7B5CH         LINE#         143
 C2:7B5CH         LINE#         144
 C2:7B5FH         LINE#         145
 C2:7B5FH         LINE#         146
 C2:7B61H         LINE#         148
 C2:7B61H         LINE#         149
 C2:7B74H         LINE#         150
 C2:7B74H         LINE#         151
 C2:7B77H         LINE#         153
 C2:7B77H         LINE#         154
 C2:7B8EH         LINE#         155
 C2:7B8EH         LINE#         156
 C2:7B94H         LINE#         157
 C2:7B94H         LINE#         158
 C2:7B97H         LINE#         160
 C2:7B97H         LINE#         161
 C2:7BB2H         LINE#         162
BL51 BANKED LINKER/LOCATER V5.03                                                      01/30/2013  19:55:46  PAGE 134


 C2:7BB8H         LINE#         163
 C2:7BBBH         LINE#         165
 C2:7BBBH         LINE#         166
 C2:7BD2H         LINE#         167
 C2:7BD2H         LINE#         168
 C2:7BD8H         LINE#         169
 C2:7BD8H         LINE#         171
 C2:7BDBH         LINE#         173
 C2:7BDBH         LINE#         174
 C2:7BF6H         LINE#         175
 C2:7BFCH         LINE#         176
 C2:7BFEH         LINE#         178
 C2:7BFEH         LINE#         179
 C2:7C12H         LINE#         180
 C2:7C12H         LINE#         181
 C2:7C18H         LINE#         182
 C2:7C18H         LINE#         184
 C2:7C1AH         LINE#         186
 C2:7C1AH         LINE#         187
 C2:7C3DH         LINE#         188
 C2:7C50H         LINE#         189
 C2:7C52H         LINE#         190
 C2:7C52H         LINE#         191
 C2:7C65H         LINE#         192
 C2:7C65H         LINE#         193
 C2:7C7FH         LINE#         194
 C2:7C7FH         LINE#         195
 C2:7C7FH         LINE#         196
 C2:7C7FH         LINE#         201
 C2:7C81H         LINE#         202
  -------         ENDPROC       _SSI_UART

  -------         PROC BANK=2   _CGI_UART
  X:36A1H         SYMBOL        cnt
  D:0001H         SYMBOL        vptr
  -------         DO            
  X:36A2H         SYMBOL        vp
  X:36A5H         SYMBOL        i
  X:36A7H         SYMBOL        j
  D:0007H         SYMBOL        value
  -------         ENDDO         
 C2:6D85H         LINE#         204
 C2:6D8AH         LINE#         205
 C2:6D8AH         LINE#         207
 C2:6D93H         LINE#         210
 C2:6DA5H         LINE#         211
 C2:6DACH         LINE#         212
 C2:6DCDH         LINE#         213
 C2:6DCDH         LINE#         215
 C2:6DEDH         LINE#         216
 C2:6DEDH         LINE#         217
 C2:6E16H         LINE#         218
 C2:6E2EH         LINE#         219
 C2:6E2EH         LINE#         220
 C2:6E2EH         LINE#         221
 C2:6E30H         LINE#         222
 C2:6E32H         LINE#         223
BL51 BANKED LINKER/LOCATER V5.03                                                      01/30/2013  19:55:46  PAGE 135


 C2:6E34H         LINE#         224
 C2:6E34H         LINE#         225
 C2:6E34H         LINE#         226
 C2:6E34H         LINE#         227
 C2:6E34H         LINE#         228
 C2:6E36H         LINE#         230
 C2:6E38H         LINE#         231
 C2:6E38H         LINE#         232
 C2:6E38H         LINE#         233
 C2:6E38H         LINE#         235
 C2:6E5BH         LINE#         236
 C2:6E5BH         LINE#         237
 C2:6E76H         LINE#         238
 C2:6E76H         LINE#         239
 C2:6EA4H         LINE#         240
 C2:6EA4H         LINE#         241
 C2:6EC1H         LINE#         242
 C2:6EECH         LINE#         243
 C2:6EECH         LINE#         244
 C2:6EFDH         LINE#         245
 C2:6EFDH         LINE#         246
 C2:6F1DH         LINE#         247
 C2:6F1DH         LINE#         248
 C2:6F4DH         LINE#         249
 C2:6F68H         LINE#         250
 C2:6F68H         LINE#         251
 C2:6F88H         LINE#         252
 C2:6F88H         LINE#         253
 C2:6FB4H         LINE#         254
 C2:6FCDH         LINE#         255
 C2:6FCDH         LINE#         256
 C2:6FEDH         LINE#         257
 C2:6FEDH         LINE#         258
 C2:7019H         LINE#         259
 C2:7032H         LINE#         260
 C2:7032H         LINE#         261
 C2:7052H         LINE#         262
 C2:7052H         LINE#         263
 C2:707EH         LINE#         264
 C2:7097H         LINE#         266
 C2:70ADH         LINE#         267
 C2:70ADH         LINE#         268
 C2:70C5H         LINE#         269
 C2:70CAH         LINE#         270
 C2:70CAH         LINE#         272
 C2:70CAH         LINE#         273
 C2:70EAH         LINE#         274
 C2:70EAH         LINE#         275
 C2:7102H         LINE#         276
 C2:7102H         LINE#         277
 C2:7122H         LINE#         278
 C2:7122H         LINE#         279
 C2:7148H         LINE#         280
 C2:7148H         LINE#         281
 C2:7168H         LINE#         282
 C2:7168H         LINE#         283
 C2:7180H         LINE#         284
BL51 BANKED LINKER/LOCATER V5.03                                                      01/30/2013  19:55:46  PAGE 136


 C2:7180H         LINE#         285
 C2:71A0H         LINE#         286
 C2:71A0H         LINE#         287
 C2:71C6H         LINE#         288
 C2:71C6H         LINE#         289
 C2:71E6H         LINE#         290
 C2:71E6H         LINE#         291
 C2:71FEH         LINE#         292
 C2:71FEH         LINE#         293
 C2:721EH         LINE#         294
 C2:721EH         LINE#         295
 C2:7232H         LINE#         296
 C2:7237H         LINE#         297
 C2:723FH         LINE#         298
 C2:7251H         LINE#         299
 C2:7251H         LINE#         300
 C2:7271H         LINE#         301
 C2:7271H         LINE#         302
 C2:7284H         LINE#         303
 C2:7284H         LINE#         304
 C2:729FH         LINE#         305
 C2:72A2H         LINE#         306
 C2:72A5H         LINE#         307
 C2:72B7H         LINE#         308
 C2:72DEH         LINE#         313
 C2:72E0H         LINE#         314
  -------         ENDPROC       _CGI_UART
  -------         ENDMOD        UARTCBK

  -------         MODULE        TELNETCBK
  C:0000H         SYMBOL        _ICE_DUMMY_
  D:0080H         PUBLIC        P0
  D:0090H         PUBLIC        P1
  D:00A0H         PUBLIC        P2
  D:00B0H         PUBLIC        P3
  D:00E8H         PUBLIC        P4
 C2:619AH         PUBLIC        _cgi_telnet
  D:00A8H         PUBLIC        IE
  D:00B8H         PUBLIC        IP
 C2:7C82H         PUBLIC        _ssi_telnet
  D:0098H         PUBLIC        SCON
  D:0088H         PUBLIC        TCON
  D:00D8H         PUBLIC        WDTCON
  D:00C8H         PUBLIC        T2CON
  D:00D0H         PUBLIC        PSW

  -------         PROC BANK=2   _SSI_TELNET
  D:0007H         SYMBOL        varid
  X:38AAH         SYMBOL        vp
  -------         DO            
  C:3817H         SYMBOL        SCdis
  -------         ENDDO         
 C2:7C82H         LINE#         22
 C2:7C8DH         LINE#         23
 C2:7C8DH         LINE#         29
 C2:7CA7H         LINE#         30
 C2:7CBAH         LINE#         31
BL51 BANKED LINKER/LOCATER V5.03                                                      01/30/2013  19:55:46  PAGE 137


 C2:7D0CH         LINE#         32
 C2:7D0CH         LINE#         33
 C2:7D0CH         LINE#         34
 C2:7D27H         LINE#         35
 C2:7D29H         LINE#         36
 C2:7D29H         LINE#         37
 C2:7D44H         LINE#         38
 C2:7D46H         LINE#         39
 C2:7D46H         LINE#         40
 C2:7D70H         LINE#         41
 C2:7D73H         LINE#         42
 C2:7D73H         LINE#         43
 C2:7D87H         LINE#         44
 C2:7D87H         LINE#         45
 C2:7D8AH         LINE#         47
 C2:7D8AH         LINE#         48
 C2:7DA5H         LINE#         49
 C2:7DABH         LINE#         51
 C2:7DC3H         LINE#         52
 C2:7DC3H         LINE#         53
 C2:7DC6H         LINE#         54
 C2:7DC6H         LINE#         55
 C2:7DE1H         LINE#         56
 C2:7DE7H         LINE#         58
 C2:7DFFH         LINE#         59
 C2:7DFFH         LINE#         60
 C2:7E02H         LINE#         61
 C2:7E02H         LINE#         62
 C2:7E2EH         LINE#         63
 C2:7E2EH         LINE#         64
 C2:7E31H         LINE#         66
 C2:7E31H         LINE#         67
 C2:7E42H         LINE#         68
 C2:7E42H         LINE#         69
 C2:7E44H         LINE#         70
 C2:7E44H         LINE#         71
 C2:7E5FH         LINE#         72
 C2:7E5FH         LINE#         73
 C2:7E61H         LINE#         74
 C2:7E61H         LINE#         75
 C2:7E7CH         LINE#         76
 C2:7E7CH         LINE#         77
 C2:7E7EH         LINE#         78
 C2:7E7EH         LINE#         79
 C2:7EA9H         LINE#         80
 C2:7EA9H         LINE#         81
 C2:7EACH         LINE#         101
 C2:7EACH         LINE#         102
 C2:7ED1H         LINE#         103
 C2:7ED1H         LINE#         104
 C2:7ED4H         LINE#         105
 C2:7ED4H         LINE#         106
 C2:7EFDH         LINE#         107
 C2:7F0FH         LINE#         108
 C2:7F34H         LINE#         109
 C2:7F34H         LINE#         110
 C2:7F36H         LINE#         112
BL51 BANKED LINKER/LOCATER V5.03                                                      01/30/2013  19:55:46  PAGE 138


 C2:7F36H         LINE#         113
 C2:7F60H         LINE#         114
 C2:7F70H         LINE#         115
 C2:7F73H         LINE#         116
 C2:7F73H         LINE#         117
 C2:7F91H         LINE#         118
 C2:7F97H         LINE#         119
 C2:7F9AH         LINE#         120
 C2:7F9AH         LINE#         121
 C2:7FB4H         LINE#         122
 C2:7FCEH         LINE#         123
 C2:7FECH         LINE#         124
 C2:7FF2H         LINE#         125
 C2:7FF5H         LINE#         126
 C2:7FF5H         LINE#         127
 C2:8019H         LINE#         128
 C2:801BH         LINE#         131
 C2:801BH         LINE#         132
 C2:803FH         LINE#         133
 C2:8041H         LINE#         134
 C2:8041H         LINE#         135
 C2:8062H         LINE#         136
 C2:8064H         LINE#         139
 C2:8064H         LINE#         140
 C2:8099H         LINE#         141
 C2:809BH         LINE#         144
 C2:809BH         LINE#         145
 C2:80B5H         LINE#         146
 C2:80C5H         LINE#         147
 C2:80C5H         LINE#         154
 C2:80C8H         LINE#         157
 C2:80C8H         LINE#         163
 C2:80C8H         LINE#         168
 C2:80CAH         LINE#         169
  -------         ENDPROC       _SSI_TELNET

  -------         PROC BANK=2   _CGI_TELNET
  X:36A9H         SYMBOL        cnt
  D:0001H         SYMBOL        vptr
  -------         DO            
  X:36AAH         SYMBOL        en_re_rf
  X:36ABH         SYMBOL        count
  X:36ACH         SYMBOL        vp
  X:36AFH         SYMBOL        i
  -------         ENDDO         
 C2:619AH         LINE#         171
 C2:619FH         LINE#         172
 C2:619FH         LINE#         173
 C2:61A4H         LINE#         175
 C2:61ADH         LINE#         177
 C2:61B0H         LINE#         179
 C2:61C8H         LINE#         182
 C2:61E0H         LINE#         185
 C2:61F9H         LINE#         187
 C2:621AH         LINE#         188
 C2:621AH         LINE#         189
 C2:624DH         LINE#         190
BL51 BANKED LINKER/LOCATER V5.03                                                      01/30/2013  19:55:46  PAGE 139


 C2:6265H         LINE#         191
 C2:629BH         LINE#         192
 C2:62B4H         LINE#         193
 C2:62C8H         LINE#         194
 C2:62E9H         LINE#         195
 C2:62E9H         LINE#         196
 C2:630CH         LINE#         197
 C2:630CH         LINE#         198
 C2:632FH         LINE#         199
 C2:6345H         LINE#         200
 C2:6368H         LINE#         201
 C2:637EH         LINE#         202
 C2:63A1H         LINE#         203
 C2:63B6H         LINE#         204
 C2:63B6H         LINE#         206
 C2:63D6H         LINE#         207
 C2:63D6H         LINE#         208
 C2:63EFH         LINE#         209
 C2:63F2H         LINE#         210
 C2:640BH         LINE#         211
 C2:640BH         LINE#         213
 C2:642BH         LINE#         214
 C2:642BH         LINE#         215
 C2:6459H         LINE#         216
 C2:6459H         LINE#         218
 C2:6479H         LINE#         219
 C2:6479H         LINE#         220
 C2:64A7H         LINE#         221
 C2:64A7H         LINE#         222
 C2:64C7H         LINE#         223
 C2:64C7H         LINE#         224
 C2:64E0H         LINE#         225
 C2:64E4H         LINE#         226
 C2:64E4H         LINE#         227
 C2:64FFH         LINE#         228
 C2:64FFH         LINE#         229
 C2:6507H         LINE#         230
 C2:651FH         LINE#         231
 C2:651FH         LINE#         232
 C2:651FH         LINE#         233
 C2:651FH         LINE#         236
 C2:6542H         LINE#         237
 C2:6542H         LINE#         238
 C2:6561H         LINE#         239
 C2:657AH         LINE#         240
 C2:65CAH         LINE#         241
 C2:65CAH         LINE#         242
 C2:65EDH         LINE#         243
 C2:65EDH         LINE#         244
 C2:6607H         LINE#         245
 C2:6621H         LINE#         246
 C2:663AH         LINE#         247
 C2:663AH         LINE#         248
 C2:6648H         LINE#         249
 C2:6694H         LINE#         250
 C2:6694H         LINE#         251
 C2:6694H         LINE#         287
BL51 BANKED LINKER/LOCATER V5.03                                                      01/30/2013  19:55:46  PAGE 140


 C2:66B4H         LINE#         288
 C2:66B4H         LINE#         289
 C2:66E2H         LINE#         290
 C2:66E2H         LINE#         291
 C2:6702H         LINE#         292
 C2:6702H         LINE#         293
 C2:6730H         LINE#         294
 C2:6730H         LINE#         296
 C2:6750H         LINE#         297
 C2:6750H         LINE#         298
 C2:6769H         LINE#         299
 C2:6769H         LINE#         301
 C2:6784H         LINE#         302
 C2:6787H         LINE#         303
 C2:6799H         LINE#         305
 C2:67B6H         LINE#         306
 C2:67BCH         LINE#         307
 C2:67E3H         LINE#         312
 C2:67E5H         LINE#         313
  -------         ENDPROC       _CGI_TELNET
  -------         ENDMOD        TELNETCBK

  -------         MODULE        SETDEFCBK
  C:0000H         SYMBOL        _ICE_DUMMY_
  D:0080H         PUBLIC        P0
  D:0090H         PUBLIC        P1
  D:00A0H         PUBLIC        P2
  D:00B0H         PUBLIC        P3
  D:00E8H         PUBLIC        P4
  D:00A8H         PUBLIC        IE
  D:00B8H         PUBLIC        IP
  D:0098H         PUBLIC        SCON
  D:0088H         PUBLIC        TCON
  D:00D8H         PUBLIC        WDTCON
 C5:83A6H         PUBLIC        _cgi_setDef
  D:00C8H         PUBLIC        T2CON
  D:00D0H         PUBLIC        PSW

  -------         PROC BANK=5   _CGI_SETDEF
  X:3834H         SYMBOL        cnt
  X:3835H         SYMBOL        vp
 C5:83A6H         LINE#         33
 C5:83B4H         LINE#         34
 C5:83B4H         LINE#         35
 C5:83B4H         LINE#         37
 C5:83BCH         LINE#         38
 C5:83BCH         LINE#         39
 C5:83C1H         LINE#         40
 C5:83C4H         LINE#         41
 C5:83E1H         LINE#         42
 C5:83E7H         LINE#         43
 C5:840EH         LINE#         44
 C5:8410H         LINE#         46
 C5:8410H         LINE#         47
 C5:8413H         LINE#         48
 C5:8413H         LINE#         49
 C5:8415H         LINE#         50
BL51 BANKED LINKER/LOCATER V5.03                                                      01/30/2013  19:55:46  PAGE 141


  -------         ENDPROC       _CGI_SETDEF
  -------         ENDMOD        SETDEFCBK

  -------         MODULE        SETIPCBK
  C:0000H         SYMBOL        _ICE_DUMMY_
 C1:89DAH         PUBLIC        _cgi_setip
  X:3900H         PUBLIC        ip_chged
 C1:9E2EH         PUBLIC        _ssi_setip
  C:3AD4H         SYMBOL        _?ix1000

  -------         PROC BANK=1   _SSI_SETIP
  X:35D5H         SYMBOL        varid
  X:35D6H         SYMBOL        vp
  -------         DO            
  X:35D9H         SYMBOL        eep_val
  -------         DO            
  X:35DAH         SYMBOL        buf
  X:35DEH         SYMBOL        i
  -------         ENDDO         
  -------         ENDDO         
 C1:9E2EH         LINE#         38
 C1:9E3EH         LINE#         39
 C1:9E3EH         LINE#         42
 C1:9E44H         LINE#         45
 C1:9E49H         LINE#         46
 C1:9E58H         LINE#         47
 C1:9E58H         LINE#         48
 C1:9E5FH         LINE#         49
 C1:9E5FH         LINE#         50
 C1:9E60H         LINE#         51
 C1:9E63H         LINE#         52
 C1:9E63H         LINE#         53
 C1:9E66H         LINE#         54
 C1:9E66H         LINE#         55
 C1:9E69H         LINE#         56
 C1:9E78H         LINE#         57
 C1:9E78H         LINE#         58
 C1:9E82H         LINE#         59
 C1:9E82H         LINE#         60
 C1:9E83H         LINE#         61
 C1:9E86H         LINE#         62
 C1:9E86H         LINE#         63
 C1:9E86H         LINE#         64
 C1:9E86H         LINE#         65
 C1:9E89H         LINE#         66
 C1:9E98H         LINE#         67
 C1:9E98H         LINE#         68
 C1:9EA2H         LINE#         69
 C1:9EA2H         LINE#         70
 C1:9EA3H         LINE#         71
 C1:9EA5H         LINE#         72
 C1:9EA5H         LINE#         73
 C1:9EA5H         LINE#         74
 C1:9EA5H         LINE#         75
 C1:9EA7H         LINE#         77
 C1:9EAFH         LINE#         78
 C1:9EAFH         LINE#         79
BL51 BANKED LINKER/LOCATER V5.03                                                      01/30/2013  19:55:46  PAGE 142


 C1:9EBDH         LINE#         80
 C1:9EC1H         LINE#         81
 C1:9EC3H         LINE#         82
 C1:9EC7H         LINE#         83
 C1:9EC7H         LINE#         84
 C1:9ED5H         LINE#         85
 C1:9EEDH         LINE#         86
 C1:9EEFH         LINE#         90
 C1:9EFEH         LINE#         91
 C1:9EFEH         LINE#         92
 C1:9F08H         LINE#         93
 C1:9F08H         LINE#         94
 C1:9F17H         LINE#         95
 C1:9F19H         LINE#         96
 C1:9F19H         LINE#         97
 C1:9F28H         LINE#         98
 C1:9F28H         LINE#         99
 C1:9F28H         LINE#         101
 C1:9F35H         LINE#         102
 C1:9F35H         LINE#         103
 C1:9F45H         LINE#         104
 C1:9F47H         LINE#         106
 C1:9F47H         LINE#         107
 C1:9F5DH         LINE#         108
 C1:9F70H         LINE#         109
 C1:9F70H         LINE#         111
 C1:9F77H         LINE#         112
 C1:9F77H         LINE#         113
 C1:9F80H         LINE#         114
 C1:9F86H         LINE#         116
 C1:9F9EH         LINE#         117
 C1:9FB1H         LINE#         118
 C1:9FB1H         LINE#         119
 C1:9FB8H         LINE#         120
 C1:9FB8H         LINE#         121
 C1:9FC0H         LINE#         122
 C1:9FC6H         LINE#         124
 C1:9FDEH         LINE#         125
 C1:9FF1H         LINE#         126
 C1:9FF1H         LINE#         127
 C1:9FF9H         LINE#         128
 C1:9FF9H         LINE#         129
 C1:A00BH         LINE#         130
 C1:A01AH         LINE#         131
 C1:A040H         LINE#         132
 C1:A05AH         LINE#         133
 C1:A06DH         LINE#         134
 C1:A06DH         LINE#         136
 C1:A06FH         LINE#         137
  -------         ENDPROC       _SSI_SETIP

  -------         PROC BANK=1   _CGI_SETIP
  X:359FH         SYMBOL        cnt
  X:35A0H         SYMBOL        vp
  -------         DO            
  X:35A3H         SYMBOL        i
  X:35A4H         SYMBOL        chr
BL51 BANKED LINKER/LOCATER V5.03                                                      01/30/2013  19:55:46  PAGE 143


  X:35A5H         SYMBOL        vp2
  -------         DO            
  X:35A8H         SYMBOL        value
  -------         ENDDO         
  -------         ENDDO         
 C1:89DAH         LINE#         150
 C1:89E8H         LINE#         151
 C1:89E8H         LINE#         154
 C1:89F3H         LINE#         155
 C1:89FEH         LINE#         156
 C1:89FEH         LINE#         158
 C1:8A12H         LINE#         159
 C1:8A12H         LINE#         160
 C1:8A32H         LINE#         161
 C1:8A32H         LINE#         162
 C1:8A55H         LINE#         163
 C1:8A55H         LINE#         164
 C1:8A5BH         LINE#         165
 C1:8A5BH         LINE#         166
 C1:8A5DH         LINE#         168
 C1:8A5DH         LINE#         169
 C1:8A5DH         LINE#         170
 C1:8A80H         LINE#         171
 C1:8A80H         LINE#         172
 C1:8A86H         LINE#         173
 C1:8A86H         LINE#         174
 C1:8A89H         LINE#         176
 C1:8A89H         LINE#         177
 C1:8A89H         LINE#         178
 C1:8A89H         LINE#         180
 C1:8AA9H         LINE#         181
 C1:8AA9H         LINE#         182
 C1:8ACFH         LINE#         183
 C1:8AD2H         LINE#         185
 C1:8AD5H         LINE#         186
 C1:8AD5H         LINE#         187
 C1:8AF5H         LINE#         188
 C1:8AF5H         LINE#         189
 C1:8AFBH         LINE#         190
 C1:8B17H         LINE#         191
 C1:8B1FH         LINE#         192
 C1:8B27H         LINE#         193
 C1:8B27H         LINE#         195
 C1:8B3AH         LINE#         196
 C1:8B46H         LINE#         198
 C1:8B53H         LINE#         205
 C1:8B65H         LINE#         206
 C1:8B65H         LINE#         207
 C1:8BB9H         LINE#         208
 C1:8BB9H         LINE#         209
 C1:8BDDH         LINE#         210
 C1:8BDDH         LINE#         211
 C1:8BE6H         LINE#         212
 C1:8BEDH         LINE#         215
 C1:8BFCH         LINE#         216
 C1:8C31H         LINE#         218
 C1:8C43H         LINE#         219
BL51 BANKED LINKER/LOCATER V5.03                                                      01/30/2013  19:55:46  PAGE 144


 C1:8C43H         LINE#         220
 C1:8C52H         LINE#         221
 C1:8C6BH         LINE#         222
 C1:8C94H         LINE#         223
 C1:8C94H         LINE#         224
 C1:8CB1H         LINE#         225
 C1:8CB7H         LINE#         226
 C1:8CDEH         LINE#         227
 C1:8CE1H         LINE#         228
 C1:8CE1H         LINE#         229
 C1:8CEAH         LINE#         232
 C1:8CF6H         LINE#         233
 C1:8D13H         LINE#         234
 C1:8D19H         LINE#         235
 C1:8D40H         LINE#         236
 C1:8D42H         LINE#         238
 C1:8D42H         LINE#         239
 C1:8D45H         LINE#         240
 C1:8D45H         LINE#         241
 C1:8D47H         LINE#         242
  -------         ENDPROC       _CGI_SETIP
  -------         ENDMOD        SETIPCBK

  -------         MODULE        SETPASSCBK
  C:0000H         SYMBOL        _ICE_DUMMY_
  D:0080H         PUBLIC        P0
  D:0090H         PUBLIC        P1
  D:00A0H         PUBLIC        P2
  D:00B0H         PUBLIC        P3
  D:00E8H         PUBLIC        P4
  D:00A8H         PUBLIC        IE
 C1:C7A6H         PUBLIC        _ssi_setpass
  D:00B8H         PUBLIC        IP
  D:0098H         PUBLIC        SCON
  D:0088H         PUBLIC        TCON
  D:00D8H         PUBLIC        WDTCON
  D:00C8H         PUBLIC        T2CON
  D:00D0H         PUBLIC        PSW
 C1:90A9H         PUBLIC        _cgi_setpass

  -------         PROC BANK=1   _SSI_SETPASS
  D:0007H         SYMBOL        varid
  X:3338H         SYMBOL        vp
  -------         DO            
  X:333BH         SYMBOL        i
  X:333CH         SYMBOL        username
  X:334CH         SYMBOL        password
  -------         ENDDO         
 C1:C7A6H         LINE#         32
 C1:C7B1H         LINE#         33
 C1:C7B1H         LINE#         39
 C1:C7B6H         LINE#         40
 C1:C7BAH         LINE#         41
 C1:C7C4H         LINE#         42
 C1:C7C4H         LINE#         43
 C1:C7C4H         LINE#         44
 C1:C7CCH         LINE#         45
BL51 BANKED LINKER/LOCATER V5.03                                                      01/30/2013  19:55:46  PAGE 145


 C1:C7CCH         LINE#         46
 C1:C7D0H         LINE#         47
 C1:C7F3H         LINE#         48
 C1:C7F9H         LINE#         49
 C1:C7FBH         LINE#         51
 C1:C7FBH         LINE#         52
 C1:C801H         LINE#         53
 C1:C801H         LINE#         54
 C1:C803H         LINE#         55
 C1:C803H         LINE#         56
 C1:C80BH         LINE#         57
 C1:C80BH         LINE#         58
 C1:C80FH         LINE#         59
 C1:C832H         LINE#         60
 C1:C838H         LINE#         61
 C1:C83AH         LINE#         63
 C1:C83AH         LINE#         64
 C1:C840H         LINE#         65
 C1:C840H         LINE#         66
 C1:C842H         LINE#         68
 C1:C842H         LINE#         69
 C1:C85CH         LINE#         70
 C1:C85CH         LINE#         71
 C1:C85CH         LINE#         72
 C1:C86FH         LINE#         73
 C1:C871H         LINE#         74
  -------         ENDPROC       _SSI_SETPASS

  -------         PROC BANK=1   _CGI_SETPASS
  X:3715H         SYMBOL        cnt
  X:3716H         SYMBOL        vp
  -------         DO            
  X:3719H         SYMBOL        i
  X:371AH         SYMBOL        len
  X:371BH         SYMBOL        chr
  -------         ENDDO         
 C1:90A9H         LINE#         90
 C1:90B7H         LINE#         91
 C1:90B7H         LINE#         95
 C1:90B7H         LINE#         96
 C1:90C2H         LINE#         97
 C1:90C2H         LINE#         99
 C1:90FCH         LINE#         100
 C1:90FCH         LINE#         101
 C1:9120H         LINE#         102
 C1:9120H         LINE#         104
 C1:9127H         LINE#         107
 C1:9140H         LINE#         108
 C1:9152H         LINE#         109
 C1:917EH         LINE#         110
 C1:9188H         LINE#         111
 C1:919BH         LINE#         114
 C1:91B4H         LINE#         115
 C1:91C6H         LINE#         116
 C1:91F2H         LINE#         117
 C1:91FCH         LINE#         118
 C1:920FH         LINE#         122
BL51 BANKED LINKER/LOCATER V5.03                                                      01/30/2013  19:55:46  PAGE 146


 C1:9225H         LINE#         123
 C1:9225H         LINE#         124
 C1:9234H         LINE#         125
 C1:9259H         LINE#         126
 C1:9259H         LINE#         127
 C1:9276H         LINE#         128
 C1:927CH         LINE#         129
 C1:929DH         LINE#         130
 C1:92A0H         LINE#         131
 C1:92A0H         LINE#         132
 C1:92A9H         LINE#         135
 C1:92C2H         LINE#         136
 C1:92D8H         LINE#         137
 C1:92D8H         LINE#         138
 C1:92E7H         LINE#         139
 C1:930CH         LINE#         140
 C1:930CH         LINE#         141
 C1:9329H         LINE#         142
 C1:932FH         LINE#         143
 C1:9356H         LINE#         144
 C1:9359H         LINE#         145
 C1:9359H         LINE#         146
 C1:9362H         LINE#         149
 C1:936EH         LINE#         151
 C1:938BH         LINE#         152
 C1:9391H         LINE#         153
 C1:93B8H         LINE#         154
 C1:93BAH         LINE#         156
 C1:93BAH         LINE#         157
 C1:93BDH         LINE#         158
 C1:93BDH         LINE#         159
 C1:93BFH         LINE#         160
  -------         ENDPROC       _CGI_SETPASS
  -------         ENDMOD        SETPASSCBK

  -------         MODULE        STATUSCBK
  C:0000H         SYMBOL        _ICE_DUMMY_
  D:0080H         PUBLIC        P0
  D:0090H         PUBLIC        P1
  D:00A0H         PUBLIC        P2
  D:00B0H         PUBLIC        P3
  D:00E8H         PUBLIC        P4
  D:00A8H         PUBLIC        IE
  D:00B8H         PUBLIC        IP
 C1:C247H         PUBLIC        _cgi_status
  D:0098H         PUBLIC        SCON
  D:0088H         PUBLIC        TCON
 C1:BF70H         PUBLIC        _ssi_status
  D:00D8H         PUBLIC        WDTCON
  D:00C8H         PUBLIC        T2CON
  D:00D0H         PUBLIC        PSW

  -------         PROC BANK=1   _SSI_STATUS
  D:0007H         SYMBOL        varid
  X:3432H         SYMBOL        vp
  -------         DO            
  X:3435H         SYMBOL        i
BL51 BANKED LINKER/LOCATER V5.03                                                      01/30/2013  19:55:46  PAGE 147


  X:3436H         SYMBOL        MACAddr
  -------         ENDDO         
 C1:BF70H         LINE#         34
 C1:BF7BH         LINE#         35
 C1:BF7BH         LINE#         38
 C1:BF8BH         LINE#         39
 C1:BF8BH         LINE#         40
 C1:BF8BH         LINE#         41
 C1:BF9AH         LINE#         42
 C1:BF9AH         LINE#         43
 C1:BFB8H         LINE#         44
 C1:BFCCH         LINE#         45
 C1:BFD4H         LINE#         46
 C1:BFE6H         LINE#         47
 C1:BFE6H         LINE#         48
 C1:BFE8H         LINE#         49
 C1:BFE8H         LINE#         50
 C1:BFF0H         LINE#         51
 C1:BFF0H         LINE#         52
 C1:BFF4H         LINE#         53
 C1:BFF4H         LINE#         54
 C1:C00BH         LINE#         55
 C1:C017H         LINE#         56
 C1:C01CH         LINE#         57
 C1:C022H         LINE#         58
 C1:C024H         LINE#         60
 C1:C02AH         LINE#         61
 C1:C02CH         LINE#         62
 C1:C02CH         LINE#         63
 C1:C032H         LINE#         64
 C1:C034H         LINE#         65
 C1:C034H         LINE#         66
 C1:C04EH         LINE#         67
 C1:C04EH         LINE#         68
 C1:C04EH         LINE#         69
 C1:C061H         LINE#         70
 C1:C063H         LINE#         71
  -------         ENDPROC       _SSI_STATUS

  -------         PROC BANK=1   _CGI_STATUS
  X:37B7H         SYMBOL        cnt
  X:37B8H         SYMBOL        vp
  -------         DO            
  X:37BBH         SYMBOL        i
  X:37BCH         SYMBOL        len
  -------         ENDDO         
 C1:C247H         LINE#         83
 C1:C255H         LINE#         84
 C1:C255H         LINE#         86
 C1:C255H         LINE#         87
 C1:C260H         LINE#         88
 C1:C260H         LINE#         89
 C1:C28FH         LINE#         90
 C1:C28FH         LINE#         91
 C1:C2A8H         LINE#         92
 C1:C2BAH         LINE#         93
 C1:C2E6H         LINE#         94
BL51 BANKED LINKER/LOCATER V5.03                                                      01/30/2013  19:55:46  PAGE 148


 C1:C2F0H         LINE#         95
 C1:C303H         LINE#         97
 C1:C32AH         LINE#         98
 C1:C32AH         LINE#         100
 C1:C32CH         LINE#         102
 C1:C32CH         LINE#         103
 C1:C32FH         LINE#         104
 C1:C32FH         LINE#         105
 C1:C331H         LINE#         106
  -------         ENDPROC       _CGI_STATUS
  -------         ENDMOD        STATUSCBK

  -------         MODULE        SMTPCBK
  C:0000H         SYMBOL        _ICE_DUMMY_
 C1:BA40H         PUBLIC        _ReplaceDoubleQuotes
 C1:9BE5H         PUBLIC        _cgi_smtp
  C:3876H         SYMBOL        _?ix1000
  C:3882H         SYMBOL        _?ix1001
  C:38DDH         SYMBOL        _?ix1002
 C1:AB27H         PUBLIC        _ssi_smtp
 C1:B0A6H         PUBLIC        _CGIstrcpy

  -------         PROC BANK=1   _REPLACEDOUBLEQUOTES
  X:3632H         SYMBOL        src
  X:3635H         SYMBOL        des
  -------         DO            
  X:3638H         SYMBOL        i
  X:3639H         SYMBOL        j
  X:363AH         SYMBOL        len
  -------         ENDDO         
 C1:BA40H         LINE#         26
 C1:BA4BH         LINE#         27
 C1:BA4BH         LINE#         28
 C1:BA53H         LINE#         29
 C1:BA6AH         LINE#         30
 C1:BA6AH         LINE#         31
 C1:BA6DH         LINE#         32
 C1:BA88H         LINE#         33
 C1:BA88H         LINE#         34
 C1:BAA3H         LINE#         35
 C1:BAB4H         LINE#         36
 C1:BAB6H         LINE#         37
 C1:BAD1H         LINE#         38
 C1:BAD1H         LINE#         39
 C1:BAE9H         LINE#         40
 C1:BAFAH         LINE#         41
 C1:BB0DH         LINE#         42
 C1:BB0FH         LINE#         44
 C1:BB0FH         LINE#         45
 C1:BB42H         LINE#         46
 C1:BB42H         LINE#         47
 C1:BB4BH         LINE#         48
  -------         ENDPROC       _REPLACEDOUBLEQUOTES

  -------         PROC BANK=1   _CGISTRCPY
  X:34AAH         SYMBOL        str
  X:34ADH         SYMBOL        cgistr
BL51 BANKED LINKER/LOCATER V5.03                                                      01/30/2013  19:55:46  PAGE 149


  -------         DO            
  X:34B0H         SYMBOL        buf
  X:34B3H         SYMBOL        i
  X:34B5H         SYMBOL        j
  X:34B7H         SYMBOL        len
  -------         ENDDO         
 C1:B0A6H         LINE#         50
 C1:B0B1H         LINE#         51
 C1:B0B1H         LINE#         52
 C1:B0C4H         LINE#         53
 C1:B0DAH         LINE#         55
 C1:B0FDH         LINE#         56
 C1:B0FDH         LINE#         57
 C1:B100H         LINE#         58
 C1:B11DH         LINE#         59
 C1:B11DH         LINE#         60
 C1:B13BH         LINE#         61
 C1:B159H         LINE#         62
 C1:B15CH         LINE#         63
 C1:B197H         LINE#         64
 C1:B19FH         LINE#         65
 C1:B19FH         LINE#         66
 C1:B1BBH         LINE#         67
 C1:B1C8H         LINE#         68
 C1:B1D6H         LINE#         69
 C1:B1DFH         LINE#         70
 C1:B1E1H         LINE#         72
 C1:B1E1H         LINE#         73
 C1:B216H         LINE#         74
 C1:B216H         LINE#         75
 C1:B227H         LINE#         76
  -------         ENDPROC       _CGISTRCPY

  -------         PROC BANK=1   _SSI_SMTP
  D:0007H         SYMBOL        varid
  X:2FAFH         SYMBOL        vp
  -------         DO            
  X:2FB2H         SYMBOL        buf
  C:3879H         SYMBOL        title
  -------         ENDDO         
 C1:AB27H         LINE#         79
 C1:AB32H         LINE#         80
 C1:AB32H         LINE#         84
 C1:AB4BH         LINE#         85
 C1:AB5EH         LINE#         86
 C1:AB78H         LINE#         87
 C1:ABAFH         LINE#         88
 C1:ABAFH         LINE#         89
 C1:ABAFH         LINE#         90
 C1:ABC3H         LINE#         91
 C1:ABC3H         LINE#         92
 C1:ABC3H         LINE#         93
 C1:ABC3H         LINE#         94
 C1:ABC5H         LINE#         95
 C1:ABC5H         LINE#         96
 C1:ABE4H         LINE#         97
 C1:ABE4H         LINE#         98
BL51 BANKED LINKER/LOCATER V5.03                                                      01/30/2013  19:55:46  PAGE 150


 C1:ABE7H         LINE#         99
 C1:ABE7H         LINE#         100
 C1:ABF3H         LINE#         101
 C1:ABF5H         LINE#         103
 C1:ABF5H         LINE#         104
 C1:AC0CH         LINE#         105
 C1:AC0CH         LINE#         106
 C1:AC12H         LINE#         107
 C1:AC12H         LINE#         108
 C1:AC14H         LINE#         110
 C1:AC14H         LINE#         111
 C1:AC24H         LINE#         112
 C1:AC26H         LINE#         114
 C1:AC26H         LINE#         115
 C1:AC36H         LINE#         116
 C1:AC38H         LINE#         118
 C1:AC38H         LINE#         119
 C1:AC48H         LINE#         120
 C1:AC4AH         LINE#         122
 C1:AC4AH         LINE#         123
 C1:AC5BH         LINE#         124
 C1:AC5DH         LINE#         125
 C1:AC5DH         LINE#         126
 C1:AC90H         LINE#         127
 C1:AC93H         LINE#         129
 C1:AC93H         LINE#         130
 C1:ACAAH         LINE#         131
 C1:ACACH         LINE#         133
 C1:ACACH         LINE#         134
 C1:ACE9H         LINE#         135
 C1:ACEBH         LINE#         137
 C1:ACEBH         LINE#         138
 C1:AD0AH         LINE#         139
 C1:AD0AH         LINE#         140
 C1:AD0AH         LINE#         141
 C1:AD0FH         LINE#         143
 C1:AD22H         LINE#         144
 C1:AD22H         LINE#         146
 C1:AD22H         LINE#         151
 C1:AD24H         LINE#         152
  -------         ENDPROC       _SSI_SMTP

  -------         PROC BANK=1   _CGI_SMTP
  X:2EC9H         SYMBOL        cnt
  D:0001H         SYMBOL        vptr
  -------         DO            
  X:2ECAH         SYMBOL        vp
  X:2ECDH         SYMBOL        i
  X:2ECEH         SYMBOL        j
  X:2ECFH         SYMBOL        smtp_cbk_cnt
  X:2ED0H         SYMBOL        totallen
  X:2ED2H         SYMBOL        NameArray
  X:2F2DH         SYMBOL        ValuePtrArray
  -------         ENDDO         
 C1:9BE5H         LINE#         154
 C1:9BEAH         LINE#         155
 C1:9BEAH         LINE#         157
BL51 BANKED LINKER/LOCATER V5.03                                                      01/30/2013  19:55:46  PAGE 151


 C1:9BF3H         LINE#         158
 C1:9BF6H         LINE#         159
 C1:9BF8H         LINE#         160
 C1:9BFAH         LINE#         161
 C1:9BFEH         LINE#         162
 C1:9C10H         LINE#         171
 C1:9C23H         LINE#         179
 C1:9C32H         LINE#         180
 C1:9C44H         LINE#         182
 C1:9C59H         LINE#         183
 C1:9C59H         LINE#         184
 C1:9C89H         LINE#         185
 C1:9CBCH         LINE#         186
 C1:9D04H         LINE#         188
 C1:9D16H         LINE#         189
 C1:9D16H         LINE#         190
 C1:9D55H         LINE#         191
 C1:9D55H         LINE#         192
 C1:9D77H         LINE#         193
 C1:9D7EH         LINE#         194
 C1:9D7EH         LINE#         195
 C1:9D8EH         LINE#         196
 C1:9D90H         LINE#         197
 C1:9D97H         LINE#         198
 C1:9D97H         LINE#         199
 C1:9DD6H         LINE#         200
 C1:9DD6H         LINE#         201
 C1:9DD6H         LINE#         202
 C1:9DDFH         LINE#         203
 C1:9DF2H         LINE#         204
 C1:9E04H         LINE#         205
 C1:9E2BH         LINE#         211
 C1:9E2DH         LINE#         212
  -------         ENDPROC       _CGI_SMTP
  -------         ENDMOD        SMTPCBK

  -------         MODULE        FW_UPCBK
  C:0000H         SYMBOL        _ICE_DUMMY_
 C1:C4FEH         PUBLIC        _cgi_fu_up
 C1:C418H         PUBLIC        _cgi_fw_up

  -------         PROC BANK=1   _CGI_FW_UP
  D:0007H         SYMBOL        cnt
  D:0001H         SYMBOL        vp
  -------         DO            
  X:3838H         SYMBOL        i
  X:3839H         SYMBOL        y
  -------         ENDDO         
 C1:C418H         LINE#         23
 C1:C418H         LINE#         24
 C1:C418H         LINE#         25
 C1:C41DH         LINE#         26
 C1:C426H         LINE#         27
 C1:C42BH         LINE#         28
 C1:C42BH         LINE#         29
 C1:C444H         LINE#         30
 C1:C450H         LINE#         31
BL51 BANKED LINKER/LOCATER V5.03                                                      01/30/2013  19:55:46  PAGE 152


 C1:C455H         LINE#         32
 C1:C455H         LINE#         33
 C1:C46EH         LINE#         34
 C1:C47AH         LINE#         35
 C1:C47FH         LINE#         36
 C1:C47FH         LINE#         37
 C1:C498H         LINE#         38
 C1:C4A4H         LINE#         39
 C1:C4A9H         LINE#         40
 C1:C4A9H         LINE#         41
 C1:C4C2H         LINE#         42
 C1:C4CEH         LINE#         43
 C1:C4D4H         LINE#         44
 C1:C4FBH         LINE#         46
 C1:C4FDH         LINE#         47
  -------         ENDPROC       _CGI_FW_UP

  -------         PROC BANK=1   _CGI_FU_UP
  D:0007H         SYMBOL        cnt
  D:0001H         SYMBOL        vp
  -------         DO            
  X:383CH         SYMBOL        i
  X:383DH         SYMBOL        y
  -------         ENDDO         
 C1:C4FEH         LINE#         50
 C1:C4FEH         LINE#         51
 C1:C4FEH         LINE#         52
 C1:C503H         LINE#         53
 C1:C50CH         LINE#         54
 C1:C511H         LINE#         55
 C1:C511H         LINE#         56
 C1:C52AH         LINE#         57
 C1:C536H         LINE#         58
 C1:C53BH         LINE#         59
 C1:C53BH         LINE#         60
 C1:C554H         LINE#         61
 C1:C560H         LINE#         62
 C1:C565H         LINE#         63
 C1:C565H         LINE#         64
 C1:C57EH         LINE#         65
 C1:C58AH         LINE#         66
 C1:C58FH         LINE#         67
 C1:C58FH         LINE#         68
 C1:C5A8H         LINE#         69
 C1:C5B4H         LINE#         72
 C1:C5BAH         LINE#         73
 C1:C5E1H         LINE#         75
 C1:C5E3H         LINE#         76
  -------         ENDPROC       _CGI_FU_UP
  -------         ENDMOD        FW_UPCBK

  -------         MODULE        ADCCBK
  C:0000H         SYMBOL        _ICE_DUMMY_
  D:0090H         PUBLIC        P1
  D:00B0H         PUBLIC        P3
  D:00A8H         PUBLIC        IE
 C5:7DBDH         PUBLIC        adc_convert
BL51 BANKED LINKER/LOCATER V5.03                                                      01/30/2013  19:55:46  PAGE 153


  D:00B8H         PUBLIC        IP
 C5:7AE7H         PUBLIC        _cgi_adc
  D:0098H         PUBLIC        SCON
  D:0088H         PUBLIC        TCON
 C5:874FH         PUBLIC        _ssi_adc
  X:38E8H         PUBLIC        current_vrs
  X:38E9H         PUBLIC        current_channel
  D:00D8H         PUBLIC        WDTCON
  D:00C8H         PUBLIC        T2CON
  D:00D0H         PUBLIC        PSW

  -------         PROC BANK=5   ADC_CONVERT
  -------         DO            
  D:0005H         SYMBOL        byte_data
  D:0007H         SYMBOL        adc_h
  D:0001H         SYMBOL        adc_l
  X:38E6H         SYMBOL        adcValue
  -------         ENDDO         
 C5:7DBDH         LINE#         21
 C5:7DBDH         LINE#         22
 C5:7DBDH         LINE#         30
 C5:7DC1H         LINE#         31
 C5:7DD6H         LINE#         32
 C5:7DDAH         LINE#         35
 C5:7DDAH         LINE#         36
 C5:7DDFH         LINE#         37
 C5:7DE2H         LINE#         40
 C5:7DE3H         LINE#         41
 C5:7DE5H         LINE#         42
 C5:7DE6H         LINE#         45
 C5:7DE6H         LINE#         46
 C5:7DEBH         LINE#         47
 C5:7DEEH         LINE#         49
 C5:7DF1H         LINE#         50
 C5:7DF3H         LINE#         52
 C5:7DF6H         LINE#         54
 C5:7DF9H         LINE#         55
 C5:7DF9H         LINE#         77
 C5:7DFBH         LINE#         78
 C5:7E08H         LINE#         79
 C5:7E1BH         LINE#         80
 C5:7E26H         LINE#         81
 C5:7E28H         LINE#         83
 C5:7E28H         LINE#         85
 C5:7E3AH         LINE#         86
 C5:7E45H         LINE#         87
 C5:7E45H         LINE#         91
 C5:7E49H         LINE#         92
 C5:7E4CH         LINE#         93
 C5:7E4DH         LINE#         95
 C5:7E66H         LINE#         97
 C5:7E66H         LINE#         98
  -------         ENDPROC       ADC_CONVERT

  -------         PROC BANK=5   _SSI_ADC
  D:0007H         SYMBOL        varid
  X:38ADH         SYMBOL        vp
BL51 BANKED LINKER/LOCATER V5.03                                                      01/30/2013  19:55:46  PAGE 154


 C5:874FH         LINE#         103
 C5:875AH         LINE#         104
 C5:875AH         LINE#         109
 C5:8761H         LINE#         110
 C5:8761H         LINE#         112
 C5:8761H         LINE#         116
 C5:8772H         LINE#         117
 C5:8772H         LINE#         118
 C5:8774H         LINE#         119
 C5:8774H         LINE#         123
 C5:8788H         LINE#         124
 C5:879BH         LINE#         128
 C5:879BH         LINE#         130
 C5:879BH         LINE#         131
 C5:879BH         LINE#         132
 C5:879BH         LINE#         133
 C5:879DH         LINE#         134
  -------         ENDPROC       _SSI_ADC

  -------         PROC BANK=5   _CGI_ADC
  X:35DFH         SYMBOL        cnt
  X:35E0H         SYMBOL        vptr
  -------         DO            
  X:35E3H         SYMBOL        vp
  X:35E6H         SYMBOL        temp_channel
  X:35E7H         SYMBOL        i
  -------         ENDDO         
 C5:7AE7H         LINE#         135
 C5:7AF5H         LINE#         136
 C5:7AF5H         LINE#         137
 C5:7AFEH         LINE#         142
 C5:7B1DH         LINE#         143
 C5:7B1DH         LINE#         144
 C5:7B3AH         LINE#         148
 C5:7B54H         LINE#         149
 C5:7B67H         LINE#         151
 C5:7B8AH         LINE#         152
 C5:7B8AH         LINE#         156
 C5:7B92H         LINE#         160
 C5:7B92H         LINE#         161
 C5:7BAFH         LINE#         162
 C5:7BAFH         LINE#         166
 C5:7BAFH         LINE#         168
 C5:7BC1H         LINE#         169
 C5:7BE8H         LINE#         171
 C5:7BEAH         LINE#         172
  -------         ENDPROC       _CGI_ADC
  -------         ENDMOD        ADCCBK

  -------         MODULE        UDP_TELCBK
  C:0000H         SYMBOL        _ICE_DUMMY_
  D:0080H         PUBLIC        P0
  D:0090H         PUBLIC        P1
  D:00A0H         PUBLIC        P2
 C5:6597H         PUBLIC        _ssi_udp_tel
  D:00B0H         PUBLIC        P3
  D:00E8H         PUBLIC        P4
BL51 BANKED LINKER/LOCATER V5.03                                                      01/30/2013  19:55:46  PAGE 155


  D:00A8H         PUBLIC        IE
  D:00B8H         PUBLIC        IP
  D:0098H         PUBLIC        SCON
  D:0088H         PUBLIC        TCON
  C:3954H         SYMBOL        _?ix1000
  D:00D8H         PUBLIC        WDTCON
 C5:60E0H         PUBLIC        _cgi_udp_tel
  D:00C8H         PUBLIC        T2CON
  D:00D0H         PUBLIC        PSW

  -------         PROC BANK=5   _SSI_UDP_TEL
  X:32BEH         SYMBOL        varid
  X:32BFH         SYMBOL        vp
  -------         DO            
  X:32C2H         SYMBOL        index
  X:32C3H         SYMBOL        ee_value
  X:32C4H         SYMBOL        i
  X:32C5H         SYMBOL        ee_port
  X:32C7H         SYMBOL        name_buf
  -------         DO            
  X:32E6H         SYMBOL        offset
  -------         ENDDO         
  -------         ENDDO         
 C5:6597H         LINE#         32
 C5:65A5H         LINE#         33
 C5:65A5H         LINE#         35
 C5:65BBH         LINE#         37
 C5:65C0H         LINE#         38
 C5:65C4H         LINE#         39
 C5:65D6H         LINE#         41
 C5:65EFH         LINE#         42
 C5:6602H         LINE#         43
 C5:662EH         LINE#         44
 C5:662EH         LINE#         46
 C5:662EH         LINE#         47
 C5:663BH         LINE#         48
 C5:6648H         LINE#         49
 C5:6651H         LINE#         50
 C5:665EH         LINE#         51
 C5:6675H         LINE#         52
 C5:6685H         LINE#         53
 C5:6688H         LINE#         54
 C5:6688H         LINE#         55
 C5:66A2H         LINE#         56
 C5:66B5H         LINE#         57
 C5:66D0H         LINE#         58
 C5:66D3H         LINE#         59
 C5:66D3H         LINE#         60
 C5:66EDH         LINE#         61
 C5:6700H         LINE#         62
 C5:671BH         LINE#         63
 C5:671DH         LINE#         64
 C5:671DH         LINE#         65
 C5:6737H         LINE#         66
 C5:674AH         LINE#         67
 C5:6768H         LINE#         70
 C5:6782H         LINE#         71
BL51 BANKED LINKER/LOCATER V5.03                                                      01/30/2013  19:55:46  PAGE 156


 C5:6784H         LINE#         88
 C5:6784H         LINE#         89
 C5:6799H         LINE#         90
 C5:6799H         LINE#         91
 C5:679BH         LINE#         92
 C5:679BH         LINE#         93
 C5:679BH         LINE#         94
 C5:679BH         LINE#         95
 C5:679BH         LINE#         96
 C5:679BH         LINE#         97
 C5:679BH         LINE#         98
 C5:67CCH         LINE#         99
 C5:67DFH         LINE#         100
 C5:67DFH         LINE#         102
 C5:67DFH         LINE#         104
 C5:67E7H         LINE#         105
 C5:67E7H         LINE#         106
 C5:67F5H         LINE#         107
 C5:6824H         LINE#         108
 C5:683EH         LINE#         109
 C5:683EH         LINE#         110
 C5:6841H         LINE#         111
 C5:6849H         LINE#         112
 C5:6849H         LINE#         113
 C5:6863H         LINE#         114
 C5:6870H         LINE#         115
 C5:6879H         LINE#         116
 C5:6893H         LINE#         117
 C5:68AAH         LINE#         118
 C5:68B5H         LINE#         119
 C5:68B5H         LINE#         120
 C5:68B7H         LINE#         121
 C5:68CFH         LINE#         122
 C5:68CFH         LINE#         123
 C5:68DCH         LINE#         125
 C5:68F7H         LINE#         126
 C5:690DH         LINE#         127
 C5:691DH         LINE#         128
 C5:6920H         LINE#         129
 C5:6929H         LINE#         130
 C5:6929H         LINE#         131
 C5:6940H         LINE#         132
 C5:6946H         LINE#         134
 C5:695EH         LINE#         135
 C5:696EH         LINE#         136
 C5:6970H         LINE#         137
 C5:6975H         LINE#         138
 C5:6975H         LINE#         139
 C5:698DH         LINE#         140
 C5:6993H         LINE#         142
 C5:69ABH         LINE#         143
 C5:69BEH         LINE#         144
 C5:69BEH         LINE#         161
 C5:69C0H         LINE#         162
  -------         ENDPROC       _SSI_UDP_TEL

  -------         PROC BANK=5   _CGI_UDP_TEL
BL51 BANKED LINKER/LOCATER V5.03                                                      01/30/2013  19:55:46  PAGE 157


  X:34D6H         SYMBOL        cnt
  D:0001H         SYMBOL        vptr
  -------         DO            
  X:34D7H         SYMBOL        i
  X:34D8H         SYMBOL        begin
  X:34D9H         SYMBOL        j
  X:34DAH         SYMBOL        count
  X:34DBH         SYMBOL        ee_value
  X:34DCH         SYMBOL        ee_port
  X:34DEH         SYMBOL        vp2
  -------         DO            
  X:34E1H         SYMBOL        ptr
  -------         ENDDO         
  -------         ENDDO         
 C5:60E0H         LINE#         164
 C5:60E5H         LINE#         165
 C5:60E5H         LINE#         167
 C5:60EEH         LINE#         169
 C5:60F0H         LINE#         170
 C5:60F4H         LINE#         172
 C5:60FDH         LINE#         173
 C5:6100H         LINE#         174
 C5:6114H         LINE#         175
 C5:6114H         LINE#         176
 C5:6141H         LINE#         177
 C5:6141H         LINE#         179
 C5:6172H         LINE#         180
 C5:6188H         LINE#         181
 C5:61B9H         LINE#         182
 C5:61CFH         LINE#         187
 C5:6200H         LINE#         188
 C5:6215H         LINE#         189
 C5:6215H         LINE#         190
 C5:6242H         LINE#         191
 C5:6242H         LINE#         195
 C5:626CH         LINE#         196
 C5:626CH         LINE#         198
 C5:62A2H         LINE#         199
 C5:62A2H         LINE#         200
 C5:62D6H         LINE#         201
 C5:62E9H         LINE#         203
 C5:62FBH         LINE#         204
 C5:6301H         LINE#         205
 C5:6301H         LINE#         207
 C5:630AH         LINE#         209
 C5:631EH         LINE#         210
 C5:631EH         LINE#         211
 C5:634BH         LINE#         212
 C5:634BH         LINE#         213
 C5:6362H         LINE#         214
 C5:6375H         LINE#         215
 C5:6375H         LINE#         216
 C5:6382H         LINE#         217
 C5:6391H         LINE#         218
 C5:63E0H         LINE#         219
 C5:63E0H         LINE#         220
 C5:63E0H         LINE#         221
BL51 BANKED LINKER/LOCATER V5.03                                                      01/30/2013  19:55:46  PAGE 158


 C5:6410H         LINE#         222
 C5:6410H         LINE#         223
 C5:6426H         LINE#         224
 C5:6445H         LINE#         226
 C5:64A9H         LINE#         227
 C5:64A9H         LINE#         228
 C5:64D6H         LINE#         229
 C5:64D6H         LINE#         230
 C5:650FH         LINE#         231
 C5:6515H         LINE#         232
 C5:6515H         LINE#         233
 C5:651EH         LINE#         245
 C5:652BH         LINE#         246
 C5:653DH         LINE#         247
 C5:654AH         LINE#         249
 C5:6567H         LINE#         250
 C5:656DH         LINE#         251
 C5:6594H         LINE#         256
 C5:6596H         LINE#         257
  -------         ENDPROC       _CGI_UDP_TEL
  -------         ENDMOD        UDP_TELCBK

  -------         MODULE        DIDOCBK
  C:0000H         SYMBOL        _ICE_DUMMY_
  D:0080H         PUBLIC        P0
  D:0090H         PUBLIC        P1
  D:00A0H         PUBLIC        P2
  D:00B0H         PUBLIC        P3
  D:00E8H         PUBLIC        P4
  D:00A8H         PUBLIC        IE
 C1:7F23H         PUBLIC        _cgi_dido
  D:00B8H         PUBLIC        IP
 C1:A2B1H         PUBLIC        _ssi_dido
  D:0098H         PUBLIC        SCON
  D:0088H         PUBLIC        TCON
  C:3B90H         SYMBOL        _?ix1000
  D:00D8H         PUBLIC        WDTCON
  D:00C8H         PUBLIC        T2CON
  D:00D0H         PUBLIC        PSW

  -------         PROC BANK=1   _SSI_DIDO
  X:35AAH         SYMBOL        varid
  X:35ABH         SYMBOL        vp
  -------         DO            
  X:35AEH         SYMBOL        name_buf
  X:35B3H         SYMBOL        i
  X:35B4H         SYMBOL        dido_value
  D:0007H         SYMBOL        direction
  -------         ENDDO         
 C1:A2B1H         LINE#         19
 C1:A2BFH         LINE#         20
 C1:A2BFH         LINE#         22
 C1:A2D2H         LINE#         23
 C1:A2D7H         LINE#         25
 C1:A2DAH         LINE#         26
 C1:A2F4H         LINE#         27
 C1:A307H         LINE#         29
BL51 BANKED LINKER/LOCATER V5.03                                                      01/30/2013  19:55:46  PAGE 159


 C1:A320H         LINE#         31
 C1:A325H         LINE#         32
 C1:A34CH         LINE#         33
 C1:A354H         LINE#         35
 C1:A37AH         LINE#         36
 C1:A37AH         LINE#         38
 C1:A37AH         LINE#         39
 C1:A38BH         LINE#         40
 C1:A38BH         LINE#         41
 C1:A38EH         LINE#         42
 C1:A38EH         LINE#         43
 C1:A39DH         LINE#         44
 C1:A3A2H         LINE#         45
 C1:A3E8H         LINE#         46
 C1:A402H         LINE#         47
 C1:A412H         LINE#         48
 C1:A414H         LINE#         49
 C1:A414H         LINE#         50
 C1:A42CH         LINE#         51
 C1:A43CH         LINE#         52
 C1:A43EH         LINE#         54
 C1:A43EH         LINE#         56
 C1:A473H         LINE#         60
 C1:A486H         LINE#         61
 C1:A488H         LINE#         68
 C1:A488H         LINE#         70
 C1:A4A7H         LINE#         71
 C1:A4A7H         LINE#         76
 C1:A4A9H         LINE#         77
 C1:A4A9H         LINE#         79
 C1:A4C6H         LINE#         80
 C1:A4E0H         LINE#         85
 C1:A4E0H         LINE#         100
 C1:A4E0H         LINE#         101
 C1:A4E2H         LINE#         102
  -------         ENDPROC       _SSI_DIDO

  -------         PROC BANK=1   _CGI_DIDO
  X:34E4H         SYMBOL        cnt
  D:0001H         SYMBOL        vptr
  -------         DO            
  X:34E5H         SYMBOL        vp
  X:34E8H         SYMBOL        i
  X:34EAH         SYMBOL        port_num
  X:34ECH         SYMBOL        direction
  X:34EDH         SYMBOL        port_flag
  X:34EEH         SYMBOL        count
  X:34EFH         SYMBOL        len
  X:34F0H         SYMBOL        value
  X:34F1H         SYMBOL        dido_value
  -------         ENDDO         
 C1:7F23H         LINE#         103
 C1:7F28H         LINE#         104
 C1:7F28H         LINE#         105
 C1:7F31H         LINE#         107
 C1:7F38H         LINE#         108
 C1:7F3CH         LINE#         110
BL51 BANKED LINKER/LOCATER V5.03                                                      01/30/2013  19:55:46  PAGE 160


 C1:7F42H         LINE#         112
 C1:7F44H         LINE#         114
 C1:7F62H         LINE#         115
 C1:7F62H         LINE#         116
 C1:7F94H         LINE#         117
 C1:7F94H         LINE#         118
 C1:7FBBH         LINE#         119
 C1:7FBEH         LINE#         120
 C1:7FBEH         LINE#         121
 C1:7FCFH         LINE#         123
 C1:7FF0H         LINE#         124
 C1:7FF0H         LINE#         126
 C1:8019H         LINE#         127
 C1:8019H         LINE#         128
 C1:8032H         LINE#         129
 C1:8068H         LINE#         130
 C1:8095H         LINE#         131
 C1:8095H         LINE#         132
 C1:80BEH         LINE#         133
 C1:80BEH         LINE#         134
 C1:80E4H         LINE#         135
 C1:80E4H         LINE#         136
 C1:80F1H         LINE#         137
 C1:80F3H         LINE#         139
 C1:80F3H         LINE#         140
 C1:80FFH         LINE#         141
 C1:80FFH         LINE#         142
 C1:8105H         LINE#         143
 C1:8105H         LINE#         144
 C1:812EH         LINE#         145
 C1:814AH         LINE#         146
 C1:8173H         LINE#         147
 C1:8178H         LINE#         149
 C1:8198H         LINE#         150
 C1:8198H         LINE#         152
 C1:81B3H         LINE#         153
 C1:81CEH         LINE#         157
 C1:81CEH         LINE#         186
 C1:81E9H         LINE#         188
 C1:81EFH         LINE#         189
 C1:81EFH         LINE#         190
 C1:81FEH         LINE#         191
 C1:820BH         LINE#         192
 C1:8228H         LINE#         193
 C1:822EH         LINE#         194
 C1:824FH         LINE#         195
 C1:8252H         LINE#         198
 C1:8252H         LINE#         200
 C1:825AH         LINE#         201
 C1:8261H         LINE#         202
 C1:82A0H         LINE#         203
 C1:82ADH         LINE#         204
 C1:82BAH         LINE#         205
 C1:82C7H         LINE#         206
 C1:82EEH         LINE#         207
 C1:82EEH         LINE#         208
 C1:82F0H         LINE#         210
BL51 BANKED LINKER/LOCATER V5.03                                                      01/30/2013  19:55:46  PAGE 161


  -------         ENDPROC       _CGI_DIDO
  -------         ENDMOD        DIDOCBK

  -------         MODULE        COMMANDLINE
  C:0000H         SYMBOL        _ICE_DUMMY_
  D:0080H         PUBLIC        P0
  D:0090H         PUBLIC        P1
  D:00A0H         PUBLIC        P2
  D:00B0H         PUBLIC        P3
  D:00E8H         PUBLIC        P4
  X:317EH         PUBLIC        listen_back
 C6:806AH         PUBLIC        command_type
  D:00A8H         PUBLIC        IE
  B:00E8H.0       PUBLIC        P4_0
  B:00E8H.5       PUBLIC        P4_5
  D:00B8H         PUBLIC        IP
  X:317FH         PUBLIC        code_flag
  X:3180H         PUBLIC        flag
  X:3181H         PUBLIC        echo_flag
  X:3182H         PUBLIC        result
 C6:9D66H         PUBLIC        help
  X:3183H         PUBLIC        cmd_flag
  D:0098H         PUBLIC        SCON
  D:0088H         PUBLIC        TCON
  C:273AH         PUBLIC        car
 C6:8F59H         PUBLIC        CLI_Timer
  C:2A3AH         SYMBOL        _?ix1000
  C:274DH         PUBLIC        ans
  C:2A40H         SYMBOL        _?ix1001
  C:2A44H         SYMBOL        _?ix1002
  C:2A62H         SYMBOL        _?ix1003
  C:2A65H         SYMBOL        _?ix1004
 C6:500FH         PUBLIC        command_setting
  B:00A8H.1       PUBLIC        ET0
 C6:9C87H         PUBLIC        _up2lwr
 C6:992EH         PUBLIC        _hex_2_asc
  D:00D8H         PUBLIC        WDTCON
  X:3184H         PUBLIC        tmp
  X:31B6H         PUBLIC        ATD_close
  X:31B7H         PUBLIC        CMD
  X:31BAH         PUBLIC        ATD_flag
  X:31BBH         PUBLIC        ATH_flag
  X:31BCH         PUBLIC        za
  X:31BDH         PUBLIC        ATD_timer
  X:31C1H         PUBLIC        back_2_CLI
  C:275FH         PUBLIC        CLT
  C:2734H         PUBLIC        rs
  X:31C2H         PUBLIC        cmd2
  D:00C8H         PUBLIC        T2CON
  X:31C5H         PUBLIC        ip_info
  C:2748H         PUBLIC        car1
 C6:9C26H         PUBLIC        CLI_init
 C6:8CBAH         PUBLIC        command_info
  C:275AH         PUBLIC        ans1
 C6:96B1H         PUBLIC        ATD_loop
  X:31C6H         PUBLIC        z
  D:00D0H         PUBLIC        PSW
BL51 BANKED LINKER/LOCATER V5.03                                                      01/30/2013  19:55:46  PAGE 162


 C6:9A61H         PUBLIC        re_rorn
 C6:9927H         SYMBOL        L?0960
  -------         PROC          L?0959
  -------         ENDPROC       L?0959
 C6:9927H         SYMBOL        L?0960

  -------         PROC BANK=6   _HEX_2_ASC
  X:34F2H         SYMBOL        value
  -------         DO            
  X:34F4H         SYMBOL        ipset
  X:34FAH         SYMBOL        i
  X:34FEH         SYMBOL        pos
  X:34FFH         SYMBOL        loop
  -------         ENDDO         
 C6:992EH         LINE#         105
 C6:9936H         LINE#         106
 C6:9936H         LINE#         107
 C6:9949H         LINE#         109
 C6:9950H         LINE#         110
 C6:995AH         LINE#         111
 C6:9963H         LINE#         113
 C6:9963H         LINE#         114
 C6:998AH         LINE#         115
 C6:998AH         LINE#         116
 C6:99B4H         LINE#         117
 C6:99B4H         LINE#         118
 C6:99E3H         LINE#         119
 C6:9A09H         LINE#         120
 C6:9A0FH         LINE#         121
 C6:9A15H         LINE#         122
 C6:9A2FH         LINE#         123
 C6:9A2FH         LINE#         124
 C6:9A2FH         LINE#         125
 C6:9A4FH         LINE#         126
 C6:9A4FH         LINE#         127
 C6:9A60H         LINE#         129
  -------         ENDPROC       _HEX_2_ASC

  -------         PROC BANK=6   COMMAND_TYPE
  -------         DO            
  X:3448H         SYMBOL        cmd
  X:344BH         SYMBOL        i
  X:344CH         SYMBOL        tu
  X:344DH         SYMBOL        len
  X:344EH         SYMBOL        Kont
  X:344FH         SYMBOL        Cont
  X:3450H         SYMBOL        atd
  X:3451H         SYMBOL        remote_ip
  X:3455H         SYMBOL        rip
  X:3457H         SYMBOL        loaddef
  -------         ENDDO         
 C6:806AH         LINE#         134
 C6:806AH         LINE#         135
 C6:806AH         LINE#         136
 C6:8078H         LINE#         137
 C6:8085H         LINE#         139
 C6:8097H         LINE#         141
BL51 BANKED LINKER/LOCATER V5.03                                                      01/30/2013  19:55:46  PAGE 163


 C6:809EH         LINE#         142
 C6:80AAH         LINE#         143
 C6:80B0H         LINE#         144
 C6:80B5H         LINE#         145
 C6:80BEH         LINE#         146
 C6:80BEH         LINE#         147
 C6:80D9H         LINE#         148
 C6:80EBH         LINE#         149
 C6:80EBH         LINE#         150
 C6:810DH         LINE#         151
 C6:8157H         LINE#         152
 C6:8157H         LINE#         153
 C6:8164H         LINE#         154
 C6:8164H         LINE#         156
 C6:816CH         LINE#         157
 C6:816CH         LINE#         158
 C6:8175H         LINE#         159
 C6:817EH         LINE#         160
 C6:817EH         LINE#         161
 C6:81C6H         LINE#         162
 C6:81C6H         LINE#         164
 C6:81C6H         LINE#         165
 C6:81D9H         LINE#         166
 C6:81E0H         LINE#         167
 C6:81E0H         LINE#         168
 C6:81E4H         LINE#         169
 C6:821AH         LINE#         170
 C6:8250H         LINE#         171
 C6:8255H         LINE#         172
 C6:825AH         LINE#         173
 C6:825EH         LINE#         174
 C6:8262H         LINE#         175
 C6:8267H         LINE#         176
 C6:826AH         LINE#         180
 C6:826AH         LINE#         181
 C6:8294H         LINE#         182
 C6:8294H         LINE#         183
 C6:82ACH         LINE#         184
 C6:82AFH         LINE#         185
 C6:82AFH         LINE#         186
 C6:82BCH         LINE#         187
 C6:82D0H         LINE#         188
 C6:82D0H         LINE#         189
 C6:82D3H         LINE#         191
 C6:82D3H         LINE#         192
 C6:82D6H         LINE#         194
 C6:82D6H         LINE#         195
 C6:82EEH         LINE#         196
 C6:82F7H         LINE#         197
 C6:82FAH         LINE#         199
 C6:8310H         LINE#         200
 C6:8310H         LINE#         201
 C6:8313H         LINE#         202
 C6:8313H         LINE#         203
 C6:833DH         LINE#         204
 C6:833DH         LINE#         205
 C6:8355H         LINE#         206
BL51 BANKED LINKER/LOCATER V5.03                                                      01/30/2013  19:55:46  PAGE 164


 C6:8358H         LINE#         207
 C6:8358H         LINE#         208
 C6:8365H         LINE#         209
 C6:8382H         LINE#         210
 C6:8382H         LINE#         211
 C6:8385H         LINE#         213
 C6:8385H         LINE#         214
 C6:8388H         LINE#         216
 C6:8388H         LINE#         217
 C6:83A0H         LINE#         218
 C6:83A9H         LINE#         219
 C6:83ACH         LINE#         221
 C6:83C8H         LINE#         222
 C6:83C8H         LINE#         223
 C6:83CBH         LINE#         224
 C6:83CBH         LINE#         225
 C6:83D3H         LINE#         226
 C6:83D3H         LINE#         227
 C6:83D8H         LINE#         228
 C6:83E8H         LINE#         229
 C6:83F3H         LINE#         230
 C6:83F8H         LINE#         231
 C6:83FCH         LINE#         232
 C6:8406H         LINE#         233
 C6:8409H         LINE#         252
 C6:8409H         LINE#         253
 C6:840CH         LINE#         254
 C6:840CH         LINE#         255
 C6:8427H         LINE#         256
 C6:8427H         LINE#         257
 C6:843FH         LINE#         258
 C6:8444H         LINE#         259
 C6:8447H         LINE#         261
 C6:8447H         LINE#         262
 C6:845DH         LINE#         263
 C6:845DH         LINE#         264
 C6:847FH         LINE#         265
 C6:847FH         LINE#         266
 C6:849DH         LINE#         267
 C6:84DFH         LINE#         268
 C6:8519H         LINE#         269
 C6:851BH         LINE#         270
 C6:851BH         LINE#         271
 C6:8524H         LINE#         272
 C6:8530H         LINE#         273
 C6:8530H         LINE#         274
 C6:8533H         LINE#         275
 C6:8533H         LINE#         276
 C6:855CH         LINE#         277
 C6:855CH         LINE#         278
 C6:8562H         LINE#         279
 C6:8566H         LINE#         280
 C6:8569H         LINE#         282
 C6:8569H         LINE#         283
 C6:8569H         LINE#         284
 C6:856CH         LINE#         286
 C6:856CH         LINE#         287
BL51 BANKED LINKER/LOCATER V5.03                                                      01/30/2013  19:55:46  PAGE 165


 C6:856FH         LINE#         288
 C6:856FH         LINE#         289
 C6:8587H         LINE#         290
 C6:858EH         LINE#         291
 C6:858EH         LINE#         292
 C6:85A3H         LINE#         293
 C6:85C4H         LINE#         294
 C6:85C4H         LINE#         295
 C6:85D5H         LINE#         296
 C6:85D5H         LINE#         297
 C6:85D8H         LINE#         298
 C6:85E0H         LINE#         299
 C6:85E0H         LINE#         300
 C6:85E2H         LINE#         302
 C6:85E2H         LINE#         303
 C6:85E5H         LINE#         304
 C6:85F2H         LINE#         305
 C6:85F8H         LINE#         306
 C6:85F8H         LINE#         307
 C6:85FAH         LINE#         308
 C6:8608H         LINE#         309
 C6:8611H         LINE#         311
 C6:8611H         LINE#         312
 C6:8630H         LINE#         313
 C6:8635H         LINE#         314
 C6:863EH         LINE#         315
 C6:863EH         LINE#         317
 C6:8654H         LINE#         318
 C6:8654H         LINE#         319
 C6:866CH         LINE#         320
 C6:8671H         LINE#         321
 C6:8671H         LINE#         323
 C6:867AH         LINE#         324
 C6:8692H         LINE#         325
 C6:8692H         LINE#         326
 C6:8695H         LINE#         328
 C6:8695H         LINE#         329
 C6:8698H         LINE#         331
 C6:8698H         LINE#         332
 C6:86ABH         LINE#         333
 C6:86AEH         LINE#         334
 C6:86B6H         LINE#         336
 C6:86BDH         LINE#         337
 C6:86C0H         LINE#         338
 C6:86C0H         LINE#         339
 C6:86D9H         LINE#         340
 C6:86DCH         LINE#         342
 C6:8705H         LINE#         347
 C6:8705H         LINE#         349
 C6:870AH         LINE#         350
 C6:8740H         LINE#         351
 C6:8776H         LINE#         352
 C6:877BH         LINE#         353
 C6:8780H         LINE#         355
 C6:879EH         LINE#         360
 C6:879EH         LINE#         361
 C6:87ECH         LINE#         362
BL51 BANKED LINKER/LOCATER V5.03                                                      01/30/2013  19:55:46  PAGE 166


 C6:87F3H         LINE#         363
 C6:87F7H         LINE#         364
 C6:87F7H         LINE#         366
 C6:87FAH         LINE#         367
 C6:87FCH         LINE#         369
 C6:87FFH         LINE#         370
 C6:8801H         LINE#         371
 C6:8801H         LINE#         372
 C6:8819H         LINE#         373
 C6:882EH         LINE#         374
 C6:8833H         LINE#         375
 C6:8838H         LINE#         376
 C6:8840H         LINE#         377
 C6:8840H         LINE#         378
 C6:8845H         LINE#         379
 C6:8845H         LINE#         380
 C6:8848H         LINE#         381
 C6:884CH         LINE#         382
 C6:884CH         LINE#         383
 C6:8852H         LINE#         384
 C6:8853H         LINE#         385
 C6:8856H         LINE#         387
 C6:885CH         LINE#         388
 C6:885FH         LINE#         389
 C6:885FH         LINE#         390
 C6:887FH         LINE#         391
 C6:8882H         LINE#         392
 C6:8888H         LINE#         393
 C6:8889H         LINE#         394
 C6:888CH         LINE#         395
 C6:888CH         LINE#         396
 C6:8893H         LINE#         397
 C6:8896H         LINE#         398
 C6:8896H         LINE#         399
 C6:88AEH         LINE#         400
 C6:88C3H         LINE#         401
 C6:88C8H         LINE#         402
 C6:88C8H         LINE#         403
 C6:88DDH         LINE#         404
 C6:88E6H         LINE#         405
 C6:88EFH         LINE#         406
 C6:88FBH         LINE#         408
 C6:890AH         LINE#         409
 C6:890CH         LINE#         411
 C6:8917H         LINE#         412
 C6:8919H         LINE#         413
 C6:8919H         LINE#         414
 C6:891CH         LINE#         415
 C6:891EH         LINE#         416
 C6:891EH         LINE#         417
 C6:8921H         LINE#         418
 C6:8923H         LINE#         419
 C6:8923H         LINE#         420
 C6:8928H         LINE#         421
 C6:892DH         LINE#         422
 C6:8946H         LINE#         423
 C6:8946H         LINE#         424
BL51 BANKED LINKER/LOCATER V5.03                                                      01/30/2013  19:55:46  PAGE 167


 C6:896CH         LINE#         425
 C6:896CH         LINE#         427
 C6:8972H         LINE#         428
 C6:8975H         LINE#         430
 C6:897AH         LINE#         431
 C6:897AH         LINE#         432
 C6:897AH         LINE#         433
 C6:897AH         LINE#         434
 C6:897AH         LINE#         435
 C6:8980H         LINE#         436
 C6:8985H         LINE#         438
 C6:8998H         LINE#         439
 C6:899DH         LINE#         440
 C6:899EH         LINE#         442
 C6:899EH         LINE#         443
 C6:89C0H         LINE#         444
 C6:89CDH         LINE#         445
 C6:89CDH         LINE#         446
 C6:89CDH         LINE#         447
  -------         ENDPROC       COMMAND_TYPE

  -------         PROC BANK=6   COMMAND_SETTING
  -------         DO            
  X:3133H         SYMBOL        i
  X:3134H         SYMBOL        Cont
  X:3135H         SYMBOL        Kont
  X:3136H         SYMBOL        len
  X:3137H         SYMBOL        c_name
  X:3138H         SYMBOL        tu
  X:3139H         SYMBOL        buf_udp
  X:3157H         SYMBOL        ipset
  X:315AH         SYMBOL        re_ip
  X:315EH         SYMBOL        re
  X:315FH         SYMBOL        re_num
  X:3160H         SYMBOL        eep_val
  X:3161H         SYMBOL        re_port
  X:3163H         SYMBOL        ser
  X:3166H         SYMBOL        cli
  X:3169H         SYMBOL        u_l
  X:316CH         SYMBOL        u_n
  X:316FH         SYMBOL        point
  X:3172H         SYMBOL        on
  X:3175H         SYMBOL        off
  X:3178H         SYMBOL        ptr
  X:317BH         SYMBOL        ptd
  -------         ENDDO         
 C6:500FH         LINE#         449
 C6:500FH         LINE#         450
 C6:500FH         LINE#         452
 C6:501EH         LINE#         453
 C6:5030H         LINE#         454
 C6:505DH         LINE#         456
 C6:5063H         LINE#         458
 C6:507BH         LINE#         460
 C6:5093H         LINE#         463
 C6:509FH         LINE#         464
 C6:50B7H         LINE#         466
BL51 BANKED LINKER/LOCATER V5.03                                                      01/30/2013  19:55:46  PAGE 168


 C6:50C3H         LINE#         467
 C6:50CFH         LINE#         469
 C6:50F1H         LINE#         470
 C6:5101H         LINE#         471
 C6:5101H         LINE#         472
 C6:5119H         LINE#         473
 C6:5122H         LINE#         474
 C6:5157H         LINE#         475
 C6:515EH         LINE#         476
 C6:5166H         LINE#         477
 C6:5175H         LINE#         478
 C6:5183H         LINE#         479
 C6:5196H         LINE#         480
 C6:519FH         LINE#         481
 C6:519FH         LINE#         482
 C6:51A5H         LINE#         483
 C6:522BH         LINE#         484
 C6:522BH         LINE#         485
 C6:522BH         LINE#         486
 C6:522EH         LINE#         487
 C6:5237H         LINE#         488
 C6:523AH         LINE#         489
 C6:525FH         LINE#         490
 C6:525FH         LINE#         491
 C6:5266H         LINE#         492
 C6:5266H         LINE#         493
 C6:5273H         LINE#         494
 C6:5279H         LINE#         495
 C6:527CH         LINE#         497
 C6:527CH         LINE#         498
 C6:527FH         LINE#         500
 C6:527FH         LINE#         501
 C6:5292H         LINE#         502
 C6:52C7H         LINE#         503
 C6:52C7H         LINE#         504
 C6:52C7H         LINE#         505
 C6:52CDH         LINE#         506
 C6:52D2H         LINE#         507
 C6:52D4H         LINE#         508
 C6:52D4H         LINE#         509
 C6:52DCH         LINE#         510
 C6:52E7H         LINE#         511
 C6:52E7H         LINE#         512
 C6:52E7H         LINE#         513
 C6:52F6H         LINE#         514
 C6:5311H         LINE#         515
 C6:5323H         LINE#         516
 C6:5349H         LINE#         517
 C6:5353H         LINE#         518
 C6:5366H         LINE#         519
 C6:5366H         LINE#         520
 C6:5366H         LINE#         521
 C6:5369H         LINE#         522
 C6:5369H         LINE#         523
 C6:536CH         LINE#         524
 C6:5375H         LINE#         525
 C6:5378H         LINE#         526
BL51 BANKED LINKER/LOCATER V5.03                                                      01/30/2013  19:55:46  PAGE 169


 C6:539DH         LINE#         527
 C6:539DH         LINE#         528
 C6:53A4H         LINE#         529
 C6:53A4H         LINE#         530
 C6:53B1H         LINE#         531
 C6:53B9H         LINE#         532
 C6:53BCH         LINE#         534
 C6:53BCH         LINE#         535
 C6:53BFH         LINE#         537
 C6:53BFH         LINE#         538
 C6:53D2H         LINE#         539
 C6:5407H         LINE#         540
 C6:5407H         LINE#         541
 C6:5407H         LINE#         542
 C6:540DH         LINE#         543
 C6:5412H         LINE#         544
 C6:5414H         LINE#         545
 C6:5414H         LINE#         546
 C6:541CH         LINE#         547
 C6:5427H         LINE#         548
 C6:5427H         LINE#         549
 C6:5427H         LINE#         550
 C6:5436H         LINE#         551
 C6:5451H         LINE#         552
 C6:5463H         LINE#         553
 C6:5489H         LINE#         554
 C6:5493H         LINE#         555
 C6:54A6H         LINE#         556
 C6:54A6H         LINE#         557
 C6:54A6H         LINE#         558
 C6:54A9H         LINE#         559
 C6:54A9H         LINE#         560
 C6:54AFH         LINE#         561
 C6:54B2H         LINE#         562
 C6:54DAH         LINE#         563
 C6:54DAH         LINE#         564
 C6:54E2H         LINE#         565
 C6:54E2H         LINE#         566
 C6:54EEH         LINE#         567
 C6:5500H         LINE#         568
 C6:5500H         LINE#         569
 C6:5507H         LINE#         570
 C6:5518H         LINE#         572
 C6:552AH         LINE#         573
 C6:552DH         LINE#         574
 C6:5555H         LINE#         575
 C6:555DH         LINE#         576
 C6:555DH         LINE#         578
 C6:555DH         LINE#         579
 C6:5560H         LINE#         580
 C6:5574H         LINE#         581
 C6:5577H         LINE#         583
 C6:5577H         LINE#         584
 C6:558AH         LINE#         585
 C6:55AEH         LINE#         586
 C6:55AEH         LINE#         587
 C6:55AEH         LINE#         588
BL51 BANKED LINKER/LOCATER V5.03                                                      01/30/2013  19:55:46  PAGE 170


 C6:55B4H         LINE#         589
 C6:55B9H         LINE#         590
 C6:55BBH         LINE#         591
 C6:55BBH         LINE#         592
 C6:55C3H         LINE#         593
 C6:55CEH         LINE#         594
 C6:55CEH         LINE#         595
 C6:55CEH         LINE#         596
 C6:55E3H         LINE#         597
 C6:55E3H         LINE#         598
 C6:55F2H         LINE#         599
 C6:5611H         LINE#         600
 C6:5611H         LINE#         601
 C6:5620H         LINE#         602
 C6:5626H         LINE#         603
 C6:5626H         LINE#         604
 C6:5656H         LINE#         605
 C6:565FH         LINE#         606
 C6:567FH         LINE#         607
 C6:5685H         LINE#         608
 C6:5687H         LINE#         609
 C6:5687H         LINE#         610
 C6:569FH         LINE#         611
 C6:56A5H         LINE#         612
 C6:56A5H         LINE#         613
 C6:56A5H         LINE#         614
 C6:56AEH         LINE#         615
 C6:56FAH         LINE#         616
 C6:5700H         LINE#         617
 C6:5702H         LINE#         618
 C6:5702H         LINE#         619
 C6:572CH         LINE#         620
 C6:572CH         LINE#         621
 C6:573AH         LINE#         622
 C6:573DH         LINE#         624
 C6:573DH         LINE#         625
 C6:5742H         LINE#         626
 C6:5767H         LINE#         627
 C6:5767H         LINE#         628
 C6:5767H         LINE#         629
 C6:5767H         LINE#         630
 C6:576AH         LINE#         631
 C6:576AH         LINE#         632
 C6:5770H         LINE#         633
 C6:5773H         LINE#         634
 C6:579BH         LINE#         635
 C6:579BH         LINE#         636
 C6:57A3H         LINE#         637
 C6:57A3H         LINE#         638
 C6:57AFH         LINE#         639
 C6:57C1H         LINE#         640
 C6:57C1H         LINE#         641
 C6:57C8H         LINE#         642
 C6:57D9H         LINE#         644
 C6:57EBH         LINE#         645
 C6:57EEH         LINE#         646
 C6:5816H         LINE#         647
BL51 BANKED LINKER/LOCATER V5.03                                                      01/30/2013  19:55:46  PAGE 171


 C6:581EH         LINE#         648
 C6:581EH         LINE#         650
 C6:581EH         LINE#         651
 C6:5821H         LINE#         652
 C6:5835H         LINE#         653
 C6:5838H         LINE#         655
 C6:5838H         LINE#         656
 C6:584BH         LINE#         657
 C6:586FH         LINE#         658
 C6:586FH         LINE#         659
 C6:586FH         LINE#         660
 C6:5875H         LINE#         661
 C6:587AH         LINE#         662
 C6:587CH         LINE#         663
 C6:587CH         LINE#         664
 C6:5884H         LINE#         665
 C6:5899H         LINE#         666
 C6:5899H         LINE#         667
 C6:58A8H         LINE#         668
 C6:58C7H         LINE#         669
 C6:58C7H         LINE#         670
 C6:58D6H         LINE#         671
 C6:58DCH         LINE#         672
 C6:58DCH         LINE#         673
 C6:590CH         LINE#         674
 C6:5915H         LINE#         675
 C6:5935H         LINE#         676
 C6:593BH         LINE#         677
 C6:593DH         LINE#         678
 C6:593DH         LINE#         679
 C6:5955H         LINE#         680
 C6:595BH         LINE#         681
 C6:595BH         LINE#         682
 C6:595BH         LINE#         683
 C6:5964H         LINE#         684
 C6:59B0H         LINE#         685
 C6:59B6H         LINE#         686
 C6:59B8H         LINE#         687
 C6:59B8H         LINE#         688
 C6:59E2H         LINE#         689
 C6:59E2H         LINE#         690
 C6:59F0H         LINE#         691
 C6:59F3H         LINE#         693
 C6:59F3H         LINE#         694
 C6:59F8H         LINE#         695
 C6:5A1DH         LINE#         696
 C6:5A1DH         LINE#         697
 C6:5A1DH         LINE#         698
 C6:5A1DH         LINE#         699
 C6:5A20H         LINE#         700
 C6:5A20H         LINE#         701
 C6:5A26H         LINE#         702
 C6:5A29H         LINE#         703
 C6:5A51H         LINE#         704
 C6:5A51H         LINE#         705
 C6:5A59H         LINE#         706
 C6:5A59H         LINE#         707
BL51 BANKED LINKER/LOCATER V5.03                                                      01/30/2013  19:55:46  PAGE 172


 C6:5A65H         LINE#         708
 C6:5A77H         LINE#         709
 C6:5A77H         LINE#         710
 C6:5A7EH         LINE#         711
 C6:5A8FH         LINE#         713
 C6:5AA1H         LINE#         714
 C6:5AA4H         LINE#         715
 C6:5ACCH         LINE#         716
 C6:5AD4H         LINE#         717
 C6:5AD4H         LINE#         719
 C6:5AD4H         LINE#         720
 C6:5AD7H         LINE#         721
 C6:5AEBH         LINE#         722
 C6:5AEEH         LINE#         724
 C6:5AEEH         LINE#         725
 C6:5B01H         LINE#         726
 C6:5B25H         LINE#         727
 C6:5B25H         LINE#         728
 C6:5B25H         LINE#         729
 C6:5B2BH         LINE#         730
 C6:5B30H         LINE#         731
 C6:5B32H         LINE#         732
 C6:5B32H         LINE#         733
 C6:5B3AH         LINE#         734
 C6:5B4FH         LINE#         735
 C6:5B4FH         LINE#         736
 C6:5B5EH         LINE#         737
 C6:5B7DH         LINE#         738
 C6:5B7DH         LINE#         739
 C6:5B8CH         LINE#         740
 C6:5B92H         LINE#         741
 C6:5B92H         LINE#         742
 C6:5BC2H         LINE#         743
 C6:5BCBH         LINE#         744
 C6:5BEBH         LINE#         745
 C6:5BF1H         LINE#         746
 C6:5BF3H         LINE#         747
 C6:5BF3H         LINE#         748
 C6:5C0BH         LINE#         749
 C6:5C11H         LINE#         750
 C6:5C11H         LINE#         751
 C6:5C11H         LINE#         752
 C6:5C1AH         LINE#         753
 C6:5C66H         LINE#         754
 C6:5C6CH         LINE#         755
 C6:5C6EH         LINE#         756
 C6:5C6EH         LINE#         757
 C6:5C98H         LINE#         758
 C6:5C98H         LINE#         759
 C6:5CA6H         LINE#         760
 C6:5CA9H         LINE#         762
 C6:5CA9H         LINE#         763
 C6:5CAEH         LINE#         764
 C6:5CD3H         LINE#         765
 C6:5CD3H         LINE#         766
 C6:5CD3H         LINE#         767
 C6:5CD3H         LINE#         768
BL51 BANKED LINKER/LOCATER V5.03                                                      01/30/2013  19:55:46  PAGE 173


 C6:5CD6H         LINE#         769
 C6:5CD6H         LINE#         770
 C6:5CDCH         LINE#         771
 C6:5CDFH         LINE#         772
 C6:5D07H         LINE#         773
 C6:5D07H         LINE#         774
 C6:5D0FH         LINE#         775
 C6:5D0FH         LINE#         776
 C6:5D1BH         LINE#         777
 C6:5D2DH         LINE#         778
 C6:5D2DH         LINE#         779
 C6:5D34H         LINE#         780
 C6:5D45H         LINE#         782
 C6:5D57H         LINE#         783
 C6:5D5AH         LINE#         784
 C6:5D82H         LINE#         785
 C6:5D8AH         LINE#         786
 C6:5D8AH         LINE#         788
 C6:5D8AH         LINE#         789
 C6:5D8DH         LINE#         790
 C6:5DA1H         LINE#         791
 C6:5DA4H         LINE#         793
 C6:5DA4H         LINE#         794
 C6:5DB7H         LINE#         795
 C6:5DDBH         LINE#         796
 C6:5DDBH         LINE#         797
 C6:5DDBH         LINE#         798
 C6:5DE1H         LINE#         799
 C6:5DE6H         LINE#         800
 C6:5DE8H         LINE#         801
 C6:5DE8H         LINE#         802
 C6:5DF0H         LINE#         803
 C6:5E05H         LINE#         804
 C6:5E05H         LINE#         805
 C6:5E14H         LINE#         806
 C6:5E33H         LINE#         807
 C6:5E33H         LINE#         808
 C6:5E42H         LINE#         809
 C6:5E48H         LINE#         810
 C6:5E48H         LINE#         811
 C6:5E78H         LINE#         812
 C6:5E81H         LINE#         813
 C6:5EA1H         LINE#         814
 C6:5EA7H         LINE#         815
 C6:5EA9H         LINE#         816
 C6:5EA9H         LINE#         817
 C6:5EC1H         LINE#         818
 C6:5EC7H         LINE#         819
 C6:5EC7H         LINE#         820
 C6:5EC7H         LINE#         821
 C6:5ED0H         LINE#         822
 C6:5F1CH         LINE#         823
 C6:5F22H         LINE#         824
 C6:5F24H         LINE#         825
 C6:5F24H         LINE#         826
 C6:5F4EH         LINE#         827
 C6:5F4EH         LINE#         828
BL51 BANKED LINKER/LOCATER V5.03                                                      01/30/2013  19:55:46  PAGE 174


 C6:5F5CH         LINE#         829
 C6:5F5FH         LINE#         831
 C6:5F5FH         LINE#         832
 C6:5F64H         LINE#         833
 C6:5F89H         LINE#         834
 C6:5F89H         LINE#         835
 C6:5F89H         LINE#         836
 C6:5F89H         LINE#         837
 C6:5F8CH         LINE#         838
 C6:5F8CH         LINE#         839
 C6:5F8FH         LINE#         840
 C6:5FB4H         LINE#         841
 C6:5FB4H         LINE#         842
 C6:5FBCH         LINE#         843
 C6:5FBCH         LINE#         844
 C6:5FC8H         LINE#         845
 C6:5FCEH         LINE#         846
 C6:5FE5H         LINE#         848
 C6:6002H         LINE#         849
 C6:6005H         LINE#         851
 C6:6005H         LINE#         852
 C6:6008H         LINE#         853
 C6:601CH         LINE#         854
 C6:601FH         LINE#         855
 C6:6045H         LINE#         856
 C6:6045H         LINE#         857
 C6:604CH         LINE#         858
 C6:604CH         LINE#         859
 C6:6052H         LINE#         860
 C6:605AH         LINE#         861
 C6:605FH         LINE#         862
 C6:6062H         LINE#         864
 C6:6069H         LINE#         865
 C6:606CH         LINE#         866
 C6:6092H         LINE#         867
 C6:6092H         LINE#         868
 C6:6099H         LINE#         869
 C6:6099H         LINE#         870
 C6:609EH         LINE#         871
 C6:60A5H         LINE#         872
 C6:60AAH         LINE#         873
 C6:60ACH         LINE#         875
 C6:60B3H         LINE#         876
 C6:60B6H         LINE#         878
 C6:60BDH         LINE#         879
 C6:60C0H         LINE#         880
 C6:60C0H         LINE#         881
 C6:60E5H         LINE#         882
 C6:60E5H         LINE#         883
 C6:60ECH         LINE#         884
 C6:60ECH         LINE#         885
 C6:60F9H         LINE#         886
 C6:6103H         LINE#         887
 C6:6106H         LINE#         889
 C6:610DH         LINE#         890
 C6:6110H         LINE#         891
 C6:6125H         LINE#         892
BL51 BANKED LINKER/LOCATER V5.03                                                      01/30/2013  19:55:46  PAGE 175


 C6:6125H         LINE#         893
 C6:6138H         LINE#         894
 C6:6179H         LINE#         895
 C6:6179H         LINE#         896
 C6:6179H         LINE#         897
 C6:617FH         LINE#         898
 C6:6184H         LINE#         899
 C6:6186H         LINE#         900
 C6:6186H         LINE#         901
 C6:618EH         LINE#         902
 C6:6199H         LINE#         903
 C6:6199H         LINE#         904
 C6:6199H         LINE#         905
 C6:61A8H         LINE#         906
 C6:61C3H         LINE#         907
 C6:61D5H         LINE#         908
 C6:61FBH         LINE#         909
 C6:6205H         LINE#         910
 C6:6218H         LINE#         911
 C6:621DH         LINE#         912
 C6:6220H         LINE#         914
 C6:6227H         LINE#         915
 C6:622AH         LINE#         917
 C6:622AH         LINE#         918
 C6:622DH         LINE#         919
 C6:6255H         LINE#         920
 C6:6255H         LINE#         921
 C6:6260H         LINE#         922
 C6:6260H         LINE#         923
 C6:626CH         LINE#         925
 C6:628AH         LINE#         930
 C6:62A1H         LINE#         932
 C6:62B8H         LINE#         933
 C6:62CFH         LINE#         934
 C6:62EAH         LINE#         935
 C6:630AH         LINE#         940
 C6:630DH         LINE#         944
 C6:6321H         LINE#         945
 C6:6324H         LINE#         946
 C6:634AH         LINE#         947
 C6:634AH         LINE#         948
 C6:6351H         LINE#         949
 C6:6367H         LINE#         950
 C6:636CH         LINE#         951
 C6:6370H         LINE#         952
 C6:6375H         LINE#         953
 C6:6378H         LINE#         954
 C6:6378H         LINE#         955
 C6:637BH         LINE#         957
 C6:63A1H         LINE#         958
 C6:63A1H         LINE#         959
 C6:63A8H         LINE#         960
 C6:63A8H         LINE#         961
 C6:63BBH         LINE#         962
 C6:63BBH         LINE#         963
 C6:63BBH         LINE#         964
 C6:63BBH         LINE#         965
BL51 BANKED LINKER/LOCATER V5.03                                                      01/30/2013  19:55:46  PAGE 176


 C6:63BDH         LINE#         966
 C6:63BDH         LINE#         967
 C6:63BFH         LINE#         968
 C6:63E5H         LINE#         969
 C6:63E5H         LINE#         970
 C6:63ECH         LINE#         971
 C6:63ECH         LINE#         972
 C6:6402H         LINE#         973
 C6:6408H         LINE#         974
 C6:640DH         LINE#         975
 C6:6412H         LINE#         976
 C6:6414H         LINE#         977
 C6:6414H         LINE#         978
 C6:6416H         LINE#         993
 C6:6421H         LINE#         994
 C6:642AH         LINE#         995
 C6:642AH         LINE#         996
 C6:642AH         LINE#         997
 C6:642DH         LINE#         999
 C6:642DH         LINE#         1000
 C6:6430H         LINE#         1001
 C6:6455H         LINE#         1002
 C6:6455H         LINE#         1003
 C6:6460H         LINE#         1004
 C6:6460H         LINE#         1005
 C6:646CH         LINE#         1006
 C6:6485H         LINE#         1007
 C6:6494H         LINE#         1009
 C6:64A6H         LINE#         1010
 C6:64A9H         LINE#         1014
 C6:64CFH         LINE#         1015
 C6:64CFH         LINE#         1016
 C6:64F6H         LINE#         1017
 C6:64FDH         LINE#         1018
 C6:64FFH         LINE#         1019
 C6:6525H         LINE#         1020
 C6:6525H         LINE#         1021
 C6:654BH         LINE#         1022
 C6:6552H         LINE#         1023
 C6:6554H         LINE#         1025
 C6:655FH         LINE#         1026
 C6:6568H         LINE#         1027
 C6:6568H         LINE#         1028
 C6:6568H         LINE#         1029
 C6:656BH         LINE#         1031
 C6:656BH         LINE#         1032
 C6:6590H         LINE#         1033
 C6:6590H         LINE#         1034
 C6:6597H         LINE#         1035
 C6:6597H         LINE#         1036
 C6:65A4H         LINE#         1037
 C6:65B8H         LINE#         1038
 C6:65BBH         LINE#         1040
 C6:65C2H         LINE#         1041
 C6:65C5H         LINE#         1042
 C6:65D9H         LINE#         1043
 C6:65E3H         LINE#         1044
BL51 BANKED LINKER/LOCATER V5.03                                                      01/30/2013  19:55:46  PAGE 177


 C6:65F8H         LINE#         1045
 C6:65F8H         LINE#         1046
 C6:660BH         LINE#         1047
 C6:662AH         LINE#         1048
 C6:662AH         LINE#         1049
 C6:662AH         LINE#         1050
 C6:6630H         LINE#         1051
 C6:6635H         LINE#         1052
 C6:6637H         LINE#         1053
 C6:6637H         LINE#         1054
 C6:663FH         LINE#         1055
 C6:6643H         LINE#         1056
 C6:6656H         LINE#         1057
 C6:665CH         LINE#         1058
 C6:6661H         LINE#         1059
 C6:6661H         LINE#         1060
 C6:6661H         LINE#         1061
 C6:668DH         LINE#         1062
 C6:6693H         LINE#         1063
 C6:6698H         LINE#         1064
 C6:6698H         LINE#         1065
 C6:66A3H         LINE#         1066
 C6:66A3H         LINE#         1067
 C6:66A3H         LINE#         1068
 C6:66CBH         LINE#         1069
 C6:66D4H         LINE#         1070
 C6:66D9H         LINE#         1071
 C6:66D9H         LINE#         1072
 C6:66D9H         LINE#         1073
 C6:66DCH         LINE#         1075
 C6:66E3H         LINE#         1076
 C6:66E6H         LINE#         1077
 C6:66E6H         LINE#         1078
 C6:670BH         LINE#         1079
 C6:670BH         LINE#         1080
 C6:6712H         LINE#         1081
 C6:6712H         LINE#         1082
 C6:671FH         LINE#         1083
 C6:6733H         LINE#         1084
 C6:6736H         LINE#         1086
 C6:673DH         LINE#         1087
 C6:6740H         LINE#         1088
 C6:6754H         LINE#         1089
 C6:675EH         LINE#         1090
 C6:6773H         LINE#         1091
 C6:6773H         LINE#         1092
 C6:6786H         LINE#         1093
 C6:67BAH         LINE#         1094
 C6:67BAH         LINE#         1095
 C6:67BAH         LINE#         1096
 C6:67C0H         LINE#         1097
 C6:67C5H         LINE#         1098
 C6:67C7H         LINE#         1099
 C6:67C7H         LINE#         1100
 C6:67CFH         LINE#         1101
 C6:67D6H         LINE#         1102
 C6:67E9H         LINE#         1103
BL51 BANKED LINKER/LOCATER V5.03                                                      01/30/2013  19:55:46  PAGE 178


 C6:67EFH         LINE#         1104
 C6:67F4H         LINE#         1105
 C6:67F4H         LINE#         1106
 C6:67F4H         LINE#         1107
 C6:6820H         LINE#         1108
 C6:6826H         LINE#         1109
 C6:682BH         LINE#         1110
 C6:682BH         LINE#         1111
 C6:6836H         LINE#         1112
 C6:6836H         LINE#         1113
 C6:6836H         LINE#         1114
 C6:685EH         LINE#         1115
 C6:6867H         LINE#         1116
 C6:686CH         LINE#         1117
 C6:686CH         LINE#         1118
 C6:686CH         LINE#         1119
 C6:686FH         LINE#         1121
 C6:6876H         LINE#         1122
 C6:6879H         LINE#         1123
 C6:6879H         LINE#         1124
 C6:68A1H         LINE#         1125
 C6:68A1H         LINE#         1126
 C6:68A9H         LINE#         1127
 C6:68A9H         LINE#         1128
 C6:68B5H         LINE#         1129
 C6:68C7H         LINE#         1130
 C6:68C7H         LINE#         1131
 C6:68EEH         LINE#         1132
 C6:68F3H         LINE#         1133
 C6:691BH         LINE#         1134
 C6:6923H         LINE#         1135
 C6:6923H         LINE#         1137
 C6:692AH         LINE#         1138
 C6:692DH         LINE#         1139
 C6:6941H         LINE#         1140
 C6:694BH         LINE#         1141
 C6:6951H         LINE#         1142
 C6:695AH         LINE#         1144
 C6:695AH         LINE#         1145
 C6:696DH         LINE#         1146
 C6:6991H         LINE#         1147
 C6:6991H         LINE#         1148
 C6:6991H         LINE#         1149
 C6:6997H         LINE#         1150
 C6:699CH         LINE#         1151
 C6:699EH         LINE#         1152
 C6:699EH         LINE#         1153
 C6:69A6H         LINE#         1154
 C6:69B1H         LINE#         1155
 C6:69B1H         LINE#         1156
 C6:69B1H         LINE#         1157
 C6:69C6H         LINE#         1158
 C6:69C6H         LINE#         1159
 C6:69D5H         LINE#         1160
 C6:69F4H         LINE#         1161
 C6:69F4H         LINE#         1162
 C6:6A03H         LINE#         1163
BL51 BANKED LINKER/LOCATER V5.03                                                      01/30/2013  19:55:46  PAGE 179


 C6:6A09H         LINE#         1164
 C6:6A09H         LINE#         1165
 C6:6A39H         LINE#         1166
 C6:6A42H         LINE#         1167
 C6:6A62H         LINE#         1168
 C6:6A68H         LINE#         1169
 C6:6A6AH         LINE#         1170
 C6:6A6AH         LINE#         1171
 C6:6A82H         LINE#         1172
 C6:6A88H         LINE#         1173
 C6:6A88H         LINE#         1174
 C6:6A88H         LINE#         1175
 C6:6A91H         LINE#         1176
 C6:6ADDH         LINE#         1177
 C6:6AE3H         LINE#         1178
 C6:6AE5H         LINE#         1179
 C6:6AE5H         LINE#         1180
 C6:6B0FH         LINE#         1181
 C6:6B0FH         LINE#         1182
 C6:6B1DH         LINE#         1183
 C6:6B26H         LINE#         1185
 C6:6B26H         LINE#         1186
 C6:6B2BH         LINE#         1187
 C6:6B69H         LINE#         1188
 C6:6B81H         LINE#         1189
 C6:6B8AH         LINE#         1190
 C6:6B8AH         LINE#         1191
 C6:6B93H         LINE#         1192
 C6:6B93H         LINE#         1193
 C6:6B93H         LINE#         1194
 C6:6B93H         LINE#         1195
 C6:6B96H         LINE#         1196
 C6:6B96H         LINE#         1197
 C6:6BBBH         LINE#         1198
 C6:6BBBH         LINE#         1199
 C6:6BC2H         LINE#         1200
 C6:6BC2H         LINE#         1201
 C6:6BCFH         LINE#         1202
 C6:6BE3H         LINE#         1203
 C6:6BE6H         LINE#         1205
 C6:6BEDH         LINE#         1206
 C6:6BF0H         LINE#         1207
 C6:6BF9H         LINE#         1208
 C6:6BF9H         LINE#         1209
 C6:6C21H         LINE#         1210
 C6:6C26H         LINE#         1211
 C6:6C2AH         LINE#         1212
 C6:6C2AH         LINE#         1213
 C6:6C2DH         LINE#         1215
 C6:6C34H         LINE#         1216
 C6:6C37H         LINE#         1217
 C6:6C37H         LINE#         1218
 C6:6C5CH         LINE#         1219
 C6:6C5CH         LINE#         1220
 C6:6C63H         LINE#         1221
 C6:6C63H         LINE#         1222
 C6:6C70H         LINE#         1223
BL51 BANKED LINKER/LOCATER V5.03                                                      01/30/2013  19:55:46  PAGE 180


 C6:6C8AH         LINE#         1224
 C6:6C8DH         LINE#         1226
 C6:6C94H         LINE#         1227
 C6:6C97H         LINE#         1228
 C6:6CA0H         LINE#         1229
 C6:6CA0H         LINE#         1230
 C6:6CC8H         LINE#         1231
 C6:6CCDH         LINE#         1232
 C6:6CD1H         LINE#         1233
 C6:6CDFH         LINE#         1234
 C6:6CE2H         LINE#         1236
 C6:6CE9H         LINE#         1237
 C6:6CECH         LINE#         1240
 C6:6CECH         LINE#         1241
 C6:6D11H         LINE#         1242
 C6:6D11H         LINE#         1243
 C6:6D18H         LINE#         1244
 C6:6D18H         LINE#         1245
 C6:6D25H         LINE#         1246
 C6:6D2DH         LINE#         1247
 C6:6D30H         LINE#         1249
 C6:6D37H         LINE#         1250
 C6:6D3AH         LINE#         1251
 C6:6D4EH         LINE#         1252
 C6:6D58H         LINE#         1253
 C6:6D6DH         LINE#         1254
 C6:6D6DH         LINE#         1255
 C6:6D80H         LINE#         1256
 C6:6DB4H         LINE#         1257
 C6:6DB4H         LINE#         1258
 C6:6DB4H         LINE#         1259
 C6:6DBAH         LINE#         1260
 C6:6DBFH         LINE#         1261
 C6:6DC1H         LINE#         1262
 C6:6DC1H         LINE#         1263
 C6:6DC9H         LINE#         1264
 C6:6DD0H         LINE#         1265
 C6:6DE3H         LINE#         1266
 C6:6DE9H         LINE#         1267
 C6:6DEEH         LINE#         1268
 C6:6DEEH         LINE#         1269
 C6:6DEEH         LINE#         1270
 C6:6E1AH         LINE#         1271
 C6:6E20H         LINE#         1272
 C6:6E25H         LINE#         1273
 C6:6E25H         LINE#         1274
 C6:6E30H         LINE#         1275
 C6:6E30H         LINE#         1276
 C6:6E30H         LINE#         1277
 C6:6E46H         LINE#         1278
 C6:6E53H         LINE#         1279
 C6:6E58H         LINE#         1280
 C6:6E58H         LINE#         1281
 C6:6E5BH         LINE#         1283
 C6:6E62H         LINE#         1284
 C6:6E65H         LINE#         1285
 C6:6E65H         LINE#         1286
BL51 BANKED LINKER/LOCATER V5.03                                                      01/30/2013  19:55:46  PAGE 181


 C6:6E68H         LINE#         1287
 C6:6E90H         LINE#         1288
 C6:6E90H         LINE#         1289
 C6:6E9BH         LINE#         1290
 C6:6E9BH         LINE#         1291
 C6:6EACH         LINE#         1292
 C6:6EACH         LINE#         1293
 C6:6EB7H         LINE#         1294
 C6:6EC4H         LINE#         1295
 C6:6ECBH         LINE#         1296
 C6:6ECBH         LINE#         1297
 C6:6ED8H         LINE#         1298
 C6:6EE0H         LINE#         1299
 C6:6EE2H         LINE#         1301
 C6:6EEFH         LINE#         1302
 C6:6F2CH         LINE#         1303
 C6:6F35H         LINE#         1304
 C6:6F35H         LINE#         1306
 C6:6F3CH         LINE#         1307
 C6:6F3FH         LINE#         1308
 C6:6F53H         LINE#         1309
 C6:6F5DH         LINE#         1310
 C6:6F63H         LINE#         1311
 C6:6F6CH         LINE#         1313
 C6:6F6CH         LINE#         1314
 C6:6F82H         LINE#         1315
 C6:6F82H         LINE#         1316
 C6:6F99H         LINE#         1317
 C6:6F99H         LINE#         1318
 C6:6FC0H         LINE#         1319
 C6:6FC6H         LINE#         1320
 C6:6FC6H         LINE#         1321
 C6:6FF4H         LINE#         1322
 C6:6FF6H         LINE#         1323
 C6:6FF6H         LINE#         1324
 C6:6FFFH         LINE#         1325
 C6:7012H         LINE#         1326
 C6:7018H         LINE#         1327
 C6:7019H         LINE#         1328
 C6:701CH         LINE#         1329
 C6:701CH         LINE#         1330
 C6:7032H         LINE#         1331
 C6:7032H         LINE#         1332
 C6:7059H         LINE#         1333
 C6:7093H         LINE#         1334
 C6:70B4H         LINE#         1335
 C6:70B9H         LINE#         1336
 C6:70BDH         LINE#         1337
 C6:70C7H         LINE#         1338
 C6:70CAH         LINE#         1340
 C6:70D1H         LINE#         1341
 C6:70D1H         LINE#         1342
 C6:70D4H         LINE#         1343
 C6:70D4H         LINE#         1344
 C6:70FCH         LINE#         1345
 C6:70FCH         LINE#         1346
 C6:7107H         LINE#         1347
BL51 BANKED LINKER/LOCATER V5.03                                                      01/30/2013  19:55:46  PAGE 182


 C6:7107H         LINE#         1348
 C6:7118H         LINE#         1349
 C6:7118H         LINE#         1350
 C6:7123H         LINE#         1351
 C6:7130H         LINE#         1352
 C6:7137H         LINE#         1353
 C6:7137H         LINE#         1354
 C6:7144H         LINE#         1355
 C6:714CH         LINE#         1356
 C6:714EH         LINE#         1358
 C6:715BH         LINE#         1359
 C6:7180H         LINE#         1360
 C6:7188H         LINE#         1361
 C6:7188H         LINE#         1363
 C6:718FH         LINE#         1364
 C6:7192H         LINE#         1365
 C6:71A6H         LINE#         1366
 C6:71B0H         LINE#         1367
 C6:71B9H         LINE#         1368
 C6:71C3H         LINE#         1370
 C6:71C3H         LINE#         1371
 C6:71D9H         LINE#         1372
 C6:71D9H         LINE#         1373
 C6:71F3H         LINE#         1374
 C6:71F3H         LINE#         1375
 C6:71F8H         LINE#         1376
 C6:720EH         LINE#         1377
 C6:7218H         LINE#         1378
 C6:721EH         LINE#         1379
 C6:721EH         LINE#         1380
 C6:7220H         LINE#         1381
 C6:7227H         LINE#         1382
 C6:7230H         LINE#         1383
 C6:7235H         LINE#         1384
 C6:7235H         LINE#         1385
 C6:7235H         LINE#         1386
 C6:7296H         LINE#         1387
 C6:72A7H         LINE#         1388
 C6:72A9H         LINE#         1389
 C6:72A9H         LINE#         1390
 C6:72AEH         LINE#         1391
 C6:72AEH         LINE#         1392
 C6:72B0H         LINE#         1393
 C6:72B0H         LINE#         1395
 C6:72B9H         LINE#         1396
 C6:72C9H         LINE#         1397
 C6:72CEH         LINE#         1398
 C6:72D4H         LINE#         1399
 C6:72D4H         LINE#         1400
 C6:72F5H         LINE#         1401
 C6:731FH         LINE#         1402
 C6:7324H         LINE#         1403
 C6:7328H         LINE#         1404
 C6:7331H         LINE#         1405
 C6:7334H         LINE#         1407
 C6:733BH         LINE#         1408
 C6:733BH         LINE#         1409
BL51 BANKED LINKER/LOCATER V5.03                                                      01/30/2013  19:55:46  PAGE 183


 C6:733EH         LINE#         1412
 C6:733EH         LINE#         1413
 C6:7363H         LINE#         1414
 C6:7363H         LINE#         1415
 C6:736EH         LINE#         1416
 C6:736EH         LINE#         1417
 C6:737AH         LINE#         1418
 C6:73A3H         LINE#         1419
 C6:73A6H         LINE#         1423
 C6:73CCH         LINE#         1424
 C6:73CCH         LINE#         1425
 C6:73D3H         LINE#         1426
 C6:73D3H         LINE#         1427
 C6:73E8H         LINE#         1428
 C6:73EAH         LINE#         1429
 C6:73ECH         LINE#         1430
 C6:73EEH         LINE#         1431
 C6:73F2H         LINE#         1432
 C6:73F5H         LINE#         1434
 C6:73FCH         LINE#         1435
 C6:73FFH         LINE#         1436
 C6:7425H         LINE#         1437
 C6:7425H         LINE#         1438
 C6:742CH         LINE#         1439
 C6:742CH         LINE#         1440
 C6:7442H         LINE#         1441
 C6:7444H         LINE#         1442
 C6:7446H         LINE#         1443
 C6:7448H         LINE#         1444
 C6:744DH         LINE#         1445
 C6:744FH         LINE#         1447
 C6:7456H         LINE#         1448
 C6:7458H         LINE#         1449
 C6:747EH         LINE#         1450
 C6:747EH         LINE#         1451
 C6:7485H         LINE#         1452
 C6:7485H         LINE#         1453
 C6:749BH         LINE#         1454
 C6:749DH         LINE#         1455
 C6:749FH         LINE#         1456
 C6:74A4H         LINE#         1457
 C6:74A6H         LINE#         1459
 C6:74ADH         LINE#         1460
 C6:74AFH         LINE#         1462
 C6:74BAH         LINE#         1463
 C6:74C3H         LINE#         1464
 C6:74D8H         LINE#         1465
 C6:74D8H         LINE#         1466
 C6:74DBH         LINE#         1467
 C6:74DBH         LINE#         1468
 C6:7500H         LINE#         1469
 C6:7500H         LINE#         1470
 C6:7508H         LINE#         1471
 C6:7508H         LINE#         1472
 C6:7514H         LINE#         1473
 C6:7556H         LINE#         1474
 C6:7559H         LINE#         1476
BL51 BANKED LINKER/LOCATER V5.03                                                      01/30/2013  19:55:46  PAGE 184


 C6:7560H         LINE#         1477
 C6:7563H         LINE#         1478
 C6:7577H         LINE#         1479
 C6:7581H         LINE#         1480
 C6:758DH         LINE#         1481
 C6:758DH         LINE#         1482
 C6:7598H         LINE#         1483
 C6:75A9H         LINE#         1484
 C6:75A9H         LINE#         1485
 C6:75D5H         LINE#         1486
 C6:75D5H         LINE#         1487
 C6:75F2H         LINE#         1488
 C6:761DH         LINE#         1489
 C6:7622H         LINE#         1490
 C6:763AH         LINE#         1491
 C6:763AH         LINE#         1492
 C6:7643H         LINE#         1493
 C6:7643H         LINE#         1495
 C6:764AH         LINE#         1496
 C6:764DH         LINE#         1497
 C6:764DH         LINE#         1498
 C6:7672H         LINE#         1499
 C6:7672H         LINE#         1500
 C6:767AH         LINE#         1501
 C6:767AH         LINE#         1502
 C6:7686H         LINE#         1503
 C6:76A6H         LINE#         1504
 C6:76A9H         LINE#         1506
 C6:76B0H         LINE#         1507
 C6:76B3H         LINE#         1508
 C6:76BCH         LINE#         1509
 C6:76C6H         LINE#         1511
 C6:76C6H         LINE#         1512
 C6:76D9H         LINE#         1513
 C6:76E6H         LINE#         1514
 C6:76E6H         LINE#         1515
 C6:7702H         LINE#         1516
 C6:7707H         LINE#         1517
 C6:7710H         LINE#         1518
 C6:7725H         LINE#         1519
 C6:7728H         LINE#         1521
 C6:772FH         LINE#         1522
 C6:772FH         LINE#         1523
 C6:7732H         LINE#         1524
 C6:7732H         LINE#         1525
 C6:7735H         LINE#         1526
 C6:775DH         LINE#         1527
 C6:775DH         LINE#         1528
 C6:7765H         LINE#         1529
 C6:7765H         LINE#         1530
 C6:7771H         LINE#         1531
 C6:7780H         LINE#         1532
 C6:77A8H         LINE#         1533
 C6:77D7H         LINE#         1534
 C6:77DAH         LINE#         1536
 C6:77E1H         LINE#         1537
 C6:77E4H         LINE#         1538
BL51 BANKED LINKER/LOCATER V5.03                                                      01/30/2013  19:55:46  PAGE 185


 C6:77F0H         LINE#         1539
 C6:77F0H         LINE#         1540
 C6:77FBH         LINE#         1541
 C6:7809H         LINE#         1542
 C6:7835H         LINE#         1543
 C6:783BH         LINE#         1544
 C6:7843H         LINE#         1545
 C6:784CH         LINE#         1546
 C6:784CH         LINE#         1547
 C6:786DH         LINE#         1548
 C6:7882H         LINE#         1549
 C6:7882H         LINE#         1550
 C6:7885H         LINE#         1552
 C6:788CH         LINE#         1553
 C6:788FH         LINE#         1554
 C6:788FH         LINE#         1555
 C6:7892H         LINE#         1556
 C6:78B7H         LINE#         1557
 C6:78B7H         LINE#         1558
 C6:78BFH         LINE#         1559
 C6:78BFH         LINE#         1560
 C6:78CBH         LINE#         1561
 C6:7910H         LINE#         1562
 C6:7913H         LINE#         1564
 C6:791AH         LINE#         1565
 C6:791DH         LINE#         1566
 C6:7925H         LINE#         1567
 C6:7925H         LINE#         1568
 C6:7938H         LINE#         1569
 C6:7943H         LINE#         1570
 C6:7943H         LINE#         1571
 C6:7961H         LINE#         1572
 C6:7966H         LINE#         1573
 C6:797EH         LINE#         1574
 C6:7983H         LINE#         1575
 C6:7986H         LINE#         1577
 C6:798DH         LINE#         1578
 C6:7990H         LINE#         1580
 C6:7997H         LINE#         1581
 C6:799AH         LINE#         1582
 C6:799AH         LINE#         1583
 C6:799DH         LINE#         1584
 C6:79C5H         LINE#         1585
 C6:79C5H         LINE#         1586
 C6:79D0H         LINE#         1587
 C6:79D0H         LINE#         1588
 C6:79DCH         LINE#         1589
 C6:79F0H         LINE#         1590
 C6:7A0FH         LINE#         1592
 C6:7A0FH         LINE#         1593
 C6:7A15H         LINE#         1594
 C6:7A35H         LINE#         1595
 C6:7A50H         LINE#         1596
 C6:7A5DH         LINE#         1597
 C6:7A5DH         LINE#         1598
 C6:7A60H         LINE#         1602
 C6:7A86H         LINE#         1603
BL51 BANKED LINKER/LOCATER V5.03                                                      01/30/2013  19:55:46  PAGE 186


 C6:7A86H         LINE#         1604
 C6:7A8DH         LINE#         1605
 C6:7AADH         LINE#         1607
 C6:7AB4H         LINE#         1608
 C6:7AB7H         LINE#         1609
 C6:7ADDH         LINE#         1610
 C6:7ADDH         LINE#         1611
 C6:7AECH         LINE#         1612
 C6:7AECH         LINE#         1613
 C6:7B04H         LINE#         1614
 C6:7B2EH         LINE#         1615
 C6:7B30H         LINE#         1617
 C6:7B37H         LINE#         1618
 C6:7B39H         LINE#         1620
 C6:7B44H         LINE#         1621
 C6:7B4DH         LINE#         1622
 C6:7B5CH         LINE#         1623
 C6:7B5CH         LINE#         1624
 C6:7B5FH         LINE#         1625
 C6:7B5FH         LINE#         1626
 C6:7B62H         LINE#         1627
 C6:7B8AH         LINE#         1628
 C6:7B8AH         LINE#         1629
 C6:7B95H         LINE#         1630
 C6:7B95H         LINE#         1631
 C6:7BA1H         LINE#         1632
 C6:7BB5H         LINE#         1633
 C6:7BC2H         LINE#         1635
 C6:7BC2H         LINE#         1636
 C6:7BC8H         LINE#         1637
 C6:7BE8H         LINE#         1638
 C6:7C03H         LINE#         1639
 C6:7C10H         LINE#         1640
 C6:7C10H         LINE#         1641
 C6:7C13H         LINE#         1645
 C6:7C39H         LINE#         1646
 C6:7C39H         LINE#         1647
 C6:7C40H         LINE#         1648
 C6:7C60H         LINE#         1650
 C6:7C67H         LINE#         1651
 C6:7C6AH         LINE#         1652
 C6:7C90H         LINE#         1653
 C6:7C90H         LINE#         1654
 C6:7C9FH         LINE#         1655
 C6:7C9FH         LINE#         1656
 C6:7CB7H         LINE#         1657
 C6:7CE1H         LINE#         1658
 C6:7CE3H         LINE#         1660
 C6:7CEAH         LINE#         1661
 C6:7CECH         LINE#         1663
 C6:7CF7H         LINE#         1664
 C6:7D00H         LINE#         1665
 C6:7D0FH         LINE#         1666
 C6:7D0FH         LINE#         1667
 C6:7D12H         LINE#         1668
 C6:7D12H         LINE#         1669
 C6:7D15H         LINE#         1670
BL51 BANKED LINKER/LOCATER V5.03                                                      01/30/2013  19:55:46  PAGE 187


 C6:7D3DH         LINE#         1671
 C6:7D3DH         LINE#         1672
 C6:7D48H         LINE#         1673
 C6:7D48H         LINE#         1674
 C6:7D54H         LINE#         1675
 C6:7D68H         LINE#         1676
 C6:7D8BH         LINE#         1678
 C6:7D8BH         LINE#         1679
 C6:7D91H         LINE#         1680
 C6:7DB1H         LINE#         1681
 C6:7DBEH         LINE#         1682
 C6:7DD5H         LINE#         1684
 C6:7DD5H         LINE#         1685
 C6:7DD8H         LINE#         1689
 C6:7DFEH         LINE#         1690
 C6:7DFEH         LINE#         1691
 C6:7E05H         LINE#         1692
 C6:7E25H         LINE#         1694
 C6:7E2CH         LINE#         1695
 C6:7E2FH         LINE#         1696
 C6:7E55H         LINE#         1697
 C6:7E55H         LINE#         1698
 C6:7E64H         LINE#         1699
 C6:7E64H         LINE#         1700
 C6:7E7CH         LINE#         1701
 C6:7E94H         LINE#         1702
 C6:7EA1H         LINE#         1703
 C6:7EBAH         LINE#         1705
 C6:7EC1H         LINE#         1706
 C6:7EC3H         LINE#         1708
 C6:7ECAH         LINE#         1709
 C6:7ECCH         LINE#         1711
 C6:7ED7H         LINE#         1712
 C6:7EE0H         LINE#         1713
 C6:7EEFH         LINE#         1714
 C6:7EEFH         LINE#         1715
 C6:7EF2H         LINE#         1716
 C6:7EF2H         LINE#         1717
 C6:7EF5H         LINE#         1718
 C6:7F1AH         LINE#         1719
 C6:7F1AH         LINE#         1720
 C6:7F25H         LINE#         1721
 C6:7F25H         LINE#         1722
 C6:7F31H         LINE#         1723
 C6:7F45H         LINE#         1724
 C6:7F5CH         LINE#         1726
 C6:7F7CH         LINE#         1727
 C6:7F7FH         LINE#         1731
 C6:7FA5H         LINE#         1732
 C6:7FA5H         LINE#         1733
 C6:7FACH         LINE#         1734
 C6:7FCBH         LINE#         1736
 C6:7FD2H         LINE#         1737
 C6:7FD4H         LINE#         1738
 C6:7FFAH         LINE#         1739
 C6:7FFAH         LINE#         1740
 C6:8001H         LINE#         1741
BL51 BANKED LINKER/LOCATER V5.03                                                      01/30/2013  19:55:46  PAGE 188


 C6:8020H         LINE#         1743
 C6:8027H         LINE#         1744
 C6:8029H         LINE#         1746
 C6:8034H         LINE#         1747
 C6:803AH         LINE#         1748
 C6:804CH         LINE#         1749
 C6:804CH         LINE#         1750
 C6:804EH         LINE#         1752
 C6:804EH         LINE#         1753
 C6:8059H         LINE#         1754
 C6:8059H         LINE#         1755
 C6:8059H         LINE#         1757
 C6:805CH         LINE#         1758
 C6:805FH         LINE#         1760
 C6:805FH         LINE#         1762
 C6:8069H         LINE#         1763
  -------         ENDPROC       COMMAND_SETTING

  -------         PROC BANK=6   COMMAND_INFO
  -------         DO            
  X:33B8H         SYMBOL        c_name
  X:33B9H         SYMBOL        tu
  X:33BAH         SYMBOL        len
  X:33BBH         SYMBOL        information
  X:33CFH         SYMBOL        end
  -------         ENDDO         
 C6:8CBAH         LINE#         1765
 C6:8CBAH         LINE#         1766
 C6:8CBAH         LINE#         1767
 C6:8CC3H         LINE#         1769
 C6:8CD1H         LINE#         1770
 C6:8CE3H         LINE#         1771
 C6:8CE3H         LINE#         1772
 C6:8CE6H         LINE#         1774
 C6:8CE6H         LINE#         1775
 C6:8CF0H         LINE#         1776
 C6:8D02H         LINE#         1777
 C6:8D05H         LINE#         1778
 C6:8D15H         LINE#         1779
 C6:8D15H         LINE#         1780
 C6:8D2DH         LINE#         1781
 C6:8D3BH         LINE#         1782
 C6:8D76H         LINE#         1783
 C6:8D7DH         LINE#         1784
 C6:8D85H         LINE#         1785
 C6:8D8BH         LINE#         1786
 C6:8D9DH         LINE#         1787
 C6:8DB7H         LINE#         1788
 C6:8DC2H         LINE#         1789
 C6:8DCBH         LINE#         1790
 C6:8DCBH         LINE#         1791
 C6:8DF3H         LINE#         1792
 C6:8DF3H         LINE#         1793
 C6:8DF3H         LINE#         1794
 C6:8E40H         LINE#         1795
 C6:8E40H         LINE#         1796
 C6:8E43H         LINE#         1797
BL51 BANKED LINKER/LOCATER V5.03                                                      01/30/2013  19:55:46  PAGE 189


 C6:8E43H         LINE#         1798
 C6:8E90H         LINE#         1799
 C6:8E90H         LINE#         1800
 C6:8E93H         LINE#         1801
 C6:8E93H         LINE#         1802
 C6:8EE0H         LINE#         1803
 C6:8EE0H         LINE#         1804
 C6:8EE2H         LINE#         1805
 C6:8EE2H         LINE#         1806
 C6:8F42H         LINE#         1807
 C6:8F58H         LINE#         1808
 C6:8F58H         LINE#         1809
 C6:8F58H         LINE#         1810
 C6:8F58H         LINE#         1812
  -------         ENDPROC       COMMAND_INFO

  -------         PROC BANK=6   RE_RORN
  -------         DO            
  X:354DH         SYMBOL        error
  X:3550H         SYMBOL        ok
  X:3553H         SYMBOL        ok1
  X:3556H         SYMBOL        error1
  -------         ENDDO         
 C6:9A61H         LINE#         1814
 C6:9A61H         LINE#         1815
 C6:9A61H         LINE#         1816
 C6:9A6FH         LINE#         1817
 C6:9A7BH         LINE#         1818
 C6:9A87H         LINE#         1819
 C6:9A93H         LINE#         1821
 C6:9A99H         LINE#         1822
 C6:9A99H         LINE#         1823
 C6:9A9FH         LINE#         1824
 C6:9AB6H         LINE#         1826
 C6:9ACBH         LINE#         1827
 C6:9ACDH         LINE#         1829
 C6:9ACDH         LINE#         1830
 C6:9AD3H         LINE#         1831
 C6:9AEAH         LINE#         1833
 C6:9B0AH         LINE#         1834
 C6:9B0AH         LINE#         1835
  -------         ENDPROC       RE_RORN
 C6:9C77H         SYMBOL        L?0958
  -------         PROC          L?0957
  -------         ENDPROC       L?0957
 C6:9C77H         SYMBOL        L?0958

  -------         PROC BANK=6   _UP2LWR
  X:38B0H         SYMBOL        buf
  D:0005H         SYMBOL        len
  -------         DO            
  D:0007H         SYMBOL        i
  -------         ENDDO         
 C6:9C87H         LINE#         1837
 C6:9C92H         LINE#         1838
 C6:9C92H         LINE#         1839
 C6:9C94H         LINE#         1841
BL51 BANKED LINKER/LOCATER V5.03                                                      01/30/2013  19:55:46  PAGE 190


 C6:9C99H         LINE#         1842
 C6:9CB7H         LINE#         1843
 C6:9CC1H         LINE#         1844
 C6:9CC1H         LINE#         1845
 C6:9CC4H         LINE#         1846
  -------         ENDPROC       _UP2LWR

  -------         PROC BANK=6   ATD_LOOP
 C6:96B1H         LINE#         1849
 C6:96B1H         LINE#         1850
 C6:96B1H         LINE#         1852
 C6:96BAH         LINE#         1853
 C6:96BAH         LINE#         1854
 C6:96C5H         LINE#         1855
 C6:96C5H         LINE#         1856
 C6:96FAH         LINE#         1857
 C6:96FAH         LINE#         1858
 C6:96FFH         LINE#         1859
 C6:9703H         LINE#         1860
 C6:9707H         LINE#         1861
 C6:970BH         LINE#         1862
 C6:9741H         LINE#         1863
 C6:9777H         LINE#         1864
 C6:977CH         LINE#         1865
 C6:977CH         LINE#         1866
 C6:977CH         LINE#         1867
 C6:9781H         LINE#         1868
 C6:9785H         LINE#         1869
 C6:978AH         LINE#         1870
 C6:978EH         LINE#         1872
 C6:97B2H         LINE#         1873
 C6:97C6H         LINE#         1874
 C6:97ECH         LINE#         1875
 C6:97ECH         LINE#         1877
  -------         ENDPROC       ATD_LOOP

  -------         PROC BANK=6   HELP
 C6:9D66H         LINE#         1879
 C6:9D66H         LINE#         1880
 C6:9D66H         LINE#         1882
  -------         ENDPROC       HELP

  -------         PROC BANK=6   CLI_INIT
 C6:9C26H         LINE#         1884
 C6:9C26H         LINE#         1885
 C6:9C26H         LINE#         1888
 C6:9C3FH         LINE#         1890
 C6:9C3FH         LINE#         1892
 C6:9C5DH         LINE#         1897
 C6:9C5DH         LINE#         1898
 C6:9C62H         LINE#         1899
 C6:9C62H         LINE#         1900
 C6:9C62H         LINE#         1907
 C6:9C74H         LINE#         1908
  -------         ENDPROC       CLI_INIT

  -------         PROC BANK=6   CLI_TIMER
BL51 BANKED LINKER/LOCATER V5.03                                                      01/30/2013  19:55:46  PAGE 191


 C6:8F59H         LINE#         1912
 C6:8F59H         LINE#         1914
 C6:8F5CH         LINE#         1915
 C6:8F5FH         LINE#         1917
 C6:8F62H         LINE#         1922
 C6:8F6DH         LINE#         1923
 C6:8F6DH         LINE#         1924
 C6:8FDFH         LINE#         1925
 C6:8FDFH         LINE#         1926
 C6:8FE6H         LINE#         1927
 C6:8FE9H         LINE#         1929
 C6:8FE9H         LINE#         1930
 C6:8FF3H         LINE#         1931
 C6:8FFCH         LINE#         1932
 C6:9003H         LINE#         1933
 C6:9003H         LINE#         1934
 C6:9013H         LINE#         1935
 C6:901EH         LINE#         1936
 C6:9020H         LINE#         1938
 C6:9020H         LINE#         1939
 C6:9030H         LINE#         1940
 C6:903BH         LINE#         1941
 C6:9041H         LINE#         1942
 C6:9041H         LINE#         1943
 C6:904AH         LINE#         1944
 C6:904AH         LINE#         1945
 C6:904AH         LINE#         1946
 C6:904AH         LINE#         1947
 C6:904DH         LINE#         1949
 C6:9069H         LINE#         1953
 C6:9069H         LINE#         1955
 C6:906CH         LINE#         1960
 C6:9075H         LINE#         1961
 C6:9075H         LINE#         1963
 C6:909AH         LINE#         1967
 C6:90A1H         LINE#         1969
 C6:90A1H         LINE#         1970
 C6:90ABH         LINE#         1971
 C6:90B0H         LINE#         1972
 C6:90B6H         LINE#         1973
 C6:90B6H         LINE#         1974
 C6:90C6H         LINE#         1975
 C6:90D1H         LINE#         1976
 C6:90D7H         LINE#         1977
 C6:90D7H         LINE#         1978
 C6:90DDH         LINE#         1979
 C6:90FDH         LINE#         1980
 C6:90FDH         LINE#         1981
 C6:90FDH         LINE#         1982
 C6:90FDH         LINE#         1983
 C6:9106H         LINE#         1984
 C6:9106H         LINE#         1985
 C6:910CH         LINE#         1986
 C6:917BH         LINE#         1987
 C6:9184H         LINE#         1988
 C6:9184H         LINE#         1990
  -------         ENDPROC       CLI_TIMER
BL51 BANKED LINKER/LOCATER V5.03                                                      01/30/2013  19:55:46  PAGE 192


  -------         ENDMOD        COMMANDLINE

  -------         MODULE        UTILITY
  C:0000H         SYMBOL        _ICE_DUMMY_
 C1:E104H         PUBLIC        CPUInit
  D:0090H         PUBLIC        P1
  D:00B0H         PUBLIC        P3
 C1:DCB7H         PUBLIC        _hex_to_asc
 C1:BC75H         PUBLIC        _asc_to_hex
  B:00D8H.1       PUBLIC        WDTEN
  D:00A8H         PUBLIC        IE
  D:00B8H         PUBLIC        IP
  D:0098H         PUBLIC        SCON
  D:0088H         PUBLIC        TCON
 C1:E08FH         PUBLIC        IP210_SWReset
 C1:E03AH         PUBLIC        _Delay
  D:00D8H         PUBLIC        WDTCON
  D:00C8H         PUBLIC        T2CON
  D:00D0H         PUBLIC        PSW

  -------         PROC BANK=1   IP210_SWRESET
  -------         DO            
  D:0007H         SYMBOL        i
  -------         ENDDO         
 C1:E08FH         LINE#         33
 C1:E08FH         LINE#         34
 C1:E08FH         LINE#         37
 C1:E095H         LINE#         38
 C1:E097H         LINE#         39
 C1:E09DH         LINE#         40
  -------         ENDPROC       IP210_SWRESET

  -------         PROC BANK=1   CPUINIT
 C1:E104H         LINE#         52
 C1:E104H         LINE#         53
 C1:E104H         LINE#         54
 C1:E106H         LINE#         55
 C1:E109H         LINE#         56
  -------         ENDPROC       CPUINIT

  -------         PROC BANK=1   _DELAY
  D:0006H         SYMBOL        delay
 C1:E03AH         LINE#         70
 C1:E03AH         LINE#         71
 C1:E03AH         LINE#         72
 C1:E049H         LINE#         73
 C1:E04CH         LINE#         74
  -------         ENDPROC       _DELAY

  -------         PROC BANK=1   _ASC_TO_HEX
  X:371CH         SYMBOL        asc
  -------         DO            
  X:371FH         SYMBOL        value
  X:3721H         SYMBOL        i
  X:3722H         SYMBOL        len
  -------         ENDDO         
 C1:BC75H         LINE#         112
BL51 BANKED LINKER/LOCATER V5.03                                                      01/30/2013  19:55:46  PAGE 193


 C1:BC80H         LINE#         113
 C1:BC80H         LINE#         114
 C1:BC85H         LINE#         117
 C1:BC8DH         LINE#         118
 C1:BC95H         LINE#         119
 C1:BCABH         LINE#         120
 C1:BCABH         LINE#         121
 C1:BCBFH         LINE#         122
 C1:BCE2H         LINE#         123
 C1:BCF2H         LINE#         124
 C1:BD0EH         LINE#         125
 C1:BD29H         LINE#         126
 C1:BD50H         LINE#         127
 C1:BD6AH         LINE#         129
 C1:BD6EH         LINE#         130
 C1:BD77H         LINE#         131
 C1:BD7FH         LINE#         132
  -------         ENDPROC       _ASC_TO_HEX

  -------         PROC BANK=1   _HEX_TO_ASC
  D:0007H         SYMBOL        hex
  D:0001H         SYMBOL        buf
  -------         DO            
  D:0006H         SYMBOL        i
  -------         ENDDO         
 C1:DCB7H         LINE#         145
 C1:DCB7H         LINE#         146
 C1:DCB7H         LINE#         149
 C1:DCBCH         LINE#         150
 C1:DCCEH         LINE#         151
 C1:DCD2H         LINE#         152
  -------         ENDPROC       _HEX_TO_ASC
  -------         ENDMOD        UTILITY

  -------         MODULE        UDP
  C:0000H         SYMBOL        _ICE_DUMMY_
  D:0080H         PUBLIC        P0
  D:0090H         PUBLIC        P1
  D:00A0H         PUBLIC        P2
  D:00B0H         PUBLIC        P3
  D:00E8H         PUBLIC        P4
  D:00A8H         PUBLIC        IE
  D:00B8H         PUBLIC        IP
  X:33ECH         PUBLIC        UdpData
 C2:D2FCH         PUBLIC        udp_process
  D:0098H         PUBLIC        SCON
  D:0088H         PUBLIC        TCON
 C2:A8A1H         PUBLIC        _udp_send
 C2:D3F7H         PUBLIC        _udp_init
  D:00D8H         PUBLIC        WDTCON
  D:00C8H         PUBLIC        T2CON
 C2:D51DH         PUBLIC        _udp_set_buf
  D:00D0H         PUBLIC        PSW

  -------         PROC BANK=2   _UDP_INIT
  D:0001H         SYMBOL        p_DataPkt
  X:363EH         SYMBOL        p_uip_len
BL51 BANKED LINKER/LOCATER V5.03                                                      01/30/2013  19:55:46  PAGE 194


  X:3641H         SYMBOL        hostaddr
 C2:D3F7H         LINE#         76
 C2:D3F7H         LINE#         77
 C2:D3F7H         LINE#         78
 C2:D3FEH         LINE#         79
 C2:D407H         LINE#         80
 C2:D41CH         LINE#         81
 C2:D434H         LINE#         82
 C2:D444H         LINE#         83
  -------         ENDPROC       _UDP_INIT

  -------         PROC BANK=2   _UDP_SET_BUF
  X:38B3H         SYMBOL        p_DataPkt
 C2:D51DH         LINE#         85
 C2:D528H         LINE#         86
 C2:D528H         LINE#         87
 C2:D53DH         LINE#         88
 C2:D552H         LINE#         89
 C2:D55DH         LINE#         90
  -------         ENDPROC       _UDP_SET_BUF

  -------         PROC BANK=2   UDP_PROCESS
 C2:D2FCH         LINE#         102
 C2:D2FCH         LINE#         103
 C2:D2FCH         LINE#         104
 C2:D311H         LINE#         105
 C2:D311H         LINE#         126
 C2:D32DH         LINE#         127
 C2:D33EH         LINE#         128
 C2:D341H         LINE#         129
 C2:D341H         LINE#         131
 C2:D341H         LINE#         132
 C2:D352H         LINE#         133
 C2:D352H         LINE#         134
  -------         ENDPROC       UDP_PROCESS

  -------         PROC BANK=2   _UDP_SEND
  X:38EAH         SYMBOL        length
 C2:A8A1H         LINE#         150
 C2:A8A9H         LINE#         151
 C2:A8A9H         LINE#         152
 C2:A8ACH         LINE#         153
 C2:A8ACH         LINE#         154
 C2:A8BDH         LINE#         156
 C2:A8BDH         LINE#         158
 C2:A8C0H         LINE#         163
 C2:A8DEH         LINE#         164
 C2:A8FAH         LINE#         165
 C2:A90AH         LINE#         166
 C2:A91AH         LINE#         167
 C2:A92AH         LINE#         169
 C2:A92FH         LINE#         170
 C2:A941H         LINE#         171
 C2:A94FH         LINE#         172
 C2:A957H         LINE#         173
 C2:A965H         LINE#         174
 C2:A97CH         LINE#         175
BL51 BANKED LINKER/LOCATER V5.03                                                      01/30/2013  19:55:46  PAGE 195


 C2:A986H         LINE#         176
 C2:A98EH         LINE#         177
 C2:A99EH         LINE#         178
 C2:A9AEH         LINE#         180
 C2:A9B1H         LINE#         185
 C2:A9D6H         LINE#         186
 C2:A9DDH         LINE#         188
 C2:A9E6H         LINE#         195
 C2:A9F5H         LINE#         196
 C2:AA12H         LINE#         199
 C2:AA3CH         LINE#         201
 C2:AA45H         LINE#         210
 C2:AA54H         LINE#         211
 C2:AA54H         LINE#         212
 C2:AA71H         LINE#         213
 C2:AA7BH         LINE#         214
 C2:AA90H         LINE#         215
 C2:AA90H         LINE#         219
  -------         ENDPROC       _UDP_SEND
  -------         ENDMOD        UDP

  -------         MODULE        DHCPC
  C:0000H         SYMBOL        _ICE_DUMMY_
  D:0080H         PUBLIC        P0
  D:0090H         PUBLIC        P1
  D:00A0H         PUBLIC        P2
  D:00B0H         PUBLIC        P3
  D:00E8H         PUBLIC        P4
 C2:CF11H         PUBLIC        DHCPCApplyIP
 C2:D89FH         PUBLIC        DHCPCReceiveNAck
  D:00A8H         PUBLIC        IE
 C2:C896H         PUBLIC        DHCPC_UDP_RECEIVE
  D:00B8H         PUBLIC        IP
  X:32E7H         PUBLIC        dhcp_flag
 C2:D6CCH         PUBLIC        DHCPCReceiveOffer
  D:0098H         PUBLIC        SCON
  D:0088H         PUBLIC        TCON
 C2:C3F2H         PUBLIC        DHCPCSendDiscover
 C2:D0C7H         PUBLIC        DHCPCReceiveAck
 C2:B59EH         PUBLIC        _DHCPCSendRequest
  C:3C35H         SYMBOL        _?ix1000
  C:3C4FH         SYMBOL        _?ix1001
 C2:B6EFH         PUBLIC        DHCPCCltPktInit
  D:00D8H         PUBLIC        WDTCON
 C2:B454H         PUBLIC        DHCPCCheckInfo
 C2:C341H         PUBLIC        _DHCPCFoundTag
  D:00C8H         PUBLIC        T2CON
 C2:C03AH         PUBLIC        DHCPCTimer
  X:32E8H         PUBLIC        DHCPCInfo
  D:00D0H         PUBLIC        PSW
 C2:D644H         PUBLIC        DHCPCInit
  X:330FH         PUBLIC        DHCP_get_ip

  -------         PROC BANK=2   DHCPCINIT
 C2:D644H         LINE#         38
 C2:D644H         LINE#         39
 C2:D644H         LINE#         40
BL51 BANKED LINKER/LOCATER V5.03                                                      01/30/2013  19:55:46  PAGE 196


 C2:D64DH         LINE#         41
 C2:D650H         LINE#         43
 C2:D653H         LINE#         45
 C2:D65DH         LINE#         46
 C2:D667H         LINE#         47
 C2:D671H         LINE#         48
  -------         ENDPROC       DHCPCINIT

  -------         PROC BANK=2   DHCPCAPPLYIP
 C2:CF11H         LINE#         61
 C2:CF11H         LINE#         62
 C2:CF11H         LINE#         63
 C2:CF25H         LINE#         64
 C2:CF39H         LINE#         65
 C2:CF4DH         LINE#         66
 C2:CF61H         LINE#         67
 C2:CF70H         LINE#         68
 C2:CF7FH         LINE#         70
  -------         ENDPROC       DHCPCAPPLYIP

  -------         PROC BANK=2   _DHCPCFOUNDTAG
  X:3840H         SYMBOL        tag
  -------         DO            
  X:3841H         SYMBOL        Options
  D:0006H         SYMBOL        i
  -------         ENDDO         
 C2:C341H         LINE#         88
 C2:C346H         LINE#         89
 C2:C346H         LINE#         90
 C2:C368H         LINE#         93
 C2:C36BH         LINE#         99
 C2:C389H         LINE#         101
 C2:C3A2H         LINE#         102
 C2:C3A2H         LINE#         103
 C2:C3BAH         LINE#         104
 C2:C3CFH         LINE#         105
 C2:C3E9H         LINE#         106
 C2:C3EBH         LINE#         107
 C2:C3F1H         LINE#         109
  -------         ENDPROC       _DHCPCFOUNDTAG
  -------         PROC          L?0052
  -------         ENDPROC       L?0052

  -------         PROC BANK=2   DHCPCCLTPKTINIT
  -------         DO            
  X:38B6H         SYMBOL        DHCPPkt
  -------         ENDDO         
 C2:B6EFH         LINE#         122
 C2:B6EFH         LINE#         123
 C2:B6EFH         LINE#         124
 C2:B70AH         LINE#         125
 C2:B71AH         LINE#         126
 C2:B72DH         LINE#         127
 C2:B735H         LINE#         128
 C2:B73CH         LINE#         129
 C2:B746H         LINE#         130
 C2:B750H         LINE#         131
BL51 BANKED LINKER/LOCATER V5.03                                                      01/30/2013  19:55:46  PAGE 197


 C2:B759H         LINE#         132
 C2:B763H         LINE#         133
 C2:B76DH         LINE#         134
 C2:B777H         LINE#         135
 C2:B781H         LINE#         136
 C2:B78BH         LINE#         137
 C2:B795H         LINE#         138
 C2:B79FH         LINE#         139
 C2:B7A9H         LINE#         140
 C2:B7CAH         LINE#         141
 C2:B7E3H         LINE#         142
 C2:B7FCH         LINE#         144
 C2:B811H         LINE#         145
 C2:B81AH         LINE#         146
  -------         ENDPROC       DHCPCCLTPKTINIT

  -------         PROC BANK=2   DHCPCSENDDISCOVER
  -------         DO            
  X:3380H         SYMBOL        DHCPPkt
  X:3383H         SYMBOL        DiscoverTemplate
  -------         ENDDO         
 C2:C3F2H         LINE#         160
 C2:C3F2H         LINE#         161
 C2:C3F2H         LINE#         162
 C2:C40DH         LINE#         163
 C2:C417H         LINE#         170
 C2:C41AH         LINE#         171
 C2:C430H         LINE#         172
 C2:C45DH         LINE#         173
 C2:C46BH         LINE#         177
 C2:C472H         LINE#         178
 C2:C476H         LINE#         179
 C2:C47EH         LINE#         180
 C2:C482H         LINE#         181
 C2:C48BH         LINE#         182
 C2:C492H         LINE#         183
  -------         ENDPROC       DHCPCSENDDISCOVER

  -------         PROC BANK=2   _DHCPCSENDREQUEST
  X:339DH         SYMBOL        reply_offer
  -------         DO            
  X:339EH         SYMBOL        DHCPPkt
  X:33A1H         SYMBOL        len
  X:33A3H         SYMBOL        RequestTemplate
  -------         ENDDO         
 C2:B59EH         LINE#         197
 C2:B5A3H         LINE#         198
 C2:B5A3H         LINE#         199
 C2:B5BEH         LINE#         201
 C2:B5C8H         LINE#         208
 C2:B5CBH         LINE#         209
 C2:B5D4H         LINE#         210
 C2:B5DDH         LINE#         211
 C2:B5DDH         LINE#         212
 C2:B5F9H         LINE#         213
 C2:B5FFH         LINE#         214
 C2:B60DH         LINE#         215
BL51 BANKED LINKER/LOCATER V5.03                                                      01/30/2013  19:55:46  PAGE 198


 C2:B60FH         LINE#         217
 C2:B60FH         LINE#         218
 C2:B620H         LINE#         219
 C2:B634H         LINE#         220
 C2:B634H         LINE#         222
 C2:B661H         LINE#         223
 C2:B675H         LINE#         227
 C2:B67BH         LINE#         228
 C2:B67BH         LINE#         229
 C2:B682H         LINE#         230
 C2:B686H         LINE#         231
 C2:B68EH         LINE#         232
 C2:B692H         LINE#         233
 C2:B694H         LINE#         235
 C2:B694H         LINE#         236
 C2:B6A8H         LINE#         237
 C2:B6BCH         LINE#         238
 C2:B6BCH         LINE#         239
 C2:B6C5H         LINE#         240
 C2:B6CCH         LINE#         241
 C2:B6DDH         LINE#         243
 C2:B6E3H         LINE#         245
  -------         ENDPROC       _DHCPCSENDREQUEST

  -------         PROC BANK=2   DHCPCCHECKINFO
  -------         DO            
  X:37BDH         SYMBOL        Tag
  X:37C0H         SYMBOL        pValue32
  -------         ENDDO         
 C2:B454H         LINE#         263
 C2:B454H         LINE#         264
 C2:B454H         LINE#         267
 C2:B464H         LINE#         268
 C2:B469H         LINE#         269
 C2:B469H         LINE#         270
 C2:B482H         LINE#         271
 C2:B48BH         LINE#         272
 C2:B48BH         LINE#         273
 C2:B49BH         LINE#         274
 C2:B4A0H         LINE#         275
 C2:B4A0H         LINE#         276
 C2:B4B9H         LINE#         277
 C2:B4C2H         LINE#         278
 C2:B4C2H         LINE#         279
 C2:B4D2H         LINE#         280
 C2:B4D7H         LINE#         281
 C2:B4D7H         LINE#         282
 C2:B4F0H         LINE#         283
 C2:B4F9H         LINE#         284
 C2:B4F9H         LINE#         285
 C2:B509H         LINE#         286
 C2:B50EH         LINE#         287
 C2:B50EH         LINE#         288
 C2:B527H         LINE#         289
 C2:B564H         LINE#         290
 C2:B564H         LINE#         291
 C2:B574H         LINE#         292
BL51 BANKED LINKER/LOCATER V5.03                                                      01/30/2013  19:55:46  PAGE 199


 C2:B579H         LINE#         293
 C2:B592H         LINE#         294
 C2:B59BH         LINE#         295
 C2:B59BH         LINE#         297
  -------         ENDPROC       DHCPCCHECKINFO

  -------         PROC BANK=2   DHCPCRECEIVEOFFER
  -------         DO            
  D:0001H         SYMBOL        DHCPPkt
  -------         ENDDO         
 C2:D6CCH         LINE#         314
 C2:D6CCH         LINE#         315
 C2:D6CCH         LINE#         316
 C2:D6DCH         LINE#         318
 C2:D6E8H         LINE#         320
 C2:D6F4H         LINE#         321
  -------         ENDPROC       DHCPCRECEIVEOFFER

  -------         PROC BANK=2   DHCPCRECEIVEACK
 C2:D0C7H         LINE#         336
 C2:D0C7H         LINE#         337
 C2:D0C7H         LINE#         346
 C2:D0CAH         LINE#         347
 C2:D0D0H         LINE#         348
 C2:D0D3H         LINE#         349
 C2:D0D9H         LINE#         350
 C2:D0D9H         LINE#         352
 C2:D0F1H         LINE#         354
 C2:D10DH         LINE#         355
 C2:D11BH         LINE#         356
 C2:D121H         LINE#         357
 C2:D12AH         LINE#         358
 C2:D12AH         LINE#         359
  -------         ENDPROC       DHCPCRECEIVEACK

  -------         PROC BANK=2   DHCPCRECEIVENACK
 C2:D89FH         LINE#         372
 C2:D89FH         LINE#         373
 C2:D89FH         LINE#         374
 C2:D8A5H         LINE#         375
  -------         ENDPROC       DHCPCRECEIVENACK

  -------         PROC BANK=2   DHCPCTIMER
 C2:C03AH         LINE#         389
 C2:C03AH         LINE#         390
 C2:C03AH         LINE#         392
 C2:C04FH         LINE#         393
 C2:C059H         LINE#         395
 C2:C06DH         LINE#         396
 C2:C06DH         LINE#         397
 C2:C06DH         LINE#         398
 C2:C070H         LINE#         399
 C2:C070H         LINE#         400
 C2:C070H         LINE#         401
 C2:C08FH         LINE#         402
 C2:C095H         LINE#         403
 C2:C095H         LINE#         404
BL51 BANKED LINKER/LOCATER V5.03                                                      01/30/2013  19:55:46  PAGE 200


 C2:C0C4H         LINE#         405
 C2:C0C9H         LINE#         406
 C2:C0C9H         LINE#         407
 C2:C0E3H         LINE#         408
 C2:C0E9H         LINE#         409
 C2:C0EAH         LINE#         410
 C2:C0EAH         LINE#         411
 C2:C0F8H         LINE#         412
 C2:C0F8H         LINE#         413
 C2:C0FCH         LINE#         414
 C2:C102H         LINE#         415
 C2:C102H         LINE#         416
 C2:C102H         LINE#         417
 C2:C102H         LINE#         418
  -------         ENDPROC       DHCPCTIMER

  -------         PROC BANK=2   DHCPC_UDP_RECEIVE
  -------         DO            
  X:38B9H         SYMBOL        DHCPPkt
  D:0001H         SYMBOL        Tag
  -------         ENDDO         
 C2:C896H         LINE#         431
 C2:C896H         LINE#         432
 C2:C896H         LINE#         433
 C2:C8B1H         LINE#         435
 C2:C8E4H         LINE#         436
 C2:C8E9H         LINE#         437
 C2:C8EDH         LINE#         438
 C2:C8FEH         LINE#         439
 C2:C8FEH         LINE#         440
 C2:C8FEH         LINE#         441
 C2:C906H         LINE#         442
 C2:C909H         LINE#         443
 C2:C90EH         LINE#         444
 C2:C90EH         LINE#         445
 C2:C90EH         LINE#         446
 C2:C915H         LINE#         447
 C2:C918H         LINE#         448
 C2:C91BH         LINE#         449
 C2:C920H         LINE#         450
 C2:C92AH         LINE#         451
 C2:C92BH         LINE#         452
 C2:C92BH         LINE#         453
 C2:C932H         LINE#         454
 C2:C935H         LINE#         455
 C2:C935H         LINE#         456
 C2:C935H         LINE#         458
  -------         ENDPROC       DHCPC_UDP_RECEIVE
  -------         ENDMOD        DHCPC

  -------         MODULE        GPIO
  C:0000H         SYMBOL        _ICE_DUMMY_
  -------         ENDMOD        GPIO

  -------         MODULE        DNS
  C:0000H         SYMBOL        _ICE_DUMMY_
  D:0080H         PUBLIC        P0
BL51 BANKED LINKER/LOCATER V5.03                                                      01/30/2013  19:55:46  PAGE 201


  D:0090H         PUBLIC        P1
  D:00A0H         PUBLIC        P2
  D:00B0H         PUBLIC        P3
  D:00E8H         PUBLIC        P4
  D:00A8H         PUBLIC        IE
 C2:B81BH         PUBLIC        DNS_UDP_RECEIVE
  D:00B8H         PUBLIC        IP
 C2:CD39H         PUBLIC        _DNS_Result
  D:0098H         PUBLIC        SCON
  D:0088H         PUBLIC        TCON
 C2:8B5AH         PUBLIC        _DNS_Query
  C:3E45H         SYMBOL        _?ix1000
  C:3E51H         SYMBOL        _?ix1001
  D:00D8H         PUBLIC        WDTCON
  D:00C8H         PUBLIC        T2CON
  X:3644H         PUBLIC        DNSInfo
  D:00D0H         PUBLIC        PSW

  -------         PROC BANK=2   _DNS_QUERY
  X:335CH         SYMBOL        name
  X:335FH         SYMBOL        TimeOut
  -------         DO            
  X:3361H         SYMBOL        pData
  X:3364H         SYMBOL        i
  X:3365H         SYMBOL        j
  X:3366H         SYMBOL        IsIPAddrStr
  X:3367H         SYMBOL        cnt
  X:3368H         SYMBOL        pLastLen
  X:336BH         SYMBOL        Len
  X:336CH         SYMBOL        buf
  X:3370H         SYMBOL        DNS_QUERY_TEMP
  X:337CH         SYMBOL        DNS_QUERY_TEMP2
  -------         ENDDO         
 C2:8B5AH         LINE#         43
 C2:8B6BH         LINE#         44
 C2:8B6BH         LINE#         45
 C2:8B86H         LINE#         46
 C2:8B8CH         LINE#         49
 C2:8B9EH         LINE#         57
 C2:8BB1H         LINE#         62
 C2:8BD3H         LINE#         63
 C2:8BD3H         LINE#         64
 C2:8BFAH         LINE#         65
 C2:8BFAH         LINE#         66
 C2:8C04H         LINE#         67
 C2:8C04H         LINE#         68
 C2:8C0CH         LINE#         70
 C2:8C0FH         LINE#         75
 C2:8C24H         LINE#         76
 C2:8C2CH         LINE#         77
 C2:8C3BH         LINE#         79
 C2:8C44H         LINE#         80
 C2:8C44H         LINE#         81
 C2:8C4AH         LINE#         82
 C2:8C4FH         LINE#         83
 C2:8C4FH         LINE#         84
 C2:8C54H         LINE#         85
BL51 BANKED LINKER/LOCATER V5.03                                                      01/30/2013  19:55:46  PAGE 202


 C2:8C54H         LINE#         86
 C2:8C73H         LINE#         87
 C2:8C73H         LINE#         88
 C2:8C92H         LINE#         89
 C2:8C92H         LINE#         90
 C2:8CA1H         LINE#         91
 C2:8CA3H         LINE#         92
 C2:8CA3H         LINE#         94
 C2:8CA3H         LINE#         95
 C2:8CCEH         LINE#         96
 C2:8CCEH         LINE#         97
 C2:8CD6H         LINE#         98
 C2:8CF2H         LINE#         99
 C2:8D01H         LINE#         101
 C2:8D04H         LINE#         106
 C2:8D04H         LINE#         108
 C2:8D04H         LINE#         109
 C2:8D20H         LINE#         110
 C2:8D2AH         LINE#         112
 C2:8D44H         LINE#         113
 C2:8D47H         LINE#         114
 C2:8D72H         LINE#         115
 C2:8D72H         LINE#         116
 C2:8D91H         LINE#         117
 C2:8D91H         LINE#         118
 C2:8DA5H         LINE#         119
 C2:8DBAH         LINE#         120
 C2:8DBDH         LINE#         121
 C2:8DBFH         LINE#         123
 C2:8DBFH         LINE#         124
 C2:8DC5H         LINE#         125
 C2:8DECH         LINE#         126
 C2:8DECH         LINE#         127
 C2:8DF6H         LINE#         128
 C2:8DFFH         LINE#         129
 C2:8E11H         LINE#         130
 C2:8E2DH         LINE#         132
 C2:8E30H         LINE#         138
 C2:8E3FH         LINE#         139
 C2:8E4EH         LINE#         140
 C2:8E5DH         LINE#         141
 C2:8E6CH         LINE#         142
 C2:8E75H         LINE#         143
 C2:8E7DH         LINE#         144
 C2:8E95H         LINE#         145
 C2:8E95H         LINE#         146
  -------         ENDPROC       _DNS_QUERY

  -------         PROC BANK=2   DNS_UDP_RECEIVE
  -------         DO            
  X:35B5H         SYMBOL        i
  X:35B7H         SYMBOL        pDNSPacket
  X:35BAH         SYMBOL        pAnswers
  X:35BDH         SYMBOL        pAnswerFormat
  -------         ENDDO         
 C2:B81BH         LINE#         159
 C2:B81BH         LINE#         160
BL51 BANKED LINKER/LOCATER V5.03                                                      01/30/2013  19:55:46  PAGE 203


 C2:B81BH         LINE#         162
 C2:B836H         LINE#         163
 C2:B845H         LINE#         165
 C2:B85DH         LINE#         167
 C2:B884H         LINE#         168
 C2:B884H         LINE#         170
 C2:B887H         LINE#         175
 C2:B8A3H         LINE#         176
 C2:B8ADH         LINE#         177
 C2:B8BDH         LINE#         178
 C2:B8E4H         LINE#         179
 C2:B8E4H         LINE#         181
 C2:B8E7H         LINE#         186
 C2:B8FBH         LINE#         187
 C2:B907H         LINE#         188
 C2:B907H         LINE#         189
 C2:B91EH         LINE#         190
 C2:B91EH         LINE#         191
 C2:B93DH         LINE#         192
 C2:B94EH         LINE#         193
  -------         ENDPROC       DNS_UDP_RECEIVE

  -------         PROC BANK=2   _DNS_RESULT
  D:0001H         SYMBOL        Name
  -------         DO            
  X:3844H         SYMBOL        result
  -------         ENDDO         
 C2:CD39H         LINE#         206
 C2:CD39H         LINE#         207
 C2:CD39H         LINE#         208
 C2:CD43H         LINE#         209
 C2:CD67H         LINE#         210
 C2:CD67H         LINE#         211
 C2:CD7BH         LINE#         212
 C2:CD85H         LINE#         213
 C2:CD85H         LINE#         214
 C2:CDA4H         LINE#         215
 C2:CDB2H         LINE#         216
  -------         ENDPROC       _DNS_RESULT
  -------         ENDMOD        DNS

  -------         MODULE        WDG
  C:0000H         SYMBOL        _ICE_DUMMY_
  D:0090H         PUBLIC        P1
  D:00B0H         PUBLIC        P3
  B:00D8H.1       PUBLIC        WDTEN
  X:38ECH         PUBLIC        wdtwcyc
  D:00A8H         PUBLIC        IE
  X:38EDH         PUBLIC        wdt_Setting
  D:00B8H         PUBLIC        IP
 C2:D8A6H         PUBLIC        WatchDogTimerReset
  D:00EFH         PUBLIC        WDTWCYC
 C2:D8ADH         PUBLIC        WatchDogTimerInit
  D:0098H         PUBLIC        SCON
  D:0088H         PUBLIC        TCON
  D:00D8H         PUBLIC        WDTCON
  B:00D8H.2       PUBLIC        WDTCLR
BL51 BANKED LINKER/LOCATER V5.03                                                      01/30/2013  19:55:46  PAGE 204


 C2:D8BAH         PUBLIC        WatchDogTimerDisable
 C2:D87EH         PUBLIC        WatchDogTimerEnable
  D:00C8H         PUBLIC        T2CON
  B:00D8H.0       PUBLIC        WDTRST
  D:008EH         PUBLIC        CKCON
  D:00D0H         PUBLIC        PSW

  -------         PROC BANK=2   WATCHDOGTIMERENABLE
 C2:D87EH         LINE#         18
 C2:D87EH         LINE#         19
 C2:D87EH         LINE#         20
 C2:D885H         LINE#         21
 C2:D885H         LINE#         22
 C2:D887H         LINE#         23
 C2:D888H         LINE#         25
 C2:D888H         LINE#         26
 C2:D88AH         LINE#         27
 C2:D88AH         LINE#         28
  -------         ENDPROC       WATCHDOGTIMERENABLE

  -------         PROC BANK=2   WATCHDOGTIMERDISABLE
 C2:D8BAH         LINE#         41
 C2:D8BAH         LINE#         42
 C2:D8BAH         LINE#         43
 C2:D8BCH         LINE#         44
  -------         ENDPROC       WATCHDOGTIMERDISABLE

  -------         PROC BANK=2   WATCHDOGTIMERRESET
 C2:D8A6H         LINE#         56
 C2:D8A6H         LINE#         57
 C2:D8A6H         LINE#         58
 C2:D8A8H         LINE#         59
 C2:D8ACH         LINE#         60
  -------         ENDPROC       WATCHDOGTIMERRESET

  -------         PROC BANK=2   WATCHDOGTIMERINIT
 C2:D8ADH         LINE#         72
 C2:D8ADH         LINE#         73
 C2:D8ADH         LINE#         75
 C2:D8B0H         LINE#         77
 C2:D8B3H         LINE#         78
  -------         ENDPROC       WATCHDOGTIMERINIT
  -------         ENDMOD        WDG

  -------         MODULE        NETUART_CTRL
  C:0000H         SYMBOL        _ICE_DUMMY_
  D:0080H         PUBLIC        P0
  D:0090H         PUBLIC        P1
  D:00A0H         PUBLIC        P2
  D:00B0H         PUBLIC        P3
  D:00E8H         PUBLIC        P4
 C2:D6A0H         PUBLIC        _nuc_chk_pw
  D:00A8H         PUBLIC        IE
  D:00B8H         PUBLIC        IP
  X:3807H         PUBLIC        netuart_ctrl
 C2:D613H         PUBLIC        nuc_on_loop
 C2:AA91H         PUBLIC        _nuc_send
BL51 BANKED LINKER/LOCATER V5.03                                                      01/30/2013  19:55:46  PAGE 205


  D:0098H         PUBLIC        SCON
  D:0088H         PUBLIC        TCON
 C2:A1E2H         PUBLIC        nuc_process_cmd
  C:3E80H         SYMBOL        _?ix1000
  C:3E85H         SYMBOL        _?ix1001
  D:00D8H         PUBLIC        WDTCON
 C2:D81AH         PUBLIC        nuc_init
  D:00C8H         PUBLIC        T2CON
 C2:D78CH         PUBLIC        check_signal_change_op
 C2:C550H         PUBLIC        nuc_on_tcp_rx
  D:00D0H         PUBLIC        PSW

  -------         PROC BANK=2   NUC_INIT
 C2:D81AH         LINE#         20
 C2:D81AH         LINE#         21
 C2:D81AH         LINE#         22
  -------         ENDPROC       NUC_INIT

  -------         PROC BANK=2   _NUC_CHK_PW
  X:38BCH         SYMBOL        pw
 C2:D6A0H         LINE#         25
 C2:D6ABH         LINE#         26
 C2:D6ABH         LINE#         27
 C2:D6C9H         LINE#         28
 C2:D6CBH         LINE#         29
  -------         ENDPROC       _NUC_CHK_PW

  -------         PROC BANK=2   _NUC_SEND
  X:34B9H         SYMBOL        op
  -------         DO            
  D:0007H         SYMBOL        tmp
  X:34BAH         SYMBOL        parity_value
  X:34BFH         SYMBOL        conf
  X:34C2H         SYMBOL        signal
  X:34C5H         SYMBOL        result
  -------         ENDDO         
 C2:AA91H         LINE#         31
 C2:AA96H         LINE#         32
 C2:AA96H         LINE#         34
 C2:AAA9H         LINE#         35
 C2:AABEH         LINE#         36
 C2:AAD1H         LINE#         37
 C2:AAE5H         LINE#         38
 C2:AAECH         LINE#         39
 C2:AAF3H         LINE#         40
 C2:AB1BH         LINE#         41
 C2:AB1BH         LINE#         42
 C2:AB1BH         LINE#         43
 C2:AB1BH         LINE#         44
 C2:AB1BH         LINE#         45
 C2:AB1EH         LINE#         46
 C2:AB1EH         LINE#         47
 C2:AB48H         LINE#         48
 C2:AB74H         LINE#         49
 C2:AB76H         LINE#         50
 C2:AB76H         LINE#         51
 C2:AB9CH         LINE#         52
BL51 BANKED LINKER/LOCATER V5.03                                                      01/30/2013  19:55:46  PAGE 206


 C2:AB9CH         LINE#         53
 C2:ABAEH         LINE#         54
 C2:ABAEH         LINE#         55
 C2:ABB3H         LINE#         56
 C2:ABE3H         LINE#         57
 C2:AC15H         LINE#         58
 C2:AC1EH         LINE#         59
 C2:AC20H         LINE#         60
 C2:AC20H         LINE#         61
 C2:AC20H         LINE#         62
 C2:AC20H         LINE#         63
 C2:AC22H         LINE#         64
 C2:AC22H         LINE#         65
 C2:AC39H         LINE#         66
 C2:AC42H         LINE#         67
 C2:AC44H         LINE#         68
 C2:AC5BH         LINE#         70
 C2:AC64H         LINE#         71
 C2:AC66H         LINE#         72
 C2:AC66H         LINE#         73
 C2:AC6EH         LINE#         74
 C2:AC6EH         LINE#         75
 C2:AC6EH         LINE#         76
 C2:AC7DH         LINE#         88
  -------         ENDPROC       _NUC_SEND

  -------         PROC BANK=2   NUC_PROCESS_CMD
  -------         DO            
  X:348BH         SYMBOL        is_my_cmd
  X:348CH         SYMBOL        conf
  X:348FH         SYMBOL        signal
  X:3492H         SYMBOL        result
  X:3495H         SYMBOL        parity_value
  X:349AH         SYMBOL        tmp
  -------         ENDDO         
 C2:A1E2H         LINE#         90
 C2:A1E2H         LINE#         91
 C2:A1E2H         LINE#         92
 C2:A1E8H         LINE#         93
 C2:A1FDH         LINE#         94
 C2:A210H         LINE#         95
 C2:A223H         LINE#         97
 C2:A236H         LINE#         109
 C2:A267H         LINE#         110
 C2:A267H         LINE#         111
 C2:A267H         LINE#         113
 C2:A26DH         LINE#         116
 C2:A297H         LINE#         117
 C2:A2C2H         LINE#         119
 C2:A2E3H         LINE#         120
 C2:A2FAH         LINE#         122
 C2:A323H         LINE#         123
 C2:A342H         LINE#         125
 C2:A354H         LINE#         126
 C2:A36EH         LINE#         127
 C2:A373H         LINE#         129
 C2:A392H         LINE#         130
BL51 BANKED LINKER/LOCATER V5.03                                                      01/30/2013  19:55:46  PAGE 207


 C2:A3ACH         LINE#         131
 C2:A3B1H         LINE#         133
 C2:A3B4H         LINE#         134
 C2:A3B9H         LINE#         136
 C2:A3CBH         LINE#         137
 C2:A3CDH         LINE#         138
 C2:A3CFH         LINE#         139
 C2:A3CFH         LINE#         141
 C2:A3D1H         LINE#         142
 C2:A3D3H         LINE#         143
 C2:A3D3H         LINE#         145
 C2:A3D5H         LINE#         146
 C2:A3D7H         LINE#         147
 C2:A3D7H         LINE#         149
 C2:A3DDH         LINE#         152
 C2:A3E7H         LINE#         153
 C2:A415H         LINE#         156
 C2:A419H         LINE#         157
 C2:A41EH         LINE#         159
 C2:A420H         LINE#         160
 C2:A422H         LINE#         161
 C2:A422H         LINE#         169
 C2:A427H         LINE#         170
 C2:A429H         LINE#         171
 C2:A429H         LINE#         172
 C2:A42EH         LINE#         173
 C2:A42EH         LINE#         174
 C2:A42EH         LINE#         175
 C2:A433H         LINE#         176
  -------         ENDPROC       NUC_PROCESS_CMD

  -------         PROC BANK=2   CHECK_SIGNAL_CHANGE_OP
 C2:D78CH         LINE#         178
 C2:D78CH         LINE#         179
 C2:D78CH         LINE#         180
 C2:D792H         LINE#         181
 C2:D792H         LINE#         182
 C2:D798H         LINE#         183
 C2:D79DH         LINE#         184
 C2:D79DH         LINE#         185
 C2:D7A4H         LINE#         186
 C2:D7A4H         LINE#         187
 C2:D7A9H         LINE#         188
 C2:D7A9H         LINE#         189
  -------         ENDPROC       CHECK_SIGNAL_CHANGE_OP

  -------         PROC BANK=2   NUC_ON_TCP_RX
  -------         DO            
  X:3901H         SYMBOL        is_my_cmd
  -------         ENDDO         
 C2:C550H         LINE#         191
 C2:C550H         LINE#         192
 C2:C550H         LINE#         194
 C2:C56AH         LINE#         195
 C2:C56AH         LINE#         196
 C2:C597H         LINE#         197
 C2:C597H         LINE#         198
BL51 BANKED LINKER/LOCATER V5.03                                                      01/30/2013  19:55:46  PAGE 208


 C2:C59AH         LINE#         199
 C2:C59AH         LINE#         200
 C2:C59AH         LINE#         202
 C2:C59DH         LINE#         203
 C2:C5A2H         LINE#         204
 C2:C5A2H         LINE#         207
 C2:C5A2H         LINE#         208
 C2:C5A9H         LINE#         209
 C2:C5A9H         LINE#         210
 C2:C5AFH         LINE#         211
 C2:C5AFH         LINE#         212
 C2:C5B1H         LINE#         213
 C2:C5B1H         LINE#         214
 C2:C5B1H         LINE#         215
 C2:C5B8H         LINE#         216
 C2:C5B8H         LINE#         217
 C2:C5C0H         LINE#         218
 C2:C5C0H         LINE#         219
 C2:C5CBH         LINE#         220
 C2:C5CBH         LINE#         221
 C2:C5D1H         LINE#         222
 C2:C5D1H         LINE#         223
 C2:C5D4H         LINE#         224
 C2:C5D4H         LINE#         225
 C2:C5D6H         LINE#         226
 C2:C5DBH         LINE#         227
 C2:C5DBH         LINE#         228
 C2:C5E2H         LINE#         229
 C2:C5E2H         LINE#         230
 C2:C5E5H         LINE#         231
 C2:C5E5H         LINE#         233
 C2:C5E5H         LINE#         234
 C2:C5ECH         LINE#         235
 C2:C5ECH         LINE#         236
 C2:C5EFH         LINE#         237
 C2:C5EFH         LINE#         238
 C2:C5F7H         LINE#         239
 C2:C5F7H         LINE#         240
 C2:C5F9H         LINE#         241
  -------         ENDPROC       NUC_ON_TCP_RX

  -------         PROC BANK=2   NUC_ON_LOOP
  -------         DO            
  D:0007H         SYMBOL        msr
  D:0006H         SYMBOL        old
  -------         ENDDO         
 C2:D613H         LINE#         243
 C2:D613H         LINE#         244
 C2:D613H         LINE#         245
 C2:D618H         LINE#         246
 C2:D61DH         LINE#         247
 C2:D622H         LINE#         249
 C2:D639H         LINE#         250
 C2:D63DH         LINE#         251
 C2:D63DH         LINE#         255
 C2:D643H         LINE#         256
 C2:D643H         LINE#         257
BL51 BANKED LINKER/LOCATER V5.03                                                      01/30/2013  19:55:46  PAGE 209


  -------         ENDPROC       NUC_ON_LOOP
  -------         ENDMOD        NETUART_CTRL

  -------         MODULE        DIDO
  C:0000H         SYMBOL        _ICE_DUMMY_
  D:0080H         PUBLIC        P0
 C5:84E5H         PUBLIC        _dido_read
  D:0090H         PUBLIC        P1
  D:00A0H         PUBLIC        P2
  D:00B0H         PUBLIC        P3
  D:00E8H         PUBLIC        P4
  X:3405H         PUBLIC        TCPDIDO
  D:00A8H         PUBLIC        IE
 C5:85FEH         PUBLIC        _dido_write
  B:0090H.2       PUBLIC        P1_2
  B:0090H.3       PUBLIC        P1_3
  B:00B0H.2       PUBLIC        P3_2
  B:00B0H.3       PUBLIC        P3_3
  B:0090H.5       PUBLIC        P1_5
  B:0090H.6       PUBLIC        P1_6
  C:360FH         PUBLIC        TD
  D:00B8H         PUBLIC        IP
 C5:8920H         PUBLIC        DIDO_send
  D:0098H         PUBLIC        SCON
  D:0088H         PUBLIC        TCON
 C5:879EH         PUBLIC        dido_init
  X:3411H         PUBLIC        dido_buf
 C5:6C82H         PUBLIC        dido_tcp_rx_fun
  C:3697H         SYMBOL        _?ix1000
  C:36A0H         SYMBOL        _?ix1001
  C:36A6H         SYMBOL        _?ix1002
  C:36B3H         SYMBOL        _?ix1003
  C:36C0H         SYMBOL        _?ix1004
  C:36C9H         SYMBOL        _?ix1005
  D:00D8H         PUBLIC        WDTCON
  X:341BH         PUBLIC        dido_wi
  D:00C8H         PUBLIC        T2CON
 C5:5A05H         PUBLIC        DIDO_data_config
  D:00D0H         PUBLIC        PSW

  -------         PROC BANK=5   DIDO_INIT
  -------         DO            
  X:3902H         SYMBOL        mask
  -------         ENDDO         
 C5:879EH         LINE#         29
 C5:879EH         LINE#         30
 C5:879EH         LINE#         32
 C5:87A3H         LINE#         33
 C5:87AEH         LINE#         34
 C5:87C3H         LINE#         35
 C5:87D6H         LINE#         36
 C5:87DEH         LINE#         37
  -------         ENDPROC       DIDO_INIT

  -------         PROC BANK=5   _DIDO_READ
  D:0007H         SYMBOL        mask
  -------         DO            
BL51 BANKED LINKER/LOCATER V5.03                                                      01/30/2013  19:55:46  PAGE 210


  D:0006H         SYMBOL        value
  D:0005H         SYMBOL        demo
  -------         ENDDO         
 C5:84E5H         LINE#         40
 C5:84E5H         LINE#         41
 C5:84E5H         LINE#         42
 C5:84E5H         LINE#         44
 C5:84EBH         LINE#         45
 C5:84F0H         LINE#         46
 C5:84F6H         LINE#         47
 C5:84FAH         LINE#         48
 C5:8500H         LINE#         49
 C5:8506H         LINE#         50
 C5:850AH         LINE#         51
 C5:8512H         LINE#         52
 C5:8518H         LINE#         53
 C5:851CH         LINE#         54
 C5:8525H         LINE#         55
 C5:852BH         LINE#         56
 C5:852FH         LINE#         57
 C5:8536H         LINE#         58
 C5:853CH         LINE#         59
 C5:8540H         LINE#         60
 C5:8547H         LINE#         69
 C5:8548H         LINE#         70
  -------         ENDPROC       _DIDO_READ

  -------         PROC BANK=5   _DIDO_WRITE
  D:0007H         SYMBOL        value
  D:0005H         SYMBOL        mask
 C5:85FEH         LINE#         71
 C5:85FEH         LINE#         72
 C5:85FEH         LINE#         73
 C5:860CH         LINE#         74
 C5:861AH         LINE#         75
 C5:8628H         LINE#         76
 C5:8636H         LINE#         77
 C5:8644H         LINE#         78
 C5:8652H         LINE#         83
  -------         ENDPROC       _DIDO_WRITE

  -------         PROC BANK=5   DIDO_TCP_RX_FUN
  -------         DO            
  X:3500H         SYMBOL        i
  X:3501H         SYMBOL        j
  X:3502H         SYMBOL        find
  X:3503H         SYMBOL        error
  X:350CH         SYMBOL        len
  X:350DH         SYMBOL        error_flag
  -------         ENDDO         
 C5:6C82H         LINE#         87
 C5:6C82H         LINE#         88
 C5:6C82H         LINE#         89
 C5:6C8BH         LINE#         90
 C5:6C9DH         LINE#         91
 C5:6CA4H         LINE#         93
 C5:6CC6H         LINE#         94
BL51 BANKED LINKER/LOCATER V5.03                                                      01/30/2013  19:55:46  PAGE 211


 C5:6CCDH         LINE#         95
 C5:6CCDH         LINE#         97
 C5:6CD3H         LINE#         99
 C5:6CD6H         LINE#         100
 C5:6CE5H         LINE#         101
 C5:6CE5H         LINE#         102
 C5:6CECH         LINE#         103
 C5:6CECH         LINE#         104
 C5:6CF1H         LINE#         105
 C5:6CF1H         LINE#         106
 C5:6CFBH         LINE#         107
 C5:6CFBH         LINE#         108
 C5:6D01H         LINE#         109
 C5:6D26H         LINE#         110
 C5:6D31H         LINE#         112
 C5:6D40H         LINE#         113
 C5:6D61H         LINE#         115
 C5:6D6AH         LINE#         116
 C5:6D6AH         LINE#         117
 C5:6D75H         LINE#         121
 C5:6D84H         LINE#         122
 C5:6D84H         LINE#         123
 C5:6DB0H         LINE#         124
 C5:6DB0H         LINE#         125
 C5:6DB8H         LINE#         126
 C5:6DC7H         LINE#         127
 C5:6DDAH         LINE#         128
 C5:6DDCH         LINE#         129
 C5:6DDCH         LINE#         130
 C5:6DE4H         LINE#         131
 C5:6DF2H         LINE#         132
 C5:6E01H         LINE#         133
 C5:6E17H         LINE#         134
 C5:6E33H         LINE#         135
 C5:6E4DH         LINE#         136
 C5:6E57H         LINE#         137
 C5:6E57H         LINE#         138
 C5:6E60H         LINE#         139
 C5:6E78H         LINE#         140
 C5:6E7EH         LINE#         141
 C5:6E7EH         LINE#         142
 C5:6E85H         LINE#         143
 C5:6E85H         LINE#         144
 C5:6EA1H         LINE#         145
 C5:6EAAH         LINE#         146
 C5:6EB9H         LINE#         147
 C5:6EBCH         LINE#         148
 C5:6EBCH         LINE#         150
 C5:6EBCH         LINE#         151
 C5:6EBFH         LINE#         152
 C5:6ECEH         LINE#         153
 C5:6ECEH         LINE#         154
 C5:6ED0H         LINE#         156
 C5:6ED7H         LINE#         157
 C5:6ED7H         LINE#         158
 C5:6EDEH         LINE#         159
 C5:6EDEH         LINE#         160
BL51 BANKED LINKER/LOCATER V5.03                                                      01/30/2013  19:55:46  PAGE 212


 C5:6EE1H         LINE#         161
 C5:6EF0H         LINE#         162
 C5:6EF0H         LINE#         163
 C5:6EFBH         LINE#         164
 C5:6EFBH         LINE#         165
 C5:6F00H         LINE#         166
 C5:6F00H         LINE#         178
 C5:6F02H         LINE#         179
  -------         ENDPROC       DIDO_TCP_RX_FUN

  -------         PROC BANK=5   DIDO_DATA_CONFIG
  -------         DO            
  X:3237H         SYMBOL        i
  X:3238H         SYMBOL        value
  X:3239H         SYMBOL        count
  X:323AH         SYMBOL        j
  X:323BH         SYMBOL        pin
  X:3241H         SYMBOL        pin_n
  X:324EH         SYMBOL        pin_de
  X:325BH         SYMBOL        error
  X:3264H         SYMBOL        end
  X:3266H         SYMBOL        dido_value
  -------         ENDDO         
 C5:5A05H         LINE#         182
 C5:5A05H         LINE#         183
 C5:5A05H         LINE#         184
 C5:5A10H         LINE#         185
 C5:5A22H         LINE#         186
 C5:5A35H         LINE#         187
 C5:5A48H         LINE#         188
 C5:5A5BH         LINE#         189
 C5:5A6EH         LINE#         190
 C5:5A73H         LINE#         192
 C5:5A79H         LINE#         194
 C5:5AB3H         LINE#         195
 C5:5AB3H         LINE#         196
 C5:5AB3H         LINE#         197
 C5:5AC7H         LINE#         198
 C5:5AC7H         LINE#         199
 C5:5ACEH         LINE#         200
 C5:5AD8H         LINE#         201
 C5:5AF4H         LINE#         202
 C5:5B0FH         LINE#         203
 C5:5B0FH         LINE#         204
 C5:5B0FH         LINE#         205
 C5:5B18H         LINE#         206
 C5:5B20H         LINE#         207
 C5:5B22H         LINE#         208
 C5:5B22H         LINE#         209
 C5:5B2BH         LINE#         210
 C5:5B35H         LINE#         211
 C5:5B37H         LINE#         212
 C5:5B37H         LINE#         213
 C5:5B40H         LINE#         214
 C5:5B4CH         LINE#         215
 C5:5B4EH         LINE#         216
 C5:5B4EH         LINE#         217
BL51 BANKED LINKER/LOCATER V5.03                                                      01/30/2013  19:55:46  PAGE 213


 C5:5B57H         LINE#         218
 C5:5B64H         LINE#         219
 C5:5B66H         LINE#         220
 C5:5B66H         LINE#         221
 C5:5B6FH         LINE#         222
 C5:5B7AH         LINE#         223
 C5:5B7CH         LINE#         224
 C5:5B7CH         LINE#         225
 C5:5B85H         LINE#         226
 C5:5B95H         LINE#         227
 C5:5B95H         LINE#         238
 C5:5B95H         LINE#         239
 C5:5B9DH         LINE#         240
 C5:5B9DH         LINE#         241
 C5:5B9FH         LINE#         248
 C5:5B9FH         LINE#         249
 C5:5BB2H         LINE#         250
 C5:5BB2H         LINE#         251
 C5:5BB9H         LINE#         252
 C5:5BCEH         LINE#         253
 C5:5BCEH         LINE#         254
 C5:5BCEH         LINE#         255
 C5:5BD0H         LINE#         256
 C5:5BD2H         LINE#         257
 C5:5BD2H         LINE#         258
 C5:5BD4H         LINE#         259
 C5:5BD6H         LINE#         260
 C5:5BD6H         LINE#         261
 C5:5BD8H         LINE#         262
 C5:5BDAH         LINE#         263
 C5:5BDAH         LINE#         264
 C5:5BDCH         LINE#         265
 C5:5BDEH         LINE#         266
 C5:5BDEH         LINE#         267
 C5:5BE0H         LINE#         268
 C5:5BE2H         LINE#         269
 C5:5BE2H         LINE#         270
 C5:5BEAH         LINE#         271
 C5:5BEAH         LINE#         280
 C5:5BEAH         LINE#         281
 C5:5BF4H         LINE#         282
 C5:5C10H         LINE#         283
 C5:5C19H         LINE#         284
 C5:5C1CH         LINE#         286
 C5:5C1CH         LINE#         287
 C5:5C1CH         LINE#         288
 C5:5C1CH         LINE#         289
 C5:5C1CH         LINE#         290
 C5:5C1FH         LINE#         291
 C5:5C1FH         LINE#         292
 C5:5C31H         LINE#         293
 C5:5C31H         LINE#         294
 C5:5C41H         LINE#         295
 C5:5C41H         LINE#         296
 C5:5C46H         LINE#         297
 C5:5C58H         LINE#         298
 C5:5C74H         LINE#         299
BL51 BANKED LINKER/LOCATER V5.03                                                      01/30/2013  19:55:46  PAGE 214


 C5:5C74H         LINE#         300
 C5:5C74H         LINE#         301
 C5:5C7DH         LINE#         302
 C5:5C85H         LINE#         303
 C5:5C87H         LINE#         304
 C5:5C87H         LINE#         305
 C5:5C90H         LINE#         306
 C5:5C9AH         LINE#         307
 C5:5C9CH         LINE#         308
 C5:5C9CH         LINE#         309
 C5:5CA5H         LINE#         310
 C5:5CB1H         LINE#         311
 C5:5CB3H         LINE#         312
 C5:5CB3H         LINE#         313
 C5:5CBCH         LINE#         314
 C5:5CC9H         LINE#         315
 C5:5CCBH         LINE#         316
 C5:5CCBH         LINE#         317
 C5:5CD4H         LINE#         318
 C5:5CDFH         LINE#         319
 C5:5CE1H         LINE#         320
 C5:5CE1H         LINE#         321
 C5:5CEAH         LINE#         322
 C5:5CFAH         LINE#         323
 C5:5CFAH         LINE#         334
 C5:5CFAH         LINE#         335
 C5:5CFAH         LINE#         336
 C5:5D03H         LINE#         337
 C5:5D0AH         LINE#         338
 C5:5D0AH         LINE#         339
 C5:5D12H         LINE#         340
 C5:5D2EH         LINE#         341
 C5:5D3EH         LINE#         342
 C5:5D3EH         LINE#         343
 C5:5D41H         LINE#         345
 C5:5D41H         LINE#         346
 C5:5D5DH         LINE#         347
 C5:5D6DH         LINE#         348
 C5:5D6DH         LINE#         349
 C5:5D6DH         LINE#         350
 C5:5D70H         LINE#         351
 C5:5D70H         LINE#         352
 C5:5D79H         LINE#         353
 C5:5D79H         LINE#         354
 C5:5D7EH         LINE#         355
 C5:5D7EH         LINE#         356
 C5:5DA9H         LINE#         357
 C5:5DB4H         LINE#         358
 C5:5DD0H         LINE#         359
 C5:5DFAH         LINE#         360
 C5:5E08H         LINE#         361
 C5:5E10H         LINE#         362
 C5:5E26H         LINE#         363
 C5:5E2EH         LINE#         364
 C5:5E37H         LINE#         365
 C5:5E3FH         LINE#         366
 C5:5E48H         LINE#         367
BL51 BANKED LINKER/LOCATER V5.03                                                      01/30/2013  19:55:46  PAGE 215


 C5:5E50H         LINE#         368
 C5:5E59H         LINE#         369
 C5:5E61H         LINE#         370
 C5:5E6AH         LINE#         371
 C5:5E72H         LINE#         372
 C5:5E7BH         LINE#         379
 C5:5E84H         LINE#         380
 C5:5E87H         LINE#         382
 C5:5E87H         LINE#         383
 C5:5E8CH         LINE#         384
 C5:5E8CH         LINE#         385
 C5:5E97H         LINE#         386
 C5:5EBEH         LINE#         387
 C5:5EC8H         LINE#         388
 C5:5EC8H         LINE#         389
 C5:5EC8H         LINE#         390
 C5:5EC8H         LINE#         391
 C5:5EC8H         LINE#         392
 C5:5EC8H         LINE#         393
 C5:5EC8H         LINE#         394
 C5:5EC8H         LINE#         395
 C5:5EC8H         LINE#         396
 C5:5EC8H         LINE#         397
 C5:5EC8H         LINE#         398
 C5:5EC8H         LINE#         399
 C5:5EC8H         LINE#         406
 C5:5EC8H         LINE#         407
 C5:5EC8H         LINE#         408
 C5:5ECBH         LINE#         409
 C5:5ECBH         LINE#         410
 C5:5EDAH         LINE#         411
 C5:5EDAH         LINE#         412
 C5:5EE2H         LINE#         413
 C5:5EF3H         LINE#         414
 C5:5F1AH         LINE#         415
 C5:5F22H         LINE#         416
 C5:5F2BH         LINE#         417
 C5:5F2EH         LINE#         418
 C5:5F2EH         LINE#         419
 C5:5F42H         LINE#         420
 C5:5F5EH         LINE#         421
 C5:5F6EH         LINE#         422
 C5:5F6EH         LINE#         423
 C5:5F70H         LINE#         424
 C5:5F70H         LINE#         425
 C5:5F78H         LINE#         426
 C5:5F7CH         LINE#         427
 C5:5F86H         LINE#         428
 C5:5F86H         LINE#         429
 C5:5FA2H         LINE#         430
 C5:5FB2H         LINE#         431
 C5:5FB2H         LINE#         432
 C5:5FB4H         LINE#         434
 C5:5FB4H         LINE#         435
 C5:5FD0H         LINE#         436
 C5:5FE3H         LINE#         437
 C5:5FECH         LINE#         438
BL51 BANKED LINKER/LOCATER V5.03                                                      01/30/2013  19:55:46  PAGE 216


 C5:5FECH         LINE#         439
 C5:5FEFH         LINE#         440
 C5:5FEFH         LINE#         441
 C5:5FF4H         LINE#         442
 C5:5FF4H         LINE#         443
 C5:5FFFH         LINE#         444
 C5:6026H         LINE#         445
 C5:6030H         LINE#         446
 C5:6038H         LINE#         447
 C5:604EH         LINE#         448
 C5:6056H         LINE#         449
 C5:605FH         LINE#         450
 C5:6067H         LINE#         451
 C5:6070H         LINE#         452
 C5:6078H         LINE#         453
 C5:6081H         LINE#         454
 C5:6089H         LINE#         455
 C5:6092H         LINE#         456
 C5:609AH         LINE#         457
 C5:60A3H         LINE#         464
 C5:60ACH         LINE#         465
 C5:60AEH         LINE#         466
 C5:60AEH         LINE#         467
 C5:60CAH         LINE#         468
 C5:60D3H         LINE#         469
 C5:60D3H         LINE#         470
 C5:60D3H         LINE#         471
  -------         ENDPROC       DIDO_DATA_CONFIG

  -------         PROC BANK=5   DIDO_SEND
 C5:8920H         LINE#         474
 C5:8920H         LINE#         475
 C5:8920H         LINE#         476
 C5:8926H         LINE#         477
  -------         ENDPROC       DIDO_SEND
  -------         ENDMOD        DIDO

  -------         MODULE        NET_UART
  C:0000H         SYMBOL        _ICE_DUMMY_
  D:0080H         PUBLIC        P0
  D:0090H         PUBLIC        P1
  D:00A0H         PUBLIC        P2
  D:00B0H         PUBLIC        P3
  X:2DBAH         PUBLIC        dtr_rts_flag
  D:00E8H         PUBLIC        P4
  X:2DBBH         PUBLIC        RFCPkt
  D:00A8H         PUBLIC        IE
  X:2DBEH         PUBLIC        BaudrateTable
  D:00B8H         PUBLIC        IP
  X:2E33H         PUBLIC        TelnetRFC2217
  X:2E3CH         PUBLIC        local_iac
 C2:91CCH         PUBLIC        telnet_rfc
  X:2E3EH         PUBLIC        local_len
 C2:D76BH         PUBLIC        NetUartTelnetClose
  D:0098H         PUBLIC        SCON
  D:0088H         PUBLIC        TCON
 C2:BF69H         PUBLIC        NetUartOnTCPRx
BL51 BANKED LINKER/LOCATER V5.03                                                      01/30/2013  19:55:46  PAGE 217


  C:3DC5H         SYMBOL        _?ix1000
  C:3DCAH         SYMBOL        _?ix1001
  X:2E40H         PUBLIC        local_end_len
 C2:CCBEH         PUBLIC        NetUartTimer
 C2:BE96H         PUBLIC        check_rfc2217_signal
  D:00D8H         PUBLIC        WDTCON
 C2:D88BH         PUBLIC        CHECK_210
 C2:CA73H         PUBLIC        rfc_loop
 C2:D55EH         PUBLIC        NetUartInit
  X:2E42H         PUBLIC        NetUARTData
 C2:D7AAH         PUBLIC        NetUartLoop
 C2:500FH         PUBLIC        com_port_option
  D:00C8H         PUBLIC        T2CON
  D:00D0H         PUBLIC        PSW

  -------         PROC BANK=2   CHECK_210
  -------         DO            
  D:0007H         SYMBOL        value
  -------         ENDDO         
 C2:D88BH         LINE#         57
 C2:D88BH         LINE#         58
 C2:D88BH         LINE#         59
 C2:D88BH         LINE#         61
 C2:D88FH         LINE#         62
 C2:D892H         LINE#         63
 C2:D894H         LINE#         64
  -------         ENDPROC       CHECK_210

  -------         PROC BANK=2   NETUARTINIT
 C2:D55EH         LINE#         77
 C2:D55EH         LINE#         78
 C2:D55EH         LINE#         79
 C2:D563H         LINE#         80
 C2:D570H         LINE#         81
 C2:D573H         LINE#         82
 C2:D595H         LINE#         83
 C2:D595H         LINE#         84
 C2:D595H         LINE#         85
 C2:D598H         LINE#         86
 C2:D598H         LINE#         87
 C2:D598H         LINE#         88
 C2:D59BH         LINE#         89
 C2:D59BH         LINE#         92
 C2:D59BH         LINE#         93
 C2:D59BH         LINE#         97
 C2:D59EH         LINE#         98
 C2:D59EH         LINE#         100
 C2:D59EH         LINE#         101
  -------         ENDPROC       NETUARTINIT

  -------         PROC BANK=2   NETUARTTELNETCLOSE
 C2:D76BH         LINE#         114
 C2:D76BH         LINE#         115
 C2:D76BH         LINE#         116
 C2:D785H         LINE#         117
 C2:D785H         LINE#         118
 C2:D785H         LINE#         119
BL51 BANKED LINKER/LOCATER V5.03                                                      01/30/2013  19:55:46  PAGE 218


 C2:D788H         LINE#         120
 C2:D788H         LINE#         121
 C2:D788H         LINE#         122
 C2:D78BH         LINE#         123
 C2:D78BH         LINE#         124
 C2:D78BH         LINE#         125
  -------         ENDPROC       NETUARTTELNETCLOSE

  -------         PROC BANK=2   NETUARTONTCPRX
 C2:BF69H         LINE#         139
 C2:BF69H         LINE#         140
 C2:BF69H         LINE#         141
 C2:BF87H         LINE#         142
 C2:BF87H         LINE#         143
 C2:BF87H         LINE#         144
 C2:BF87H         LINE#         146
 C2:BF8DH         LINE#         147
 C2:BF8DH         LINE#         148
 C2:BFC0H         LINE#         149
 C2:BFC0H         LINE#         150
 C2:BFC3H         LINE#         151
 C2:BFC6H         LINE#         152
 C2:BFC6H         LINE#         153
 C2:BFF9H         LINE#         154
 C2:BFF9H         LINE#         155
 C2:BFF9H         LINE#         156
 C2:BFFBH         LINE#         157
 C2:BFFBH         LINE#         158
 C2:BFFBH         LINE#         160
 C2:BFFBH         LINE#         161
 C2:C02EH         LINE#         162
 C2:C02EH         LINE#         163
 C2:C031H         LINE#         164
 C2:C034H         LINE#         165
 C2:C034H         LINE#         166
 C2:C034H         LINE#         179
 C2:C037H         LINE#         180
 C2:C037H         LINE#         181
 C2:C039H         LINE#         182
 C2:C039H         LINE#         183
  -------         ENDPROC       NETUARTONTCPRX

  -------         PROC BANK=2   NETUARTLOOP
 C2:D7AAH         LINE#         196
 C2:D7AAH         LINE#         197
 C2:D7AAH         LINE#         217
 C2:D7BBH         LINE#         218
 C2:D7BBH         LINE#         219
 C2:D7BEH         LINE#         220
 C2:D7BEH         LINE#         223
 C2:D7C1H         LINE#         224
 C2:D7C4H         LINE#         225
  -------         ENDPROC       NETUARTLOOP

  -------         PROC BANK=2   NETUARTTIMER
 C2:CCBEH         LINE#         242
 C2:CCBEH         LINE#         243
BL51 BANKED LINKER/LOCATER V5.03                                                      01/30/2013  19:55:46  PAGE 219


 C2:CCBEH         LINE#         255
 C2:CCD8H         LINE#         256
 C2:CCD8H         LINE#         257
 C2:CCD8H         LINE#         258
 C2:CCF1H         LINE#         259
 C2:CCF1H         LINE#         260
 C2:CCF7H         LINE#         261
 C2:CCFDH         LINE#         263
 C2:CCFDH         LINE#         264
 C2:CD03H         LINE#         265
 C2:CD07H         LINE#         266
 C2:CD07H         LINE#         267
 C2:CD07H         LINE#         268
 C2:CD07H         LINE#         269
 C2:CD09H         LINE#         270
 C2:CD09H         LINE#         271
 C2:CD1CH         LINE#         273
 C2:CD23H         LINE#         274
 C2:CD29H         LINE#         275
 C2:CD2FH         LINE#         276
 C2:CD34H         LINE#         277
 C2:CD34H         LINE#         278
 C2:CD35H         LINE#         281
 C2:CD35H         LINE#         282
 C2:CD38H         LINE#         283
 C2:CD38H         LINE#         284
 C2:CD38H         LINE#         285
 C2:CD38H         LINE#         286
 C2:CD38H         LINE#         287
  -------         ENDPROC       NETUARTTIMER

  -------         PROC BANK=2   TELNET_RFC
  -------         DO            
  X:38BFH         SYMBOL        flag
  X:38C0H         SYMBOL        i
  X:38C1H         SYMBOL        CMPflag
  -------         ENDDO         
 C2:91CCH         LINE#         304
 C2:91CCH         LINE#         305
 C2:91CCH         LINE#         306
 C2:91D7H         LINE#         308
 C2:91F6H         LINE#         309
 C2:91F6H         LINE#         310
 C2:920BH         LINE#         311
 C2:920BH         LINE#         312
 C2:926AH         LINE#         314
 C2:9272H         LINE#         315
 C2:9272H         LINE#         316
 C2:9283H         LINE#         317
 C2:929DH         LINE#         318
 C2:929DH         LINE#         319
 C2:92BEH         LINE#         320
 C2:92BEH         LINE#         321
 C2:92D6H         LINE#         322
 C2:92D6H         LINE#         323
 C2:931DH         LINE#         325
 C2:931DH         LINE#         326
BL51 BANKED LINKER/LOCATER V5.03                                                      01/30/2013  19:55:46  PAGE 220


 C2:933FH         LINE#         327
 C2:933FH         LINE#         329
 C2:9347H         LINE#         330
 C2:9347H         LINE#         332
 C2:9347H         LINE#         333
 C2:936BH         LINE#         334
 C2:936BH         LINE#         335
 C2:9380H         LINE#         336
 C2:9380H         LINE#         337
 C2:9397H         LINE#         338
 C2:93A7H         LINE#         339
 C2:93A7H         LINE#         340
 C2:93A7H         LINE#         341
 C2:93A7H         LINE#         342
 C2:93B8H         LINE#         343
 C2:93FEH         LINE#         345
 C2:9413H         LINE#         346
 C2:941CH         LINE#         347
 C2:941CH         LINE#         348
 C2:9439H         LINE#         349
 C2:9439H         LINE#         350
 C2:9439H         LINE#         351
 C2:9445H         LINE#         352
 C2:9449H         LINE#         354
 C2:944BH         LINE#         355
 C2:944DH         LINE#         356
 C2:944DH         LINE#         357
 C2:945CH         LINE#         358
 C2:9463H         LINE#         360
 C2:946BH         LINE#         361
 C2:946DH         LINE#         362
 C2:946DH         LINE#         363
 C2:9473H         LINE#         364
 C2:9478H         LINE#         365
 C2:9478H         LINE#         366
 C2:9478H         LINE#         367
 C2:947EH         LINE#         368
 C2:947EH         LINE#         369
 C2:94A0H         LINE#         370
 C2:94A6H         LINE#         371
 C2:94AEH         LINE#         373
 C2:94B4H         LINE#         374
 C2:94B4H         LINE#         375
 C2:94B7H         LINE#         376
 C2:94BDH         LINE#         377
 C2:94C0H         LINE#         379
 C2:94CFH         LINE#         381
  -------         ENDPROC       TELNET_RFC

  -------         PROC BANK=2   COM_PORT_OPTION
  -------         DO            
  X:2E4CH         SYMBOL        cp_data
  X:2E4FH         SYMBOL        NetUART
  X:2E52H         SYMBOL        i
  X:2E53H         SYMBOL        coun
  X:2E54H         SYMBOL        j
  X:2E55H         SYMBOL        k
BL51 BANKED LINKER/LOCATER V5.03                                                      01/30/2013  19:55:46  PAGE 221


  X:2E57H         SYMBOL        tmp
  X:2E58H         SYMBOL        parity
  X:2E5DH         SYMBOL        cp_buff
  X:2EC1H         SYMBOL        baudrate
  X:2EC5H         SYMBOL        baudrate_table
  -------         ENDDO         
 C2:500FH         LINE#         384
 C2:500FH         LINE#         385
 C2:500FH         LINE#         386
 C2:5024H         LINE#         387
 C2:5030H         LINE#         388
 C2:5037H         LINE#         389
 C2:503BH         LINE#         391
 C2:504DH         LINE#         393
 C2:5061H         LINE#         395
 C2:5070H         LINE#         396
 C2:50A7H         LINE#         398
 C2:50C7H         LINE#         399
 C2:50C7H         LINE#         400
 C2:510FH         LINE#         401
 C2:510FH         LINE#         402
 C2:510FH         LINE#         403
 C2:512AH         LINE#         404
 C2:5130H         LINE#         405
 C2:5141H         LINE#         406
 C2:515FH         LINE#         407
 C2:51B3H         LINE#         408
 C2:51B6H         LINE#         409
 C2:51B6H         LINE#         410
 C2:51DCH         LINE#         411
 C2:51F2H         LINE#         412
 C2:51F7H         LINE#         413
 C2:51F7H         LINE#         414
 C2:526AH         LINE#         415
 C2:5275H         LINE#         416
 C2:5291H         LINE#         417
 C2:5291H         LINE#         418
 C2:52ADH         LINE#         419
 C2:52EEH         LINE#         420
 C2:52F3H         LINE#         421
 C2:52F3H         LINE#         422
 C2:533FH         LINE#         423
 C2:5349H         LINE#         424
 C2:5349H         LINE#         425
 C2:535BH         LINE#         426
 C2:535BH         LINE#         427
 C2:538AH         LINE#         428
 C2:53AAH         LINE#         429
 C2:53AAH         LINE#         430
 C2:53C7H         LINE#         431
 C2:53E1H         LINE#         432
 C2:53E1H         LINE#         433
 C2:53EAH         LINE#         434
 C2:53EAH         LINE#         435
 C2:53EAH         LINE#         436
 C2:5410H         LINE#         437
 C2:5426H         LINE#         438
BL51 BANKED LINKER/LOCATER V5.03                                                      01/30/2013  19:55:46  PAGE 222


 C2:543BH         LINE#         439
 C2:543BH         LINE#         440
 C2:544EH         LINE#         441
 C2:5451H         LINE#         443
 C2:5451H         LINE#         444
 C2:548CH         LINE#         445
 C2:54A4H         LINE#         446
 C2:54A4H         LINE#         447
 C2:54A7H         LINE#         448
 C2:54A7H         LINE#         449
 C2:54CDH         LINE#         450
 C2:54E3H         LINE#         451
 C2:54F8H         LINE#         452
 C2:54F8H         LINE#         453
 C2:5506H         LINE#         454
 C2:5506H         LINE#         455
 C2:5526H         LINE#         456
 C2:5526H         LINE#         457
 C2:552EH         LINE#         458
 C2:5533H         LINE#         459
 C2:5536H         LINE#         461
 C2:5536H         LINE#         462
 C2:5545H         LINE#         463
 C2:5545H         LINE#         464
 C2:5579H         LINE#         465
 C2:5579H         LINE#         466
 C2:5581H         LINE#         467
 C2:55C4H         LINE#         468
 C2:55E4H         LINE#         469
 C2:55E4H         LINE#         470
 C2:55E7H         LINE#         471
 C2:55E7H         LINE#         472
 C2:560DH         LINE#         473
 C2:5623H         LINE#         474
 C2:5639H         LINE#         475
 C2:5639H         LINE#         476
 C2:5661H         LINE#         477
 C2:5664H         LINE#         479
 C2:5664H         LINE#         480
 C2:566BH         LINE#         481
 C2:5671H         LINE#         482
 C2:568EH         LINE#         483
 C2:5693H         LINE#         484
 C2:5693H         LINE#         485
 C2:5696H         LINE#         486
 C2:5696H         LINE#         487
 C2:56BCH         LINE#         488
 C2:56D2H         LINE#         489
 C2:5727H         LINE#         490
 C2:5727H         LINE#         491
 C2:5727H         LINE#         492
 C2:5743H         LINE#         493
 C2:5743H         LINE#         494
 C2:5745H         LINE#         495
 C2:5745H         LINE#         496
 C2:574FH         LINE#         497
 C2:5752H         LINE#         498
BL51 BANKED LINKER/LOCATER V5.03                                                      01/30/2013  19:55:46  PAGE 223


 C2:5754H         LINE#         499
 C2:5754H         LINE#         500
 C2:575AH         LINE#         501
 C2:575AH         LINE#         502
 C2:575CH         LINE#         503
 C2:575CH         LINE#         504
 C2:5762H         LINE#         505
 C2:5762H         LINE#         506
 C2:5764H         LINE#         507
 C2:5764H         LINE#         508
 C2:576EH         LINE#         509
 C2:5786H         LINE#         510
 C2:5789H         LINE#         511
 C2:5789H         LINE#         512
 C2:578FH         LINE#         513
 C2:578FH         LINE#         514
 C2:5791H         LINE#         515
 C2:5791H         LINE#         516
 C2:579BH         LINE#         517
 C2:57A0H         LINE#         518
 C2:57A3H         LINE#         519
 C2:57A3H         LINE#         520
 C2:57A3H         LINE#         521
 C2:57A3H         LINE#         522
 C2:57A3H         LINE#         523
 C2:57A3H         LINE#         524
 C2:57A3H         LINE#         525
 C2:57BBH         LINE#         527
 C2:57C0H         LINE#         528
 C2:57C3H         LINE#         529
 C2:57C3H         LINE#         530
 C2:57C3H         LINE#         531
 C2:57DCH         LINE#         532
 C2:57E2H         LINE#         533
 C2:57E5H         LINE#         534
 C2:57E5H         LINE#         535
 C2:57E5H         LINE#         536
 C2:57E5H         LINE#         537
 C2:580BH         LINE#         538
 C2:5821H         LINE#         540
 C2:5824H         LINE#         541
 C2:5824H         LINE#         542
 C2:584AH         LINE#         543
 C2:5860H         LINE#         545
 C2:5863H         LINE#         546
 C2:5863H         LINE#         547
 C2:5889H         LINE#         548
 C2:589FH         LINE#         550
 C2:58A1H         LINE#         551
 C2:58A1H         LINE#         552
 C2:58C4H         LINE#         553
 C2:58DAH         LINE#         555
 C2:58DCH         LINE#         556
 C2:58DCH         LINE#         557
 C2:58FEH         LINE#         558
 C2:5914H         LINE#         560
 C2:5914H         LINE#         561
BL51 BANKED LINKER/LOCATER V5.03                                                      01/30/2013  19:55:46  PAGE 224


 C2:5914H         LINE#         562
 C2:5925H         LINE#         563
 C2:5928H         LINE#         564
 C2:594EH         LINE#         565
 C2:596EH         LINE#         566
 C2:597DH         LINE#         568
  -------         ENDPROC       COM_PORT_OPTION

  -------         PROC BANK=2   RFC_LOOP
  -------         DO            
  D:0007H         SYMBOL        value
  D:0006H         SYMBOL        old
  -------         ENDDO         
 C2:CA73H         LINE#         570
 C2:CA73H         LINE#         571
 C2:CA73H         LINE#         572
 C2:CA78H         LINE#         573
 C2:CA7DH         LINE#         575
 C2:CA83H         LINE#         576
 C2:CA84H         LINE#         577
 C2:CA8BH         LINE#         578
 C2:CA8BH         LINE#         579
 C2:CA95H         LINE#         580
 C2:CA95H         LINE#         581
 C2:CA9BH         LINE#         582
 C2:CA9FH         LINE#         583
 C2:CAA4H         LINE#         585
 C2:CAAAH         LINE#         586
 C2:CAAAH         LINE#         587
 C2:CAB7H         LINE#         588
 C2:CAB7H         LINE#         589
 C2:CABDH         LINE#         590
 C2:CAC1H         LINE#         591
 C2:CAC6H         LINE#         593
 C2:CACCH         LINE#         594
 C2:CACCH         LINE#         595
 C2:CAD9H         LINE#         596
 C2:CAD9H         LINE#         597
 C2:CADFH         LINE#         598
 C2:CAE3H         LINE#         599
 C2:CAE8H         LINE#         601
 C2:CAEEH         LINE#         602
 C2:CAEEH         LINE#         603
 C2:CAFBH         LINE#         604
 C2:CAFBH         LINE#         605
 C2:CB01H         LINE#         606
 C2:CB05H         LINE#         607
 C2:CB09H         LINE#         609
 C2:CB0FH         LINE#         610
 C2:CB0FH         LINE#         611
 C2:CB0FH         LINE#         612
  -------         ENDPROC       RFC_LOOP

  -------         PROC BANK=2   CHECK_RFC2217_SIGNAL
  -------         DO            
  X:3723H         SYMBOL        pkt_signal
  -------         ENDDO         
BL51 BANKED LINKER/LOCATER V5.03                                                      01/30/2013  19:55:46  PAGE 225


 C2:BE96H         LINE#         614
 C2:BE96H         LINE#         615
 C2:BE96H         LINE#         616
 C2:BEA9H         LINE#         618
 C2:BECDH         LINE#         619
 C2:BECDH         LINE#         620
 C2:BED3H         LINE#         621
 C2:BED6H         LINE#         622
 C2:BED6H         LINE#         623
 C2:BEDBH         LINE#         624
 C2:BEE4H         LINE#         625
 C2:BEE7H         LINE#         626
 C2:BEE7H         LINE#         627
 C2:BEEEH         LINE#         628
 C2:BEEEH         LINE#         629
 C2:BEF0H         LINE#         630
 C2:BEFDH         LINE#         631
 C2:BF00H         LINE#         632
 C2:BF00H         LINE#         633
 C2:BF07H         LINE#         634
 C2:BF07H         LINE#         635
 C2:BF09H         LINE#         636
 C2:BF16H         LINE#         637
 C2:BF19H         LINE#         638
 C2:BF19H         LINE#         639
 C2:BF20H         LINE#         640
 C2:BF20H         LINE#         641
 C2:BF22H         LINE#         642
 C2:BF31H         LINE#         643
 C2:BF34H         LINE#         644
 C2:BF34H         LINE#         645
 C2:BF50H         LINE#         646
 C2:BF59H         LINE#         647
 C2:BF68H         LINE#         648
 C2:BF68H         LINE#         650
  -------         ENDPROC       CHECK_RFC2217_SIGNAL
  -------         ENDMOD        NET_UART

  -------         MODULE        TELNET
  C:0000H         SYMBOL        _ICE_DUMMY_
 C2:8E96H         PUBLIC        ReadEth2UARTTxBuf
 C2:94D0H         PUBLIC        ClearUARTRxBuf_ParityError
  X:2BD5H         PUBLIC        CLI_tmp_back
  D:0080H         PUBLIC        P0
  D:0090H         PUBLIC        P1
  D:00A0H         PUBLIC        P2
  D:00B0H         PUBLIC        P3
  D:00E8H         PUBLIC        P4
  X:2BD6H         PUBLIC        UartRxBuf
 C2:D85DH         PUBLIC        telnet_close
  X:2BE1H         PUBLIC        UartTxBuf
  X:2BECH         PUBLIC        CLI_tmp
 C2:D8BDH         PUBLIC        telnetd_init
  D:00A8H         PUBLIC        IE
 C2:D8C0H         PUBLIC        telnet
  X:2BEFH         PUBLIC        reverse_telnet_len
 C2:597EH         PUBLIC        ClearUARTRxBuf
BL51 BANKED LINKER/LOCATER V5.03                                                      01/30/2013  19:55:46  PAGE 226


  B:00E8H.0       PUBLIC        P4_0
 C2:D8B4H         PUBLIC        _ip210_isr_ctrl
  B:00A0H.4       PUBLIC        P2_4
  B:00E8H.5       PUBLIC        P4_5
  D:00B8H         PUBLIC        IP
  X:2BF1H         PUBLIC        s_con_timer
  X:2BF5H         PUBLIC        silent_total
 C2:D8C3H         PUBLIC        ip210_uart_isr_process
 C2:72E1H         PUBLIC        ReSendUARTRx2Eth
 C2:BD99H         PUBLIC        reverse_telnet_on_tcp_rx
 C2:D86EH         PUBLIC        telnet_init
 C2:D831H         PUBLIC        check_RS485
  X:2BF6H         PUBLIC        listen_wait
  X:2BF7H         PUBLIC        conn_flag
  X:2BF8H         PUBLIC        char_delimiter_offset
  D:0098H         PUBLIC        SCON
  D:0088H         PUBLIC        TCON
  X:2BFCH         PUBLIC        end
  X:2C00H         PUBLIC        silent_delimiter
  X:2C14H         PUBLIC        UartBuf
 C2:CBA3H         PUBLIC        telnet_connected_init
  X:2C16H         PUBLIC        con
 C2:D895H         PUBLIC        UART_RS485_Update_TxControl
  C:3D78H         SYMBOL        _?ix1000
  C:3D80H         SYMBOL        _?ix1001
  X:2C19H         PUBLIC        CLI_local
 C2:AE67H         PUBLIC        telnet_init_com
  X:2C1BH         PUBLIC        lb_flag
 C2:8480H         PUBLIC        _SendUARTRx2Eth
  D:008CH         PUBLIC        TH0
  X:2C1CH         PUBLIC        silent_ri
  D:008AH         PUBLIC        TL0
  D:00D8H         PUBLIC        WDTCON
  X:2C1DH         PUBLIC        CLI_read_flag
  X:2C1EH         PUBLIC        silent_wi
  X:2C1FH         PUBLIC        CLI_flag
  B:0088H.4       PUBLIC        TR0
  X:2C20H         PUBLIC        reverse_telnet_current
 C2:97A0H         PUBLIC        ResendUARTRx2UART
 C2:BB8DH         PUBLIC        telnet_connect
  X:2C21H         PUBLIC        tcp_check_ip
 C2:C5FAH         PUBLIC        uart_auto_send
  D:00C8H         PUBLIC        T2CON
 C2:D6F7H         PUBLIC        telnetd_listen
  X:2C25H         PUBLIC        RxBuf
  X:2C27H         PUBLIC        TxBuf
  X:2C29H         PUBLIC        TelnetData
 C2:9F87H         PUBLIC        WriteEthRx2UART
  X:2C58H         PUBLIC        reverse_telnet_data
 C2:D721H         PUBLIC        telnetd_close
  X:2C76H         PUBLIC        CLI_star_flag
  X:2C77H         PUBLIC        max_uart_rx_buf_len
  X:2C79H         PUBLIC        max_uart_tx_buf_len
 C2:67E6H         PUBLIC        telnetd
 C2:CB10H         PUBLIC        telnet_server_timeout
  X:2C7BH         PUBLIC        CLI_tmp_local
  X:2C7CH         PUBLIC        CLI_con
BL51 BANKED LINKER/LOCATER V5.03                                                      01/30/2013  19:55:46  PAGE 227


  D:00D0H         PUBLIC        PSW

  -------         PROC BANK=2   REVERSE_TELNET_ON_TCP_RX
 C2:BD99H         LINE#         132
 C2:BD99H         LINE#         133
 C2:BD99H         LINE#         134
 C2:BDA0H         LINE#         135
 C2:BDA0H         LINE#         136
 C2:BDA3H         LINE#         137
 C2:BDA8H         LINE#         138
 C2:BDD5H         LINE#         139
 C2:BDECH         LINE#         140
 C2:BDFBH         LINE#         141
 C2:BDFBH         LINE#         143
 C2:BE04H         LINE#         144
 C2:BE07H         LINE#         146
 C2:BE0EH         LINE#         147
 C2:BE0EH         LINE#         148
 C2:BE14H         LINE#         149
 C2:BE1BH         LINE#         150
 C2:BE2AH         LINE#         151
 C2:BE36H         LINE#         152
 C2:BE36H         LINE#         155
 C2:BE3DH         LINE#         156
 C2:BE3DH         LINE#         157
 C2:BE6DH         LINE#         158
 C2:BE84H         LINE#         159
 C2:BE93H         LINE#         160
 C2:BE93H         LINE#         161
 C2:BE95H         LINE#         162
  -------         ENDPROC       REVERSE_TELNET_ON_TCP_RX

  -------         PROC BANK=2   _IP210_ISR_CTRL
  X:3903H         SYMBOL        status
 C2:D8B4H         LINE#         168
 C2:D8B9H         LINE#         169
 C2:D8B9H         LINE#         170
 C2:D8B9H         LINE#         190
  -------         ENDPROC       _IP210_ISR_CTRL

  -------         PROC BANK=2   IP210_UART_ISR_PROCESS
 C2:D8C3H         LINE#         196
 C2:D8C3H         LINE#         197
 C2:D8C3H         LINE#         220
  -------         ENDPROC       IP210_UART_ISR_PROCESS

  -------         PROC BANK=2   TELNET_INIT_COM
 C2:AE67H         LINE#         233
 C2:AE67H         LINE#         234
 C2:AE67H         LINE#         235
 C2:AE75H         LINE#         236
 C2:AE81H         LINE#         238
 C2:AE86H         LINE#         240
 C2:AE8CH         LINE#         241
 C2:AE90H         LINE#         242
 C2:AE98H         LINE#         243
 C2:AEA2H         LINE#         245
BL51 BANKED LINKER/LOCATER V5.03                                                      01/30/2013  19:55:46  PAGE 228


 C2:AEA7H         LINE#         246
 C2:AEB1H         LINE#         247
 C2:AECBH         LINE#         249
 C2:AED5H         LINE#         250
 C2:AEE4H         LINE#         252
 C2:AEF3H         LINE#         254
 C2:AF05H         LINE#         255
 C2:AF10H         LINE#         256
 C2:AF1AH         LINE#         257
 C2:AF22H         LINE#         258
 C2:AF4EH         LINE#         259
 C2:AF7EH         LINE#         260
 C2:AF85H         LINE#         261
 C2:AF8FH         LINE#         262
 C2:AF94H         LINE#         263
 C2:AF98H         LINE#         264
 C2:AF9CH         LINE#         265
 C2:AFA1H         LINE#         266
 C2:AFA6H         LINE#         267
 C2:AFD1H         LINE#         268
 C2:AFD6H         LINE#         269
 C2:AFE0H         LINE#         270
 C2:AFEAH         LINE#         271
 C2:AFF4H         LINE#         272
 C2:AFFEH         LINE#         274
 C2:B00BH         LINE#         275
 C2:B00BH         LINE#         276
 C2:B00BH         LINE#         277
 C2:B00DH         LINE#         278
 C2:B00FH         LINE#         279
 C2:B011H         LINE#         280
 C2:B011H         LINE#         281
 C2:B011H         LINE#         282
 C2:B011H         LINE#         283
 C2:B011H         LINE#         284
 C2:B013H         LINE#         286
 C2:B015H         LINE#         287
 C2:B015H         LINE#         288
 C2:B015H         LINE#         293
 C2:B018H         LINE#         294
 C2:B02DH         LINE#         295
 C2:B040H         LINE#         307
  -------         ENDPROC       TELNET_INIT_COM

  -------         PROC BANK=2   TELNETD_CLOSE
 C2:D721H         LINE#         320
 C2:D721H         LINE#         321
 C2:D721H         LINE#         322
 C2:D738H         LINE#         323
 C2:D73FH         LINE#         324
 C2:D743H         LINE#         326
 C2:D748H         LINE#         327
  -------         ENDPROC       TELNETD_CLOSE

  -------         PROC BANK=2   TELNETD_INIT
 C2:D8BDH         LINE#         340
 C2:D8BDH         LINE#         341
BL51 BANKED LINKER/LOCATER V5.03                                                      01/30/2013  19:55:46  PAGE 229


 C2:D8BDH         LINE#         342
  -------         ENDPROC       TELNETD_INIT

  -------         PROC BANK=2   TELNETD_LISTEN
 C2:D6F7H         LINE#         356
 C2:D6F7H         LINE#         357
 C2:D6F7H         LINE#         358
 C2:D70EH         LINE#         359
  -------         ENDPROC       TELNETD_LISTEN

  -------         PROC BANK=2   TELNET_CONNECTED_INIT
  -------         DO            
  X:38C2H         SYMBOL        con1
  -------         ENDDO         
 C2:CBA3H         LINE#         361
 C2:CBA3H         LINE#         362
 C2:CBA3H         LINE#         363
 C2:CBB1H         LINE#         364
 C2:CBB7H         LINE#         365
 C2:CBBEH         LINE#         367
 C2:CBBEH         LINE#         368
 C2:CBD3H         LINE#         369
 C2:CBD9H         LINE#         370
 C2:CBDEH         LINE#         371
 C2:CBE8H         LINE#         372
 C2:CBEEH         LINE#         374
 C2:CBF4H         LINE#         375
 C2:CBF4H         LINE#         376
 C2:CC11H         LINE#         377
 C2:CC31H         LINE#         378
 C2:CC31H         LINE#         380
 C2:CC31H         LINE#         381
  -------         ENDPROC       TELNET_CONNECTED_INIT

  -------         PROC BANK=2   TELNETD
  -------         DO            
  X:36B1H         SYMBOL        cont
  -------         ENDDO         
 C2:67E6H         LINE#         393
 C2:67E6H         LINE#         394
 C2:67E6H         LINE#         396
 C2:67F9H         LINE#         398
 C2:67FCH         LINE#         403
 C2:6816H         LINE#         404
 C2:6816H         LINE#         405
 C2:681FH         LINE#         406
 C2:681FH         LINE#         408
 C2:6829H         LINE#         409
 C2:6829H         LINE#         411
 C2:6832H         LINE#         412
 C2:6832H         LINE#         413
 C2:683FH         LINE#         414
 C2:6845H         LINE#         415
 C2:6865H         LINE#         416
 C2:686BH         LINE#         417
 C2:688FH         LINE#         418
 C2:68A3H         LINE#         419
BL51 BANKED LINKER/LOCATER V5.03                                                      01/30/2013  19:55:46  PAGE 230


 C2:68C9H         LINE#         420
 C2:68C9H         LINE#         421
 C2:68CCH         LINE#         425
 C2:68CCH         LINE#         426
 C2:68E0H         LINE#         427
 C2:68E0H         LINE#         428
 C2:6907H         LINE#         429
 C2:6907H         LINE#         430
 C2:690AH         LINE#         432
 C2:690AH         LINE#         433
 C2:690AH         LINE#         434
 C2:6911H         LINE#         435
 C2:6911H         LINE#         436
 C2:6917H         LINE#         437
 C2:6917H         LINE#         438
 C2:691DH         LINE#         439
 C2:691DH         LINE#         440
 C2:6922H         LINE#         441
 C2:696DH         LINE#         442
 C2:6972H         LINE#         443
 C2:6979H         LINE#         444
 C2:6979H         LINE#         445
 C2:697EH         LINE#         446
 C2:697EH         LINE#         447
 C2:6981H         LINE#         451
 C2:6981H         LINE#         452
 C2:698BH         LINE#         453
 C2:698BH         LINE#         454
 C2:698EH         LINE#         459
 C2:69A8H         LINE#         460
 C2:69A8H         LINE#         461
 C2:69ABH         LINE#         462
 C2:69B2H         LINE#         463
 C2:69B2H         LINE#         464
 C2:69B8H         LINE#         465
 C2:69BBH         LINE#         466
 C2:69BBH         LINE#         467
 C2:69BBH         LINE#         470
 C2:69E1H         LINE#         471
 C2:69F5H         LINE#         472
 C2:6A1BH         LINE#         473
 C2:6A21H         LINE#         488
 C2:6A28H         LINE#         489
 C2:6A28H         LINE#         493
 C2:6A2FH         LINE#         494
 C2:6A2FH         LINE#         495
 C2:6A32H         LINE#         496
 C2:6A35H         LINE#         500
 C2:6A37H         LINE#         504
 C2:6A3AH         LINE#         505
 C2:6A52H         LINE#         506
 C2:6A52H         LINE#         507
 C2:6A52H         LINE#         508
 C2:6A52H         LINE#         509
 C2:6A59H         LINE#         510
 C2:6A59H         LINE#         511
 C2:6A5CH         LINE#         515
BL51 BANKED LINKER/LOCATER V5.03                                                      01/30/2013  19:55:46  PAGE 231


 C2:6A69H         LINE#         516
 C2:6A69H         LINE#         517
 C2:6A6BH         LINE#         518
 C2:6A7CH         LINE#         519
 C2:6A7CH         LINE#         520
 C2:6A81H         LINE#         521
 C2:6A87H         LINE#         522
 C2:6A87H         LINE#         523
 C2:6A87H         LINE#         524
 C2:6A8AH         LINE#         525
 C2:6A8AH         LINE#         527
 C2:6A98H         LINE#         528
 C2:6A98H         LINE#         529
 C2:6A9BH         LINE#         533
 C2:6A9EH         LINE#         535
 C2:6AC4H         LINE#         536
 C2:6AD8H         LINE#         537
 C2:6AFEH         LINE#         538
 C2:6B04H         LINE#         541
 C2:6B1EH         LINE#         542
 C2:6B1EH         LINE#         543
 C2:6B21H         LINE#         544
 C2:6B28H         LINE#         545
 C2:6B28H         LINE#         546
 C2:6B2EH         LINE#         547
 C2:6B31H         LINE#         548
 C2:6B31H         LINE#         549
 C2:6B31H         LINE#         551
 C2:6B36H         LINE#         552
 C2:6B46H         LINE#         553
 C2:6B46H         LINE#         554
 C2:6B4BH         LINE#         556
 C2:6B51H         LINE#         558
 C2:6B51H         LINE#         559
 C2:6B66H         LINE#         560
 C2:6B66H         LINE#         561
 C2:6B69H         LINE#         562
 C2:6B6FH         LINE#         563
 C2:6B6FH         LINE#         564
 C2:6B6FH         LINE#         565
 C2:6B6FH         LINE#         566
 C2:6B79H         LINE#         567
 C2:6B7CH         LINE#         568
 C2:6B86H         LINE#         569
 C2:6B86H         LINE#         570
 C2:6B89H         LINE#         574
 C2:6B8CH         LINE#         576
 C2:6B92H         LINE#         577
 C2:6B92H         LINE#         578
 C2:6B98H         LINE#         579
 C2:6B98H         LINE#         580
 C2:6B9CH         LINE#         581
 C2:6BA2H         LINE#         582
 C2:6BA2H         LINE#         583
 C2:6BA7H         LINE#         584
 C2:6BB7H         LINE#         586
 C2:6BB7H         LINE#         587
BL51 BANKED LINKER/LOCATER V5.03                                                      01/30/2013  19:55:46  PAGE 232


 C2:6BB7H         LINE#         588
 C2:6BB7H         LINE#         589
 C2:6BBDH         LINE#         590
 C2:6BD2H         LINE#         593
 C2:6BECH         LINE#         594
 C2:6BECH         LINE#         595
 C2:6BF3H         LINE#         596
 C2:6BF3H         LINE#         597
 C2:6BF9H         LINE#         598
 C2:6BFCH         LINE#         599
 C2:6BFCH         LINE#         600
 C2:6BFCH         LINE#         602
 C2:6C0CH         LINE#         603
 C2:6C0CH         LINE#         604
 C2:6C11H         LINE#         606
 C2:6C17H         LINE#         608
 C2:6C17H         LINE#         609
 C2:6C2CH         LINE#         610
 C2:6C2CH         LINE#         611
 C2:6C2FH         LINE#         612
 C2:6C35H         LINE#         613
 C2:6C35H         LINE#         614
 C2:6C35H         LINE#         615
 C2:6C35H         LINE#         616
 C2:6C4CH         LINE#         617
 C2:6C4CH         LINE#         618
 C2:6C7AH         LINE#         619
 C2:6C7AH         LINE#         620
 C2:6C84H         LINE#         621
 C2:6C95H         LINE#         622
 C2:6C95H         LINE#         623
 C2:6C9AH         LINE#         624
 C2:6CA0H         LINE#         625
 C2:6CA0H         LINE#         626
 C2:6CA0H         LINE#         627
 C2:6CA0H         LINE#         628
 C2:6CA0H         LINE#         629
 C2:6CA7H         LINE#         630
 C2:6CA7H         LINE#         631
 C2:6CACH         LINE#         632
 C2:6CE1H         LINE#         633
 C2:6D17H         LINE#         634
 C2:6D1DH         LINE#         635
 C2:6D1DH         LINE#         636
 C2:6D28H         LINE#         637
 C2:6D28H         LINE#         638
 C2:6D5AH         LINE#         639
 C2:6D5AH         LINE#         640
 C2:6D5EH         LINE#         641
 C2:6D62H         LINE#         642
 C2:6D66H         LINE#         643
 C2:6D6AH         LINE#         644
 C2:6D6EH         LINE#         647
 C2:6D72H         LINE#         648
 C2:6D72H         LINE#         649
 C2:6D72H         LINE#         650
 C2:6D79H         LINE#         651
BL51 BANKED LINKER/LOCATER V5.03                                                      01/30/2013  19:55:46  PAGE 233


 C2:6D79H         LINE#         652
 C2:6D7EH         LINE#         653
 C2:6D84H         LINE#         654
 C2:6D84H         LINE#         655
  -------         ENDPROC       TELNETD

  -------         PROC BANK=2   TELNET_INIT
 C2:D86EH         LINE#         669
 C2:D86EH         LINE#         670
 C2:D86EH         LINE#         671
  -------         ENDPROC       TELNET_INIT

  -------         PROC BANK=2   TELNET_CLOSE
 C2:D85DH         LINE#         685
 C2:D85DH         LINE#         686
 C2:D85DH         LINE#         687
 C2:D864H         LINE#         688
 C2:D868H         LINE#         690
 C2:D86DH         LINE#         691
  -------         ENDPROC       TELNET_CLOSE

  -------         PROC BANK=2   TELNET_CONNECT
  -------         DO            
  X:380CH         SYMBOL        result
  X:380DH         SYMBOL        ip
  -------         ENDDO         
 C2:BB8DH         LINE#         705
 C2:BB8DH         LINE#         706
 C2:BB8DH         LINE#         707
 C2:BB93H         LINE#         709
 C2:BBA5H         LINE#         711
 C2:BBBEH         LINE#         712
 C2:BBC6H         LINE#         713
 C2:BBC8H         LINE#         714
 C2:BBCDH         LINE#         716
 C2:BBD5H         LINE#         717
 C2:BBD6H         LINE#         719
 C2:BBF1H         LINE#         720
 C2:BC03H         LINE#         723
 C2:BC1CH         LINE#         724
 C2:BC1CH         LINE#         726
 C2:BC33H         LINE#         727
 C2:BC33H         LINE#         728
 C2:BC39H         LINE#         729
 C2:BC39H         LINE#         730
 C2:BC3FH         LINE#         731
 C2:BC42H         LINE#         732
 C2:BC4AH         LINE#         733
 C2:BC52H         LINE#         734
 C2:BC58H         LINE#         735
 C2:BC58H         LINE#         736
 C2:BC58H         LINE#         738
 C2:BC61H         LINE#         739
 C2:BC6EH         LINE#         741
 C2:BC93H         LINE#         742
 C2:BC93H         LINE#         778
 C2:BC95H         LINE#         779
BL51 BANKED LINKER/LOCATER V5.03                                                      01/30/2013  19:55:46  PAGE 234


  -------         ENDPROC       TELNET_CONNECT

  -------         PROC BANK=2   TELNET
 C2:D8C0H         LINE#         792
 C2:D8C0H         LINE#         793
 C2:D8C0H         LINE#         794
  -------         ENDPROC       TELNET

  -------         PROC BANK=2   CLEARUARTRXBUF
  -------         DO            
  X:36B9H         SYMBOL        i
  X:36BAH         SYMBOL        con1
  X:36BDH         SYMBOL        UART_newdata_len
  -------         DO            
  X:36BFH         SYMBOL        last_wi
  -------         ENDDO         
  -------         DO            
  X:36BFH         SYMBOL        WB
  -------         ENDDO         
  -------         ENDDO         
 C2:597EH         LINE#         814
 C2:597EH         LINE#         815
 C2:597EH         LINE#         818
 C2:598CH         LINE#         821
 C2:5991H         LINE#         822
 C2:59B7H         LINE#         824
 C2:59C4H         LINE#         825
 C2:59C4H         LINE#         826
 C2:59DBH         LINE#         827
 C2:59DBH         LINE#         828
 C2:5A3AH         LINE#         829
 C2:5A3AH         LINE#         830
 C2:5A43H         LINE#         831
 C2:5A43H         LINE#         832
 C2:5A50H         LINE#         833
 C2:5A50H         LINE#         835
 C2:5A64H         LINE#         836
 C2:5A78H         LINE#         838
 C2:5AA4H         LINE#         839
 C2:5AA4H         LINE#         840
 C2:5ABBH         LINE#         841
 C2:5ABBH         LINE#         842
 C2:5ACFH         LINE#         843
 C2:5AD1H         LINE#         845
 C2:5AD1H         LINE#         846
 C2:5AEFH         LINE#         847
 C2:5AEFH         LINE#         848
 C2:5AF5H         LINE#         849
 C2:5AFBH         LINE#         850
 C2:5B06H         LINE#         851
 C2:5B06H         LINE#         852
 C2:5B06H         LINE#         853
 C2:5B06H         LINE#         854
 C2:5B06H         LINE#         855
 C2:5B06H         LINE#         856
 C2:5B06H         LINE#         858
 C2:5B0CH         LINE#         859
BL51 BANKED LINKER/LOCATER V5.03                                                      01/30/2013  19:55:46  PAGE 235


 C2:5B0CH         LINE#         860
 C2:5B0FH         LINE#         861
 C2:5B12H         LINE#         863
 C2:5B12H         LINE#         865
 C2:5B18H         LINE#         867
 C2:5B23H         LINE#         882
 C2:5B29H         LINE#         883
 C2:5B29H         LINE#         885
 C2:5B47H         LINE#         886
 C2:5B47H         LINE#         888
 C2:5B4AH         LINE#         889
 C2:5B4CH         LINE#         891
 C2:5B4CH         LINE#         893
 C2:5B4FH         LINE#         894
 C2:5B4FH         LINE#         895
 C2:5B4FH         LINE#         899
 C2:5B6BH         LINE#         901
 C2:5B6BH         LINE#         902
 C2:5B76H         LINE#         903
 C2:5B76H         LINE#         905
 C2:5B94H         LINE#         910
 C2:5B94H         LINE#         911
 C2:5B99H         LINE#         912
 C2:5BA5H         LINE#         913
 C2:5BC2H         LINE#         914
 C2:5BE2H         LINE#         915
 C2:5BEBH         LINE#         916
 C2:5BEEH         LINE#         918
 C2:5BEEH         LINE#         919
 C2:5BF3H         LINE#         920
 C2:5BFDH         LINE#         921
 C2:5C01H         LINE#         922
 C2:5C37H         LINE#         923
 C2:5C47H         LINE#         924
 C2:5C4DH         LINE#         925
 C2:5C4DH         LINE#         926
 C2:5C5AH         LINE#         927
 C2:5C7AH         LINE#         928
 C2:5C7AH         LINE#         929
 C2:5C81H         LINE#         930
 C2:5CC5H         LINE#         931
 C2:5CC5H         LINE#         932
 C2:5CC5H         LINE#         933
 C2:5CC5H         LINE#         937
 C2:5CD8H         LINE#         938
 C2:5CD8H         LINE#         939
 C2:5CF6H         LINE#         940
 C2:5CF6H         LINE#         941
 C2:5D21H         LINE#         942
 C2:5D35H         LINE#         943
 C2:5D54H         LINE#         944
 C2:5D54H         LINE#         945
 C2:5D75H         LINE#         958
 C2:5D9CH         LINE#         962
 C2:5D9CH         LINE#         963
 C2:5DB7H         LINE#         964
 C2:5DB7H         LINE#         965
BL51 BANKED LINKER/LOCATER V5.03                                                      01/30/2013  19:55:46  PAGE 236


 C2:5DC0H         LINE#         966
 C2:5DC0H         LINE#         967
 C2:5DE5H         LINE#         968
 C2:5DE5H         LINE#         969
 C2:5E05H         LINE#         970
 C2:5E05H         LINE#         971
 C2:5E40H         LINE#         972
 C2:5E54H         LINE#         973
 C2:5E57H         LINE#         974
 C2:5E57H         LINE#         976
 C2:5E57H         LINE#         977
 C2:5E82H         LINE#         978
 C2:5E82H         LINE#         979
 C2:5E82H         LINE#         980
 C2:5E82H         LINE#         981
 C2:5E85H         LINE#         983
 C2:5E85H         LINE#         984
 C2:5EA0H         LINE#         985
 C2:5EA0H         LINE#         986
 C2:5ED7H         LINE#         987
 C2:5EEBH         LINE#         988
 C2:5EEDH         LINE#         990
 C2:5EEDH         LINE#         991
 C2:5F28H         LINE#         992
 C2:5F2EH         LINE#         993
 C2:5F2EH         LINE#         994
 C2:5F2EH         LINE#         995
 C2:5F39H         LINE#         996
 C2:5F39H         LINE#         997
 C2:5F5DH         LINE#         998
 C2:5F5DH         LINE#         999
 C2:5F6AH         LINE#         1000
 C2:5F6FH         LINE#         1001
 C2:5F79H         LINE#         1002
 C2:5FAEH         LINE#         1003
 C2:5FE4H         LINE#         1004
 C2:5FE9H         LINE#         1005
 C2:5FEFH         LINE#         1006
 C2:5FEFH         LINE#         1007
 C2:5FF2H         LINE#         1008
 C2:6012H         LINE#         1009
 C2:6014H         LINE#         1011
 C2:6017H         LINE#         1012
 C2:601EH         LINE#         1013
 C2:6020H         LINE#         1014
 C2:6020H         LINE#         1016
 C2:6025H         LINE#         1017
 C2:6025H         LINE#         1018
 C2:602EH         LINE#         1019
 C2:602EH         LINE#         1020
 C2:6078H         LINE#         1021
 C2:6081H         LINE#         1022
 C2:6093H         LINE#         1027
 C2:6096H         LINE#         1029
 C2:6096H         LINE#         1030
 C2:60B1H         LINE#         1031
 C2:60D0H         LINE#         1046
BL51 BANKED LINKER/LOCATER V5.03                                                      01/30/2013  19:55:46  PAGE 237


 C2:60D7H         LINE#         1047
 C2:60F6H         LINE#         1057
 C2:6118H         LINE#         1058
 C2:6124H         LINE#         1059
 C2:6124H         LINE#         1060
 C2:6126H         LINE#         1062
 C2:6126H         LINE#         1063
 C2:612CH         LINE#         1064
 C2:6140H         LINE#         1065
 C2:6146H         LINE#         1066
 C2:6146H         LINE#         1067
 C2:6152H         LINE#         1068
 C2:6160H         LINE#         1069
 C2:6160H         LINE#         1070
 C2:6169H         LINE#         1071
 C2:6169H         LINE#         1072
 C2:6175H         LINE#         1073
 C2:6194H         LINE#         1074
 C2:6194H         LINE#         1078
 C2:6194H         LINE#         1079
 C2:6194H         LINE#         1080
 C2:6194H         LINE#         1081
 C2:6199H         LINE#         1082
  -------         ENDPROC       CLEARUARTRXBUF

  -------         PROC BANK=2   _SENDUARTRX2ETH
  X:35C0H         SYMBOL        protocol
  -------         DO            
  X:35C1H         SYMBOL        mss
  X:35C3H         SYMBOL        i
  X:35C5H         SYMBOL        current_pos
  D:0006H         SYMBOL        current_pos2
  D:0006H         SYMBOL        len
  X:35C7H         SYMBOL        wrap
  -------         ENDDO         
 C2:8480H         LINE#         1095
 C2:8485H         LINE#         1096
 C2:8485H         LINE#         1097
 C2:84A1H         LINE#         1099
 C2:84ABH         LINE#         1100
 C2:84B0H         LINE#         1102
 C2:84D3H         LINE#         1105
 C2:84DCH         LINE#         1107
 C2:84EBH         LINE#         1108
 C2:8501H         LINE#         1109
 C2:8501H         LINE#         1111
 C2:8521H         LINE#         1112
 C2:8521H         LINE#         1113
 C2:852CH         LINE#         1114
 C2:852CH         LINE#         1115
 C2:852FH         LINE#         1119
 C2:852FH         LINE#         1120
 C2:8558H         LINE#         1121
 C2:8565H         LINE#         1122
 C2:8565H         LINE#         1123
 C2:8582H         LINE#         1124
 C2:8589H         LINE#         1125
BL51 BANKED LINKER/LOCATER V5.03                                                      01/30/2013  19:55:46  PAGE 238


 C2:8589H         LINE#         1126
 C2:85A0H         LINE#         1127
 C2:85A0H         LINE#         1128
 C2:85B4H         LINE#         1129
 C2:85B4H         LINE#         1130
 C2:85CBH         LINE#         1131
 C2:85CBH         LINE#         1132
 C2:85DBH         LINE#         1133
 C2:85EFH         LINE#         1134
 C2:85F2H         LINE#         1135
 C2:85F2H         LINE#         1136
 C2:85F2H         LINE#         1137
 C2:8600H         LINE#         1138
 C2:860DH         LINE#         1139
 C2:860DH         LINE#         1140
 C2:8610H         LINE#         1141
 C2:8610H         LINE#         1142
 C2:8630H         LINE#         1143
 C2:8630H         LINE#         1144
 C2:863BH         LINE#         1145
 C2:8653H         LINE#         1146
 C2:8653H         LINE#         1147
 C2:8659H         LINE#         1148
 C2:865FH         LINE#         1149
 C2:866DH         LINE#         1150
 C2:866DH         LINE#         1151
 C2:8670H         LINE#         1152
 C2:8670H         LINE#         1153
 C2:8670H         LINE#         1154
 C2:8684H         LINE#         1155
 C2:8684H         LINE#         1156
 C2:86B2H         LINE#         1157
 C2:86B2H         LINE#         1158
 C2:86B2H         LINE#         1159
 C2:86B4H         LINE#         1160
 C2:86B4H         LINE#         1161
 C2:86B4H         LINE#         1162
 C2:86C8H         LINE#         1163
 C2:86C8H         LINE#         1164
 C2:86F6H         LINE#         1165
 C2:86F6H         LINE#         1166
 C2:8708H         LINE#         1167
 C2:870AH         LINE#         1168
 C2:870AH         LINE#         1169
 C2:870AH         LINE#         1170
 C2:871BH         LINE#         1171
 C2:8732H         LINE#         1172
 C2:8732H         LINE#         1173
 C2:8741H         LINE#         1174
 C2:8748H         LINE#         1175
 C2:874AH         LINE#         1177
 C2:874AH         LINE#         1178
 C2:8751H         LINE#         1179
 C2:8765H         LINE#         1180
 C2:8765H         LINE#         1182
 C2:8767H         LINE#         1184
 C2:8767H         LINE#         1185
BL51 BANKED LINKER/LOCATER V5.03                                                      01/30/2013  19:55:46  PAGE 239


 C2:878BH         LINE#         1186
 C2:878BH         LINE#         1188
 C2:87B5H         LINE#         1189
 C2:87B5H         LINE#         1190
 C2:87BBH         LINE#         1191
 C2:87BBH         LINE#         1192
 C2:87C4H         LINE#         1193
 C2:87C4H         LINE#         1194
 C2:87D4H         LINE#         1195
 C2:8812H         LINE#         1196
 C2:8812H         LINE#         1197
  -------         ENDPROC       _SENDUARTRX2ETH

  -------         PROC BANK=2   RESENDUARTRX2ETH
  -------         DO            
  X:364DH         SYMBOL        mss
  X:364FH         SYMBOL        len
  -------         DO            
  X:3651H         SYMBOL        i
  X:3652H         SYMBOL        remain_len
  X:3654H         SYMBOL        old_ri
  -------         ENDDO         
  -------         ENDDO         
 C2:72E1H         LINE#         1210
 C2:72E1H         LINE#         1211
 C2:72E1H         LINE#         1212
 C2:72FCH         LINE#         1213
 C2:7301H         LINE#         1216
 C2:730AH         LINE#         1219
 C2:7327H         LINE#         1221
 C2:7331H         LINE#         1223
 C2:733BH         LINE#         1230
 C2:7365H         LINE#         1232
 C2:7389H         LINE#         1234
 C2:738CH         LINE#         1239
 C2:73AEH         LINE#         1240
 C2:73AEH         LINE#         1241
 C2:73E3H         LINE#         1242
 C2:73E6H         LINE#         1244
 C2:73E6H         LINE#         1245
 C2:742EH         LINE#         1246
 C2:7486H         LINE#         1247
 C2:7486H         LINE#         1249
 C2:7489H         LINE#         1254
 C2:749FH         LINE#         1255
 C2:749FH         LINE#         1256
 C2:74B0H         LINE#         1257
 C2:74B2H         LINE#         1259
 C2:74B2H         LINE#         1260
 C2:74C1H         LINE#         1261
 C2:74C1H         LINE#         1262
 C2:74D0H         LINE#         1264
 C2:74F4H         LINE#         1269
 C2:74F4H         LINE#         1271
 C2:74F4H         LINE#         1273
 C2:74F9H         LINE#         1274
 C2:74FCH         LINE#         1278
BL51 BANKED LINKER/LOCATER V5.03                                                      01/30/2013  19:55:46  PAGE 240


 C2:7501H         LINE#         1279
 C2:751AH         LINE#         1280
 C2:751AH         LINE#         1282
 C2:752EH         LINE#         1283
 C2:753DH         LINE#         1285
 C2:7543H         LINE#         1287
 C2:755FH         LINE#         1289
 C2:7578H         LINE#         1291
 C2:758DH         LINE#         1293
 C2:75A2H         LINE#         1294
 C2:75A2H         LINE#         1296
 C2:75A5H         LINE#         1300
 C2:75B9H         LINE#         1301
 C2:75DBH         LINE#         1303
 C2:75FFH         LINE#         1305
 C2:760BH         LINE#         1306
 C2:7631H         LINE#         1308
 C2:764BH         LINE#         1310
 C2:7660H         LINE#         1312
 C2:767CH         LINE#         1313
 C2:767CH         LINE#         1315
 C2:76B7H         LINE#         1319
 C2:76BAH         LINE#         1321
 C2:76BAH         LINE#         1323
 C2:7711H         LINE#         1324
 C2:777EH         LINE#         1329
 C2:777EH         LINE#         1330
 C2:7787H         LINE#         1331
 C2:7796H         LINE#         1332
 C2:77ABH         LINE#         1333
 C2:77ABH         LINE#         1334
 C2:77AFH         LINE#         1335
 C2:77B3H         LINE#         1336
 C2:77B3H         LINE#         1338
 C2:77B3H         LINE#         1339
 C2:77B8H         LINE#         1340
 C2:77BBH         LINE#         1345
  -------         ENDPROC       RESENDUARTRX2ETH

  -------         PROC BANK=2   WRITEETHRX2UART
  -------         DO            
  X:3848H         SYMBOL        len
  D:0006H         SYMBOL        tx_fifo_space
  -------         DO            
  X:384AH         SYMBOL        RB
  -------         ENDDO         
  -------         ENDDO         
 C2:9F87H         LINE#         1358
 C2:9F87H         LINE#         1359
 C2:9F87H         LINE#         1362
 C2:9F90H         LINE#         1365
 C2:9FAEH         LINE#         1366
 C2:9FAEH         LINE#         1367
 C2:9FC2H         LINE#         1368
 C2:9FC2H         LINE#         1369
 C2:9FD8H         LINE#         1370
 C2:9FD8H         LINE#         1371
BL51 BANKED LINKER/LOCATER V5.03                                                      01/30/2013  19:55:46  PAGE 241


 C2:9FD8H         LINE#         1372
 C2:9FEAH         LINE#         1373
 C2:9FEAH         LINE#         1375
 C2:9FFBH         LINE#         1376
 C2:9FFBH         LINE#         1377
 C2:9FFDH         LINE#         1378
 C2:9FFDH         LINE#         1380
 C2:A002H         LINE#         1384
 C2:A00FH         LINE#         1385
 C2:A00FH         LINE#         1386
 C2:A01FH         LINE#         1387
 C2:A01FH         LINE#         1388
 C2:A024H         LINE#         1389
 C2:A026H         LINE#         1391
 C2:A026H         LINE#         1392
 C2:A02BH         LINE#         1393
 C2:A02BH         LINE#         1395
 C2:A04EH         LINE#         1396
 C2:A04EH         LINE#         1397
 C2:A06AH         LINE#         1398
 C2:A0A8H         LINE#         1399
 C2:A0ABH         LINE#         1401
 C2:A0ABH         LINE#         1402
 C2:A0C8H         LINE#         1403
 C2:A0E4H         LINE#         1404
 C2:A12FH         LINE#         1405
 C2:A160H         LINE#         1406
 C2:A1C5H         LINE#         1407
 C2:A1C5H         LINE#         1408
 C2:A1C5H         LINE#         1409
 C2:A1C5H         LINE#         1410
 C2:A1CBH         LINE#         1411
 C2:A1DAH         LINE#         1412
 C2:A1DAH         LINE#         1413
 C2:A1E1H         LINE#         1414
 C2:A1E1H         LINE#         1416
  -------         ENDPROC       WRITEETHRX2UART

  -------         PROC BANK=2   RESENDUARTRX2UART
  -------         DO            
  X:384CH         SYMBOL        i
  X:384DH         SYMBOL        back
  -------         ENDDO         
 C2:97A0H         LINE#         1431
 C2:97A0H         LINE#         1432
 C2:97A0H         LINE#         1434
 C2:97AEH         LINE#         1436
 C2:97C6H         LINE#         1437
 C2:97C6H         LINE#         1438
 C2:97F0H         LINE#         1439
 C2:97F0H         LINE#         1440
 C2:9815H         LINE#         1441
 C2:9815H         LINE#         1442
 C2:9824H         LINE#         1443
 C2:9827H         LINE#         1444
 C2:9836H         LINE#         1445
 C2:983BH         LINE#         1446
BL51 BANKED LINKER/LOCATER V5.03                                                      01/30/2013  19:55:46  PAGE 242


 C2:983FH         LINE#         1447
 C2:984EH         LINE#         1448
 C2:9859H         LINE#         1449
 C2:9859H         LINE#         1450
 C2:985DH         LINE#         1451
 C2:9893H         LINE#         1452
 C2:98C9H         LINE#         1453
 C2:98CEH         LINE#         1454
 C2:98D3H         LINE#         1455
 C2:98D9H         LINE#         1456
 C2:98DCH         LINE#         1457
 C2:98DCH         LINE#         1459
 C2:98DCH         LINE#         1460
 C2:98E5H         LINE#         1461
 C2:9902H         LINE#         1462
 C2:9902H         LINE#         1463
 C2:9905H         LINE#         1464
 C2:9931H         LINE#         1465
 C2:9931H         LINE#         1466
 C2:9935H         LINE#         1467
 C2:9935H         LINE#         1468
 C2:9941H         LINE#         1469
 C2:996DH         LINE#         1470
 C2:996FH         LINE#         1472
 C2:996FH         LINE#         1473
 C2:9975H         LINE#         1474
 C2:99B0H         LINE#         1476
 C2:99B9H         LINE#         1477
 C2:99BCH         LINE#         1478
 C2:99C2H         LINE#         1479
 C2:99EAH         LINE#         1480
 C2:99EAH         LINE#         1481
 C2:99F3H         LINE#         1482
 C2:99F9H         LINE#         1483
 C2:9A5BH         LINE#         1484
 C2:9A5BH         LINE#         1485
  -------         ENDPROC       RESENDUARTRX2UART

  -------         PROC BANK=2   READETH2UARTTXBUF
  -------         DO            
  X:38EEH         SYMBOL        WB
  X:38EEH         SYMBOL        WB
  -------         ENDDO         
  -------         DO            
  X:38EEH         SYMBOL        WB
  -------         ENDDO         
 C2:8E96H         LINE#         1499
 C2:8E96H         LINE#         1500
 C2:8E96H         LINE#         1505
 C2:8E9FH         LINE#         1517
 C2:8EA2H         LINE#         1522
 C2:8EABH         LINE#         1523
 C2:8EABH         LINE#         1524
 C2:8ECFH         LINE#         1525
 C2:8ECFH         LINE#         1526
 C2:8EEBH         LINE#         1527
 C2:8EEBH         LINE#         1528
BL51 BANKED LINKER/LOCATER V5.03                                                      01/30/2013  19:55:46  PAGE 243


 C2:8F20H         LINE#         1529
 C2:8F56H         LINE#         1530
 C2:8F59H         LINE#         1532
 C2:8F59H         LINE#         1533
 C2:8F74H         LINE#         1534
 C2:8FA9H         LINE#         1535
 C2:8FB0H         LINE#         1536
 C2:8FF7H         LINE#         1537
 C2:9018H         LINE#         1538
 C2:9029H         LINE#         1539
 C2:9029H         LINE#         1540
 C2:902CH         LINE#         1543
 C2:902CH         LINE#         1546
 C2:902CH         LINE#         1547
 C2:9050H         LINE#         1548
 C2:9050H         LINE#         1549
 C2:906FH         LINE#         1550
 C2:906FH         LINE#         1551
 C2:90A4H         LINE#         1552
 C2:90EBH         LINE#         1553
 C2:90EEH         LINE#         1555
 C2:90EEH         LINE#         1556
 C2:9109H         LINE#         1557
 C2:913EH         LINE#         1558
 C2:9145H         LINE#         1559
 C2:918CH         LINE#         1560
 C2:91ADH         LINE#         1561
 C2:91C1H         LINE#         1562
 C2:91C1H         LINE#         1563
 C2:91C3H         LINE#         1565
 C2:91C3H         LINE#         1566
 C2:91C7H         LINE#         1567
 C2:91C7H         LINE#         1568
 C2:91C7H         LINE#         1569
 C2:91CBH         LINE#         1570
  -------         ENDPROC       READETH2UARTTXBUF

  -------         PROC BANK=2   CLEARUARTRXBUF_PARITYERROR
  -------         DO            
  X:36C1H         SYMBOL        i
  X:36C2H         SYMBOL        rx_status
  X:36C3H         SYMBOL        reg_data
  X:36C4H         SYMBOL        Rx_data
  X:36C5H         SYMBOL        ring_space
  X:36C7H         SYMBOL        write_boundary
  -------         ENDDO         
 C2:94D0H         LINE#         1572
 C2:94D0H         LINE#         1573
 C2:94D0H         LINE#         1579
 C2:94D8H         LINE#         1581
 C2:94E2H         LINE#         1582
 C2:94E2H         LINE#         1584
 C2:94FDH         LINE#         1586
 C2:950BH         LINE#         1587
 C2:950BH         LINE#         1588
 C2:951FH         LINE#         1589
 C2:953BH         LINE#         1591
BL51 BANKED LINKER/LOCATER V5.03                                                      01/30/2013  19:55:46  PAGE 244


 C2:9544H         LINE#         1592
 C2:9544H         LINE#         1593
 C2:9544H         LINE#         1594
 C2:9546H         LINE#         1595
 C2:954DH         LINE#         1596
 C2:954DH         LINE#         1599
 C2:956AH         LINE#         1601
 C2:9578H         LINE#         1602
 C2:9586H         LINE#         1603
 C2:9594H         LINE#         1604
 C2:959AH         LINE#         1608
 C2:95A1H         LINE#         1609
 C2:95A1H         LINE#         1610
 C2:95A1H         LINE#         1611
 C2:95A1H         LINE#         1612
 C2:95A3H         LINE#         1614
 C2:95A3H         LINE#         1616
 C2:95A6H         LINE#         1617
 C2:95A6H         LINE#         1618
 C2:95A6H         LINE#         1619
 C2:95A6H         LINE#         1621
 C2:95A6H         LINE#         1622
 C2:95AEH         LINE#         1623
 C2:95B6H         LINE#         1624
 C2:95B6H         LINE#         1625
 C2:95B6H         LINE#         1626
 C2:95B8H         LINE#         1628
 C2:95C4H         LINE#         1629
 C2:95C4H         LINE#         1630
 C2:95C7H         LINE#         1632
 C2:95DAH         LINE#         1633
 C2:95EAH         LINE#         1637
 C2:95F6H         LINE#         1638
 C2:95F6H         LINE#         1639
 C2:95FBH         LINE#         1640
 C2:9603H         LINE#         1641
 C2:9605H         LINE#         1642
 C2:9605H         LINE#         1643
 C2:9605H         LINE#         1648
 C2:960FH         LINE#         1649
 C2:960FH         LINE#         1652
 C2:9619H         LINE#         1653
 C2:9619H         LINE#         1654
 C2:962DH         LINE#         1655
 C2:9635H         LINE#         1656
 C2:9643H         LINE#         1657
 C2:965EH         LINE#         1658
 C2:9660H         LINE#         1660
 C2:9660H         LINE#         1661
 C2:967FH         LINE#         1662
 C2:968DH         LINE#         1663
 C2:969BH         LINE#         1664
 C2:96A9H         LINE#         1665
 C2:96A9H         LINE#         1666
 C2:96AFH         LINE#         1667
 C2:96B6H         LINE#         1668
 C2:96B6H         LINE#         1669
BL51 BANKED LINKER/LOCATER V5.03                                                      01/30/2013  19:55:46  PAGE 245


 C2:96B6H         LINE#         1670
 C2:96B6H         LINE#         1671
 C2:96B8H         LINE#         1673
 C2:96B8H         LINE#         1675
 C2:96BBH         LINE#         1676
 C2:96BBH         LINE#         1677
 C2:96BBH         LINE#         1678
 C2:96BBH         LINE#         1680
 C2:96BBH         LINE#         1681
 C2:96C3H         LINE#         1682
 C2:96CBH         LINE#         1683
 C2:96CBH         LINE#         1684
 C2:96CBH         LINE#         1685
 C2:96CEH         LINE#         1687
 C2:96DAH         LINE#         1688
 C2:96DAH         LINE#         1689
 C2:96DDH         LINE#         1691
 C2:96F0H         LINE#         1692
 C2:9700H         LINE#         1696
 C2:9709H         LINE#         1697
 C2:9709H         LINE#         1698
 C2:970EH         LINE#         1699
 C2:9716H         LINE#         1700
 C2:9718H         LINE#         1701
 C2:9718H         LINE#         1703
 C2:9718H         LINE#         1704
 C2:9718H         LINE#         1706
 C2:9718H         LINE#         1707
 C2:971EH         LINE#         1710
 C2:9730H         LINE#         1711
 C2:9736H         LINE#         1712
 C2:9736H         LINE#         1713
 C2:9742H         LINE#         1714
 C2:9750H         LINE#         1715
 C2:9750H         LINE#         1716
 C2:9759H         LINE#         1717
 C2:9759H         LINE#         1718
 C2:9765H         LINE#         1719
 C2:9784H         LINE#         1720
 C2:9784H         LINE#         1724
 C2:9784H         LINE#         1725
 C2:9784H         LINE#         1727
 C2:978AH         LINE#         1728
 C2:978AH         LINE#         1730
 C2:9799H         LINE#         1731
 C2:9799H         LINE#         1733
 C2:979CH         LINE#         1734
 C2:979CH         LINE#         1736
 C2:979CH         LINE#         1738
 C2:979FH         LINE#         1739
 C2:979FH         LINE#         1740
 C2:979FH         LINE#         1741
 C2:979FH         LINE#         1743
  -------         ENDPROC       CLEARUARTRXBUF_PARITYERROR

  -------         PROC BANK=2   UART_RS485_UPDATE_TXCONTROL
  -------         DO            
BL51 BANKED LINKER/LOCATER V5.03                                                      01/30/2013  19:55:46  PAGE 246


  D:0007H         SYMBOL        reg_data
  -------         ENDDO         
 C2:D895H         LINE#         1745
 C2:D895H         LINE#         1746
 C2:D895H         LINE#         1747
 C2:D895H         LINE#         1749
 C2:D899H         LINE#         1750
 C2:D89CH         LINE#         1751
 C2:D89CH         LINE#         1752
 C2:D89EH         LINE#         1753
 C2:D89EH         LINE#         1754
  -------         ENDPROC       UART_RS485_UPDATE_TXCONTROL

  -------         PROC BANK=2   UART_AUTO_SEND
  -------         DO            
  X:38F0H         SYMBOL        timer0_tick
  -------         ENDDO         
 C2:C5FAH         LINE#         1758
 C2:C5FAH         LINE#         1759
 C2:C5FAH         LINE#         1760
 C2:C601H         LINE#         1762
 C2:C61AH         LINE#         1763
 C2:C61AH         LINE#         1764
 C2:C61DH         LINE#         1769
 C2:C638H         LINE#         1774
 C2:C638H         LINE#         1775
 C2:C63AH         LINE#         1776
 C2:C64EH         LINE#         1778
 C2:C65AH         LINE#         1779
 C2:C65AH         LINE#         1780
 C2:C66AH         LINE#         1781
 C2:C670H         LINE#         1782
 C2:C673H         LINE#         1783
 C2:C675H         LINE#         1784
 C2:C675H         LINE#         1785
 C2:C677H         LINE#         1786
 C2:C677H         LINE#         1787
 C2:C677H         LINE#         1788
 C2:C67DH         LINE#         1789
 C2:C67DH         LINE#         1790
 C2:C692H         LINE#         1791
 C2:C697H         LINE#         1792
 C2:C69AH         LINE#         1794
 C2:C69DH         LINE#         1796
 C2:C6A2H         LINE#         1797
 C2:C6A2H         LINE#         1798
  -------         ENDPROC       UART_AUTO_SEND

  -------         PROC BANK=2   CHECK_RS485
 C2:D831H         LINE#         1800
 C2:D831H         LINE#         1801
 C2:D841H         LINE#         1802
 C2:D844H         LINE#         1804
 C2:D846H         LINE#         1805
  -------         ENDPROC       CHECK_RS485

  -------         PROC BANK=2   TELNET_SERVER_TIMEOUT
BL51 BANKED LINKER/LOCATER V5.03                                                      01/30/2013  19:55:46  PAGE 247


 C2:CB10H         LINE#         1807
 C2:CB10H         LINE#         1808
 C2:CB19H         LINE#         1809
 C2:CB19H         LINE#         1810
 C2:CB36H         LINE#         1811
 C2:CB38H         LINE#         1812
 C2:CB3EH         LINE#         1813
 C2:CB3EH         LINE#         1814
 C2:CB9DH         LINE#         1815
 C2:CBA2H         LINE#         1816
 C2:CBA2H         LINE#         1817
 C2:CBA2H         LINE#         1818
  -------         ENDPROC       TELNET_SERVER_TIMEOUT
  -------         ENDMOD        TELNET

  -------         MODULE        UDP_TEL
  C:0000H         SYMBOL        _ICE_DUMMY_
  X:30D9H         PUBLIC        udp_dns_count
  D:0080H         PUBLIC        P0
  D:0090H         PUBLIC        P1
  D:00A0H         PUBLIC        P2
  D:00B0H         PUBLIC        P3
  D:00E8H         PUBLIC        P4
  X:30DAH         PUBLIC        udp_send_pkt
 C2:9A5CH         PUBLIC        udp_tel_init
  D:00A8H         PUBLIC        IE
 C2:9D03H         PUBLIC        udp_get_dns
 C2:D4DBH         PUBLIC        UDP_TEL_Timer
 C2:BC96H         PUBLIC        udp_tel_updata_ip_aval
 C2:AC7EH         PUBLIC        udp_tel_chk_send
  D:00B8H         PUBLIC        IP
  X:30DBH         PUBLIC        udp_nor_brcst_port
  D:0098H         PUBLIC        SCON
  D:0088H         PUBLIC        TCON
  X:30DDH         PUBLIC        port_learn
 C2:A684H         PUBLIC        udp_tel_rx
 C2:D847H         PUBLIC        _get_bit
  C:3E98H         SYMBOL        _?ix1000
 C2:B1B9H         PUBLIC        _udp_tel_getip
 C2:C93DH         PUBLIC        _set_bit
 C2:C1CCH         PUBLIC        new_block_init
  D:00D8H         PUBLIC        WDTCON
 C2:8813H         PUBLIC        udp_tel_send_one_pkt
  X:30F1H         PUBLIC        udp_check_ip
  D:00C8H         PUBLIC        T2CON
  X:3119H         PUBLIC        udp_tel_data
  X:3131H         PUBLIC        udp_dns
 C2:C4A3H         PUBLIC        udp_learn_ip
  D:00D0H         PUBLIC        PSW
  X:3132H         PUBLIC        udp_nor_brcst

  -------         PROC BANK=2   _GET_BIT
  D:0001H         SYMBOL        value
  X:3904H         SYMBOL        offset
 C2:D847H         LINE#         63
 C2:D84CH         LINE#         64
 C2:D84CH         LINE#         65
BL51 BANKED LINKER/LOCATER V5.03                                                      01/30/2013  19:55:46  PAGE 248


 C2:D85CH         LINE#         66
  -------         ENDPROC       _GET_BIT
  -------         PROC          L?0163
  -------         ENDPROC       L?0163

  -------         PROC BANK=2   _SET_BIT
  X:3656H         SYMBOL        value
  D:0005H         SYMBOL        offset
  X:365AH         SYMBOL        set_value
  -------         DO            
  X:365BH         SYMBOL        tmp
  -------         ENDDO         
 C2:C93DH         LINE#         68
 C2:C948H         LINE#         69
 C2:C948H         LINE#         70
 C2:C967H         LINE#         71
 C2:C970H         LINE#         72
 C2:C970H         LINE#         73
 C2:C99BH         LINE#         74
 C2:C99DH         LINE#         76
 C2:C99DH         LINE#         77
 C2:C9D4H         LINE#         78
 C2:C9D4H         LINE#         79
  -------         ENDPROC       _SET_BIT

  -------         PROC BANK=2   UDP_TEL_UPDATA_IP_AVAL
  -------         DO            
  X:37C3H         SYMBOL        i
  X:37C4H         SYMBOL        valid
  X:37C5H         SYMBOL        tmp
  -------         ENDDO         
 C2:BC96H         LINE#         81
 C2:BC96H         LINE#         82
 C2:BC96H         LINE#         83
 C2:BC9BH         LINE#         84
 C2:BCA3H         LINE#         85
 C2:BCADH         LINE#         86
 C2:BCB2H         LINE#         87
 C2:BCB2H         LINE#         89
 C2:BCB5H         LINE#         95
 C2:BCDFH         LINE#         99
 C2:BCDFH         LINE#         100
 C2:BD0DH         LINE#         102
 C2:BD24H         LINE#         103
 C2:BD24H         LINE#         105
 C2:BD4CH         LINE#         109
 C2:BD4CH         LINE#         110
 C2:BD6AH         LINE#         111
 C2:BD70H         LINE#         112
 C2:BD70H         LINE#         113
 C2:BD70H         LINE#         115
 C2:BD70H         LINE#         116
 C2:BD89H         LINE#         117
 C2:BD98H         LINE#         118
  -------         ENDPROC       UDP_TEL_UPDATA_IP_AVAL

  -------         PROC BANK=2   UDP_TEL_INIT
BL51 BANKED LINKER/LOCATER V5.03                                                      01/30/2013  19:55:46  PAGE 249


  -------         DO            
  X:3905H         SYMBOL        i
  -------         ENDDO         
 C2:9A5CH         LINE#         120
 C2:9A5CH         LINE#         121
 C2:9A5CH         LINE#         125
 C2:9A6AH         LINE#         126
 C2:9A85H         LINE#         127
 C2:9A9EH         LINE#         129
 C2:9AA3H         LINE#         131
 C2:9AA7H         LINE#         132
 C2:9AA9H         LINE#         133
 C2:9AABH         LINE#         135
 C2:9AAEH         LINE#         136
 C2:9AD4H         LINE#         137
 C2:9AE8H         LINE#         138
 C2:9AFCH         LINE#         139
 C2:9B06H         LINE#         140
 C2:9B0BH         LINE#         141
 C2:9B1DH         LINE#         142
 C2:9B2AH         LINE#         143
 C2:9B31H         LINE#         144
 C2:9B3AH         LINE#         145
 C2:9B44H         LINE#         146
 C2:9B6FH         LINE#         147
 C2:9B9EH         LINE#         149
 C2:9BBEH         LINE#         150
 C2:9BBEH         LINE#         151
 C2:9BD0H         LINE#         152
 C2:9BD0H         LINE#         153
 C2:9BEFH         LINE#         154
 C2:9C06H         LINE#         155
 C2:9C19H         LINE#         156
 C2:9C2CH         LINE#         157
 C2:9C34H         LINE#         158
 C2:9C34H         LINE#         160
 C2:9C34H         LINE#         161
 C2:9C46H         LINE#         162
 C2:9C46H         LINE#         163
 C2:9C5BH         LINE#         164
 C2:9C5BH         LINE#         165
 C2:9C87H         LINE#         166
 C2:9CB3H         LINE#         167
 C2:9CF9H         LINE#         168
 C2:9CF9H         LINE#         169
 C2:9D02H         LINE#         170
 C2:9D02H         LINE#         180
  -------         ENDPROC       UDP_TEL_INIT

  -------         PROC BANK=2   _UDP_TEL_GETIP
  X:372AH         SYMBOL        ip
  X:372DH         SYMBOL        port
  -------         DO            
  X:3730H         SYMBOL        result
  -------         ENDDO         
 C2:B1B9H         LINE#         196
 C2:B1C4H         LINE#         197
BL51 BANKED LINKER/LOCATER V5.03                                                      01/30/2013  19:55:46  PAGE 250


 C2:B1C4H         LINE#         198
 C2:B1C9H         LINE#         200
 C2:B1D5H         LINE#         201
 C2:B1D5H         LINE#         203
 C2:B1D8H         LINE#         209
 C2:B20AH         LINE#         210
 C2:B238H         LINE#         215
 C2:B259H         LINE#         216
 C2:B259H         LINE#         217
 C2:B270H         LINE#         218
 C2:B28EH         LINE#         220
 C2:B29CH         LINE#         221
 C2:B29EH         LINE#         223
 C2:B2CEH         LINE#         225
 C2:B2E0H         LINE#         226
 C2:B2E0H         LINE#         227
 C2:B2E0H         LINE#         228
 C2:B2E2H         LINE#         229
 C2:B2E2H         LINE#         230
 C2:B2F3H         LINE#         231
 C2:B2F3H         LINE#         232
 C2:B2F9H         LINE#         233
 C2:B2FCH         LINE#         234
 C2:B2FCH         LINE#         235
 C2:B302H         LINE#         236
 C2:B302H         LINE#         237
 C2:B302H         LINE#         238
 C2:B307H         LINE#         239
  -------         ENDPROC       _UDP_TEL_GETIP

  -------         PROC BANK=2   UDP_TEL_SEND_ONE_PKT
  -------         DO            
  X:3811H         SYMBOL        j
  X:3812H         SYMBOL        i
  X:3813H         SYMBOL        old_buf
  -------         ENDDO         
 C2:8813H         LINE#         247
 C2:8813H         LINE#         248
 C2:8813H         LINE#         249
 C2:881AH         LINE#         252
 C2:881DH         LINE#         258
 C2:8826H         LINE#         259
 C2:8826H         LINE#         261
 C2:8835H         LINE#         262
 C2:8844H         LINE#         263
 C2:884CH         LINE#         264
 C2:8850H         LINE#         266
 C2:885AH         LINE#         267
 C2:8872H         LINE#         268
 C2:8881H         LINE#         269
 C2:8899H         LINE#         271
 C2:88A7H         LINE#         273
 C2:88BBH         LINE#         277
 C2:88D1H         LINE#         279
 C2:88DAH         LINE#         283
 C2:88E4H         LINE#         284
 C2:88E4H         LINE#         285
BL51 BANKED LINKER/LOCATER V5.03                                                      01/30/2013  19:55:46  PAGE 251


 C2:88E7H         LINE#         287
 C2:88EDH         LINE#         288
 C2:88EDH         LINE#         289
 C2:88F6H         LINE#         290
 C2:8908H         LINE#         291
 C2:890EH         LINE#         292
 C2:8910H         LINE#         294
 C2:8921H         LINE#         298
 C2:8928H         LINE#         299
 C2:8928H         LINE#         300
 C2:892BH         LINE#         301
 C2:8939H         LINE#         302
 C2:8987H         LINE#         303
 C2:898FH         LINE#         305
 C2:898FH         LINE#         307
 C2:89ACH         LINE#         308
 C2:89ACH         LINE#         310
 C2:8A03H         LINE#         312
 C2:8A03H         LINE#         313
 C2:8A07H         LINE#         314
 C2:8A07H         LINE#         316
 C2:8A0AH         LINE#         321
 C2:8A4CH         LINE#         322
 C2:8A4CH         LINE#         323
 C2:8A58H         LINE#         324
 C2:8A58H         LINE#         327
 C2:8A67H         LINE#         328
 C2:8A76H         LINE#         330
 C2:8A85H         LINE#         331
 C2:8A9DH         LINE#         333
 C2:8AA0H         LINE#         339
 C2:8AA0H         LINE#         342
 C2:8AB4H         LINE#         346
 C2:8ACAH         LINE#         348
 C2:8AD3H         LINE#         352
 C2:8ADDH         LINE#         353
 C2:8ADDH         LINE#         354
 C2:8AE0H         LINE#         356
 C2:8AE3H         LINE#         362
 C2:8AE9H         LINE#         363
 C2:8AE9H         LINE#         364
 C2:8AF2H         LINE#         365
 C2:8B04H         LINE#         366
 C2:8B0AH         LINE#         367
 C2:8B0CH         LINE#         369
 C2:8B1DH         LINE#         374
 C2:8B20H         LINE#         379
 C2:8B28H         LINE#         380
 C2:8B28H         LINE#         381
 C2:8B35H         LINE#         382
 C2:8B35H         LINE#         383
 C2:8B3BH         LINE#         384
 C2:8B42H         LINE#         385
 C2:8B42H         LINE#         386
 C2:8B45H         LINE#         387
 C2:8B53H         LINE#         392
 C2:8B56H         LINE#         397
BL51 BANKED LINKER/LOCATER V5.03                                                      01/30/2013  19:55:46  PAGE 252


 C2:8B56H         LINE#         399
 C2:8B59H         LINE#         404
  -------         ENDPROC       UDP_TEL_SEND_ONE_PKT

  -------         PROC BANK=2   NEW_BLOCK_INIT
  -------         DO            
  X:38C5H         SYMBOL        old_buf
  -------         ENDDO         
 C2:C1CCH         LINE#         406
 C2:C1CCH         LINE#         407
 C2:C1CCH         LINE#         410
 C2:C1CFH         LINE#         415
 C2:C1D4H         LINE#         417
 C2:C1E1H         LINE#         420
 C2:C1EBH         LINE#         421
 C2:C1F0H         LINE#         422
 C2:C1F5H         LINE#         424
 C2:C208H         LINE#         429
 C2:C20BH         LINE#         434
 C2:C226H         LINE#         435
 C2:C229H         LINE#         436
 C2:C237H         LINE#         437
 C2:C252H         LINE#         439
 C2:C278H         LINE#         440
 C2:C28CH         LINE#         441
  -------         ENDPROC       NEW_BLOCK_INIT

  -------         PROC BANK=2   UDP_TEL_CHK_SEND
 C2:AC7EH         LINE#         443
 C2:AC7EH         LINE#         444
 C2:AC7EH         LINE#         445
 C2:AC85H         LINE#         447
 C2:AC92H         LINE#         448
 C2:AC92H         LINE#         450
 C2:AC95H         LINE#         456
 C2:AC9BH         LINE#         457
 C2:AC9BH         LINE#         458
 C2:ACA3H         LINE#         459
 C2:ACA3H         LINE#         460
 C2:ACB1H         LINE#         461
 C2:ACB7H         LINE#         462
 C2:ACB7H         LINE#         463
 C2:ACB7H         LINE#         466
 C2:ACCEH         LINE#         467
 C2:ACCEH         LINE#         469
 C2:ACFAH         LINE#         473
 C2:ACFAH         LINE#         475
 C2:ACFDH         LINE#         478
 C2:ACFDH         LINE#         479
 C2:ACFDH         LINE#         482
 C2:AD00H         LINE#         487
 C2:AD06H         LINE#         488
 C2:AD09H         LINE#         490
 C2:AD0CH         LINE#         492
 C2:AD23H         LINE#         493
 C2:AD23H         LINE#         494
 C2:AD29H         LINE#         495
BL51 BANKED LINKER/LOCATER V5.03                                                      01/30/2013  19:55:46  PAGE 253


 C2:AD29H         LINE#         496
 C2:AD2CH         LINE#         498
 C2:AD31H         LINE#         499
 C2:AD34H         LINE#         502
 C2:AD34H         LINE#         503
 C2:AD34H         LINE#         505
 C2:AD57H         LINE#         506
 C2:AD57H         LINE#         507
 C2:AD63H         LINE#         508
 C2:AD63H         LINE#         509
 C2:ADA5H         LINE#         510
 C2:ADA5H         LINE#         511
 C2:ADF3H         LINE#         512
 C2:ADF3H         LINE#         513
 C2:ADF3H         LINE#         514
 C2:ADF5H         LINE#         516
 C2:ADF5H         LINE#         517
 C2:ADFAH         LINE#         518
 C2:ADFAH         LINE#         519
 C2:ADFAH         LINE#         520
 C2:ADFCH         LINE#         522
 C2:ADFCH         LINE#         524
 C2:ADFFH         LINE#         529
 C2:AE02H         LINE#         530
 C2:AE02H         LINE#         531
 C2:AE04H         LINE#         533
 C2:AE04H         LINE#         534
 C2:AE52H         LINE#         535
 C2:AE59H         LINE#         536
 C2:AE5DH         LINE#         538
 C2:AE5DH         LINE#         540
 C2:AE62H         LINE#         541
 C2:AE66H         LINE#         543
 C2:AE66H         LINE#         544
  -------         ENDPROC       UDP_TEL_CHK_SEND

  -------         PROC BANK=2   UDP_TEL_RX
  -------         DO            
  X:37C9H         SYMBOL        i
  X:37CAH         SYMBOL        valid
  X:37CBH         SYMBOL        ip
  -------         ENDDO         
 C2:A684H         LINE#         547
 C2:A684H         LINE#         548
 C2:A684H         LINE#         549
 C2:A689H         LINE#         551
 C2:A69BH         LINE#         554
 C2:A69EH         LINE#         559
 C2:A6CBH         LINE#         560
 C2:A6CBH         LINE#         562
 C2:A6CBH         LINE#         564
 C2:A6E2H         LINE#         565
 C2:A6E8H         LINE#         566
 C2:A703H         LINE#         567
 C2:A703H         LINE#         568
 C2:A709H         LINE#         569
 C2:A709H         LINE#         570
BL51 BANKED LINKER/LOCATER V5.03                                                      01/30/2013  19:55:46  PAGE 254


 C2:A734H         LINE#         571
 C2:A734H         LINE#         573
 C2:A737H         LINE#         575
 C2:A73AH         LINE#         580
 C2:A73DH         LINE#         582
 C2:A73DH         LINE#         583
 C2:A742H         LINE#         584
 C2:A742H         LINE#         586
 C2:A745H         LINE#         592
 C2:A75CH         LINE#         593
 C2:A75CH         LINE#         594
 C2:A782H         LINE#         595
 C2:A79DH         LINE#         596
 C2:A79FH         LINE#         598
 C2:A79FH         LINE#         599
 C2:A7C8H         LINE#         600
 C2:A7D8H         LINE#         601
 C2:A7D8H         LINE#         602
 C2:A7F6H         LINE#         603
 C2:A7F6H         LINE#         604
 C2:A809H         LINE#         605
 C2:A811H         LINE#         606
 C2:A811H         LINE#         614
 C2:A820H         LINE#         615
 C2:A826H         LINE#         616
 C2:A826H         LINE#         617
 C2:A854H         LINE#         618
 C2:A868H         LINE#         619
 C2:A868H         LINE#         621
 C2:A868H         LINE#         622
 C2:A868H         LINE#         623
 C2:A868H         LINE#         665
 C2:A868H         LINE#         666
 C2:A877H         LINE#         668
 C2:A87AH         LINE#         678
 C2:A881H         LINE#         679
 C2:A881H         LINE#         681
 C2:A88AH         LINE#         683
 C2:A891H         LINE#         684
 C2:A891H         LINE#         685
 C2:A894H         LINE#         686
 C2:A897H         LINE#         690
 C2:A899H         LINE#         691
 C2:A899H         LINE#         692
 C2:A8A0H         LINE#         693
  -------         ENDPROC       UDP_TEL_RX

  -------         PROC BANK=2   UDP_LEARN_IP
 C2:C4A3H         LINE#         695
 C2:C4A3H         LINE#         696
 C2:C4A3H         LINE#         698
 C2:C4A6H         LINE#         704
 C2:C4C3H         LINE#         705
 C2:C4DCH         LINE#         706
 C2:C51DH         LINE#         711
 C2:C525H         LINE#         712
 C2:C525H         LINE#         713
BL51 BANKED LINKER/LOCATER V5.03                                                      01/30/2013  19:55:46  PAGE 255


 C2:C545H         LINE#         714
 C2:C54DH         LINE#         715
 C2:C54DH         LINE#         717
  -------         ENDPROC       UDP_LEARN_IP

  -------         PROC BANK=2   UDP_TEL_TIMER
 C2:D4DBH         LINE#         724
 C2:D4DBH         LINE#         726
 C2:D4F8H         LINE#         731
 C2:D4F8H         LINE#         733
 C2:D4FCH         LINE#         734
 C2:D502H         LINE#         735
 C2:D50AH         LINE#         736
 C2:D50AH         LINE#         737
 C2:D50DH         LINE#         738
 C2:D510H         LINE#         739
 C2:D510H         LINE#         742
 C2:D510H         LINE#         744
 C2:D513H         LINE#         749
 C2:D516H         LINE#         750
 C2:D519H         LINE#         752
 C2:D51CH         LINE#         757
 C2:D51CH         LINE#         758
 C2:D51CH         LINE#         759
  -------         ENDPROC       UDP_TEL_TIMER

  -------         PROC BANK=2   UDP_GET_DNS
  -------         DO            
  X:3816H         SYMBOL        result
  X:3817H         SYMBOL        get_ip
  -------         ENDDO         
 C2:9D03H         LINE#         766
 C2:9D03H         LINE#         767
 C2:9D03H         LINE#         768
 C2:9D09H         LINE#         769
 C2:9D11H         LINE#         772
 C2:9D2CH         LINE#         776
 C2:9D2CH         LINE#         777
 C2:9D39H         LINE#         778
 C2:9D39H         LINE#         779
 C2:9D50H         LINE#         780
 C2:9D50H         LINE#         781
 C2:9D73H         LINE#         782
 C2:9D73H         LINE#         783
 C2:9D8EH         LINE#         784
 C2:9DA8H         LINE#         785
 C2:9DA8H         LINE#         786
 C2:9DB8H         LINE#         787
 C2:9DB8H         LINE#         788
 C2:9DBAH         LINE#         789
 C2:9DC4H         LINE#         790
 C2:9DC4H         LINE#         791
 C2:9DDDH         LINE#         792
 C2:9DDFH         LINE#         793
 C2:9DDFH         LINE#         795
 C2:9DDFH         LINE#         796
 C2:9DE4H         LINE#         797
BL51 BANKED LINKER/LOCATER V5.03                                                      01/30/2013  19:55:46  PAGE 256


 C2:9DE4H         LINE#         798
 C2:9DE6H         LINE#         799
 C2:9DE6H         LINE#         800
 C2:9DE6H         LINE#         801
 C2:9DE6H         LINE#         802
 C2:9E02H         LINE#         803
 C2:9E02H         LINE#         804
 C2:9E24H         LINE#         805
 C2:9E29H         LINE#         807
 C2:9E2FH         LINE#         808
 C2:9E31H         LINE#         809
 C2:9E31H         LINE#         810
 C2:9E31H         LINE#         812
 C2:9E31H         LINE#         813
 C2:9E33H         LINE#         815
 C2:9E39H         LINE#         816
 C2:9E3CH         LINE#         817
 C2:9E43H         LINE#         818
 C2:9E53H         LINE#         819
 C2:9E56H         LINE#         820
 C2:9E59H         LINE#         822
 C2:9E59H         LINE#         824
 C2:9E5FH         LINE#         825
 C2:9E75H         LINE#         828
 C2:9E75H         LINE#         829
 C2:9E88H         LINE#         830
 C2:9E94H         LINE#         832
 C2:9E94H         LINE#         833
 C2:9EB1H         LINE#         834
 C2:9ECAH         LINE#         835
 C2:9F0BH         LINE#         836
 C2:9F0BH         LINE#         837
 C2:9F0BH         LINE#         838
 C2:9F25H         LINE#         839
 C2:9F25H         LINE#         841
 C2:9F2EH         LINE#         842
 C2:9F39H         LINE#         845
 C2:9F4DH         LINE#         846
 C2:9F4FH         LINE#         847
 C2:9F68H         LINE#         848
 C2:9F68H         LINE#         849
 C2:9F7CH         LINE#         851
 C2:9F81H         LINE#         852
 C2:9F81H         LINE#         853
 C2:9F81H         LINE#         854
 C2:9F86H         LINE#         855
  -------         ENDPROC       UDP_GET_DNS
  -------         ENDMOD        UDP_TEL

  -------         MODULE        NET_CMD
  C:0000H         SYMBOL        _ICE_DUMMY_
 C5:82BAH         PUBLIC        CheckConnID
  D:0080H         PUBLIC        P0
  D:0090H         PUBLIC        P1
 C5:6F03H         PUBLIC        MPProcess
  D:00A0H         PUBLIC        P2
  D:00B0H         PUBLIC        P3
BL51 BANKED LINKER/LOCATER V5.03                                                      01/30/2013  19:55:46  PAGE 257


  D:00E8H         PUBLIC        P4
 C5:8480H         PUBLIC        LocalCmd
 C5:80BAH         PUBLIC        en_loopback
 C5:777FH         PUBLIC        udp_net_cmd
  X:2AFEH         PUBLIC        SearchAckOP
 C5:85A4H         PUBLIC        OnchannelRequest
 C5:7116H         PUBLIC        OnLoginAccount
  D:00A8H         PUBLIC        IE
 C5:7CDDH         PUBLIC        CRC_operation
  B:00B0H.2       PUBLIC        P3_2
  B:00B0H.3       PUBLIC        P3_3
 C5:7BEBH         PUBLIC        _crc
  D:00B8H         PUBLIC        IP
  X:2B01H         PUBLIC        MP_flag
 C5:8030H         PUBLIC        AgingNetCmdConnTable
 C5:86A8H         PUBLIC        reset_device_req
 C5:892AH         PUBLIC        SendAccessGPIOAck
 C5:7639H         PUBLIC        OnLoginRequest
 C5:86FDH         PUBLIC        NetCmdOnTCPRx
  D:0098H         PUBLIC        SCON
  D:0088H         PUBLIC        TCON
 C5:7F9CH         PUBLIC        GenConnID
  X:2B02H         PUBLIC        NetCmdData
 C5:500FH         PUBLIC        NetCmd
  C:3BB2H         SYMBOL        _?ix1000
 C5:8927H         PUBLIC        NetCmdTimer
  C:3BB6H         SYMBOL        _?ix1001
 C5:7E67H         PUBLIC        LocalCmdTxPrefix
  C:3BBAH         SYMBOL        _?ix1002
  C:3BD9H         SYMBOL        _?ix1003
 C5:813DH         PUBLIC        NetCmdSend
 C5:8896H         PUBLIC        _OngpioRequestAck
  D:00D8H         PUBLIC        WDTCON
 C5:886BH         PUBLIC        NetCmdInit
  X:2BC4H         PUBLIC        crc_buf
 C5:8549H         PUBLIC        _SendLoginMD5Key
 C5:7F06H         PUBLIC        OngpioRequest
 C5:78B3H         PUBLIC        eep_read_req
 C5:823DH         PUBLIC        CRC_info
  D:00C8H         PUBLIC        T2CON
 C5:8905H         PUBLIC        SearchEmptyConnTable
 C5:8416H         PUBLIC        _SendLoginResult
  X:2BD4H         PUBLIC        borcast_flag
 C5:892BH         PUBLIC        OnAccessGPIOReq
 C5:81BDH         PUBLIC        dis_loopback
 C5:79D2H         PUBLIC        eep_write_req
 C5:8653H         PUBLIC        _FindSA
  D:00D0H         PUBLIC        PSW
 C5:8833H         PUBLIC        _OnchannelRequestAck

  -------         PROC BANK=5   NETCMDINIT
  -------         DO            
  D:0003H         SYMBOL        i
  -------         ENDDO         
 C5:886BH         LINE#         103
 C5:886BH         LINE#         104
 C5:886BH         LINE#         106
BL51 BANKED LINKER/LOCATER V5.03                                                      01/30/2013  19:55:46  PAGE 258


 C5:886DH         LINE#         107
 C5:886DH         LINE#         108
 C5:8882H         LINE#         109
 C5:8887H         LINE#         110
 C5:8890H         LINE#         111
  -------         ENDPROC       NETCMDINIT

  -------         PROC BANK=5   _FINDSA
  X:38C8H         SYMBOL        SA
  D:0005H         SYMBOL        StartIdx
  -------         DO            
  D:0007H         SYMBOL        i
  D:0006H         SYMBOL        j
  -------         ENDDO         
 C5:8653H         LINE#         128
 C5:865EH         LINE#         129
 C5:865EH         LINE#         131
 C5:8666H         LINE#         132
 C5:8666H         LINE#         133
 C5:8668H         LINE#         134
 C5:8668H         LINE#         135
 C5:8698H         LINE#         136
 C5:869DH         LINE#         137
 C5:86A2H         LINE#         138
 C5:86A5H         LINE#         139
 C5:86A7H         LINE#         140
  -------         ENDPROC       _FINDSA

  -------         PROC BANK=5   CHECKCONNID
  -------         DO            
  X:3906H         SYMBOL        ConnIdx
  -------         ENDDO         
 C5:82BAH         LINE#         153
 C5:82BAH         LINE#         154
 C5:82BAH         LINE#         155
 C5:82BFH         LINE#         156
 C5:82D2H         LINE#         157
 C5:82D9H         LINE#         158
 C5:82D9H         LINE#         159
 C5:830CH         LINE#         160
 C5:830CH         LINE#         161
 C5:8312H         LINE#         162
 C5:8312H         LINE#         163
 C5:8330H         LINE#         164
 C5:8332H         LINE#         165
 C5:8334H         LINE#         166
  -------         ENDPROC       CHECKCONNID

  -------         PROC BANK=5   LOCALCMDTXPREFIX
  -------         DO            
  X:3907H         SYMBOL        i
  -------         ENDDO         
 C5:7E67H         LINE#         179
 C5:7E67H         LINE#         180
 C5:7E67H         LINE#         182
 C5:7E76H         LINE#         183
 C5:7E76H         LINE#         184
BL51 BANKED LINKER/LOCATER V5.03                                                      01/30/2013  19:55:46  PAGE 259


 C5:7EA9H         LINE#         185
 C5:7EC6H         LINE#         186
 C5:7ECEH         LINE#         187
 C5:7EE4H         LINE#         188
 C5:7EEFH         LINE#         189
 C5:7EF9H         LINE#         191
 C5:7EFCH         LINE#         196
 C5:7F05H         LINE#         197
  -------         ENDPROC       LOCALCMDTXPREFIX

  -------         PROC BANK=5   LOCALCMD
  -------         DO            
  X:38F2H         SYMBOL        pkt_len
  -------         ENDDO         
 C5:8480H         LINE#         210
 C5:8480H         LINE#         211
 C5:8480H         LINE#         212
 C5:848FH         LINE#         213
 C5:8496H         LINE#         214
 C5:84B0H         LINE#         215
 C5:84BEH         LINE#         216
 C5:84CAH         LINE#         218
 C5:84CFH         LINE#         219
 C5:84E1H         LINE#         220
 C5:84E4H         LINE#         221
  -------         ENDPROC       LOCALCMD

  -------         PROC BANK=5   NETCMDONTCPRX
 C5:86FDH         LINE#         235
 C5:86FDH         LINE#         236
 C5:86FDH         LINE#         237
 C5:871CH         LINE#         238
 C5:871CH         LINE#         239
 C5:8721H         LINE#         240
 C5:8736H         LINE#         251
 C5:873DH         LINE#         252
 C5:8746H         LINE#         253
 C5:8749H         LINE#         254
 C5:8749H         LINE#         275
 C5:874CH         LINE#         276
 C5:874CH         LINE#         277
 C5:874EH         LINE#         278
  -------         ENDPROC       NETCMDONTCPRX

  -------         PROC BANK=5   NETCMDSEND
 C5:813DH         LINE#         291
 C5:813DH         LINE#         292
 C5:813DH         LINE#         293
 C5:8143H         LINE#         294
 C5:8143H         LINE#         295
 C5:814DH         LINE#         296
 C5:814DH         LINE#         297
 C5:815CH         LINE#         298
 C5:816BH         LINE#         299
 C5:816BH         LINE#         300
 C5:816BH         LINE#         301
 C5:8187H         LINE#         302
BL51 BANKED LINKER/LOCATER V5.03                                                      01/30/2013  19:55:46  PAGE 260


 C5:8199H         LINE#         303
 C5:81ADH         LINE#         304
 C5:81BCH         LINE#         305
  -------         ENDPROC       NETCMDSEND

  -------         PROC BANK=5   CRC_OPERATION
  -------         DO            
  X:3559H         SYMBOL        i
  X:355AH         SYMBOL        key
  X:355EH         SYMBOL        vendor
  X:3562H         SYMBOL        CRCcheck
  -------         ENDDO         
 C5:7CDDH         LINE#         323
 C5:7CDDH         LINE#         324
 C5:7CDDH         LINE#         325
 C5:7CE2H         LINE#         326
 C5:7CEAH         LINE#         327
 C5:7CFDH         LINE#         337
 C5:7D18H         LINE#         339
 C5:7D25H         LINE#         340
 C5:7D25H         LINE#         341
 C5:7D29H         LINE#         342
 C5:7D29H         LINE#         343
 C5:7D80H         LINE#         344
 C5:7D8AH         LINE#         345
 C5:7D8DH         LINE#         347
 C5:7DA0H         LINE#         349
 C5:7DB7H         LINE#         350
 C5:7DB7H         LINE#         351
 C5:7DBCH         LINE#         352
  -------         ENDPROC       CRC_OPERATION

  -------         PROC BANK=5   _CRC
  X:3528H         SYMBOL        ip
  X:352BH         SYMBOL        AuthenticKey
  -------         DO            
  X:352FH         SYMBOL        i
  X:3530H         SYMBOL        j
  X:3531H         SYMBOL        remainder
  -------         ENDDO         
 C5:7BEBH         LINE#         354
 C5:7BFAH         LINE#         355
 C5:7BFAH         LINE#         357
 C5:7C0EH         LINE#         359
 C5:7C13H         LINE#         360
 C5:7C13H         LINE#         361
 C5:7C64H         LINE#         362
 C5:7C6AH         LINE#         363
 C5:7C6AH         LINE#         364
 C5:7C77H         LINE#         365
 C5:7CA1H         LINE#         367
 C5:7CB7H         LINE#         368
 C5:7CC0H         LINE#         369
 C5:7CCEH         LINE#         370
 C5:7CDCH         LINE#         371
  -------         ENDPROC       _CRC

BL51 BANKED LINKER/LOCATER V5.03                                                      01/30/2013  19:55:46  PAGE 261


  -------         PROC BANK=5   CRC_INFO
  -------         DO            
  D:0007H         SYMBOL        i
  -------         ENDDO         
 C5:823DH         LINE#         383
 C5:823DH         LINE#         384
 C5:823DH         LINE#         387
 C5:823FH         LINE#         388
 C5:825CH         LINE#         390
 C5:825EH         LINE#         391
 C5:827BH         LINE#         393
 C5:827DH         LINE#         394
 C5:829AH         LINE#         396
 C5:829CH         LINE#         397
 C5:82B9H         LINE#         398
  -------         ENDPROC       CRC_INFO

  -------         PROC BANK=5   NETCMD
  -------         DO            
  X:31C7H         SYMBOL        i
  D:0007H         SYMBOL        ConnIndex
  X:31C8H         SYMBOL        j
  X:31C9H         SYMBOL        count
  X:31CAH         SYMBOL        index
  X:31CBH         SYMBOL        offset
  X:31CCH         SYMBOL        ptr
  X:31CFH         SYMBOL        re_ip
  X:31D3H         SYMBOL        v_info
  X:31D6H         SYMBOL        v_len
  X:31D7H         SYMBOL        name_buff
  X:31F6H         SYMBOL        ee_value
  X:31F7H         SYMBOL        result
  -------         DO            
  X:31FBH         SYMBOL        ProjectName
  X:31FEH         SYMBOL        option
  X:3201H         SYMBOL        SearchDevAck
  -------         ENDDO         
  -------         ENDDO         
 C5:500FH         LINE#         417
 C5:500FH         LINE#         418
 C5:500FH         LINE#         419
 C5:501AH         LINE#         420
 C5:5025H         LINE#         421
 C5:5038H         LINE#         422
 C5:5046H         LINE#         423
 C5:5049H         LINE#         425
 C5:505BH         LINE#         428
 C5:5065H         LINE#         431
 C5:506EH         LINE#         433
 C5:5088H         LINE#         434
 C5:5088H         LINE#         435
 C5:508BH         LINE#         436
 C5:508FH         LINE#         437
 C5:508FH         LINE#         439
 C5:50A3H         LINE#         440
 C5:50ACH         LINE#         441
 C5:50AFH         LINE#         443
BL51 BANKED LINKER/LOCATER V5.03                                                      01/30/2013  19:55:46  PAGE 262


 C5:50AFH         LINE#         444
 C5:50AFH         LINE#         446
 C5:50B2H         LINE#         451
 C5:50FAH         LINE#         452
 C5:50FAH         LINE#         453
 C5:50FAH         LINE#         454
 C5:5103H         LINE#         455
 C5:510BH         LINE#         456
 C5:510EH         LINE#         457
 C5:510EH         LINE#         459
 C5:5129H         LINE#         460
 C5:513CH         LINE#         461
 C5:5141H         LINE#         462
 C5:5153H         LINE#         463
 C5:5167H         LINE#         464
 C5:51A2H         LINE#         466
 C5:51A5H         LINE#         471
 C5:51C1H         LINE#         472
 C5:51D1H         LINE#         473
 C5:51E1H         LINE#         474
 C5:51F1H         LINE#         475
 C5:5201H         LINE#         476
 C5:5211H         LINE#         477
 C5:521FH         LINE#         478
 C5:523CH         LINE#         479
 C5:5262H         LINE#         480
 C5:5296H         LINE#         481
 C5:52AEH         LINE#         482
 C5:52CFH         LINE#         483
 C5:52FCH         LINE#         485
 C5:5311H         LINE#         487
 C5:5314H         LINE#         492
 C5:5327H         LINE#         493
 C5:532FH         LINE#         494
 C5:5350H         LINE#         496
 C5:5358H         LINE#         497
 C5:5360H         LINE#         498
 C5:538DH         LINE#         501
 C5:5395H         LINE#         502
 C5:539DH         LINE#         503
 C5:53A7H         LINE#         504
 C5:53B1H         LINE#         505
 C5:53BBH         LINE#         507
 C5:53C3H         LINE#         508
 C5:53CBH         LINE#         509
 C5:53DBH         LINE#         511
 C5:53E3H         LINE#         512
 C5:53EBH         LINE#         513
 C5:5418H         LINE#         515
 C5:5420H         LINE#         516
 C5:5430H         LINE#         518
 C5:5437H         LINE#         519
 C5:543CH         LINE#         520
 C5:543CH         LINE#         522
 C5:543FH         LINE#         527
 C5:5457H         LINE#         528
 C5:5457H         LINE#         529
BL51 BANKED LINKER/LOCATER V5.03                                                      01/30/2013  19:55:46  PAGE 263


 C5:545BH         LINE#         530
 C5:545FH         LINE#         531
 C5:545FH         LINE#         533
 C5:5462H         LINE#         538
 C5:5480H         LINE#         539
 C5:54AFH         LINE#         540
 C5:54B8H         LINE#         541
 C5:54C4H         LINE#         542
 C5:54E9H         LINE#         543
 C5:5503H         LINE#         544
 C5:5529H         LINE#         545
 C5:5543H         LINE#         546
 C5:5569H         LINE#         547
 C5:5574H         LINE#         548
 C5:5574H         LINE#         549
 C5:5587H         LINE#         550
 C5:558DH         LINE#         551
 C5:558DH         LINE#         552
 C5:5590H         LINE#         554
 C5:5590H         LINE#         555
 C5:559FH         LINE#         556
 C5:55A4H         LINE#         557
 C5:55A4H         LINE#         559
 C5:55A7H         LINE#         564
 C5:55D2H         LINE#         565
 C5:55DEH         LINE#         566
 C5:55F5H         LINE#         567
 C5:55F5H         LINE#         568
 C5:561BH         LINE#         569
 C5:5651H         LINE#         570
 C5:5681H         LINE#         571
 C5:56A0H         LINE#         572
 C5:56BAH         LINE#         573
 C5:56E4H         LINE#         574
 C5:56FEH         LINE#         575
 C5:5724H         LINE#         576
 C5:5737H         LINE#         577
 C5:573DH         LINE#         578
 C5:573DH         LINE#         580
 C5:5740H         LINE#         585
 C5:5740H         LINE#         586
 C5:574FH         LINE#         587
 C5:5768H         LINE#         623
 C5:5783H         LINE#         624
 C5:5796H         LINE#         625
 C5:57B9H         LINE#         626
 C5:57CCH         LINE#         627
 C5:5816H         LINE#         628
 C5:5844H         LINE#         629
 C5:584BH         LINE#         632
 C5:584EH         LINE#         638
 C5:586AH         LINE#         639
 C5:586AH         LINE#         640
 C5:587AH         LINE#         641
 C5:58AAH         LINE#         642
 C5:58D2H         LINE#         643
 C5:58D7H         LINE#         644
BL51 BANKED LINKER/LOCATER V5.03                                                      01/30/2013  19:55:46  PAGE 264


 C5:5938H         LINE#         646
 C5:594BH         LINE#         647
 C5:594BH         LINE#         648
 C5:594DH         LINE#         650
 C5:594DH         LINE#         651
 C5:595DH         LINE#         653
 C5:5984H         LINE#         654
 C5:598CH         LINE#         655
 C5:598CH         LINE#         658
 C5:599CH         LINE#         660
 C5:59B8H         LINE#         662
 C5:59C0H         LINE#         663
 C5:59D5H         LINE#         664
 C5:59D5H         LINE#         666
 C5:59D8H         LINE#         671
 C5:59E0H         LINE#         672
 C5:59E3H         LINE#         673
 C5:59E3H         LINE#         674
 C5:59E3H         LINE#         675
 C5:59E6H         LINE#         676
 C5:59E6H         LINE#         677
 C5:59E6H         LINE#         678
 C5:59E9H         LINE#         679
 C5:59E9H         LINE#         680
 C5:59E9H         LINE#         681
 C5:59ECH         LINE#         682
 C5:59ECH         LINE#         683
 C5:59ECH         LINE#         684
 C5:59EFH         LINE#         685
 C5:59EFH         LINE#         692
 C5:59EFH         LINE#         693
 C5:59F2H         LINE#         694
 C5:59F2H         LINE#         695
 C5:59F2H         LINE#         696
 C5:59F5H         LINE#         697
 C5:59F5H         LINE#         700
 C5:59F5H         LINE#         701
 C5:59F8H         LINE#         702
 C5:59F8H         LINE#         703
 C5:59F8H         LINE#         704
 C5:59FBH         LINE#         705
 C5:59FBH         LINE#         707
 C5:59FBH         LINE#         708
 C5:59FEH         LINE#         709
 C5:59FEH         LINE#         712
 C5:59FEH         LINE#         713
 C5:5A01H         LINE#         714
 C5:5A01H         LINE#         715
 C5:5A01H         LINE#         716
 C5:5A04H         LINE#         717
 C5:5A04H         LINE#         719
 C5:5A04H         LINE#         720
  -------         ENDPROC       NETCMD

  -------         PROC BANK=5   SEARCHEMPTYCONNTABLE
  -------         DO            
  X:37CFH         SYMBOL        SA
BL51 BANKED LINKER/LOCATER V5.03                                                      01/30/2013  19:55:46  PAGE 265


  -------         ENDDO         
 C5:8905H         LINE#         734
 C5:8905H         LINE#         735
 C5:8905H         LINE#         737
 C5:8914H         LINE#         738
 C5:891FH         LINE#         739
  -------         ENDPROC       SEARCHEMPTYCONNTABLE

  -------         PROC BANK=5   ONLOGINREQUEST
  -------         DO            
  X:38F4H         SYMBOL        ConnIdx
  X:38F5H         SYMBOL        Result
  -------         ENDDO         
 C5:7639H         LINE#         752
 C5:7639H         LINE#         753
 C5:7639H         LINE#         754
 C5:763EH         LINE#         755
 C5:7640H         LINE#         757
 C5:7653H         LINE#         758
 C5:765AH         LINE#         759
 C5:765AH         LINE#         760
 C5:768DH         LINE#         761
 C5:76ABH         LINE#         762
 C5:76ADH         LINE#         763
 C5:76B4H         LINE#         764
 C5:76B4H         LINE#         766
 C5:76BCH         LINE#         767
 C5:76D3H         LINE#         768
 C5:76D3H         LINE#         769
 C5:76D8H         LINE#         770
 C5:76DBH         LINE#         772
 C5:76DBH         LINE#         774
 C5:770AH         LINE#         776
 C5:770AH         LINE#         778
 C5:770AH         LINE#         779
 C5:770AH         LINE#         780
 C5:770AH         LINE#         781
 C5:770CH         LINE#         783
 C5:770CH         LINE#         786
 C5:7732H         LINE#         788
 C5:7758H         LINE#         789
 C5:7777H         LINE#         790
 C5:7777H         LINE#         792
  -------         ENDPROC       ONLOGINREQUEST

  -------         PROC BANK=5   _SENDLOGINMD5KEY
  D:0007H         SYMBOL        Result
  -------         DO            
  X:38CBH         SYMBOL        MD5Pkt
  -------         ENDDO         
 C5:8549H         LINE#         806
 C5:8549H         LINE#         807
 C5:8549H         LINE#         815
 C5:8564H         LINE#         816
 C5:8577H         LINE#         817
 C5:8589H         LINE#         818
 C5:8590H         LINE#         819
BL51 BANKED LINKER/LOCATER V5.03                                                      01/30/2013  19:55:46  PAGE 266


 C5:85A1H         LINE#         820
  -------         ENDPROC       _SENDLOGINMD5KEY

  -------         PROC BANK=5   GENCONNID
  -------         DO            
  X:36C9H         SYMBOL        ConnID
  X:36CDH         SYMBOL        p16ConnID
  X:36D0H         SYMBOL        i
  -------         ENDDO         
 C5:7F9CH         LINE#         834
 C5:7F9CH         LINE#         835
 C5:7F9CH         LINE#         837
 C5:7FAAH         LINE#         839
 C5:7FAAH         LINE#         840
 C5:7FAAH         LINE#         841
 C5:7FBEH         LINE#         842
 C5:7FD5H         LINE#         843
 C5:7FE4H         LINE#         844
 C5:7FE4H         LINE#         845
 C5:8011H         LINE#         846
 C5:8019H         LINE#         847
 C5:802FH         LINE#         848
 C5:802FH         LINE#         849
  -------         ENDPROC       GENCONNID

  -------         PROC BANK=5   _SENDLOGINRESULT
  X:36D1H         SYMBOL        result
  X:36D2H         SYMBOL        ConnID
  -------         DO            
  X:36D6H         SYMBOL        LoginResult
  -------         ENDDO         
 C5:8416H         LINE#         862
 C5:841BH         LINE#         863
 C5:841BH         LINE#         869
 C5:8436H         LINE#         870
 C5:8453H         LINE#         871
 C5:845DH         LINE#         872
 C5:8474H         LINE#         873
 C5:847DH         LINE#         874
  -------         ENDPROC       _SENDLOGINRESULT

  -------         PROC BANK=5   ONLOGINACCOUNT
  -------         DO            
  X:33D2H         SYMBOL        buf
  X:33E7H         SYMBOL        result
  X:33E8H         SYMBOL        ConnIdx
  X:33E9H         SYMBOL        Account
  -------         ENDDO         
 C5:7116H         LINE#         888
 C5:7116H         LINE#         889
 C5:7116H         LINE#         898
 C5:711BH         LINE#         899
 C5:711DH         LINE#         901
 C5:7138H         LINE#         902
 C5:715FH         LINE#         903
 C5:717BH         LINE#         904
 C5:7193H         LINE#         906
BL51 BANKED LINKER/LOCATER V5.03                                                      01/30/2013  19:55:46  PAGE 267


 C5:71CBH         LINE#         907
 C5:71E7H         LINE#         908
 C5:71FFH         LINE#         910
 C5:7208H         LINE#         911
 C5:7208H         LINE#         912
 C5:720AH         LINE#         914
 C5:721DH         LINE#         915
 C5:7224H         LINE#         916
 C5:7224H         LINE#         917
 C5:7252H         LINE#         918
 C5:7270H         LINE#         919
 C5:7272H         LINE#         921
 C5:7279H         LINE#         922
 C5:7279H         LINE#         924
 C5:7291H         LINE#         926
 C5:72B7H         LINE#         927
 C5:72D6H         LINE#         928
 C5:72D8H         LINE#         930
 C5:72D8H         LINE#         931
 C5:72DEH         LINE#         932
 C5:72DEH         LINE#         933
 C5:72DEH         LINE#         935
  -------         ENDPROC       ONLOGINACCOUNT

  -------         PROC BANK=5   AGINGNETCMDCONNTABLE
  -------         DO            
  X:3908H         SYMBOL        i
  -------         ENDDO         
 C5:8030H         LINE#         937
 C5:8030H         LINE#         938
 C5:8030H         LINE#         940
 C5:803FH         LINE#         941
 C5:808DH         LINE#         942
 C5:80B9H         LINE#         943
  -------         ENDPROC       AGINGNETCMDCONNTABLE

  -------         PROC BANK=5   NETCMDTIMER
 C5:8927H         LINE#         944
 C5:8927H         LINE#         945
 C5:8927H         LINE#         946
  -------         ENDPROC       NETCMDTIMER

  -------         PROC BANK=5   SENDACCESSGPIOACK
 C5:892AH         LINE#         963
 C5:892AH         LINE#         964
 C5:892AH         LINE#         965
  -------         ENDPROC       SENDACCESSGPIOACK

  -------         PROC BANK=5   ONACCESSGPIOREQ
 C5:892BH         LINE#         978
 C5:892BH         LINE#         979
 C5:892BH         LINE#         1036
  -------         ENDPROC       ONACCESSGPIOREQ

  -------         PROC BANK=5   MPPROCESS
  -------         DO            
  X:3565H         SYMBOL        i
BL51 BANKED LINKER/LOCATER V5.03                                                      01/30/2013  19:55:46  PAGE 268


  X:3567H         SYMBOL        TargetMACID
  X:356DH         SYMBOL        update_status
  X:356EH         SYMBOL        NetCMD_Frame
  D:0001H         SYMBOL        pMACIDentry
  -------         ENDDO         
 C5:6F03H         LINE#         1052
 C5:6F03H         LINE#         1053
 C5:6F03H         LINE#         1056
 C5:6F08H         LINE#         1057
 C5:6F1DH         LINE#         1064
 C5:6F29H         LINE#         1065
 C5:6F29H         LINE#         1066
 C5:6F31H         LINE#         1071
 C5:6F31H         LINE#         1072
 C5:6F5DH         LINE#         1073
 C5:6F7EH         LINE#         1075
 C5:6F8EH         LINE#         1077
 C5:6F97H         LINE#         1078
 C5:6F9EH         LINE#         1079
 C5:6FC7H         LINE#         1088
 C5:6FD7H         LINE#         1089
 C5:6FD7H         LINE#         1090
 C5:6FDFH         LINE#         1091
 C5:6FE2H         LINE#         1095
 C5:6FE2H         LINE#         1099
 C5:6FEFH         LINE#         1100
 C5:6FEFH         LINE#         1101
 C5:7004H         LINE#         1102
 C5:700BH         LINE#         1104
 C5:700BH         LINE#         1105
 C5:7010H         LINE#         1107
 C5:702DH         LINE#         1110
 C5:7030H         LINE#         1112
 C5:7047H         LINE#         1113
 C5:7047H         LINE#         1114
 C5:7060H         LINE#         1115
 C5:7060H         LINE#         1116
 C5:7060H         LINE#         1117
 C5:7060H         LINE#         1118
 C5:7070H         LINE#         1119
 C5:707CH         LINE#         1120
 C5:707CH         LINE#         1121
 C5:7082H         LINE#         1122
 C5:7082H         LINE#         1125
 C5:7099H         LINE#         1126
 C5:7099H         LINE#         1127
 C5:70ADH         LINE#         1128
 C5:70DEH         LINE#         1129
 C5:70DEH         LINE#         1130
 C5:70E4H         LINE#         1131
 C5:70E6H         LINE#         1132
 C5:70E6H         LINE#         1133
 C5:70F6H         LINE#         1136
 C5:710BH         LINE#         1137
 C5:7115H         LINE#         1142
  -------         ENDPROC       MPPROCESS

BL51 BANKED LINKER/LOCATER V5.03                                                      01/30/2013  19:55:46  PAGE 269


  -------         PROC BANK=5   ONGPIOREQUEST
  -------         DO            
  D:0006H         SYMBOL        value
  D:0007H         SYMBOL        gping
  X:38F6H         SYMBOL        common
  X:38F7H         SYMBOL        result
  -------         ENDDO         
 C5:7F06H         LINE#         1159
 C5:7F06H         LINE#         1160
 C5:7F06H         LINE#         1161
 C5:7F0DH         LINE#         1163
 C5:7F29H         LINE#         1164
 C5:7F30H         LINE#         1165
 C5:7F39H         LINE#         1166
 C5:7F44H         LINE#         1168
 C5:7F4BH         LINE#         1169
 C5:7F4BH         LINE#         1170
 C5:7F51H         LINE#         1171
 C5:7F54H         LINE#         1172
 C5:7F58H         LINE#         1173
 C5:7F5CH         LINE#         1175
 C5:7F61H         LINE#         1176
 C5:7F63H         LINE#         1178
 C5:7F63H         LINE#         1179
 C5:7F69H         LINE#         1180
 C5:7F71H         LINE#         1181
 C5:7F75H         LINE#         1182
 C5:7F7CH         LINE#         1184
 C5:7F81H         LINE#         1185
 C5:7F81H         LINE#         1186
 C5:7F92H         LINE#         1187
  -------         ENDPROC       ONGPIOREQUEST

  -------         PROC BANK=5   _ONGPIOREQUESTACK
  D:0007H         SYMBOL        gpioresult
  D:0005H         SYMBOL        gpiovalue
  -------         DO            
  D:0001H         SYMBOL        USERGPIO
  -------         ENDDO         
 C5:8896H         LINE#         1202
 C5:8896H         LINE#         1203
 C5:8896H         LINE#         1210
 C5:88A6H         LINE#         1211
 C5:88AAH         LINE#         1212
 C5:88B1H         LINE#         1213
 C5:88BAH         LINE#         1214
  -------         ENDPROC       _ONGPIOREQUESTACK

  -------         PROC BANK=5   ONCHANNELREQUEST
  -------         DO            
  X:3850H         SYMBOL        result
  X:3851H         SYMBOL        value
  X:3852H         SYMBOL        chan_value
  -------         ENDDO         
 C5:85A4H         LINE#         1229
 C5:85A4H         LINE#         1230
 C5:85A4H         LINE#         1231
BL51 BANKED LINKER/LOCATER V5.03                                                      01/30/2013  19:55:46  PAGE 270


 C5:85ABH         LINE#         1232
 C5:85AFH         LINE#         1233
 C5:85C5H         LINE#         1234
 C5:85CFH         LINE#         1235
 C5:85D8H         LINE#         1236
 C5:85DEH         LINE#         1237
 C5:85E6H         LINE#         1238
 C5:85F3H         LINE#         1239
  -------         ENDPROC       ONCHANNELREQUEST

  -------         PROC BANK=5   _ONCHANNELREQUESTACK
  D:0007H         SYMBOL        channel_result
  D:0006H         SYMBOL        old_value
  D:0004H         SYMBOL        channel_value
  -------         DO            
  D:0001H         SYMBOL        USERADC
  -------         ENDDO         
 C5:8833H         LINE#         1254
 C5:8839H         LINE#         1255
 C5:8839H         LINE#         1263
 C5:8849H         LINE#         1264
 C5:884DH         LINE#         1265
 C5:8854H         LINE#         1266
 C5:885FH         LINE#         1267
 C5:8868H         LINE#         1268
  -------         ENDPROC       _ONCHANNELREQUESTACK

  -------         PROC BANK=5   EEP_READ_REQ
  -------         DO            
  X:37D5H         SYMBOL        result
  X:37D6H         SYMBOL        i
  X:37D8H         SYMBOL        EEPREAD
  -------         ENDDO         
 C5:78B3H         LINE#         1286
 C5:78B3H         LINE#         1287
 C5:78B3H         LINE#         1298
 C5:78CEH         LINE#         1300
 C5:78E2H         LINE#         1301
 C5:78FFH         LINE#         1302
 C5:78FFH         LINE#         1303
 C5:7936H         LINE#         1304
 C5:7936H         LINE#         1305
 C5:7939H         LINE#         1306
 C5:797EH         LINE#         1307
 C5:797EH         LINE#         1309
 C5:7984H         LINE#         1310
 C5:7995H         LINE#         1311
 C5:799BH         LINE#         1312
 C5:799BH         LINE#         1313
 C5:799DH         LINE#         1315
 C5:79B1H         LINE#         1317
 C5:79CFH         LINE#         1318
  -------         ENDPROC       EEP_READ_REQ

  -------         PROC BANK=5   EEP_WRITE_REQ
  -------         DO            
  X:37DBH         SYMBOL        an
BL51 BANKED LINKER/LOCATER V5.03                                                      01/30/2013  19:55:46  PAGE 271


  X:37DCH         SYMBOL        i
  X:37DEH         SYMBOL        EEPWRITE
  -------         ENDDO         
 C5:79D2H         LINE#         1334
 C5:79D2H         LINE#         1335
 C5:79D2H         LINE#         1336
 C5:79D8H         LINE#         1346
 C5:79F3H         LINE#         1348
 C5:7A07H         LINE#         1349
 C5:7A49H         LINE#         1350
 C5:7A49H         LINE#         1351
 C5:7A4CH         LINE#         1352
 C5:7A95H         LINE#         1353
 C5:7A95H         LINE#         1355
 C5:7AAFH         LINE#         1356
 C5:7AC3H         LINE#         1357
 C5:7ACAH         LINE#         1358
 C5:7ADBH         LINE#         1360
 C5:7AE4H         LINE#         1361
  -------         ENDPROC       EEP_WRITE_REQ

  -------         PROC BANK=5   RESET_DEVICE_REQ
 C5:86A8H         LINE#         1376
 C5:86A8H         LINE#         1377
 C5:86A8H         LINE#         1378
 C5:86BEH         LINE#         1379
 C5:86CAH         LINE#         1380
 C5:86CAH         LINE#         1381
 C5:86D9H         LINE#         1382
 C5:86DFH         LINE#         1383
 C5:86E1H         LINE#         1385
 C5:86F1H         LINE#         1386
 C5:86FAH         LINE#         1387
  -------         ENDPROC       RESET_DEVICE_REQ

  -------         PROC BANK=5   EN_LOOPBACK
 C5:80BAH         LINE#         1401
 C5:80BAH         LINE#         1402
 C5:80BAH         LINE#         1403
 C5:80D0H         LINE#         1405
 C5:80D6H         LINE#         1406
 C5:810CH         LINE#         1408
 C5:8113H         LINE#         1409
 C5:8121H         LINE#         1411
 C5:8131H         LINE#         1413
 C5:813AH         LINE#         1414
  -------         ENDPROC       EN_LOOPBACK

  -------         PROC BANK=5   DIS_LOOPBACK
 C5:81BDH         LINE#         1428
 C5:81BDH         LINE#         1429
 C5:81BDH         LINE#         1430
 C5:81D3H         LINE#         1432
 C5:81D8H         LINE#         1433
 C5:820DH         LINE#         1435
 C5:8213H         LINE#         1436
 C5:8222H         LINE#         1438
BL51 BANKED LINKER/LOCATER V5.03                                                      01/30/2013  19:55:46  PAGE 272


 C5:8231H         LINE#         1440
 C5:823AH         LINE#         1441
  -------         ENDPROC       DIS_LOOPBACK

  -------         PROC BANK=5   UDP_NET_CMD
  -------         DO            
  X:37E1H         SYMBOL        borcast
  D:0007H         SYMBOL        i
  -------         ENDDO         
 C5:777FH         LINE#         1456
 C5:777FH         LINE#         1457
 C5:777FH         LINE#         1458
 C5:7792H         LINE#         1459
 C5:7792H         LINE#         1462
 C5:77BCH         LINE#         1467
 C5:77BEH         LINE#         1468
 C5:77E5H         LINE#         1470
 C5:7800H         LINE#         1471
 C5:7810H         LINE#         1485
 C5:7814H         LINE#         1486
 C5:781AH         LINE#         1488
 C5:7835H         LINE#         1489
 C5:7845H         LINE#         1490
 C5:784BH         LINE#         1491
 C5:7862H         LINE#         1493
 C5:787AH         LINE#         1494
 C5:787CH         LINE#         1495
 C5:78AFH         LINE#         1499
 C5:78B2H         LINE#         1504
  -------         ENDPROC       UDP_NET_CMD
  -------         ENDMOD        NET_CMD

  -------         MODULE        SMTP
  C:0000H         SYMBOL        _ICE_DUMMY_
 C2:D29FH         PUBLIC        smtp_send_cmd_auth
  D:0080H         PUBLIC        P0
  D:0090H         PUBLIC        P1
  D:00A0H         PUBLIC        P2
  D:00B0H         PUBLIC        P3
  D:00E8H         PUBLIC        P4
 C2:CC32H         PUBLIC        smtp_send_cmd_rcpt
 C2:80CBH         PUBLIC        smtp_send_mailbody
  D:00A8H         PUBLIC        IE
 C2:D242H         PUBLIC        smtp_send_cmd_quit
 C2:C28DH         PUBLIC        smtp_chk_MailToTotal
  B:00B0H.2       PUBLIC        P3_2
 C2:D7C7H         PUBLIC        smtp_connect
  B:00B0H.3       PUBLIC        P3_3
  D:00B8H         PUBLIC        IP
 C2:CDB3H         PUBLIC        smtp_send_mailbody_end
  X:28A9H         PUBLIC        ehlo_flag
 C2:D445H         PUBLIC        smtp_check_mail
 C2:CE9FH         PUBLIC        smtp_send_packet
  D:0098H         PUBLIC        SCON
  D:0088H         PUBLIC        TCON
  X:28AAH         PUBLIC        ehlo_count
 C2:D5DDH         PUBLIC        SMTPOnTCPRx
BL51 BANKED LINKER/LOCATER V5.03                                                      01/30/2013  19:55:46  PAGE 273


 C2:D672H         PUBLIC        _smtp_send_mail
 C2:D188H         PUBLIC        smtp_send_starttls
 C2:C6A3H         PUBLIC        _smtp_send_auth_id_pw
 C2:C74CH         PUBLIC        _strcat_mail_to
  X:28ABH         PUBLIC        last_status
  X:28ACH         PUBLIC        SMTPData
  C:3126H         SYMBOL        _?ix1000
 C2:A434H         PUBLIC        smtp
 C2:C103H         PUBLIC        smtp_timer
  D:00D8H         PUBLIC        WDTCON
 C2:D12BH         PUBLIC        _ModifyMail
  X:29FCH         PUBLIC        gpio_cnt
 C2:CE2CH         PUBLIC        smtp_init
 C2:D1E5H         PUBLIC        smtp_send_cmd_data
  D:00C8H         PUBLIC        T2CON
 C2:C7F3H         PUBLIC        smtp_send_cmd_mail
 C2:C9D5H         PUBLIC        smtp_send_cmd_helo
  D:00D0H         PUBLIC        PSW

  -------         PROC BANK=2   SMTP_CHK_MAILTOTOTAL
  -------         DO            
  X:38F8H         SYMBOL        i
  D:0007H         SYMBOL        fount_at_symble
  -------         ENDDO         
 C2:C28DH         LINE#         43
 C2:C28DH         LINE#         44
 C2:C28DH         LINE#         46
 C2:C28FH         LINE#         47
 C2:C293H         LINE#         48
 C2:C295H         LINE#         49
 C2:C2AEH         LINE#         50
 C2:C2AEH         LINE#         51
 C2:C2D1H         LINE#         52
 C2:C2D1H         LINE#         53
 C2:C2D1H         LINE#         54
 C2:C2D3H         LINE#         55
 C2:C2D5H         LINE#         56
 C2:C2D5H         LINE#         57
 C2:C2D8H         LINE#         58
 C2:C2EFH         LINE#         59
 C2:C2F5H         LINE#         60
 C2:C2F5H         LINE#         61
 C2:C2FBH         LINE#         63
 C2:C30AH         LINE#         64
 C2:C30AH         LINE#         65
 C2:C30CH         LINE#         66
 C2:C30EH         LINE#         67
 C2:C30EH         LINE#         68
 C2:C311H         LINE#         69
 C2:C325H         LINE#         70
 C2:C32CH         LINE#         73
 C2:C32CH         LINE#         74
 C2:C340H         LINE#         75
  -------         ENDPROC       SMTP_CHK_MAILTOTOTAL

  -------         PROC BANK=2   _STRCAT_MAIL_TO
  X:36D9H         SYMBOL        dest
BL51 BANKED LINKER/LOCATER V5.03                                                      01/30/2013  19:55:46  PAGE 274


  X:36DCH         SYMBOL        index
  -------         DO            
  D:0007H         SYMBOL        i
  X:36DDH         SYMBOL        j
  X:36DEH         SYMBOL        dest2
  -------         ENDDO         
 C2:C74CH         LINE#         77
 C2:C75CH         LINE#         78
 C2:C75CH         LINE#         79
 C2:C761H         LINE#         80
 C2:C77EH         LINE#         81
 C2:C7A1H         LINE#         82
 C2:C7A1H         LINE#         83
 C2:C7D8H         LINE#         84
 C2:C7DBH         LINE#         85
  -------         ENDPROC       _STRCAT_MAIL_TO

  -------         PROC BANK=2   _MODIFYMAIL
  D:0001H         SYMBOL        sub
  X:3734H         SYMBOL        msg
  X:3737H         SYMBOL        MailNo
 C2:D12BH         LINE#         99
 C2:D12BH         LINE#         100
 C2:D12BH         LINE#         101
 C2:D137H         LINE#         102
 C2:D14AH         LINE#         103
 C2:D165H         LINE#         104
 C2:D187H         LINE#         105
 C2:D187H         LINE#         106
  -------         ENDPROC       _MODIFYMAIL

  -------         PROC BANK=2   SMTP_INIT
 C2:CE2CH         LINE#         119
 C2:CE2CH         LINE#         120
 C2:CE2CH         LINE#         121
 C2:CE3AH         LINE#         122
 C2:CE55H         LINE#         123
 C2:CE70H         LINE#         124
 C2:CE8BH         LINE#         125
 C2:CE90H         LINE#         126
 C2:CE94H         LINE#         127
 C2:CE98H         LINE#         128
 C2:CE9EH         LINE#         129
  -------         ENDPROC       SMTP_INIT

  -------         PROC BANK=2   SMTP_CONNECT
 C2:D7C7H         LINE#         142
 C2:D7C7H         LINE#         143
 C2:D7C7H         LINE#         144
  -------         ENDPROC       SMTP_CONNECT

  -------         PROC BANK=2   _SMTP_SEND_MAIL
  D:0007H         SYMBOL        MailNo
 C2:D672H         LINE#         158
 C2:D672H         LINE#         159
 C2:D672H         LINE#         160
 C2:D684H         LINE#         161
BL51 BANKED LINKER/LOCATER V5.03                                                      01/30/2013  19:55:46  PAGE 275


 C2:D68AH         LINE#         162
 C2:D68AH         LINE#         163
 C2:D68CH         LINE#         164
 C2:D68EH         LINE#         165
 C2:D691H         LINE#         167
 C2:D696H         LINE#         168
 C2:D69BH         LINE#         169
 C2:D69DH         LINE#         170
 C2:D69FH         LINE#         171
  -------         ENDPROC       _SMTP_SEND_MAIL

  -------         PROC BANK=2   SMTP_TIMER
 C2:C103H         LINE#         184
 C2:C103H         LINE#         185
 C2:C103H         LINE#         186
 C2:C11BH         LINE#         187
 C2:C11BH         LINE#         188
 C2:C11BH         LINE#         189
 C2:C134H         LINE#         190
 C2:C14EH         LINE#         191
 C2:C14EH         LINE#         192
 C2:C15BH         LINE#         193
 C2:C15BH         LINE#         194
 C2:C15DH         LINE#         195
 C2:C169H         LINE#         196
 C2:C169H         LINE#         197
 C2:C180H         LINE#         198
 C2:C180H         LINE#         205
 C2:C199H         LINE#         206
 C2:C199H         LINE#         207
 C2:C19FH         LINE#         208
 C2:C19FH         LINE#         209
 C2:C1A0H         LINE#         210
 C2:C1A0H         LINE#         211
 C2:C1A6H         LINE#         212
 C2:C1A6H         LINE#         213
 C2:C1A8H         LINE#         214
 C2:C1A8H         LINE#         215
 C2:C1B5H         LINE#         216
 C2:C1B5H         LINE#         217
 C2:C1B7H         LINE#         218
 C2:C1C3H         LINE#         219
 C2:C1C3H         LINE#         220
 C2:C1C6H         LINE#         221
 C2:C1C6H         LINE#         223
 C2:C1C6H         LINE#         224
 C2:C1CBH         LINE#         225
 C2:C1CBH         LINE#         226
 C2:C1CBH         LINE#         227
 C2:C1CBH         LINE#         228
 C2:C1CBH         LINE#         229
  -------         ENDPROC       SMTP_TIMER

  -------         PROC BANK=2   SMTP_SEND_CMD_HELO
 C2:C9D5H         LINE#         242
 C2:C9D5H         LINE#         243
 C2:C9D5H         LINE#         245
BL51 BANKED LINKER/LOCATER V5.03                                                      01/30/2013  19:55:46  PAGE 276


 C2:C9D8H         LINE#         250
 C2:C9DFH         LINE#         251
 C2:C9F6H         LINE#         252
 C2:C9FDH         LINE#         253
 C2:CA15H         LINE#         254
 C2:CA31H         LINE#         255
 C2:CA4DH         LINE#         256
 C2:CA63H         LINE#         257
 C2:CA72H         LINE#         258
  -------         ENDPROC       SMTP_SEND_CMD_HELO

  -------         PROC BANK=2   SMTP_SEND_STARTTLS
 C2:D188H         LINE#         260
 C2:D188H         LINE#         261
 C2:D188H         LINE#         263
 C2:D18BH         LINE#         268
 C2:D1A3H         LINE#         269
 C2:D1BFH         LINE#         270
 C2:D1D5H         LINE#         271
 C2:D1E4H         LINE#         272
  -------         ENDPROC       SMTP_SEND_STARTTLS

  -------         PROC BANK=2   SMTP_SEND_CMD_MAIL
 C2:C7F3H         LINE#         285
 C2:C7F3H         LINE#         286
 C2:C7F3H         LINE#         288
 C2:C7F6H         LINE#         293
 C2:C80EH         LINE#         294
 C2:C838H         LINE#         295
 C2:C854H         LINE#         296
 C2:C870H         LINE#         297
 C2:C886H         LINE#         298
 C2:C895H         LINE#         299
  -------         ENDPROC       SMTP_SEND_CMD_MAIL

  -------         PROC BANK=2   SMTP_SEND_CMD_RCPT
 C2:CC32H         LINE#         312
 C2:CC32H         LINE#         313
 C2:CC32H         LINE#         315
 C2:CC35H         LINE#         320
 C2:CC4DH         LINE#         322
 C2:CC60H         LINE#         323
 C2:CC7CH         LINE#         324
 C2:CC98H         LINE#         325
 C2:CCAEH         LINE#         326
 C2:CCBDH         LINE#         327
  -------         ENDPROC       SMTP_SEND_CMD_RCPT

  -------         PROC BANK=2   SMTP_SEND_CMD_DATA
 C2:D1E5H         LINE#         340
 C2:D1E5H         LINE#         341
 C2:D1E5H         LINE#         343
 C2:D1E8H         LINE#         348
 C2:D200H         LINE#         349
 C2:D21CH         LINE#         350
 C2:D232H         LINE#         351
 C2:D241H         LINE#         352
BL51 BANKED LINKER/LOCATER V5.03                                                      01/30/2013  19:55:46  PAGE 277


  -------         ENDPROC       SMTP_SEND_CMD_DATA

  -------         PROC BANK=2   SMTP_SEND_CMD_QUIT
 C2:D242H         LINE#         365
 C2:D242H         LINE#         366
 C2:D242H         LINE#         368
 C2:D245H         LINE#         373
 C2:D25DH         LINE#         374
 C2:D279H         LINE#         375
 C2:D28FH         LINE#         376
 C2:D29EH         LINE#         377
  -------         ENDPROC       SMTP_SEND_CMD_QUIT

  -------         PROC BANK=2   SMTP_SEND_MAILBODY
  -------         DO            
  X:307DH         SYMBOL        i
  X:307FH         SYMBOL        buf
  X:3089H         SYMBOL        message_body
  -------         ENDDO         
 C2:80CBH         LINE#         390
 C2:80CBH         LINE#         391
 C2:80CBH         LINE#         392
 C2:80D2H         LINE#         394
 C2:80E4H         LINE#         396
 C2:80FCH         LINE#         397
 C2:8103H         LINE#         398
 C2:8103H         LINE#         399
 C2:8118H         LINE#         400
 C2:8134H         LINE#         401
 C2:8151H         LINE#         403
 C2:8154H         LINE#         408
 C2:817EH         LINE#         409
 C2:819AH         LINE#         410
 C2:81B6H         LINE#         411
 C2:81D2H         LINE#         412
 C2:81FCH         LINE#         413
 C2:8218H         LINE#         415
 C2:8232H         LINE#         416
 C2:8232H         LINE#         418
 C2:8235H         LINE#         423
 C2:8251H         LINE#         425
 C2:8264H         LINE#         426
 C2:8280H         LINE#         427
 C2:8290H         LINE#         428
 C2:829FH         LINE#         429
 C2:82CAH         LINE#         430
 C2:82E6H         LINE#         431
 C2:8302H         LINE#         432
 C2:831EH         LINE#         433
 C2:833AH         LINE#         434
 C2:8356H         LINE#         435
 C2:8372H         LINE#         436
 C2:838EH         LINE#         437
 C2:83AAH         LINE#         438
 C2:83C6H         LINE#         439
 C2:83E2H         LINE#         441
 C2:83E5H         LINE#         446
BL51 BANKED LINKER/LOCATER V5.03                                                      01/30/2013  19:55:46  PAGE 278


 C2:83F4H         LINE#         447
 C2:841FH         LINE#         448
 C2:843BH         LINE#         449
 C2:8457H         LINE#         451
 C2:845AH         LINE#         462
 C2:8470H         LINE#         463
 C2:847FH         LINE#         464
  -------         ENDPROC       SMTP_SEND_MAILBODY

  -------         PROC BANK=2   SMTP_SEND_MAILBODY_END
 C2:CDB3H         LINE#         477
 C2:CDB3H         LINE#         478
 C2:CDB3H         LINE#         480
 C2:CDB6H         LINE#         486
 C2:CDCEH         LINE#         487
 C2:CDEAH         LINE#         488
 C2:CE06H         LINE#         489
 C2:CE1CH         LINE#         490
 C2:CE2BH         LINE#         491
  -------         ENDPROC       SMTP_SEND_MAILBODY_END

  -------         PROC BANK=2   SMTP_SEND_CMD_AUTH
 C2:D29FH         LINE#         504
 C2:D29FH         LINE#         505
 C2:D29FH         LINE#         511
 C2:D2A2H         LINE#         516
 C2:D2BAH         LINE#         518
 C2:D2D6H         LINE#         519
 C2:D2ECH         LINE#         520
 C2:D2FBH         LINE#         521
  -------         ENDPROC       SMTP_SEND_CMD_AUTH

  -------         PROC BANK=2   _SMTP_SEND_AUTH_ID_PW
  D:0007H         SYMBOL        is_id
  -------         DO            
  X:3016H         SYMBOL        encoded
  X:307AH         SYMBOL        ori
  -------         ENDDO         
 C2:C6A3H         LINE#         534
 C2:C6A3H         LINE#         535
 C2:C6A3H         LINE#         537
 C2:C6A7H         LINE#         538
 C2:C6B5H         LINE#         539
 C2:C6B8H         LINE#         540
 C2:C6D3H         LINE#         542
 C2:C6D6H         LINE#         547
 C2:C6F2H         LINE#         548
 C2:C70AH         LINE#         549
 C2:C726H         LINE#         550
 C2:C73CH         LINE#         551
 C2:C74BH         LINE#         552
  -------         ENDPROC       _SMTP_SEND_AUTH_ID_PW

  -------         PROC BANK=2   SMTP_SEND_PACKET
 C2:CE9FH         LINE#         565
 C2:CE9FH         LINE#         566
 C2:CE9FH         LINE#         568
BL51 BANKED LINKER/LOCATER V5.03                                                      01/30/2013  19:55:46  PAGE 279


 C2:CEA2H         LINE#         573
 C2:CEE2H         LINE#         574
 C2:CEE2H         LINE#         575
 C2:CEE2H         LINE#         576
 C2:CEE2H         LINE#         577
 C2:CEE5H         LINE#         578
 C2:CEE5H         LINE#         581
 C2:CEE8H         LINE#         582
 C2:CEECH         LINE#         583
 C2:CEF1H         LINE#         586
 C2:CEF4H         LINE#         587
 C2:CEF4H         LINE#         588
 C2:CEFAH         LINE#         589
 C2:CEFDH         LINE#         590
 C2:CF03H         LINE#         591
 C2:CF04H         LINE#         592
 C2:CF07H         LINE#         593
 C2:CF0AH         LINE#         594
 C2:CF0DH         LINE#         595
 C2:CF10H         LINE#         599
 C2:CF10H         LINE#         600
  -------         ENDPROC       SMTP_SEND_PACKET

  -------         PROC BANK=2   SMTP
  -------         DO            
  X:3854H         SYMBOL        buf
  -------         ENDDO         
 C2:A434H         LINE#         615
 C2:A434H         LINE#         616
 C2:A434H         LINE#         617
 C2:A43BH         LINE#         619
 C2:A43EH         LINE#         624
 C2:A444H         LINE#         625
 C2:A444H         LINE#         626
 C2:A44BH         LINE#         628
 C2:A44EH         LINE#         633
 C2:A44EH         LINE#         635
 C2:A458H         LINE#         637
 C2:A470H         LINE#         638
 C2:A475H         LINE#         640
 C2:A478H         LINE#         645
 C2:A4ABH         LINE#         646
 C2:A4ABH         LINE#         647
 C2:A4ABH         LINE#         648
 C2:A4B1H         LINE#         649
 C2:A4B4H         LINE#         650
 C2:A4B4H         LINE#         651
 C2:A4B9H         LINE#         652
 C2:A4BCH         LINE#         654
 C2:A4BCH         LINE#         655
 C2:A4BFH         LINE#         656
 C2:A4C2H         LINE#         658
 C2:A4C2H         LINE#         659
 C2:A4C8H         LINE#         660
 C2:A4CBH         LINE#         662
 C2:A4CBH         LINE#         663
 C2:A4CEH         LINE#         664
BL51 BANKED LINKER/LOCATER V5.03                                                      01/30/2013  19:55:46  PAGE 280


 C2:A4D1H         LINE#         666
 C2:A4D1H         LINE#         667
 C2:A4FBH         LINE#         668
 C2:A4FBH         LINE#         669
 C2:A4FBH         LINE#         670
 C2:A4FBH         LINE#         671
 C2:A51EH         LINE#         672
 C2:A51EH         LINE#         673
 C2:A539H         LINE#         674
 C2:A539H         LINE#         675
 C2:A53DH         LINE#         676
 C2:A540H         LINE#         677
 C2:A556H         LINE#         678
 C2:A558H         LINE#         680
 C2:A558H         LINE#         681
 C2:A558H         LINE#         682
 C2:A55AH         LINE#         684
 C2:A55AH         LINE#         685
 C2:A560H         LINE#         686
 C2:A566H         LINE#         687
 C2:A57EH         LINE#         688
 C2:A57EH         LINE#         689
 C2:A580H         LINE#         690
 C2:A580H         LINE#         692
 C2:A596H         LINE#         693
 C2:A59BH         LINE#         695
 C2:A59EH         LINE#         699
 C2:A5A0H         LINE#         700
 C2:A5A0H         LINE#         701
 C2:A5A6H         LINE#         702
 C2:A5ABH         LINE#         703
 C2:A5AEH         LINE#         704
 C2:A5B4H         LINE#         705
 C2:A5B6H         LINE#         706
 C2:A5B6H         LINE#         707
 C2:A5CDH         LINE#         708
 C2:A5CFH         LINE#         709
 C2:A5CFH         LINE#         710
 C2:A5D5H         LINE#         711
 C2:A5D7H         LINE#         712
 C2:A5D7H         LINE#         713
 C2:A5D7H         LINE#         715
 C2:A5D7H         LINE#         716
 C2:A5E1H         LINE#         717
 C2:A5EBH         LINE#         718
 C2:A5EDH         LINE#         720
 C2:A5EDH         LINE#         721
 C2:A5F3H         LINE#         722
 C2:A5F3H         LINE#         723
 C2:A5F3H         LINE#         724
 C2:A5F3H         LINE#         725
 C2:A5FEH         LINE#         727
 C2:A601H         LINE#         732
 C2:A601H         LINE#         733
 C2:A60AH         LINE#         734
 C2:A611H         LINE#         735
 C2:A611H         LINE#         736
BL51 BANKED LINKER/LOCATER V5.03                                                      01/30/2013  19:55:46  PAGE 281


 C2:A614H         LINE#         737
 C2:A617H         LINE#         738
 C2:A617H         LINE#         739
 C2:A617H         LINE#         740
 C2:A61EH         LINE#         742
 C2:A621H         LINE#         747
 C2:A62EH         LINE#         748
 C2:A62EH         LINE#         749
 C2:A633H         LINE#         750
 C2:A633H         LINE#         751
 C2:A639H         LINE#         752
 C2:A639H         LINE#         753
 C2:A63DH         LINE#         754
 C2:A643H         LINE#         755
 C2:A643H         LINE#         756
 C2:A648H         LINE#         757
 C2:A64BH         LINE#         758
 C2:A661H         LINE#         759
 C2:A666H         LINE#         761
 C2:A669H         LINE#         762
 C2:A66CH         LINE#         763
 C2:A66CH         LINE#         764
 C2:A66CH         LINE#         765
 C2:A66EH         LINE#         767
 C2:A66EH         LINE#         768
 C2:A673H         LINE#         769
 C2:A673H         LINE#         770
 C2:A67EH         LINE#         771
 C2:A67EH         LINE#         772
 C2:A683H         LINE#         773
 C2:A683H         LINE#         775
  -------         ENDPROC       SMTP

  -------         PROC BANK=2   SMTPONTCPRX
 C2:D5DDH         LINE#         788
 C2:D5DDH         LINE#         789
 C2:D5DDH         LINE#         790
 C2:D60AH         LINE#         791
 C2:D60AH         LINE#         792
 C2:D60DH         LINE#         793
 C2:D610H         LINE#         794
 C2:D610H         LINE#         795
 C2:D612H         LINE#         796
  -------         ENDPROC       SMTPONTCPRX

  -------         PROC BANK=2   SMTP_CHECK_MAIL
  -------         DO            
  D:0006H         SYMBOL        j
  -------         ENDDO         
 C2:D445H         LINE#         798
 C2:D445H         LINE#         799
 C2:D447H         LINE#         802
 C2:D44AH         LINE#         807
 C2:D44EH         LINE#         808
 C2:D451H         LINE#         809
 C2:D457H         LINE#         810
 C2:D46CH         LINE#         811
BL51 BANKED LINKER/LOCATER V5.03                                                      01/30/2013  19:55:46  PAGE 282


 C2:D46CH         LINE#         812
 C2:D46FH         LINE#         813
 C2:D474H         LINE#         814
 C2:D474H         LINE#         815
 C2:D474H         LINE#         816
 C2:D476H         LINE#         818
 C2:D476H         LINE#         820
 C2:D479H         LINE#         821
 C2:D479H         LINE#         822
 C2:D480H         LINE#         823
 C2:D480H         LINE#         824
 C2:D486H         LINE#         825
 C2:D48DH         LINE#         826
 C2:D48DH         LINE#         827
 C2:D48DH         LINE#         828
 C2:D48DH         LINE#         829
 C2:D492H         LINE#         830
  -------         ENDPROC       SMTP_CHECK_MAIL
  -------         ENDMOD        SMTP

  -------         MODULE        BASE64
  C:0000H         SYMBOL        _ICE_DUMMY_
 C2:D3A8H         PUBLIC        _b64decode_alloc
 C2:D062H         PUBLIC        _b64encode_alloc
 C2:CFF2H         PUBLIC        _b64decode
 C2:CF82H         PUBLIC        _b64encode
  X:2721H         SYMBOL        b64d
  X:27A1H         SYMBOL        b64e
 C2:D801H         PUBLIC        _b64decode_len
 C2:D7E4H         PUBLIC        _b64encode_len
 C2:B94FH         SYMBOL        _b64dec
 C2:B308H         SYMBOL        _b64enc
  X:27E1H         PUBLIC        buf_de
  X:2845H         PUBLIC        buf_en

  -------         PROC BANK=2   _B64ENC
  D:0001H         SYMBOL        in
  X:35ECH         SYMBOL        inlen
  X:35EEH         SYMBOL        out
  -------         DO            
  D:0007H         SYMBOL        t0
  X:35F1H         SYMBOL        t1
  X:35F2H         SYMBOL        t2
  -------         ENDDO         
 C2:B308H         LINE#         41
 C2:B310H         LINE#         42
 C2:B310H         LINE#         43
 C2:B322H         LINE#         44
 C2:B343H         LINE#         45
 C2:B364H         LINE#         47
 C2:B378H         LINE#         48
 C2:B39BH         LINE#         49
 C2:B3CBH         LINE#         51
 C2:B3DCH         LINE#         52
 C2:B3E4H         LINE#         53
 C2:B3E6H         LINE#         55
 C2:B3E6H         LINE#         56
BL51 BANKED LINKER/LOCATER V5.03                                                      01/30/2013  19:55:46  PAGE 283


 C2:B40DH         LINE#         58
 C2:B41EH         LINE#         59
 C2:B430H         LINE#         61
 C2:B430H         LINE#         62
 C2:B453H         LINE#         63
  -------         ENDPROC       _B64ENC

  -------         PROC BANK=2   _B64DEC
  D:0001H         SYMBOL        in
  D:0004H         SYMBOL        inlen
  X:3576H         SYMBOL        out
  -------         DO            
  X:3579H         SYMBOL        t0
  X:357AH         SYMBOL        t1
  X:357BH         SYMBOL        t2
  X:357CH         SYMBOL        t3
  -------         ENDDO         
 C2:B94FH         LINE#         65
 C2:B94FH         LINE#         66
 C2:B94FH         LINE#         67
 C2:B973H         LINE#         68
 C2:B99AH         LINE#         69
 C2:B9C1H         LINE#         70
 C2:B9E8H         LINE#         72
 C2:B9F6H         LINE#         73
 C2:BA15H         LINE#         74
 C2:BA20H         LINE#         75
 C2:BA30H         LINE#         77
 C2:BA30H         LINE#         78
 C2:BA56H         LINE#         79
 C2:BA61H         LINE#         80
 C2:BA67H         LINE#         82
 C2:BA67H         LINE#         83
 C2:BA7AH         LINE#         84
  -------         ENDPROC       _B64DEC

  -------         PROC BANK=2   _B64ENCODE_LEN
  D:0001H         SYMBOL        in
  -------         DO            
  D:0006H         SYMBOL        l
  -------         ENDDO         
 C2:D7E4H         LINE#         86
 C2:D7E4H         LINE#         87
 C2:D7E4H         LINE#         88
 C2:D7E7H         LINE#         89
 C2:D800H         LINE#         90
  -------         ENDPROC       _B64ENCODE_LEN

  -------         PROC BANK=2   _B64DECODE_LEN
  D:0001H         SYMBOL        in
  -------         DO            
  D:0006H         SYMBOL        l
  -------         ENDDO         
 C2:D801H         LINE#         92
 C2:D801H         LINE#         93
 C2:D801H         LINE#         94
 C2:D804H         LINE#         95
BL51 BANKED LINKER/LOCATER V5.03                                                      01/30/2013  19:55:46  PAGE 284


 C2:D819H         LINE#         96
  -------         ENDPROC       _B64DECODE_LEN

  -------         PROC BANK=2   _B64ENCODE_ALLOC
  D:0001H         SYMBOL        in
  -------         DO            
  D:0006H         SYMBOL        l
  X:38CEH         SYMBOL        n
  -------         ENDDO         
 C2:D062H         LINE#         98
 C2:D062H         LINE#         99
 C2:D062H         LINE#         100
 C2:D065H         LINE#         101
 C2:D073H         LINE#         102
 C2:D081H         LINE#         103
 C2:D096H         LINE#         104
 C2:D09EH         LINE#         105
 C2:D0B9H         LINE#         106
 C2:D0BBH         LINE#         107
 C2:D0BBH         LINE#         108
 C2:D0C6H         LINE#         109
  -------         ENDPROC       _B64ENCODE_ALLOC

  -------         PROC BANK=2   _B64ENCODE
  X:36E1H         SYMBOL        in
  X:36E4H         SYMBOL        out
  -------         DO            
  X:36E7H         SYMBOL        inlen
  -------         ENDDO         
 C2:CF82H         LINE#         111
 C2:CF8DH         LINE#         112
 C2:CF8DH         LINE#         113
 C2:CF98H         LINE#         114
 C2:CFAAH         LINE#         115
 C2:CFCDH         LINE#         116
 C2:CFDBH         LINE#         117
 C2:CFE5H         LINE#         118
 C2:CFEFH         LINE#         119
 C2:CFF1H         LINE#         120
  -------         ENDPROC       _B64ENCODE

  -------         PROC BANK=2   _B64DECODE_ALLOC
  D:0001H         SYMBOL        in
  -------         DO            
  D:0006H         SYMBOL        l
  X:38D1H         SYMBOL        n
  -------         ENDDO         
 C2:D3A8H         LINE#         122
 C2:D3A8H         LINE#         123
 C2:D3A8H         LINE#         124
 C2:D3ABH         LINE#         125
 C2:D3B9H         LINE#         126
 C2:D3C7H         LINE#         127
 C2:D3CFH         LINE#         128
 C2:D3E9H         LINE#         129
 C2:D3EBH         LINE#         130
 C2:D3EBH         LINE#         131
BL51 BANKED LINKER/LOCATER V5.03                                                      01/30/2013  19:55:46  PAGE 285


 C2:D3F6H         LINE#         132
  -------         ENDPROC       _B64DECODE_ALLOC

  -------         PROC BANK=2   _B64DECODE
  X:36E9H         SYMBOL        in
  X:36ECH         SYMBOL        out
  -------         DO            
  X:36EFH         SYMBOL        inlen
  -------         ENDDO         
 C2:CFF2H         LINE#         134
 C2:CFFDH         LINE#         135
 C2:D008H         LINE#         136
 C2:D01AH         LINE#         137
 C2:D03DH         LINE#         138
 C2:D04BH         LINE#         139
 C2:D055H         LINE#         140
 C2:D05FH         LINE#         141
 C2:D061H         LINE#         142
  -------         ENDPROC       _B64DECODE
  -------         ENDMOD        BASE64

  -------         MODULE        CRAM_MD5
  C:0000H         SYMBOL        _ICE_DUMMY_
  X:2F3CH         PUBLIC        buf_md5
 C2:D353H         PUBLIC        _cram_md5_decode
 C2:D59FH         PUBLIC        _cram_md5_encode
  X:2FA0H         PUBLIC        _cram_md5_param
 C2:BA86H         PUBLIC        _cram_md5
  -------         PROC          L?0004
  -------         ENDPROC       L?0004

  -------         PROC BANK=2   _CRAM_MD5
  X:357DH         SYMBOL        cram_md5_param
  -------         DO            
  X:3580H         SYMBOL        challenge
  X:3583H         SYMBOL        decoded
  X:3586H         SYMBOL        encoded
  -------         ENDDO         
 C2:BA86H         LINE#         20
 C2:BA91H         LINE#         21
 C2:BA91H         LINE#         26
 C2:BAA5H         LINE#         27
 C2:BAD6H         LINE#         29
 C2:BAF8H         LINE#         31
 C2:BB06H         LINE#         33
 C2:BB2EH         LINE#         35
 C2:BB47H         LINE#         36
 C2:BB6AH         LINE#         37
 C2:BB8CH         LINE#         38
  -------         ENDPROC       _CRAM_MD5

  -------         PROC BANK=2   _CRAM_MD5_ENCODE
  D:0001H         SYMBOL        in
  X:37EAH         SYMBOL        out
 C2:D59FH         LINE#         39
 C2:D59FH         LINE#         40
 C2:D59FH         LINE#         41
BL51 BANKED LINKER/LOCATER V5.03                                                      01/30/2013  19:55:46  PAGE 286


 C2:D5AAH         LINE#         42
 C2:D5B6H         LINE#         43
 C2:D5BDH         LINE#         44
 C2:D5C0H         LINE#         45
  -------         ENDPROC       _CRAM_MD5_ENCODE

  -------         PROC BANK=2   _CRAM_MD5_DECODE
  X:37EDH         SYMBOL        in
  X:37F0H         SYMBOL        out
 C2:D353H         LINE#         48
 C2:D35EH         LINE#         49
 C2:D35EH         LINE#         50
 C2:D36CH         LINE#         51
 C2:D378H         LINE#         52
 C2:D388H         LINE#         53
 C2:D38BH         LINE#         54
  -------         ENDPROC       _CRAM_MD5_DECODE
  -------         ENDMOD        CRAM_MD5

  -------         MODULE        SNMP_TRAP
  C:0000H         SYMBOL        _ICE_DUMMY_
  -------         ENDMOD        SNMP_TRAP

  -------         MODULE        ?C?COPY
  C:0188H         PUBLIC        ?C?COPY
  -------         ENDMOD        ?C?COPY

  -------         MODULE        ?C?CLDPTR
  C:01AEH         PUBLIC        ?C?CLDPTR
  -------         ENDMOD        ?C?CLDPTR

  -------         MODULE        ?C?CLDOPTR
  C:01C7H         PUBLIC        ?C?CLDOPTR
  -------         ENDMOD        ?C?CLDOPTR

  -------         MODULE        ?C?CLDIOPTR
  C:01F4H         PUBLIC        ?C?CLDIOPTR
  -------         ENDMOD        ?C?CLDIOPTR

  -------         MODULE        ?C?CILDPTR
  C:022BH         PUBLIC        ?C?CILDPTR
  -------         ENDMOD        ?C?CILDPTR

  -------         MODULE        ?C?CILDOPTR
  C:024DH         PUBLIC        ?C?CILDOPTR
  -------         ENDMOD        ?C?CILDOPTR

  -------         MODULE        ?C?CSTPTR
  C:0280H         PUBLIC        ?C?CSTPTR
  -------         ENDMOD        ?C?CSTPTR

  -------         MODULE        ?C?CSTOPTR
  C:0292H         PUBLIC        ?C?CSTOPTR
  -------         ENDMOD        ?C?CSTOPTR

  -------         MODULE        ?C?IMUL
  C:02B4H         PUBLIC        ?C?IMUL
BL51 BANKED LINKER/LOCATER V5.03                                                      01/30/2013  19:55:46  PAGE 287


  -------         ENDMOD        ?C?IMUL

  -------         MODULE        ?C?UIDIV
  C:02C6H         PUBLIC        ?C?UIDIV
  -------         ENDMOD        ?C?UIDIV

  -------         MODULE        ?C?SIDIV
  C:031BH         PUBLIC        ?C?SIDIV
  -------         ENDMOD        ?C?SIDIV

  -------         MODULE        ?C?IILDX
  C:0351H         PUBLIC        ?C?IILDX
  -------         ENDMOD        ?C?IILDX

  -------         MODULE        ?C?ILDIX
  C:0367H         PUBLIC        ?C?ILDIX
  -------         ENDMOD        ?C?ILDIX

  -------         MODULE        ?C?ILDPTR
  C:037DH         PUBLIC        ?C?ILDPTR
  -------         ENDMOD        ?C?ILDPTR

  -------         MODULE        ?C?ILDOPTR
  C:03A8H         PUBLIC        ?C?ILDOPTR
  -------         ENDMOD        ?C?ILDOPTR

  -------         MODULE        ?C?IILDPTR
  C:03E0H         PUBLIC        ?C?IILDPTR
  -------         ENDMOD        ?C?IILDPTR

  -------         MODULE        ?C?IILDOPTR
  C:0418H         PUBLIC        ?C?IILDOPTR
  -------         ENDMOD        ?C?IILDOPTR

  -------         MODULE        ?C?ISTPTR
  C:0465H         PUBLIC        ?C?ISTPTR
  -------         ENDMOD        ?C?ISTPTR

  -------         MODULE        ?C?ISTOPTR
  C:0484H         PUBLIC        ?C?ISTOPTR
  -------         ENDMOD        ?C?ISTOPTR

  -------         MODULE        ?C?LMUL
  C:04B1H         PUBLIC        ?C?LMUL
  -------         ENDMOD        ?C?LMUL

  -------         MODULE        ?C?ULDIV
  C:053CH         PUBLIC        ?C?ULDIV
  -------         ENDMOD        ?C?ULDIV

  -------         MODULE        ?C?LNOT
  C:05CEH         PUBLIC        ?C?LNOT
  -------         ENDMOD        ?C?LNOT

  -------         MODULE        ?C?SLCMP
  C:05DBH         PUBLIC        ?C?SLCMP
  -------         ENDMOD        ?C?SLCMP
BL51 BANKED LINKER/LOCATER V5.03                                                      01/30/2013  19:55:46  PAGE 288



  -------         MODULE        ?C?ULCMP
  C:05F1H         PUBLIC        ?C?ULCMP
  -------         ENDMOD        ?C?ULCMP

  -------         MODULE        ?C?ULSHR
  C:0602H         PUBLIC        ?C?ULSHR
  -------         ENDMOD        ?C?ULSHR

  -------         MODULE        ?C?LSHL
  C:0615H         PUBLIC        ?C?LSHL
  -------         ENDMOD        ?C?LSHL

  -------         MODULE        ?C?LLDPTR
  C:0628H         PUBLIC        ?C?LLDPTR
  -------         ENDMOD        ?C?LLDPTR

  -------         MODULE        ?C?LLDOPTR
  C:0648H         PUBLIC        ?C?LLDOPTR
  -------         ENDMOD        ?C?LLDOPTR

  -------         MODULE        ?C?LSTPTR
  C:0678H         PUBLIC        ?C?LSTPTR
  -------         ENDMOD        ?C?LSTPTR

  -------         MODULE        ?C?LSTOPTR
  C:0692H         PUBLIC        ?C?LSTOPTR
  -------         ENDMOD        ?C?LSTOPTR

  -------         MODULE        ?C?LLDPTR0
  C:06B6H         PUBLIC        ?C?LLDPTR0
  -------         ENDMOD        ?C?LLDPTR0

  -------         MODULE        ?C?LLDIXDATA
  C:06DFH         PUBLIC        ?C?LLDIXDATA
  C:06D6H         PUBLIC        ?C?LLDIXDATA1
  C:06D8H         PUBLIC        ?C?LLDIXDATA8
  -------         ENDMOD        ?C?LLDIXDATA

  -------         MODULE        ?C?LSTXDATA
  C:070BH         PUBLIC        ?C?LSTXDATA
  -------         ENDMOD        ?C?LSTXDATA

  -------         MODULE        ?C?LSTKXDATA
  C:0717H         PUBLIC        ?C?LSTKXDATA
  -------         ENDMOD        ?C?LSTKXDATA

  -------         MODULE        ?C?LSTKOPTR
  C:0748H         PUBLIC        ?C?LSTKOPTR
  -------         ENDMOD        ?C?LSTKOPTR

  -------         MODULE        ?C?OFFX256
  C:076CH         PUBLIC        ?C?OFFX256
  -------         ENDMOD        ?C?OFFX256

  -------         MODULE        ?C?OFFXADD
  C:077DH         PUBLIC        ?C?OFFXADD
BL51 BANKED LINKER/LOCATER V5.03                                                      01/30/2013  19:55:46  PAGE 289


  -------         ENDMOD        ?C?OFFXADD

  -------         MODULE        ?C?PLDPTR
  C:0789H         PUBLIC        ?C?PLDPTR
  -------         ENDMOD        ?C?PLDPTR

  -------         MODULE        ?C?PSTPTR
  C:07A9H         PUBLIC        ?C?PSTPTR
  -------         ENDMOD        ?C?PSTPTR

  -------         MODULE        ?C?PLDOPTR
  C:07F8H         PUBLIC        ?C?PLDOPTR
  -------         ENDMOD        ?C?PLDOPTR

  -------         MODULE        ?C?PSTOPTR
  C:0828H         PUBLIC        ?C?PSTOPTR
  -------         ENDMOD        ?C?PSTOPTR

  -------         MODULE        ?C?CCASE
  C:0881H         PUBLIC        ?C?CCASE
  -------         ENDMOD        ?C?CCASE

  -------         MODULE        ?C?ICASE
  C:08A7H         PUBLIC        ?C?ICASE
  -------         ENDMOD        ?C?ICASE

  -------         MODULE        ?C?ICALL
  C:08D4H         PUBLIC        ?C?ICALL
  C:08D8H         PUBLIC        ?C?ICALL2
  -------         ENDMOD        ?C?ICALL

  -------         MODULE        PRINTF
  X:3310H         PUBLIC        ?_PRINTF517?BYTE
  X:3310H         PUBLIC        ?_PRINTF?BYTE
  X:3310H         PUBLIC        ?_SPRINTF517?BYTE
  X:3310H         PUBLIC        ?_SPRINTF?BYTE
  C:2AD4H         PUBLIC        _PRINTF
  C:2AD4H         PUBLIC        _PRINTF517
  C:2ACEH         PUBLIC        _SPRINTF
  C:2ACEH         PUBLIC        _SPRINTF517
  -------         ENDMOD        PRINTF

  -------         MODULE        RAND
  X:3858H         PUBLIC        ?SRAND?BYTE
  C:000EH         PUBLIC        RAND
  C:0041H         PUBLIC        _SRAND
  -------         ENDMOD        RAND

  -------         MODULE        SCANF
  X:3267H         PUBLIC        ?_SCANF517?BYTE
  X:3267H         PUBLIC        ?_SCANF?BYTE
  X:3267H         PUBLIC        ?_SSCANF517?BYTE
  X:3267H         PUBLIC        ?_SSCANF?BYTE
  C:1D34H         PUBLIC        _SCANF
  C:1D34H         PUBLIC        _SCANF517
  C:1D30H         PUBLIC        _SSCANF
  C:1D30H         PUBLIC        _SSCANF517
BL51 BANKED LINKER/LOCATER V5.03                                                      01/30/2013  19:55:46  PAGE 290


  -------         ENDMOD        SCANF

  -------         MODULE        STRCAT
  X:365FH         PUBLIC        ?_strcat?BYTE
  C:3AD8H         PUBLIC        _strcat
  -------         ENDMOD        STRCAT

  -------         MODULE        ?C?STRCMP
  C:0A62H         PUBLIC        ?C?STRCMP
  -------         ENDMOD        ?C?STRCMP

  -------         MODULE        STRNCMP
  X:36F1H         PUBLIC        ?_strncmp?BYTE
  C:39F4H         PUBLIC        _strncmp
  -------         ENDMOD        STRNCMP

  -------         MODULE        ?C?STRCPY
  C:0B4BH         PUBLIC        ?C?STRCPY
  -------         ENDMOD        ?C?STRCPY

  -------         MODULE        STRLEN
  C:3DD1H         PUBLIC        _STRLEN
  -------         ENDMOD        STRLEN

  -------         MODULE        STRCHR
  C:3D84H         PUBLIC        _STRCHR
  -------         ENDMOD        STRCHR

  -------         MODULE        STRCSPN
  X:3668H         PUBLIC        ?_strcspn?BYTE
  C:3973H         PUBLIC        _strcspn
  -------         ENDMOD        STRCSPN

  -------         MODULE        ATOL
  C:3289H         PUBLIC        _atol
  -------         ENDMOD        ATOL

  -------         MODULE        ATOI
  C:3477H         PUBLIC        _atoi
  -------         ENDMOD        ATOI

  -------         MODULE        ?C?MEMCMP
  C:0CEEH         PUBLIC        ?C?MEMCMP
  -------         ENDMOD        ?C?MEMCMP

  -------         MODULE        ?C?MEMSET
  C:0D12H         PUBLIC        ?C?MEMSET
  -------         ENDMOD        ?C?MEMSET

  -------         MODULE        ?C?LNEG
  C:0D3EH         PUBLIC        ?C?LNEG
  -------         ENDMOD        ?C?LNEG

  -------         MODULE        ?C?LLDIDATA
  C:0D4CH         PUBLIC        ?C?LLDIDATA
  -------         ENDMOD        ?C?LLDIDATA

BL51 BANKED LINKER/LOCATER V5.03                                                      01/30/2013  19:55:46  PAGE 291


  -------         MODULE        ?C?LLDXDATA
  C:0D58H         PUBLIC        ?C?LLDXDATA
  -------         ENDMOD        ?C?LLDXDATA

  -------         MODULE        ?C?LLDPDATA
  C:0D64H         PUBLIC        ?C?LLDPDATA
  -------         ENDMOD        ?C?LLDPDATA

  -------         MODULE        ?C?LLDCODE
  C:0D70H         PUBLIC        ?C?LLDCODE
  -------         ENDMOD        ?C?LLDCODE

  -------         MODULE        ?C?LLDIDATA0
  C:0D80H         PUBLIC        ?C?LLDIDATA0
  -------         ENDMOD        ?C?LLDIDATA0

  -------         MODULE        ?C?LLDXDATA0
  C:0D8DH         PUBLIC        ?C?LLDXDATA0
  -------         ENDMOD        ?C?LLDXDATA0

  -------         MODULE        ?C?LLDPDATA0
  C:0D99H         PUBLIC        ?C?LLDPDATA0
  -------         ENDMOD        ?C?LLDPDATA0

  -------         MODULE        ?C?LLDCODE0
  C:0DA6H         PUBLIC        ?C?LLDCODE0
  -------         ENDMOD        ?C?LLDCODE0

  -------         MODULE        ?C?LSTIDATA
  C:0DB6H         PUBLIC        ?C?LSTIDATA
  -------         ENDMOD        ?C?LSTIDATA

  -------         MODULE        ?C?LSTPDATA
  C:0DC2H         PUBLIC        ?C?LSTPDATA
  -------         ENDMOD        ?C?LSTPDATA

  -------         MODULE        ?C?LSTKIDATA
  C:0DCEH         PUBLIC        ?C?LSTKIDATA
  -------         ENDMOD        ?C?LSTKIDATA

  -------         MODULE        ?C?LSTKPDATA
  C:0DE7H         PUBLIC        ?C?LSTKPDATA
  -------         ENDMOD        ?C?LSTKPDATA

  -------         MODULE        ?C?PLDIDATA
  C:0E00H         PUBLIC        ?C?PLDIDATA
  -------         ENDMOD        ?C?PLDIDATA

  -------         MODULE        ?C?PSTIDATA
  C:0E09H         PUBLIC        ?C?PSTIDATA
  -------         ENDMOD        ?C?PSTIDATA

  -------         MODULE        ?C?PLDXDATA
  C:0E12H         PUBLIC        ?C?PLDXDATA
  -------         ENDMOD        ?C?PLDXDATA

  -------         MODULE        ?C?PLDIXDATA
BL51 BANKED LINKER/LOCATER V5.03                                                      01/30/2013  19:55:46  PAGE 292


  C:0E1BH         PUBLIC        ?C?PLDIXDATA
  -------         ENDMOD        ?C?PLDIXDATA

  -------         MODULE        ?C?PILDXDATA
  C:0E32H         PUBLIC        ?C?PILDXDATA
  -------         ENDMOD        ?C?PILDXDATA

  -------         MODULE        ?C?PSTXDATA
  C:0E49H         PUBLIC        ?C?PSTXDATA
  -------         ENDMOD        ?C?PSTXDATA

  -------         MODULE        ?C?PLDPDATA
  C:0E52H         PUBLIC        ?C?PLDPDATA
  -------         ENDMOD        ?C?PLDPDATA

  -------         MODULE        ?C?PSTPDATA
  C:0E5BH         PUBLIC        ?C?PSTPDATA
  -------         ENDMOD        ?C?PSTPDATA

  -------         MODULE        ?C?PLDCODE
  C:0E64H         PUBLIC        ?C?PLDCODE
  -------         ENDMOD        ?C?PLDCODE

  -------         MODULE        PUTCHAR
  C:3CEBH         PUBLIC        _PUTCHAR
  -------         ENDMOD        PUTCHAR

  -------         MODULE        GETCHAR
  B:0027H.1       PUBLIC        ?C?CHARLOADED
  X:3909H         PUBLIC        ?_UNGETCHAR?BYTE
  C:3DFAH         PUBLIC        GETCHAR
  -------         ENDMOD        GETCHAR

  -------         MODULE        UNGETC
  C:3E9CH         PUBLIC        _UNGETCHAR
  -------         ENDMOD        UNGETC

  -------         MODULE        ISDIGIT
  C:3E64H         PUBLIC        _isdigit
  -------         ENDMOD        ISDIGIT

  -------         MODULE        ISSPACE
  C:3E0EH         PUBLIC        _isspace
  -------         ENDMOD        ISSPACE

  -------         MODULE        _GETKEY
  C:3E8AH         PUBLIC        _GETKEY
  -------         ENDMOD        _GETKEY

Program Size: data=99.2 xdata=14602 code=192322
LINK/LOCATE RUN COMPLETE.  0 WARNING(S),  0 ERROR(S)
