BL51 BANKED LINKER/LOCATER V6.00                                                        12/23/2015  16:04:37  PAGE 1


BL51 BANKED LINKER/LOCATER V6.00, INVOKED BY:
C:\KEIL\C51\BIN\BL51.EXE BANK1 {.\obj\main.obj}, BANK1 {.\obj\patch_info.obj}, BANK1 {.\obj\ee_process.obj}, BANK0 {.\ob
>> j\firmware_rev.obj}, COMMON {.\obj\L51_BANK.obj}, COMMON {.\obj\STARTUP.obj}, BANK1 {.\obj\ee_default.obj}, BANK1 {.\
>> obj\dma.obj}, BANK1 {.\obj\eeprom.obj}, BANK1 {.\obj\serial.obj}, BANK1 {.\obj\MACdriver.obj}, BANK1 {.\obj\timer.obj
>> }, BANK1 {.\obj\uart.obj}, BANK1 {.\obj\MDC_MDIO.obj}, BANK1 {.\obj\os_cbk.obj}, BANK1 {.\obj\vtag.obj}, BANK1 {.\obj
>> \fs.obj}, BANK0 {.\obj\htmfiles0.obj}, BANK1 {.\obj\htmfiles1.obj}, BANK2 {.\obj\htmfiles2.obj}, BANK3 {.\obj\htmfile
>> s3.obj}, BANK4 {.\obj\htmfiles4.obj}, BANK5 {.\obj\htmfiles5.obj}, BANK6 {.\obj\htmfiles6.obj}, BANK7 {.\obj\htmfiles
>> 7.obj}, BANK1 {.\obj\uip.obj}, BANK6 {.\obj\uip_arp.obj}, BANK1 {.\obj\muip.obj}, BANK1 {.\obj\cgi.obj}, BANK1 {.\obj
>> \cgiutil.obj}, BANK1 {.\obj\challenge.obj}, BANK1 {.\obj\cookie.obj}, BANK1 {.\obj\httpd.obj}, BANK1 {.\obj\applicati
>> on.obj}, BANK1 {.\obj\httpd_app.obj}, BANK5 {.\obj\checksum.obj}, BANK1 {.\obj\loginCbk.obj}, BANK1 {.\obj\errormsgCb
>> k.obj}, BANK2 {.\obj\uartCbk.obj}, BANK2 {.\obj\telnetCbk.obj}, BANK5 {.\obj\setDefCbk.obj}, BANK1 {.\obj\setIPCbk.ob
>> j}, BANK1 {.\obj\setPASSCbk.obj}, BANK1 {.\obj\statusCbk.obj}, BANK1 {.\obj\smtpCbk.obj}, BANK1 {.\obj\fw_upCbk.obj},
>>  BANK5 {.\obj\adcCbk.obj}, BANK5 {.\obj\udp_telCbk.obj}, BANK1 {.\obj\didoCbk.obj}, BANK6 {.\obj\CommandLine.obj}, BA
>> NK1 {.\obj\utility.obj}, BANK2 {.\obj\telnet.obj}, BANK2 {.\obj\udp.obj}, BANK2 {.\obj\dhcpc.obj}, BANK2 {.\obj\net_u
>> art.obj}, BANK2 {.\obj\gpio.obj}, BANK2 {.\obj\dns.obj}, BANK2 {.\obj\wdg.obj}, BANK2 {.\obj\udp_tel.obj}, BANK2 {.\o
>> bj\netuart_ctrl.obj}, BANK5 {.\obj\dido.obj}, BANK5 {.\obj\net_cmd.obj}, BANK2 {.\obj\smtp.obj}, BANK2 {.\obj\base64.
>> obj}, BANK2 {.\obj\cram_md5.obj}, BANK2 {.\obj\snmp_trap.obj} TO .\obj\NetUART BANKAREA (0X5000, 0XFF00) PRINT (.\Net
>> UART.m51) RAMSIZE (256) NOOVERLAY, BANK0 (?CO?HTMFILES0 (0X5000), ?CO?FIRMWARE_REV (0X6000)) BANK1 (?CO?HTMFILES1 (0X
>> 5000)) BANK2 (?CO?HTMFILES2 (0X5000)) BANK3 (?CO?HTMFILES3 (0X5000)) BANK4 (?CO?HTMFILES4 (0X5000)) BANK5 (?CO?HTMFIL
>> ES5 (0X5000)) BANK6 (?CO?HTMFILES6 (0X5000)) BANK7 (?CO?HTMFILES7 (0X5000)) CODE (0X0000-0X4FFF) XDATA (0X0000-0X3AFF
>> )


MEMORY MODEL: LARGE


INPUT MODULES INCLUDED:
  .\obj\main.obj (MAIN)
  .\obj\patch_info.obj (PATCH_INFO)
  .\obj\ee_process.obj (EE_PROCESS)
  .\obj\firmware_rev.obj (FIRMWARE_REV)
  .\obj\L51_BANK.obj (?BANK?SWITCHING)
  .\obj\STARTUP.obj (?C_STARTUP)
  .\obj\ee_default.obj (EE_DEFAULT)
  .\obj\dma.obj (DMA)
  .\obj\eeprom.obj (EEPROM)
  .\obj\serial.obj (SERIAL)
  .\obj\MACdriver.obj (MACDRIVER)
  .\obj\timer.obj (TIMER)
  .\obj\uart.obj (UART)
  .\obj\MDC_MDIO.obj (MDC_MDIO)
  .\obj\os_cbk.obj (OS_CBK)
  .\obj\vtag.obj (VTAG)
  .\obj\fs.obj (FS)
  .\obj\htmfiles0.obj (HTMFILES0)
  .\obj\htmfiles1.obj (HTMFILES1)
  .\obj\htmfiles2.obj (HTMFILES2)
  .\obj\htmfiles3.obj (HTMFILES3)
  .\obj\htmfiles4.obj (HTMFILES4)
  .\obj\htmfiles5.obj (HTMFILES5)
  .\obj\htmfiles6.obj (HTMFILES6)
  .\obj\htmfiles7.obj (HTMFILES7)
  .\obj\uip.obj (UIP)
  .\obj\uip_arp.obj (UIP_ARP)
  .\obj\muip.obj (MUIP)
  .\obj\cgi.obj (CGI)
  .\obj\cgiutil.obj (CGIUTIL)
  .\obj\challenge.obj (CHALLENGE)
BL51 BANKED LINKER/LOCATER V6.00                                                      12/23/2015  16:04:37  PAGE 2


  .\obj\cookie.obj (COOKIE)
  .\obj\httpd.obj (HTTPD)
  .\obj\application.obj (APPLICATION)
  .\obj\httpd_app.obj (HTTPD_APP)
  .\obj\checksum.obj (CHECKSUM)
  .\obj\loginCbk.obj (LOGINCBK)
  .\obj\errormsgCbk.obj (ERRORMSGCBK)
  .\obj\uartCbk.obj (UARTCBK)
  .\obj\telnetCbk.obj (TELNETCBK)
  .\obj\setDefCbk.obj (SETDEFCBK)
  .\obj\setIPCbk.obj (SETIPCBK)
  .\obj\setPASSCbk.obj (SETPASSCBK)
  .\obj\statusCbk.obj (STATUSCBK)
  .\obj\smtpCbk.obj (SMTPCBK)
  .\obj\fw_upCbk.obj (FW_UPCBK)
  .\obj\adcCbk.obj (ADCCBK)
  .\obj\udp_telCbk.obj (UDP_TELCBK)
  .\obj\didoCbk.obj (DIDOCBK)
  .\obj\CommandLine.obj (COMMANDLINE)
  .\obj\utility.obj (UTILITY)
  .\obj\telnet.obj (TELNET)
  .\obj\udp.obj (UDP)
  .\obj\dhcpc.obj (DHCPC)
  .\obj\net_uart.obj (NET_UART)
  .\obj\gpio.obj (GPIO)
  .\obj\dns.obj (DNS)
  .\obj\wdg.obj (WDG)
  .\obj\udp_tel.obj (UDP_TEL)
  .\obj\netuart_ctrl.obj (NETUART_CTRL)
  .\obj\dido.obj (DIDO)
  .\obj\net_cmd.obj (NET_CMD)
  .\obj\smtp.obj (SMTP)
  .\obj\base64.obj (BASE64)
  .\obj\cram_md5.obj (CRAM_MD5)
  .\obj\snmp_trap.obj (SNMP_TRAP)
  C:\KEIL\C51\LIB\C51L.LIB (?C_INIT)
  C:\KEIL\C51\LIB\C51L.LIB (?C?COPY)
  C:\KEIL\C51\LIB\C51L.LIB (?C?CLDPTR)
  C:\KEIL\C51\LIB\C51L.LIB (?C?CLDOPTR)
  C:\KEIL\C51\LIB\C51L.LIB (?C?CLDIOPTR)
  C:\KEIL\C51\LIB\C51L.LIB (?C?CILDPTR)
  C:\KEIL\C51\LIB\C51L.LIB (?C?CILDOPTR)
  C:\KEIL\C51\LIB\C51L.LIB (?C?CSTPTR)
  C:\KEIL\C51\LIB\C51L.LIB (?C?CSTOPTR)
  C:\KEIL\C51\LIB\C51L.LIB (?C?IMUL)
  C:\KEIL\C51\LIB\C51L.LIB (?C?UIDIV)
  C:\KEIL\C51\LIB\C51L.LIB (?C?SIDIV)
  C:\KEIL\C51\LIB\C51L.LIB (?C?IILDX)
  C:\KEIL\C51\LIB\C51L.LIB (?C?ILDIX)
  C:\KEIL\C51\LIB\C51L.LIB (?C?ILDPTR)
  C:\KEIL\C51\LIB\C51L.LIB (?C?ILDOPTR)
  C:\KEIL\C51\LIB\C51L.LIB (?C?IILDPTR)
  C:\KEIL\C51\LIB\C51L.LIB (?C?IILDOPTR)
  C:\KEIL\C51\LIB\C51L.LIB (?C?ISTPTR)
  C:\KEIL\C51\LIB\C51L.LIB (?C?ISTOPTR)
  C:\KEIL\C51\LIB\C51L.LIB (?C?LMUL)
  C:\KEIL\C51\LIB\C51L.LIB (?C?ULDIV)
BL51 BANKED LINKER/LOCATER V6.00                                                      12/23/2015  16:04:37  PAGE 3


  C:\KEIL\C51\LIB\C51L.LIB (?C?LNOT)
  C:\KEIL\C51\LIB\C51L.LIB (?C?SLCMP)
  C:\KEIL\C51\LIB\C51L.LIB (?C?ULCMP)
  C:\KEIL\C51\LIB\C51L.LIB (?C?ULSHR)
  C:\KEIL\C51\LIB\C51L.LIB (?C?LSHL)
  C:\KEIL\C51\LIB\C51L.LIB (?C?LLDPTR)
  C:\KEIL\C51\LIB\C51L.LIB (?C?LLDOPTR)
  C:\KEIL\C51\LIB\C51L.LIB (?C?LSTPTR)
  C:\KEIL\C51\LIB\C51L.LIB (?C?LSTOPTR)
  C:\KEIL\C51\LIB\C51L.LIB (?C?LLDPTR0)
  C:\KEIL\C51\LIB\C51L.LIB (?C?LLDIXDATA)
  C:\KEIL\C51\LIB\C51L.LIB (?C?LSTXDATA)
  C:\KEIL\C51\LIB\C51L.LIB (?C?LSTKXDATA)
  C:\KEIL\C51\LIB\C51L.LIB (?C?LSTKOPTR)
  C:\KEIL\C51\LIB\C51L.LIB (?C?OFFXADD)
  C:\KEIL\C51\LIB\C51L.LIB (?C?PLDPTR)
  C:\KEIL\C51\LIB\C51L.LIB (?C?PSTPTR)
  C:\KEIL\C51\LIB\C51L.LIB (?C?PLDOPTR)
  C:\KEIL\C51\LIB\C51L.LIB (?C?PSTOPTR)
  C:\KEIL\C51\LIB\C51L.LIB (?C?CCASE)
  C:\KEIL\C51\LIB\C51L.LIB (?C?ICASE)
  C:\KEIL\C51\LIB\C51L.LIB (?C?ICALL)
  C:\KEIL\C51\LIB\C51L.LIB (PRINTF)
  C:\KEIL\C51\LIB\C51L.LIB (RAND)
  C:\KEIL\C51\LIB\C51L.LIB (SCANF)
  C:\KEIL\C51\LIB\C51L.LIB (STRCAT)
  C:\KEIL\C51\LIB\C51L.LIB (?C?STRCMP)
  C:\KEIL\C51\LIB\C51L.LIB (STRNCMP)
  C:\KEIL\C51\LIB\C51L.LIB (?C?STRCPY)
  C:\KEIL\C51\LIB\C51L.LIB (STRLEN)
  C:\KEIL\C51\LIB\C51L.LIB (STRCHR)
  C:\KEIL\C51\LIB\C51L.LIB (STRCSPN)
  C:\KEIL\C51\LIB\C51L.LIB (ATOL)
  C:\KEIL\C51\LIB\C51L.LIB (ATOI)
  C:\KEIL\C51\LIB\C51L.LIB (?C?MEMCMP)
  C:\KEIL\C51\LIB\C51L.LIB (?C?MEMSET)
  C:\KEIL\C51\LIB\C51L.LIB (?C?LNEG)
  C:\KEIL\C51\LIB\C51L.LIB (?C?LLDIDATA)
  C:\KEIL\C51\LIB\C51L.LIB (?C?LLDXDATA)
  C:\KEIL\C51\LIB\C51L.LIB (?C?LLDPDATA)
  C:\KEIL\C51\LIB\C51L.LIB (?C?LLDCODE)
  C:\KEIL\C51\LIB\C51L.LIB (?C?LLDIDATA0)
  C:\KEIL\C51\LIB\C51L.LIB (?C?LLDXDATA0)
  C:\KEIL\C51\LIB\C51L.LIB (?C?LLDPDATA0)
  C:\KEIL\C51\LIB\C51L.LIB (?C?LLDCODE0)
  C:\KEIL\C51\LIB\C51L.LIB (?C?LSTIDATA)
  C:\KEIL\C51\LIB\C51L.LIB (?C?LSTPDATA)
  C:\KEIL\C51\LIB\C51L.LIB (?C?LSTKIDATA)
  C:\KEIL\C51\LIB\C51L.LIB (?C?LSTKPDATA)
  C:\KEIL\C51\LIB\C51L.LIB (?C?PLDIDATA)
  C:\KEIL\C51\LIB\C51L.LIB (?C?PSTIDATA)
  C:\KEIL\C51\LIB\C51L.LIB (?C?PLDXDATA)
  C:\KEIL\C51\LIB\C51L.LIB (?C?PLDIXDATA)
  C:\KEIL\C51\LIB\C51L.LIB (?C?PILDXDATA)
  C:\KEIL\C51\LIB\C51L.LIB (?C?PSTXDATA)
  C:\KEIL\C51\LIB\C51L.LIB (?C?PLDPDATA)
  C:\KEIL\C51\LIB\C51L.LIB (?C?PSTPDATA)
BL51 BANKED LINKER/LOCATER V6.00                                                      12/23/2015  16:04:37  PAGE 4


  C:\KEIL\C51\LIB\C51L.LIB (?C?PLDCODE)
  C:\KEIL\C51\LIB\C51L.LIB (PUTCHAR)
  C:\KEIL\C51\LIB\C51L.LIB (GETCHAR)
  C:\KEIL\C51\LIB\C51L.LIB (UNGETC)
  C:\KEIL\C51\LIB\C51L.LIB (ISDIGIT)
  C:\KEIL\C51\LIB\C51L.LIB (ISSPACE)
  C:\KEIL\C51\LIB\C51L.LIB (_GETKEY)


LINK MAP OF MODULE:  .\obj\NetUART (MAIN)


            TYPE    BASE      LENGTH    RELOCATION   SEGMENT NAME
            -----------------------------------------------------

            * * * * * * *   D A T A   M E M O R Y   * * * * * * *
            REG     0000H     0008H     ABSOLUTE     "REG BANK 0"
            DATA    0008H     0018H     ABSOLUTE     
            BIT     0020H.0   0005H.0   ABSOLUTE     
            BIT     0025H.0   0001H.1   UNIT         ?BI?PRINTF?PRINTF
            BIT     0026H.1   0000H.6   UNIT         ?BI?SCANF?SCANF
            BIT     0026H.7   0000H.1   UNIT         ?BI?_ATOL?ATOL
            BIT     0027H.0   0000H.1   UNIT         ?BI?_ATOI?ATOI
            BIT     0027H.1   0000H.1   UNIT         ?BI?GETCHAR
                    0027H.2   0000H.6                *** GAP ***
            DATA    0028H     0005H     UNIT         ?DT?PRINTF?PRINTF
            DATA    002DH     0001H     UNIT         ?BANK?DATA
                    002EH     0002H                  *** GAP ***
            DATA    0030H     0030H     ABSOLUTE     
            DATA    0060H     0005H     UNIT         ?DT?SCANF?SCANF
            IDATA   0065H     0001H     UNIT         ?STACK

            * * * * * * *  X D A T A   M E M O R Y  * * * * * * *
            XDATA   0000H     0D7FH     UNIT         ?XD?HTTPD
            XDATA   0D7FH     0A7FH     UNIT         ?XD?UIP
            XDATA   17FEH     0720H     UNIT         ?XD?EE_PROCESS
            XDATA   1F1EH     0608H     UNIT         ?XD?MUIP
            XDATA   2526H     01E3H     UNIT         ?XD?HTMFILES3
            XDATA   2709H     0188H     UNIT         ?XD?BASE64
            XDATA   2891H     0155H     UNIT         ?XD?SMTP
            XDATA   29E6H     0100H     UNIT         ?XD?UIP_ARP
            XDATA   2AE6H     00D7H     UNIT         ?XD?NET_CMD
            XDATA   2BBDH     00A8H     UNIT         ?XD?TELNET
            XDATA   2C65H     00A5H     UNIT         ?XD?UART
            XDATA   2D0AH     0092H     UNIT         ?XD?NET_UART
            XDATA   2D9CH     007DH     UNIT         ?XD?COM_PORT_OPTION?NET_UART
            XDATA   2E19H     0073H     UNIT         ?XD?_CGI_SMTP?SMTPCBK
            XDATA   2E8CH     0073H     UNIT         ?XD?CRAM_MD5
            XDATA   2EFFH     0067H     UNIT         ?XD?_SSI_SMTP?SMTPCBK
            XDATA   2F66H     0067H     UNIT         ?XD?_SMTP_SEND_AUTH_ID_PW?SMTP
            XDATA   2FCDH     005CH     UNIT         ?XD?SMTP_SEND_MAILBODY?SMTP
            XDATA   3029H     005AH     UNIT         ?XD?UDP_TEL
            XDATA   3083H     0050H     UNIT         ?XD?FS
            XDATA   30D3H     004BH     UNIT         ?XD?COMMAND_SETTING?COMMANDLINE
            XDATA   311EH     0049H     UNIT         ?XD?COMMANDLINE
            XDATA   3167H     003DH     UNIT         ?XD?NETCMD?NET_CMD
            XDATA   31A4H     0033H     UNIT         ?XD?_CGI_LOGIN?LOGINCBK
BL51 BANKED LINKER/LOCATER V6.00                                                      12/23/2015  16:04:37  PAGE 5


            XDATA   31D7H     002EH     UNIT         ?XD?SCANF?SCANF
            XDATA   3205H     0029H     UNIT         ?XD?APPLICATION
            XDATA   322EH     0029H     UNIT         ?XD?_SSI_UDP_TEL?UDP_TELCBK
            XDATA   3257H     0029H     UNIT         ?XD?DHCPC
            XDATA   3280H     0028H     UNIT         ?XD?PRINTF?PRINTF
            XDATA   32A8H     0024H     UNIT         ?XD?_SSI_SETPASS?SETPASSCBK
            XDATA   32CCH     0024H     UNIT         ?XD?_DNS_QUERY?DNS
            XDATA   32F0H     001DH     UNIT         ?XD?DHCPCSENDDISCOVER?DHCPC
            XDATA   330DH     001BH     UNIT         ?XD?_DHCPCSENDREQUEST?DHCPC
            XDATA   3328H     001AH     UNIT         ?XD?COMMAND_INFO?COMMANDLINE
            XDATA   3342H     001AH     UNIT         ?XD?ONLOGINACCOUNT?NET_CMD
            XDATA   335CH     0019H     UNIT         ?XD?UDP
            XDATA   3375H     0016H     UNIT         ?XD?_VLAN_TAG_PKT?VTAG
            XDATA   338BH     0016H     UNIT         ?XD?_SSI_STATUS?STATUSCBK
            XDATA   33A1H     0012H     UNIT         ?XD?COMMAND_TYPE?COMMANDLINE
            XDATA   33B3H     0011H     UNIT         ?XD?HTTP_SERVER?HTTPD
            XDATA   33C4H     0010H     UNIT         ?XD?_ETHERNETSEND?MACDRIVER
            XDATA   33D4H     0010H     UNIT         ?XD?LOGINCBK
            XDATA   33E4H     000FH     UNIT         ?XD?KBHIT_EE_LOAD_DEFAULT?MAIN
            XDATA   33F3H     000FH     UNIT         ?XD?_CGISTRCPY?SMTPCBK
            XDATA   3402H     000EH     UNIT         ?XD?UARTCBK
            XDATA   3410H     000EH     UNIT         ?XD?_CGI_UDP_TEL?UDP_TELCBK
            XDATA   341EH     000EH     UNIT         ?XD?_HEX_2_ASC?COMMANDLINE
            XDATA   342CH     000DH     UNIT         ?XD?_ETHERNETRECEIVE?MACDRIVER
            XDATA   3439H     000DH     UNIT         ?XD?_STRFIND?HTTPD_APP
            XDATA   3446H     000DH     UNIT         ?XD?_CRC?NET_CMD
            XDATA   3453H     000CH     UNIT         ?XD?_SAVEMODULEINFO2EEPROM?EE_PROCESS
            XDATA   345FH     000CH     UNIT         ?XD?HTTPD_HEADER_INIT?HTTPD_APP
            XDATA   346BH     000CH     UNIT         ?XD?RE_RORN?COMMANDLINE
            XDATA   3477H     000CH     UNIT         ?XD?CRC_OPERATION?NET_CMD
            XDATA   3483H     000CH     UNIT         ?XD?MPPROCESS?NET_CMD
            XDATA   348FH     000CH     UNIT         ?XD?_B64DEC?BASE64
            XDATA   349BH     000CH     UNIT         ?XD?_CRAM_MD5?CRAM_MD5
            XDATA   34A7H     000BH     UNIT         ?XD?MACDRIVER
            XDATA   34B2H     000BH     UNIT         ?XD?_UIP_CONNECT?UIP
            XDATA   34BDH     000BH     UNIT         ?XD?_CGI_SETIP?SETIPCBK
            XDATA   34C8H     000BH     UNIT         ?XD?_SENDUARTRX2ETH?TELNET
            XDATA   34D3H     000BH     UNIT         ?XD?DNS_UDP_RECEIVE?DNS
            XDATA   34DEH     000AH     UNIT         ?XD?WITH_TAG_PAGE?CGIUTIL
            XDATA   34E8H     000AH     UNIT         ?XD?_SSI_SETIP?SETIPCBK
            XDATA   34F2H     000AH     UNIT         ?XD?_CGI_ADC?ADCCBK
            XDATA   34FCH     000AH     UNIT         ?XD?_B64ENC?BASE64
            XDATA   3506H     0009H     UNIT         ?XD?_IP210_DMA?DMA
            XDATA   350FH     0009H     UNIT         ?XD?OS_CBK
            XDATA   3518H     0009H     UNIT         ?XD?_FS_OPEN?FS
            XDATA   3521H     0009H     UNIT         ?XD?_UIP_ARP_UPDATE?UIP_ARP
            XDATA   352AH     0009H     UNIT         ?XD?_STOUI?CGIUTIL
            XDATA   3533H     0009H     UNIT         ?XD?CHALLENGE
            XDATA   353CH     0009H     UNIT         ?XD?COOKIE
            XDATA   3545H     0009H     UNIT         ?XD?_REPLACEDOUBLEQUOTES?SMTPCBK
            XDATA   354EH     0009H     UNIT         ?XD?RESENDUARTRX2ETH?TELNET
            XDATA   3557H     0009H     UNIT         ?XD?_UDP_INIT?UDP
            XDATA   3560H     0009H     UNIT         ?XD?DNS
            XDATA   3569H     0009H     UNIT         ?XD?_SET_BIT?UDP_TEL
            XDATA   3572H     0009H     UNIT         ?XD?NETUART_CTRL
            XDATA   357BH     0009H     UNIT         ?XD?_STRCAT?STRCAT
            XDATA   3584H     0009H     UNIT         ?XD?_STRCSPN?STRCSPN
BL51 BANKED LINKER/LOCATER V6.00                                                      12/23/2015  16:04:37  PAGE 6


            XDATA   358DH     0008H     UNIT         ?XD?EEPROMLOADDEFAULT?EE_PROCESS
            XDATA   3595H     0008H     UNIT         ?XD?TIMER
            XDATA   359DH     0008H     UNIT         ?XD?FU_CHECK?HTMFILES0
            XDATA   35A5H     0008H     UNIT         ?XD?_UITOS?CGIUTIL
            XDATA   35ADH     0008H     UNIT         ?XD?HTTPD_PARSE_COOKIE?COOKIE
            XDATA   35B5H     0008H     UNIT         ?XD?_CGI_RESET?ERRORMSGCBK
            XDATA   35BDH     0008H     UNIT         ?XD?_CGI_UART?UARTCBK
            XDATA   35C5H     0008H     UNIT         ?XD?_CGI_TELNET?TELNETCBK
            XDATA   35CDH     0008H     UNIT         ?XD?TELNETD?TELNET
            XDATA   35D5H     0008H     UNIT         ?XD?CLEARUARTRXBUF?TELNET
            XDATA   35DDH     0008H     UNIT         ?XD?CLEARUARTRXBUF_PARITYERROR?TELNET
            XDATA   35E5H     0008H     UNIT         ?XD?GENCONNID?NET_CMD
            XDATA   35EDH     0008H     UNIT         ?XD?_SENDLOGINRESULT?NET_CMD
            XDATA   35F5H     0008H     UNIT         ?XD?_STRCAT_MAIL_TO?SMTP
            XDATA   35FDH     0008H     UNIT         ?XD?_B64ENCODE?BASE64
            XDATA   3605H     0008H     UNIT         ?XD?_B64DECODE?BASE64
            XDATA   360DH     0008H     UNIT         ?XD?_STRNCMP?STRNCMP
            XDATA   3615H     0007H     UNIT         ?XD?_CATNETWORKCONFIGMSG?MAIN
            XDATA   361CH     0007H     UNIT         ?XD?_CHECK_PACKET_TYPE?MACDRIVER
            XDATA   3623H     0007H     UNIT         ?XD?_ETHERNETRECEIVELOOKAHEAD?MACDRIVER
            XDATA   362AH     0007H     UNIT         ?XD?APPLICATION?APPLICATION
            XDATA   3631H     0007H     UNIT         ?XD?_CGI_SETPASS?SETPASSCBK
            XDATA   3638H     0007H     UNIT         ?XD?_ASC_TO_HEX?UTILITY
            XDATA   363FH     0007H     UNIT         ?XD?CHECK_RFC2217_SIGNAL?NET_UART
            XDATA   3646H     0007H     UNIT         ?XD?_UDP_TEL_GETIP?UDP_TEL
            XDATA   364DH     0007H     UNIT         ?XD?_MODIFYMAIL?SMTP
            XDATA   3654H     0007H     UNIT         ?XD?_ATOL?ATOL
            XDATA   365BH     0006H     UNIT         ?XD?_FS_OPEN00?HTMFILES0
            XDATA   3661H     0006H     UNIT         ?XD?_FS_OPEN01?HTMFILES1
            XDATA   3667H     0006H     UNIT         ?XD?_FS_OPEN02?HTMFILES2
            XDATA   366DH     0006H     UNIT         ?XD?_FS_OPEN03?HTMFILES3
            XDATA   3673H     0006H     UNIT         ?XD?_FS_OPEN04?HTMFILES4
            XDATA   3679H     0006H     UNIT         ?XD?_FS_OPEN05?HTMFILES5
            XDATA   367FH     0006H     UNIT         ?XD?_FS_OPEN06?HTMFILES6
            XDATA   3685H     0006H     UNIT         ?XD?_FS_OPEN07?HTMFILES7
            XDATA   368BH     0006H     UNIT         ?XD?MUIP_SEND?MUIP
            XDATA   3691H     0006H     UNIT         ?XD?CGIUTIL
            XDATA   3697H     0006H     UNIT         ?XD?_FINDCOOKIE?HTTPD_APP
            XDATA   369DH     0006H     UNIT         ?XD?_SSI_LOGIN?LOGINCBK
            XDATA   36A3H     0006H     UNIT         ?XD?_CGI_STATUS?STATUSCBK
            XDATA   36A9H     0006H     UNIT         ?XD?DHCPCCHECKINFO?DHCPC
            XDATA   36AFH     0006H     UNIT         ?XD?UDP_TEL_UPDATA_IP_AVAL?UDP_TEL
            XDATA   36B5H     0006H     UNIT         ?XD?UDP_TEL_RX?UDP_TEL
            XDATA   36BBH     0006H     UNIT         ?XD?SEARCHEMPTYCONNTABLE?NET_CMD
            XDATA   36C1H     0006H     UNIT         ?XD?EEP_READ_REQ?NET_CMD
            XDATA   36C7H     0006H     UNIT         ?XD?EEP_WRITE_REQ?NET_CMD
            XDATA   36CDH     0006H     UNIT         ?XD?UDP_NET_CMD?NET_CMD
            XDATA   36D3H     0006H     UNIT         ?XD?_CRAM_MD5_ENCODE?CRAM_MD5
            XDATA   36D9H     0006H     UNIT         ?XD?_CRAM_MD5_DECODE?CRAM_MD5
            XDATA   36DFH     0005H     UNIT         ?XD?LOADEEPROM2MODULEINFO?EE_PROCESS
            XDATA   36E4H     0005H     UNIT         ?XD?LOADEEPROM2EECONFIG?EE_PROCESS
            XDATA   36E9H     0005H     UNIT         ?XD?_UART_TRANSMIT_MULTI?UART
            XDATA   36EEH     0005H     UNIT         ?XD?VTAG
            XDATA   36F3H     0005H     UNIT         ?XD?TELNET_CONNECT?TELNET
            XDATA   36F8H     0005H     UNIT         ?XD?UDP_TEL_SEND_ONE_PKT?UDP_TEL
            XDATA   36FDH     0005H     UNIT         ?XD?UDP_GET_DNS?UDP_TEL
            XDATA   3702H     0005H     UNIT         ?XD?_ATOI?ATOI
BL51 BANKED LINKER/LOCATER V6.00                                                      12/23/2015  16:04:37  PAGE 7


            XDATA   3707H     0004H     UNIT         ?XD?_UIP_PROCESS?UIP
            XDATA   370BH     0004H     UNIT         ?XD?FIBER_COVER2?APPLICATION
            XDATA   370FH     0004H     UNIT         ?XD?UIP_UDPCHKSUM?CHECKSUM
            XDATA   3713H     0004H     UNIT         ?XD?UIP_TCPCHKSUM?CHECKSUM
            XDATA   3717H     0004H     UNIT         ?XD?_SSI_UART?UARTCBK
            XDATA   371BH     0004H     UNIT         ?XD?_CGI_SETDEF?SETDEFCBK
            XDATA   371FH     0004H     UNIT         ?XD?_CGI_FW_UP?FW_UPCBK
            XDATA   3723H     0004H     UNIT         ?XD?_CGI_FU_UP?FW_UPCBK
            XDATA   3727H     0004H     UNIT         ?XD?WRITEETHRX2UART?TELNET
            XDATA   372BH     0004H     UNIT         ?XD?RESENDUARTRX2UART?TELNET
            XDATA   372FH     0004H     UNIT         ?XD?_DHCPCFOUNDTAG?DHCPC
            XDATA   3733H     0004H     UNIT         ?XD?_DNS_RESULT?DNS
            XDATA   3737H     0004H     UNIT         ?XD?NUC_ON_LOOP?NETUART_CTRL
            XDATA   373BH     0004H     UNIT         ?XD?ONCHANNELREQUEST?NET_CMD
            XDATA   373FH     0004H     UNIT         ?XD?SMTP?SMTP
            XDATA   3743H     0004H     UNIT         ?XD?RAND?RAND
            XDATA   3747H     0003H     UNIT         ?XD?MAIN
            XDATA   374AH     0003H     UNIT         ?XD?_SETUP_BLUPGRADE?EE_PROCESS
            XDATA   374DH     0003H     UNIT         ?XD?_EEPROM_READ_BYTE?EEPROM
            XDATA   3750H     0003H     UNIT         ?XD?_ETHERNETSEND2?MACDRIVER
            XDATA   3753H     0003H     UNIT         ?XD?_UART_RECEIVE_MULTI?UART
            XDATA   3756H     0003H     UNIT         ?XD?_DATACPY00?HTMFILES0
            XDATA   3759H     0003H     UNIT         ?XD?_DATACPY01?HTMFILES1
            XDATA   375CH     0003H     UNIT         ?XD?_DATACPY02?HTMFILES2
            XDATA   375FH     0003H     UNIT         ?XD?_DATACPY03?HTMFILES3
            XDATA   3762H     0003H     UNIT         ?XD?_DATACPY04?HTMFILES4
            XDATA   3765H     0003H     UNIT         ?XD?_DATACPY05?HTMFILES5
            XDATA   3768H     0003H     UNIT         ?XD?_DATACPY06?HTMFILES6
            XDATA   376BH     0003H     UNIT         ?XD?_DATACPY07?HTMFILES7
            XDATA   376EH     0003H     UNIT         ?XD?_UIP_LOG?UIP
            XDATA   3771H     0003H     UNIT         ?XD?UIP_ARP_OUT?UIP_ARP
            XDATA   3774H     0003H     UNIT         ?XD?_HTTPD_CHECK_COOKIE?HTTPD
            XDATA   3777H     0003H     UNIT         ?XD?_HTTPD_INIT_FILE?HTTPD_APP
            XDATA   377AH     0003H     UNIT         ?XD?_SSI_ERRORMSG?ERRORMSGCBK
            XDATA   377DH     0003H     UNIT         ?XD?_SSI_TELNET?TELNETCBK
            XDATA   3780H     0003H     UNIT         ?XD?_SSI_ADC?ADCCBK
            XDATA   3783H     0003H     UNIT         ?XD?_UP2LWR?COMMANDLINE
            XDATA   3786H     0003H     UNIT         ?XD?TELNET_CONNECTED_INIT?TELNET
            XDATA   3789H     0003H     UNIT         ?XD?_UDP_SET_BUF?UDP
            XDATA   378CH     0003H     UNIT         ?XD?DHCPCCLTPKTINIT?DHCPC
            XDATA   378FH     0003H     UNIT         ?XD?DHCPC_UDP_RECEIVE?DHCPC
            XDATA   3792H     0003H     UNIT         ?XD?TELNET_RFC?NET_UART
            XDATA   3795H     0003H     UNIT         ?XD?NEW_BLOCK_INIT?UDP_TEL
            XDATA   3798H     0003H     UNIT         ?XD?NUC_PROCESS?NETUART_CTRL
            XDATA   379BH     0003H     UNIT         ?XD?_FINDSA?NET_CMD
            XDATA   379EH     0003H     UNIT         ?XD?_SENDLOGINMD5KEY?NET_CMD
            XDATA   37A1H     0003H     UNIT         ?XD?_B64ENCODE_ALLOC?BASE64
            XDATA   37A4H     0003H     UNIT         ?XD?_B64DECODE_ALLOC?BASE64
            XDATA   37A7H     0002H     UNIT         ?XD?EEPROMCHECKDATAAVAILABLE?EE_PROCESS
            XDATA   37A9H     0002H     UNIT         ?XD?_FILL_DMA_SETTING?DMA
            XDATA   37ABH     0002H     UNIT         ?XD?ETHERNETRECEIVESKIP?MACDRIVER
            XDATA   37ADH     0002H     UNIT         ?XD?_UIP_ADD32?MACDRIVER
            XDATA   37AFH     0002H     UNIT         ?XD?MDC_MDIO
            XDATA   37B1H     0002H     UNIT         ?XD?HTTPD_SET_COOKIE?COOKIE
            XDATA   37B3H     0002H     UNIT         ?XD?QUERYSTR_FUNC?HTTPD_APP
            XDATA   37B5H     0002H     UNIT         ?XD?_HTTPD_COPY_DATA?HTTPD_APP
            XDATA   37B7H     0002H     UNIT         ?XD?_UIP_CHKSUM?CHECKSUM
BL51 BANKED LINKER/LOCATER V6.00                                                      12/23/2015  16:04:37  PAGE 8


            XDATA   37B9H     0002H     UNIT         ?XD?ADC_CONVERT?ADCCBK
            XDATA   37BBH     0002H     UNIT         ?XD?ADCCBK
            XDATA   37BDH     0002H     UNIT         ?XD?READETH2UARTTXBUF?TELNET
            XDATA   37BFH     0002H     UNIT         ?XD?UART_AUTO_SEND?TELNET
            XDATA   37C1H     0002H     UNIT         ?XD?_UDP_SEND?UDP
            XDATA   37C3H     0002H     UNIT         ?XD?WDG
            XDATA   37C5H     0002H     UNIT         ?XD?LOCALCMD?NET_CMD
            XDATA   37C7H     0002H     UNIT         ?XD?ONLOGINREQUEST?NET_CMD
            XDATA   37C9H     0002H     UNIT         ?XD?ONGPIOREQUEST?NET_CMD
            XDATA   37CBH     0002H     UNIT         ?XD?SMTP_CHK_MAILTOTOTAL?SMTP
            XDATA   37CDH     0001H     UNIT         ?XD?MAIN?MAIN
            XDATA   37CEH     0001H     UNIT         ?XD?UART_EMPTY_RX_FIFO?UART
            XDATA   37CFH     0001H     UNIT         ?XD?_WRITE_MDC?MDC_MDIO
            XDATA   37D0H     0001H     UNIT         ?XD?CHECK_SPEED?OS_CBK
            XDATA   37D1H     0001H     UNIT         ?XD?CHECKSUM
            XDATA   37D2H     0001H     UNIT         ?XD?ERRORMSGCBK
            XDATA   37D3H     0001H     UNIT         ?XD?SETIPCBK
            XDATA   37D4H     0001H     UNIT         ?XD?_IP210_ISR_CTRL?TELNET
            XDATA   37D5H     0001H     UNIT         ?XD?_GET_BIT?UDP_TEL
            XDATA   37D6H     0001H     UNIT         ?XD?UDP_TEL_INIT?UDP_TEL
            XDATA   37D7H     0001H     UNIT         ?XD?CHECKCONNID?NET_CMD
            XDATA   37D8H     0001H     UNIT         ?XD?LOCALCMDTXPREFIX?NET_CMD
            XDATA   37D9H     0001H     UNIT         ?XD?AGINGNETCMDCONNTABLE?NET_CMD
            XDATA   37DAH     0001H     UNIT         ?XD?GETCHAR

            * * * * * * *   C O D E   M E M O R Y   * * * * * * *
            CODE    0000H     0003H     ABSOLUTE     
            CODE    0003H     0003H     ABSOLUTE     
            CODE    0006H     0004H     UNIT         ?CO?NETUART_CTRL
            CODE    000AH     0001H     UNIT         ?CO?CRAM_MD5
            CODE    000BH     0003H     ABSOLUTE     
            CODE    000EH     003FH     UNIT         ?CO?DHCPC
            CODE    004DH     0002H     UNIT         ?CO?CGIUTIL
                    004FH     0001H                  *** GAP ***
            CODE    0050H     0065H     ABSOLUTE     
            CODE    00B5H     0DA7H     UNIT         ?C?LIB_CODE
            CODE    0E5CH     0781H     UNIT         ?CO?EE_DEFAULT
            CODE    15DDH     0642H     UNIT         ?C_INITSEG
            CODE    1C1FH     03DBH     UNIT         ?CO?COMMANDLINE
                    1FFAH     0006H                  *** GAP ***
            CODE    2000H     05F3H     PAGE         ?BANK?SWITCH
            CODE    25F3H     0365H     UNIT         ?PR?PRINTF?PRINTF
            CODE    2958H     0322H     UNIT         ?PR?SCANF?SCANF
            CODE    2C7AH     017BH     UNIT         ?CO?MAIN
            CODE    2DF5H     0118H     UNIT         ?CO?HTTPD_APP
            CODE    2F0DH     0115H     UNIT         ?CO?SMTP
            CODE    3022H     0113H     UNIT         ?C_C51STARTUP
            CODE    3135H     010CH     UNIT         ?PR?_ATOL?ATOL
            CODE    3241H     00E2H     UNIT         ?CO?ERRORMSGCBK
            CODE    3323H     00DBH     UNIT         ?PR?_ATOI?ATOI
            CODE    33FEH     00CBH     UNIT         ?CO?UARTCBK
            CODE    34C9H     00BDH     UNIT         ?CO?HTTPD
            CODE    3586H     00B8H     UNIT         ?CO?TELNETCBK
            CODE    363EH     00B1H     UNIT         ?CO?SMTPCBK
            CODE    36EFH     0087H     UNIT         ?CO?UDP_TELCBK
            CODE    3776H     0081H     UNIT         ?PR?_STRCSPN?STRCSPN
            CODE    37F7H     0076H     UNIT         ?PR?_STRNCMP?STRNCMP
BL51 BANKED LINKER/LOCATER V6.00                                                      12/23/2015  16:04:37  PAGE 9


            CODE    386DH     006EH     UNIT         ?CO?SETIPCBK
            CODE    38DBH     006BH     UNIT         ?PR?_STRCAT?STRCAT
            CODE    3946H     004DH     UNIT         ?PR?RAND?RAND
            CODE    3993H     004AH     UNIT         ?CO?NET_CMD
            CODE    39DDH     0046H     UNIT         ?CO?APPLICATION
            CODE    3A23H     0037H     UNIT         ?CO?LOGINCBK
            CODE    3A5AH     0033H     UNIT         ?CO?STATUSCBK
            CODE    3A8DH     002BH     UNIT         ?CO?OS_CBK
            CODE    3AB8H     0029H     UNIT         ?BANK?SELECT
            CODE    3AE1H     0027H     UNIT         ?PR?PUTCHAR?PUTCHAR
            CODE    3B08H     0026H     UNIT         ?CO?MACDRIVER
            CODE    3B2EH     0026H     UNIT         ?CO?SETPASSCBK
            CODE    3B54H     0026H     UNIT         ?CO?TELNET
            CODE    3B7AH     001CH     UNIT         ?PR?_STRCHR?STRCHR
            CODE    3B96H     0019H     UNIT         ?CO?ADCCBK
            CODE    3BAFH     0018H     UNIT         ?CO?NET_UART
            CODE    3BC7H     0015H     UNIT         ?PR?_STRLEN?STRLEN
            CODE    3BDCH     0014H     UNIT         ?CO?EE_PROCESS
            CODE    3BF0H     0014H     UNIT         ?PR?GETCHAR?GETCHAR
            CODE    3C04H     0014H     UNIT         ?PR?_ISSPACE?ISSPACE
            CODE    3C18H     0013H     UNIT         ?CO?SETDEFCBK
            CODE    3C2BH     0010H     UNIT         ?CO?VTAG
            CODE    3C3BH     0010H     UNIT         ?CO?DNS
            CODE    3C4BH     000FH     UNIT         ?CO?FW_UPCBK
            CODE    3C5AH     000FH     UNIT         ?PR?_ISDIGIT?ISDIGIT
            CODE    3C69H     000DH     UNIT         ?CO?COOKIE
            CODE    3C76H     000AH     UNIT         ?PR?_GETKEY?_GETKEY
            CODE    3C80H     0008H     UNIT         ?CO?UDP_TEL
            CODE    3C88H     0008H     UNIT         ?PR?GETCHAR?UNGETCHAR
                    3C90H     C350H                  *** GAP ***
            CODE    FFE0H     001BH     ABSOLUTE     
                    FFFBH     0002H                  *** GAP ***
            CODE    FFFDH     0003H     ABSOLUTE     

            * * * * * * *   C O D E   B A N K   0   * * * * * * *
                    0000H     5000H                  *** GAP ***
            BANK0   5000H     0077H     UNIT         ?CO?HTMFILES0
            BANK0   5077H     0178H     UNIT         ?PR?_FS_OPEN00?HTMFILES0
            BANK0   51EFH     00FCH     UNIT         ?PR?FU_CHECK?HTMFILES0
            BANK0   52EBH     0048H     UNIT         ?PR?_DATACPY00?HTMFILES0
            BANK0   5333H     0022H     UNIT         ?PR?_GET_TAG00?HTMFILES0
                    5355H     0CABH                  *** GAP ***
            BANK0   6000H     7FE0H     UNIT         ?CO?FIRMWARE_REV

            * * * * * * *   C O D E   B A N K   1   * * * * * * *
                    0000H     5000H                  *** GAP ***
            BANK1   5000H     000FH     UNIT         ?CO?HTMFILES1
            BANK1   500FH     1A5FH     UNIT         ?PR?_UIP_PROCESS?UIP
            BANK1   6A6EH     0D4DH     UNIT         ?PR?HTTP_SERVER?HTTPD
            BANK1   77BBH     0737H     UNIT         ?PR?WITH_TAG_PAGE?CGIUTIL
            BANK1   7EF2H     0375H     UNIT         ?PR?_ETHERNETSEND?MACDRIVER
            BANK1   8267H     0372H     UNIT         ?PR?APPLICATION?APPLICATION
            BANK1   85D9H     036EH     UNIT         ?PR?_CGI_SETIP?SETIPCBK
            BANK1   8947H     0361H     UNIT         ?PR?_CATNETWORKCONFIGMSG?MAIN
            BANK1   8CA8H     0317H     UNIT         ?PR?_CGI_SETPASS?SETPASSCBK
            BANK1   8FBFH     0307H     UNIT         ?PR?_CGI_LOGIN?LOGINCBK
            BANK1   92C6H     02A5H     UNIT         ?PR?MUIP_SEND?MUIP
BL51 BANKED LINKER/LOCATER V6.00                                                      12/23/2015  16:04:37  PAGE 10


            BANK1   956BH     027DH     UNIT         ?PR?_SSI_ERRORMSG?ERRORMSGCBK
            BANK1   97E8H     0249H     UNIT         ?PR?_CGI_SMTP?SMTPCBK
            BANK1   9A31H     0242H     UNIT         ?PR?_SSI_SETIP?SETIPCBK
            BANK1   9C73H     0241H     UNIT         ?PR?MUIP_PROCESS?MUIP
            BANK1   9EB4H     0228H     UNIT         ?PR?_UIP_CONNECT?UIP
            BANK1   A0DCH     020DH     UNIT         ?PR?_ETHERNETRECEIVE?MACDRIVER
            BANK1   A2E9H     020DH     UNIT         ?PR?HTTPD_HEADER_INIT?HTTPD_APP
            BANK1   A4F6H     01FEH     UNIT         ?PR?_SSI_SMTP?SMTPCBK
            BANK1   A6F4H     01DEH     UNIT         ?PR?_FINDCOOKIE?HTTPD_APP
            BANK1   A8D2H     01A3H     UNIT         ?PR?HTTPD_DATA_PROCESSING?CGI
            BANK1   AA75H     019BH     UNIT         ?PR?_CGISTRCPY?SMTPCBK
            BANK1   AC10H     0178H     UNIT         ?PR?_FS_OPEN01?HTMFILES1
            BANK1   AD88H     0178H     UNIT         ?PR?QUERYSTR_FUNC?HTTPD_APP
            BANK1   AF00H     015BH     UNIT         ?PR?LAST_TAG_PAGE?CGIUTIL
            BANK1   B05BH     0144H     UNIT         ?PR?_HTTPD_INIT_FILE?HTTPD_APP
            BANK1   B19FH     0143H     UNIT         ?PR?HTTPD_PARSE_COOKIE?COOKIE
            BANK1   B2E2H     012EH     UNIT         ?PR?_CHECK_PACKET_TYPE?MACDRIVER
            BANK1   B410H     0123H     UNIT         ?PR?_REPLACEDOUBLEQUOTES?SMTPCBK
            BANK1   B533H     0112H     UNIT         ?PR?_STRFIND?HTTPD_APP
            BANK1   B645H     010BH     UNIT         ?PR?_ASC_TO_HEX?UTILITY
            BANK1   B750H     00F8H     UNIT         ?PR?NETWORKCONFIG?MAIN
            BANK1   B848H     00F8H     UNIT         ?PR?NO_TAG_PAGE?CGIUTIL
            BANK1   B940H     00F7H     UNIT         ?PR?_UITOS?CGIUTIL
            BANK1   BA37H     00F4H     UNIT         ?PR?_SSI_STATUS?STATUSCBK
            BANK1   BB2BH     00F1H     UNIT         ?PR?_CGI_RESET?ERRORMSGCBK
            BANK1   BC1CH     00EBH     UNIT         ?PR?_CGI_STATUS?STATUSCBK
            BANK1   BD07H     00E6H     UNIT         ?PR?EEPROMLOADDEFAULT?EE_PROCESS
            BANK1   BDEDH     00E6H     UNIT         ?PR?_CGI_FW_UP?FW_UPCBK
            BANK1   BED3H     00E6H     UNIT         ?PR?_CGI_FU_UP?FW_UPCBK
            BANK1   BFB9H     00E4H     UNIT         ?PR?_FS_OPEN?FS
            BANK1   C09DH     00DEH     UNIT         ?PR?KBHIT_EE_LOAD_DEFAULT?MAIN
            BANK1   C17BH     00CCH     UNIT         ?PR?_SSI_SETPASS?SETPASSCBK
            BANK1   C247H     00C6H     UNIT         ?PR?_IP210_DMA?DMA
            BANK1   C30DH     00C6H     UNIT         ?PR?TAG_ADDRESS_BIGGER_MSS?CGIUTIL
            BANK1   C3D3H     00BCH     UNIT         ?PR?ETHERNETRECEIVESKIP?MACDRIVER
            BANK1   C48FH     00B4H     UNIT         ?PR?_ETHERNETRECEIVELOOKAHEAD?MACDRIVER
            BANK1   C543H     00B0H     UNIT         ?PR?RE_INIT?VTAG
            BANK1   C5F3H     00AFH     UNIT         ?PR?_HTTPD_CHECK_COOKIE?HTTPD
            BANK1   C6A2H     00ACH     UNIT         ?PR?_VLAN_TAG_PKT?VTAG
            BANK1   C74EH     00AAH     UNIT         ?PR?_SSI_LOGIN?LOGINCBK
            BANK1   C7F8H     00A7H     UNIT         ?PR?CHECKPKTSEND?APPLICATION
            BANK1   C89FH     009CH     UNIT         ?PR?_ETHERNETSEND2?MACDRIVER
            BANK1   C93BH     0095H     UNIT         ?PR?_SAVEMODULEINFO2EEPROM?EE_PROCESS
            BANK1   C9D0H     0095H     UNIT         ?PR?UART_SET_PROPERTY?UART
            BANK1   CA65H     008FH     UNIT         ?PR?HTTPD_SET_COOKIE?COOKIE
            BANK1   CAF4H     0089H     UNIT         ?PR?_STOUI?CGIUTIL
            BANK1   CB7DH     0085H     UNIT         ?PR?HTTPD_FILE_NOT_FOUND?HTTPD_APP
            BANK1   CC02H     007EH     UNIT         ?PR?_UIP_ADD32?MACDRIVER
            BANK1   CC80H     0075H     UNIT         ?PR?EEPROMINIT?EE_PROCESS
            BANK1   CCF5H     0075H     UNIT         ?PR?LOADDEFAULT?OS_CBK
            BANK1   CD6AH     0071H     UNIT         ?PR?CHECK_VLAN_TAG?VTAG
            BANK1   CDDBH     0065H     UNIT         ?PR?MAIN?MAIN
            BANK1   CE40H     0064H     UNIT         ?PR?_SETUP_BLUPGRADE?EE_PROCESS
            BANK1   CEA4H     005FH     UNIT         ?PR?HTTPD_COPYDATA?HTTPD
            BANK1   CF03H     005EH     UNIT         ?PR?_EEPROM_READ_BYTE?EEPROM
            BANK1   CF61H     005CH     UNIT         ?PR?HTTPD_CHALLENGEERROR?HTTPD_APP
            BANK1   CFBDH     005BH     UNIT         ?PR?_UIP_ADD_RCV_NXT?UIP
BL51 BANKED LINKER/LOCATER V6.00                                                      12/23/2015  16:04:37  PAGE 11


            BANK1   D018H     005BH     UNIT         ?PR?_HTTPD_COPY_DATA?HTTPD_APP
            BANK1   D073H     0059H     UNIT         ?PR?CHECK_SPEED?OS_CBK
            BANK1   D0CCH     0059H     UNIT         ?PR?UIP_INIT?UIP
            BANK1   D125H     0058H     UNIT         ?PR?LOADEEPROM2MODULEINFO?EE_PROCESS
            BANK1   D17DH     0058H     UNIT         ?PR?LOADEEPROM2EECONFIG?EE_PROCESS
            BANK1   D1D5H     0058H     UNIT         ?PR?FIBER_COVER2?APPLICATION
            BANK1   D22DH     0056H     UNIT         ?PR?EEPROMCHECKDATAAVAILABLE?EE_PROCESS
            BANK1   D283H     0056H     UNIT         ?PR?IP210_WRITE_TIMER_COUNTER?TIMER
            BANK1   D2D9H     004FH     UNIT         ?PR?ETHERNETRECEIVEFREESPACE?MACDRIVER
            BANK1   D328H     004BH     UNIT         ?PR?CHECK_MAC_STATUS?MACDRIVER
            BANK1   D373H     004AH     UNIT         ?PR?EEPROMERR?ERRORMSGCBK
            BANK1   D3BDH     0049H     UNIT         ?PR?HTTPD_LOGIN_FAIL?HTTPD_APP
            BANK1   D406H     0048H     UNIT         ?PR?_DATACPY01?HTMFILES1
            BANK1   D44EH     0045H     UNIT         ?PR?_WRITE_MDC?MDC_MDIO
            BANK1   D493H     0043H     UNIT         ?PR?_UIP_UNLISTEN?UIP
            BANK1   D4D6H     0041H     UNIT         ?PR?_READ_MDC?MDC_MDIO
            BANK1   D517H     0041H     UNIT         ?PR?HTTPD_LOGIN_PASS?HTTPD_APP
            BANK1   D558H     0040H     UNIT         ?PR?_EEPROM_WRITE_BYTE?EEPROM
            BANK1   D598H     0040H     UNIT         ?PR?_UART_TRANSMIT_MULTI?UART
            BANK1   D5D8H     0040H     UNIT         ?PR?_UIP_LISTEN?UIP
            BANK1   D618H     003DH     UNIT         ?PR?CHECK_FIRMWAREUPDATE?OS_CBK
            BANK1   D655H     0030H     UNIT         ?PR?_HEX_TO_ASC?UTILITY
            BANK1   D685H     002FH     UNIT         ?PR?_UART_RECEIVE_MULTI?UART
            BANK1   D6B4H     002EH     UNIT         ?PR?_FILL_DMA_SETTING?DMA
            BANK1   D6E2H     002DH     UNIT         ?PR?ON_TCP_RX?APPLICATION
            BANK1   D70FH     002AH     UNIT         ?PR?MAC_INIT?MACDRIVER
            BANK1   D739H     002AH     UNIT         ?PR?FIBER_COVER?APPLICATION
            BANK1   D763H     0029H     UNIT         ?PR?ENVLANCHECK?VTAG
            BANK1   D78CH     0028H     UNIT         ?PR?RESTORE_UIP_BUF?UIP
            BANK1   D7B4H     0028H     UNIT         ?PR?HTTPD_INIT?HTTPD
            BANK1   D7DCH     0025H     UNIT         ?PR?TFD_INDEX?MACDRIVER
            BANK1   D801H     0024H     UNIT         ?PR?GATEWAY_TIMER?OS_CBK
            BANK1   D825H     0023H     UNIT         ?PR?OS_LOOP_100MS?OS_CBK
            BANK1   D848H     0022H     UNIT         ?PR?_GET_TAG01?HTMFILES1
            BANK1   D86AH     0021H     UNIT         ?PR?MAC_ADDRESS_FILL?MACDRIVER
            BANK1   D88BH     0021H     UNIT         ?PR?IP_ADDRESS_FILL?MACDRIVER
            BANK1   D8ACH     001FH     UNIT         ?PR?TIMER_COUNTER_OVERFLOW?TIMER
            BANK1   D8CBH     001DH     UNIT         ?PR?_RESIZE_RX_BUF?MACDRIVER
            BANK1   D8E8H     001DH     UNIT         ?PR?_CHG_UIP_BUF?UIP
            BANK1   D905H     001BH     UNIT         ?PR?WAIT_PACKET_SENT?MACDRIVER
            BANK1   D920H     001BH     UNIT         ?PR?UART_EMPTY_RX_FIFO?UART
            BANK1   D93BH     001AH     UNIT         ?PR?TIMERCOUNTER_INIT?TIMER
            BANK1   D955H     0018H     UNIT         ?PR?IP210_DMA_SET_IDLE?DMA
            BANK1   D96DH     0018H     UNIT         ?PR?_UART_SET_DIVISOR?UART
            BANK1   D985H     0018H     UNIT         ?PR?_GET_SYSTEM_PARAMETER?APPLICATION
            BANK1   D99DH     0017H     UNIT         ?PR?GETDEVICEID?EE_PROCESS
            BANK1   D9B4H     0016H     UNIT         ?PR?_DELAY0?MAIN
            BANK1   D9CAH     0015H     UNIT         ?PR?UDP_RECEIVE?APPLICATION
            BANK1   D9DFH     0014H     UNIT         ?PR?SERIAL_INIT?SERIAL
            BANK1   D9F3H     0013H     UNIT         ?PR?_UART_RECEIVE_BYTE?UART
            BANK1   DA06H     0013H     UNIT         ?PR?_DELAY?UTILITY
            BANK1   DA19H     0012H     UNIT         ?PR?IP210_DMA_IDLE_RESTORE?DMA
            BANK1   DA2BH     0012H     UNIT         ?PR?_SERIAL_CHECK_RX?SERIAL
            BANK1   DA3DH     000FH     UNIT         ?PR?OS_LOOP?OS_CBK
            BANK1   DA4CH     000FH     UNIT         ?PR?MUIP_INIT?MUIP
            BANK1   DA5BH     000FH     UNIT         ?PR?IP210_SWRESET?UTILITY
            BANK1   DA6AH     000EH     UNIT         ?PR?TIMER2_INIT?TIMER
BL51 BANKED LINKER/LOCATER V6.00                                                      12/23/2015  16:04:37  PAGE 12


            BANK1   DA78H     000CH     UNIT         ?PR?TIMER0_INIT?TIMER
            BANK1   DA84H     000CH     UNIT         ?PR?_UIP_LOG?UIP
            BANK1   DA90H     000BH     UNIT         ?PR?SERIAL_POLLING_RX?SERIAL
            BANK1   DA9BH     000BH     UNIT         ?PR?OS_INITIAL?OS_CBK
            BANK1   DAA6H     000AH     UNIT         ?PR?IP210_WAIT_DMA_COMPLETE?DMA
            BANK1   DAB0H     0008H     UNIT         ?PR?GETCH2?MAIN
            BANK1   DAB8H     0008H     UNIT         ?PR?EEPROM_ENABLE?EEPROM
            BANK1   DAC0H     0008H     UNIT         ?PR?UART_SET_RTS?UART
            BANK1   DAC8H     0008H     UNIT         ?PR?UART_CLEAR_RTS?UART
            BANK1   DAD0H     0008H     UNIT         ?PR?CPUINIT?UTILITY
            BANK1   DAD8H     0006H     UNIT         ?PR?UART_TX_FIFO_STATUS?UART
            BANK1   DADEH     0006H     UNIT         ?PR?UART_RX_FIFO_STATUS?UART
            BANK1   DAE4H     0006H     UNIT         ?PR?_UART_TRANSMIT_BYTE?UART
            BANK1   DAEAH     0003H     UNIT         ?PR?TIMERCOUNTER0_INIT?TIMER
            BANK1   DAEDH     0001H     UNIT         ?PR?FLASHLED?MAIN
            BANK1   DAEEH     0001H     UNIT         ?PR?UDP_XMIT?UIP

            * * * * * * *   C O D E   B A N K   2   * * * * * * *
                    0000H     5000H                  *** GAP ***
            BANK2   5000H     000FH     UNIT         ?CO?HTMFILES2
            BANK2   500FH     093FH     UNIT         ?PR?COM_PORT_OPTION?NET_UART
            BANK2   594EH     0822H     UNIT         ?PR?CLEARUARTRXBUF?TELNET
            BANK2   6170H     064CH     UNIT         ?PR?_CGI_TELNET?TELNETCBK
            BANK2   67BCH     05E8H     UNIT         ?PR?_CGI_UART?UARTCBK
            BANK2   6DA4H     05D7H     UNIT         ?PR?TELNETD?TELNET
            BANK2   737BH     050CH     UNIT         ?PR?_SSI_UART?UARTCBK
            BANK2   7887H     04DBH     UNIT         ?PR?RESENDUARTRX2ETH?TELNET
            BANK2   7D62H     0449H     UNIT         ?PR?_SSI_TELNET?TELNETCBK
            BANK2   81ABH     03B6H     UNIT         ?PR?SMTP_SEND_MAILBODY?SMTP
            BANK2   8561H     0395H     UNIT         ?PR?_SENDUARTRX2ETH?TELNET
            BANK2   88F6H     0347H     UNIT         ?PR?UDP_TEL_SEND_ONE_PKT?UDP_TEL
            BANK2   8C3DH     033CH     UNIT         ?PR?_DNS_QUERY?DNS
            BANK2   8F79H     0336H     UNIT         ?PR?READETH2UARTTXBUF?TELNET
            BANK2   92AFH     0304H     UNIT         ?PR?TELNET_RFC?NET_UART
            BANK2   95B3H     02D0H     UNIT         ?PR?CLEARUARTRXBUF_PARITYERROR?TELNET
            BANK2   9883H     02BCH     UNIT         ?PR?RESENDUARTRX2UART?TELNET
            BANK2   9B3FH     02A7H     UNIT         ?PR?UDP_TEL_INIT?UDP_TEL
            BANK2   9DE6H     0284H     UNIT         ?PR?UDP_GET_DNS?UDP_TEL
            BANK2   A06AH     025BH     UNIT         ?PR?WRITEETHRX2UART?TELNET
            BANK2   A2C5H     0250H     UNIT         ?PR?SMTP?SMTP
            BANK2   A515H     021DH     UNIT         ?PR?UDP_TEL_RX?UDP_TEL
            BANK2   A732H     01F0H     UNIT         ?PR?_UDP_SEND?UDP
            BANK2   A922H     01E9H     UNIT         ?PR?UDP_TEL_CHK_SEND?UDP_TEL
            BANK2   AB0BH     01DEH     UNIT         ?PR?TELNET_INIT_COM?TELNET
            BANK2   ACE9H     0178H     UNIT         ?PR?_FS_OPEN02?HTMFILES2
            BANK2   AE61H     014FH     UNIT         ?PR?_UDP_TEL_GETIP?UDP_TEL
            BANK2   AFB0H     014CH     UNIT         ?PR?_B64ENC?BASE64
            BANK2   B0FCH     014AH     UNIT         ?PR?DHCPCCHECKINFO?DHCPC
            BANK2   B246H     0148H     UNIT         ?PR?_DHCPCSENDREQUEST?DHCPC
            BANK2   B38EH     0135H     UNIT         ?PR?DHCPCCLTPKTINIT?DHCPC
            BANK2   B4C3H     0134H     UNIT         ?PR?DNS_UDP_RECEIVE?DNS
            BANK2   B5F7H     012CH     UNIT         ?PR?_B64DEC?BASE64
            BANK2   B723H     0112H     UNIT         ?PR?_CRAM_MD5?CRAM_MD5
            BANK2   B835H     0109H     UNIT         ?PR?TELNET_CONNECT?TELNET
            BANK2   B93EH     0103H     UNIT         ?PR?UDP_TEL_UPDATA_IP_AVAL?UDP_TEL
            BANK2   BA41H     00FDH     UNIT         ?PR?REVERSE_TELNET_ON_TCP_RX?TELNET
            BANK2   BB3EH     00E3H     UNIT         ?PR?NUC_ON_TCP_RX?NETUART_CTRL
BL51 BANKED LINKER/LOCATER V6.00                                                      12/23/2015  16:04:37  PAGE 13


            BANK2   BC21H     00D3H     UNIT         ?PR?CHECK_RFC2217_SIGNAL?NET_UART
            BANK2   BCF4H     00D1H     UNIT         ?PR?NETUARTONTCPRX?NET_UART
            BANK2   BDC5H     00CBH     UNIT         ?PR?NUC_ON_LOOP?NETUART_CTRL
            BANK2   BE90H     00C9H     UNIT         ?PR?DHCPCTIMER?DHCPC
            BANK2   BF59H     00C9H     UNIT         ?PR?SMTP_TIMER?SMTP
            BANK2   C022H     00C1H     UNIT         ?PR?NEW_BLOCK_INIT?UDP_TEL
            BANK2   C0E3H     00B6H     UNIT         ?PR?SMTP_CHK_MAILTOTOTAL?SMTP
            BANK2   C199H     00B1H     UNIT         ?PR?_DHCPCFOUNDTAG?DHCPC
            BANK2   C24AH     00B1H     UNIT         ?PR?DHCPCSENDDISCOVER?DHCPC
            BANK2   C2FBH     00ADH     UNIT         ?PR?UDP_LEARN_IP?UDP_TEL
            BANK2   C3A8H     00A9H     UNIT         ?PR?UART_AUTO_SEND?TELNET
            BANK2   C451H     00A9H     UNIT         ?PR?_SMTP_SEND_AUTH_ID_PW?SMTP
            BANK2   C4FAH     00A7H     UNIT         ?PR?_STRCAT_MAIL_TO?SMTP
            BANK2   C5A1H     00A3H     UNIT         ?PR?SMTP_SEND_CMD_MAIL?SMTP
            BANK2   C644H     00A0H     UNIT         ?PR?DHCPC_UDP_RECEIVE?DHCPC
            BANK2   C6E4H     009FH     UNIT         ?PR?_SET_BIT?UDP_TEL
            BANK2   C783H     009EH     UNIT         ?PR?SMTP_SEND_CMD_HELO?SMTP
            BANK2   C821H     009DH     UNIT         ?PR?RFC_LOOP?NET_UART
            BANK2   C8BEH     0093H     UNIT         ?PR?TELNET_SERVER_TIMEOUT?TELNET
            BANK2   C951H     008FH     UNIT         ?PR?TELNET_CONNECTED_INIT?TELNET
            BANK2   C9E0H     008CH     UNIT         ?PR?SMTP_SEND_CMD_RCPT?SMTP
            BANK2   CA6CH     008AH     UNIT         ?PR?CHECK_SIGNAL_CHANGE?NETUART_CTRL
            BANK2   CAF6H     0080H     UNIT         ?PR?NUC_PROCESS?NETUART_CTRL
            BANK2   CB76H     007BH     UNIT         ?PR?NETUARTTIMER?NET_UART
            BANK2   CBF1H     007AH     UNIT         ?PR?_DNS_RESULT?DNS
            BANK2   CC6BH     0079H     UNIT         ?PR?SMTP_SEND_MAILBODY_END?SMTP
            BANK2   CCE4H     0073H     UNIT         ?PR?SMTP_INIT?SMTP
            BANK2   CD57H     0072H     UNIT         ?PR?SMTP_SEND_PACKET?SMTP
            BANK2   CDC9H     0071H     UNIT         ?PR?DHCPCAPPLYIP?DHCPC
            BANK2   CE3AH     0070H     UNIT         ?PR?_B64ENCODE?BASE64
            BANK2   CEAAH     0070H     UNIT         ?PR?_B64DECODE?BASE64
            BANK2   CF1AH     0065H     UNIT         ?PR?_B64ENCODE_ALLOC?BASE64
            BANK2   CF7FH     0064H     UNIT         ?PR?DHCPCRECEIVEACK?DHCPC
            BANK2   CFE3H     0060H     UNIT         ?PR?NUC_INIT?NETUART_CTRL
            BANK2   D043H     005DH     UNIT         ?PR?_MODIFYMAIL?SMTP
            BANK2   D0A0H     005DH     UNIT         ?PR?SMTP_SEND_STARTTLS?SMTP
            BANK2   D0FDH     005DH     UNIT         ?PR?SMTP_SEND_CMD_DATA?SMTP
            BANK2   D15AH     005DH     UNIT         ?PR?SMTP_SEND_CMD_QUIT?SMTP
            BANK2   D1B7H     005DH     UNIT         ?PR?SMTP_SEND_CMD_AUTH?SMTP
            BANK2   D214H     0057H     UNIT         ?PR?UDP_PROCESS?UDP
            BANK2   D26BH     0055H     UNIT         ?PR?_CRAM_MD5_DECODE?CRAM_MD5
            BANK2   D2C0H     004FH     UNIT         ?PR?NUC_SEND?NETUART_CTRL
            BANK2   D30FH     004FH     UNIT         ?PR?_B64DECODE_ALLOC?BASE64
            BANK2   D35EH     004EH     UNIT         ?PR?_UDP_INIT?UDP
            BANK2   D3ACH     004EH     UNIT         ?PR?SMTP_CHECK_MAIL?SMTP
            BANK2   D3FAH     0048H     UNIT         ?PR?_DATACPY02?HTMFILES2
            BANK2   D442H     0042H     UNIT         ?PR?UDP_TEL_TIMER?UDP_TEL
            BANK2   D484H     0041H     UNIT         ?PR?_UDP_SET_BUF?UDP
            BANK2   D4C5H     0041H     UNIT         ?PR?NETUARTINIT?NET_UART
            BANK2   D506H     003EH     UNIT         ?PR?_CRAM_MD5_ENCODE?CRAM_MD5
            BANK2   D544H     0036H     UNIT         ?PR?SMTPONTCPRX?SMTP
            BANK2   D57AH     002EH     UNIT         ?PR?DHCPCINIT?DHCPC
            BANK2   D5A8H     002EH     UNIT         ?PR?_SMTP_SEND_MAIL?SMTP
            BANK2   D5D6H     002BH     UNIT         ?PR?DHCPCRECEIVEOFFER?DHCPC
            BANK2   D601H     002AH     UNIT         ?PR?TELNETD_LISTEN?TELNET
            BANK2   D62BH     0028H     UNIT         ?PR?TELNETD_CLOSE?TELNET
            BANK2   D653H     0022H     UNIT         ?PR?_GET_TAG02?HTMFILES2
BL51 BANKED LINKER/LOCATER V6.00                                                      12/23/2015  16:04:37  PAGE 14


            BANK2   D675H     0021H     UNIT         ?PR?NETUARTTELNETCLOSE?NET_UART
            BANK2   D696H     001DH     UNIT         ?PR?NETUARTLOOP?NET_UART
            BANK2   D6B3H     001DH     UNIT         ?PR?SMTP_CONNECT?SMTP
            BANK2   D6D0H     001DH     UNIT         ?PR?_B64ENCODE_LEN?BASE64
            BANK2   D6EDH     0019H     UNIT         ?PR?_B64DECODE_LEN?BASE64
            BANK2   D706H     0016H     UNIT         ?PR?CHECK_RS485?TELNET
            BANK2   D71CH     0016H     UNIT         ?PR?_GET_BIT?UDP_TEL
            BANK2   D732H     0011H     UNIT         ?PR?TELNET_CLOSE?TELNET
            BANK2   D743H     0010H     UNIT         ?PR?TELNET_INIT?TELNET
            BANK2   D753H     000DH     UNIT         ?PR?WATCHDOGTIMERENABLE?WDG
            BANK2   D760H     000AH     UNIT         ?PR?UART_RS485_UPDATE_TXCONTROL?TELNET
            BANK2   D76AH     000AH     UNIT         ?PR?CHECK_210?NET_UART
            BANK2   D774H     0007H     UNIT         ?PR?DHCPCRECEIVENACK?DHCPC
            BANK2   D77BH     0007H     UNIT         ?PR?WATCHDOGTIMERRESET?WDG
            BANK2   D782H     0007H     UNIT         ?PR?WATCHDOGTIMERINIT?WDG
            BANK2   D789H     0006H     UNIT         ?PR?_IP210_ISR_CTRL?TELNET
            BANK2   D78FH     0003H     UNIT         ?PR?TELNETD_INIT?TELNET
            BANK2   D792H     0003H     UNIT         ?PR?TELNET?TELNET
            BANK2   D795H     0003H     UNIT         ?PR?WATCHDOGTIMERDISABLE?WDG
            BANK2   D798H     0001H     UNIT         ?PR?IP210_UART_ISR_PROCESS?TELNET

            * * * * * * *   C O D E   B A N K   3   * * * * * * *
                    0000H     5000H                  *** GAP ***
            BANK3   5000H     6F8CH     UNIT         ?CO?HTMFILES3
            BANK3   BF8CH     0178H     UNIT         ?PR?_FS_OPEN03?HTMFILES3
            BANK3   C104H     0048H     UNIT         ?PR?_DATACPY03?HTMFILES3
            BANK3   C14CH     0022H     UNIT         ?PR?_GET_TAG03?HTMFILES3

            * * * * * * *   C O D E   B A N K   4   * * * * * * *
                    0000H     5000H                  *** GAP ***
            BANK4   5000H     0283H     UNIT         ?CO?HTMFILES4
            BANK4   5283H     0178H     UNIT         ?PR?_FS_OPEN04?HTMFILES4
            BANK4   53FBH     0048H     UNIT         ?PR?_DATACPY04?HTMFILES4
            BANK4   5443H     0022H     UNIT         ?PR?_GET_TAG04?HTMFILES4
            BANK4   5465H     0003H     UNIT         ?PR?FUU_RUN?HTMFILES4

            * * * * * * *   C O D E   B A N K   5   * * * * * * *
                    0000H     5000H                  *** GAP ***
            BANK5   5000H     000FH     UNIT         ?CO?HTMFILES5
            BANK5   500FH     09F6H     UNIT         ?PR?NETCMD?NET_CMD
            BANK5   5A05H     04B7H     UNIT         ?PR?_CGI_UDP_TEL?UDP_TELCBK
            BANK5   5EBCH     042AH     UNIT         ?PR?_SSI_UDP_TEL?UDP_TELCBK
            BANK5   62E6H     02C1H     UNIT         ?PR?UIP_TCPCHKSUM?CHECKSUM
            BANK5   65A7H     021CH     UNIT         ?PR?MPPROCESS?NET_CMD
            BANK5   67C3H     01F2H     UNIT         ?PR?ONLOGINACCOUNT?NET_CMD
            BANK5   69B5H     01B9H     UNIT         ?PR?UIP_UDPCHKSUM?CHECKSUM
            BANK5   6B6EH     0178H     UNIT         ?PR?_FS_OPEN05?HTMFILES5
            BANK5   6CE6H     0146H     UNIT         ?PR?ONLOGINREQUEST?NET_CMD
            BANK5   6E2CH     0134H     UNIT         ?PR?UDP_NET_CMD?NET_CMD
            BANK5   6F60H     011FH     UNIT         ?PR?EEP_READ_REQ?NET_CMD
            BANK5   707FH     0115H     UNIT         ?PR?EEP_WRITE_REQ?NET_CMD
            BANK5   7194H     0104H     UNIT         ?PR?_CGI_ADC?ADCCBK
            BANK5   7298H     00F2H     UNIT         ?PR?_CRC?NET_CMD
            BANK5   738AH     00E0H     UNIT         ?PR?CRC_OPERATION?NET_CMD
            BANK5   746AH     00AAH     UNIT         ?PR?ADC_CONVERT?ADCCBK
            BANK5   7514H     009FH     UNIT         ?PR?LOCALCMDTXPREFIX?NET_CMD
            BANK5   75B3H     0096H     UNIT         ?PR?ONGPIOREQUEST?NET_CMD
BL51 BANKED LINKER/LOCATER V6.00                                                      12/23/2015  16:04:37  PAGE 15


            BANK5   7649H     0094H     UNIT         ?PR?GENCONNID?NET_CMD
            BANK5   76DDH     008AH     UNIT         ?PR?AGINGNETCMDCONNTABLE?NET_CMD
            BANK5   7767H     0083H     UNIT         ?PR?EN_LOOPBACK?NET_CMD
            BANK5   77EAH     0080H     UNIT         ?PR?NETCMDSEND?NET_CMD
            BANK5   786AH     0080H     UNIT         ?PR?DIS_LOOPBACK?NET_CMD
            BANK5   78EAH     007DH     UNIT         ?PR?CRC_INFO?NET_CMD
            BANK5   7967H     007BH     UNIT         ?PR?CHECKCONNID?NET_CMD
            BANK5   79E2H     0071H     UNIT         ?PR?_UIP_CHKSUM?CHECKSUM
            BANK5   7A53H     0070H     UNIT         ?PR?_CGI_SETDEF?SETDEFCBK
            BANK5   7AC3H     006AH     UNIT         ?PR?_SENDLOGINRESULT?NET_CMD
            BANK5   7B2DH     0065H     UNIT         ?PR?LOCALCMD?NET_CMD
            BANK5   7B92H     005BH     UNIT         ?PR?_SENDLOGINMD5KEY?NET_CMD
            BANK5   7BEDH     005AH     UNIT         ?PR?ONCHANNELREQUEST?NET_CMD
            BANK5   7C47H     0055H     UNIT         ?PR?_FINDSA?NET_CMD
            BANK5   7C9CH     0055H     UNIT         ?PR?RESET_DEVICE_REQ?NET_CMD
            BANK5   7CF1H     0052H     UNIT         ?PR?NETCMDONTCPRX?NET_CMD
            BANK5   7D43H     004FH     UNIT         ?PR?_SSI_ADC?ADCCBK
            BANK5   7D92H     0048H     UNIT         ?PR?_DATACPY05?HTMFILES5
            BANK5   7DDAH     0038H     UNIT         ?PR?_ONCHANNELREQUESTACK?NET_CMD
            BANK5   7E12H     002BH     UNIT         ?PR?NETCMDINIT?NET_CMD
            BANK5   7E3DH     0027H     UNIT         ?PR?_ONGPIOREQUESTACK?NET_CMD
            BANK5   7E64H     0026H     UNIT         ?PR?UIP_IPCHKSUM?CHECKSUM
            BANK5   7E8AH     0022H     UNIT         ?PR?_GET_TAG05?HTMFILES5
            BANK5   7EACH     001BH     UNIT         ?PR?SEARCHEMPTYCONNTABLE?NET_CMD
            BANK5   7EC7H     0003H     UNIT         ?PR?NETCMDTIMER?NET_CMD
            BANK5   7ECAH     0001H     UNIT         ?PR?SENDACCESSGPIOACK?NET_CMD
            BANK5   7ECBH     0001H     UNIT         ?PR?ONACCESSGPIOREQ?NET_CMD

            * * * * * * *   C O D E   B A N K   6   * * * * * * *
                    0000H     5000H                  *** GAP ***
            BANK6   5000H     000FH     UNIT         ?CO?HTMFILES6
            BANK6   500FH     305BH     UNIT         ?PR?COMMAND_SETTING?COMMANDLINE
            BANK6   806AH     0964H     UNIT         ?PR?COMMAND_TYPE?COMMANDLINE
            BANK6   89CEH     02ECH     UNIT         ?PR?UIP_ARP_OUT?UIP_ARP
            BANK6   8CBAH     029FH     UNIT         ?PR?COMMAND_INFO?COMMANDLINE
            BANK6   8F59H     022CH     UNIT         ?PR?CLI_TIMER?COMMANDLINE
            BANK6   9185H     01E6H     UNIT         ?PR?UIP_ARP_ARPIN?UIP_ARP
            BANK6   936BH     01CEH     UNIT         ?PR?_UIP_ARP_UPDATE?UIP_ARP
            BANK6   9539H     0178H     UNIT         ?PR?_FS_OPEN06?HTMFILES6
            BANK6   96B1H     013CH     UNIT         ?PR?ATD_LOOP?COMMANDLINE
            BANK6   97EDH     013AH     UNIT         ?PR?GATEWAY_MAC_REQ?UIP_ARP
            BANK6   9927H     013AH     UNIT         ?PR?_HEX_2_ASC?COMMANDLINE
            BANK6   9A61H     00AAH     UNIT         ?PR?RE_RORN?COMMANDLINE
            BANK6   9B0BH     00A9H     UNIT         ?PR?UIP_ARP_IPIN?UIP_ARP
            BANK6   9BB4H     0072H     UNIT         ?PR?UIP_ARP_TIMER?UIP_ARP
            BANK6   9C26H     0051H     UNIT         ?PR?CLI_INIT?COMMANDLINE
            BANK6   9C77H     004EH     UNIT         ?PR?_UP2LWR?COMMANDLINE
            BANK6   9CC5H     0048H     UNIT         ?PR?_DATACPY06?HTMFILES6
            BANK6   9D0DH     0037H     UNIT         ?PR?UIP_ARP_INIT?UIP_ARP
            BANK6   9D44H     0022H     UNIT         ?PR?_GET_TAG06?HTMFILES6
            BANK6   9D66H     0001H     UNIT         ?PR?HELP?COMMANDLINE

            * * * * * * *   C O D E   B A N K   7   * * * * * * *
                    0000H     5000H                  *** GAP ***
            BANK7   5000H     000FH     UNIT         ?CO?HTMFILES7
            BANK7   500FH     0178H     UNIT         ?PR?_FS_OPEN07?HTMFILES7
            BANK7   5187H     0048H     UNIT         ?PR?_DATACPY07?HTMFILES7
BL51 BANKED LINKER/LOCATER V6.00                                                      12/23/2015  16:04:37  PAGE 16


            BANK7   51CFH     0022H     UNIT         ?PR?_GET_TAG07?HTMFILES7



INTERBANK CALL TABLE OF MODULE:  .\obj\NetUART (MAIN)

ADDRESS    FUNCTION NAME
------------------------
 235EH     NETUARTLOOP
 2363H     WATCHDOGTIMERRESET
 2368H     FU_CHECK
 236DH     IP210_UART_ISR_PROCESS
 2372H     FUU_RUN
 2377H     GATEWAY_MAC_REQ
 237CH     CHECK_RS485
 2381H     CLI_TIMER
 2386H     UDP_TEL_TIMER
 238BH     TELNET_SERVER_TIMEOUT
 2390H     NUC_ON_LOOP
 2395H     RFC_LOOP
 239AH     WRITEETHRX2UART
 239FH     _UDP_INIT
 23A4H     _FS_OPEN00
 23A9H     _DATACPY00
 23AEH     _GET_TAG00
 23B3H     _FS_OPEN01
 23B8H     _DATACPY01
 23BDH     _GET_TAG01
 23C2H     _FS_OPEN02
 23C7H     _DATACPY02
 23CCH     _GET_TAG02
 23D1H     _FS_OPEN03
 23D6H     _DATACPY03
 23DBH     _GET_TAG03
 23E0H     _FS_OPEN04
 23E5H     _DATACPY04
 23EAH     _GET_TAG04
 23EFH     _FS_OPEN05
 23F4H     _DATACPY05
 23F9H     _GET_TAG05
 23FEH     _FS_OPEN06
 2403H     _DATACPY06
 2408H     _GET_TAG06
 240DH     _FS_OPEN07
 2412H     _DATACPY07
 2417H     _GET_TAG07
 241CH     _SSI_LOGIN
 2421H     _SSI_ERRORMSG
 2426H     _SSI_STATUS
 242BH     _SSI_SETIP
 2430H     _SSI_SETPASS
 2435H     _SSI_UART
 243AH     _SSI_TELNET
 243FH     _SSI_SMTP
 2444H     _SSI_ADC
 2449H     _SSI_UDP_TEL
 244EH     _CGI_LOGIN
BL51 BANKED LINKER/LOCATER V6.00                                                      12/23/2015  16:04:37  PAGE 17


 2453H     _CGI_STATUS
 2458H     _CGI_RESET
 245DH     _CGI_SETDEF
 2462H     _CGI_SETIP
 2467H     _CGI_SETPASS
 246CH     _CGI_UART
 2471H     _CGI_TELNET
 2476H     _CGI_SMTP
 247BH     _CGI_ADC
 2480H     _CGI_UDP_TEL
 2485H     _CGI_FW_UP
 248AH     _CGI_FU_UP
 248FH     UIP_TCPCHKSUM
 2494H     UIP_IPCHKSUM
 2499H     CLEARUARTRXBUF
 249EH     NETUARTINIT
 24A3H     CHECK_210
 24A8H     UIP_ARP_OUT
 24ADH     DNS_UDP_RECEIVE
 24B2H     DHCPC_UDP_RECEIVE
 24B7H     UDP_TEL_RX
 24BCH     UDP_NET_CMD
 24C1H     NETUARTONTCPRX
 24C6H     NETCMDONTCPRX
 24CBH     SMTPONTCPRX
 24D0H     NUC_ON_TCP_RX
 24D5H     UIP_ARP_INIT
 24DAH     DHCPCINIT
 24DFH     SMTP_INIT
 24E4H     NETCMDINIT
 24E9H     NUC_INIT
 24EEH     CLI_INIT
 24F3H     UART_AUTO_SEND
 24F8H     LOCALCMD
 24FDH     UIP_ARP_IPIN
 2502H     UIP_ARP_ARPIN
 2507H     UDP_PROCESS
 250CH     NETUARTTIMER
 2511H     NETCMDTIMER
 2516H     SMTP_CHECK_MAIL
 251BH     SMTP_TIMER
 2520H     DHCPCTIMER
 2525H     UIP_ARP_TIMER
 252AH     _HEX_TO_ASC
 252FH     _ASC_TO_HEX
 2534H     UART_SET_PROPERTY
 2539H     UART_CLEAR_RTS
 253EH     _SAVEMODULEINFO2EEPROM
 2543H     _FS_OPEN
 2548H     _HTTPD_INIT_FILE
 254DH     EEPROMLOADDEFAULT
 2552H     EEPROMERR
 2557H     _EEPROM_READ_BYTE
 255CH     NETUARTTELNETCLOSE
 2561H     _UART_TRANSMIT_MULTI
 2566H     _IP210_ISR_CTRL
 256BH     UDP_GET_DNS
BL51 BANKED LINKER/LOCATER V6.00                                                      12/23/2015  16:04:37  PAGE 18


 2570H     _EEPROM_WRITE_BYTE
 2575H     WATCHDOGTIMERINIT
 257AH     WATCHDOGTIMERENABLE
 257FH     _UIP_UNLISTEN
 2584H     _UIP_LISTEN
 2589H     _UIP_CONNECT
 258EH     UART_RX_FIFO_STATUS
 2593H     UART_SET_RTS
 2598H     _UART_RECEIVE_MULTI
 259DH     RE_RORN
 25A2H     UART_TX_FIFO_STATUS
 25A7H     COMMAND_TYPE
 25ACH     _IP210_DMA
 25B1H     _UIP_PROCESS
 25B6H     CHECKPKTSEND
 25BBH     MUIP_SEND
 25C0H     UDP_RECEIVE
 25C5H     UIP_UDPCHKSUM
 25CAH     _CATNETWORKCONFIGMSG
 25CFH     _STOUI
 25D4H     _CHG_UIP_BUF
 25D9H     _ETHERNETSEND
 25DEH     RESTORE_UIP_BUF
 25E3H     _UDP_SEND
 25E8H     GETDEVICEID
 25EDH     MAIN



SYMBOL TABLE OF MODULE:  .\obj\NetUART (MAIN)

  VALUE           TYPE          NAME
  ----------------------------------

  -------         MODULE        MAIN
  C:0000H         SYMBOL        _ICE_DUMMY_
  D:0080H         PUBLIC        P0
  D:0090H         PUBLIC        P1
 C1:D9B4H         PUBLIC        _Delay0
  D:00A0H         PUBLIC        P2
  D:00B0H         PUBLIC        P3
  D:00E8H         PUBLIC        P4
  B:00D8H.1       PUBLIC        WDTEN
  B:00A8H.7       PUBLIC        EA
  D:00DAH         PUBLIC        OUTPUTEN
  D:00A8H         PUBLIC        IE
  D:00B8H         PUBLIC        IP
  B:0098H.0       PUBLIC        RI
  B:0098H.1       PUBLIC        TI
 C1:CDDBH         PUBLIC        main
 C1:DAEDH         PUBLIC        flashLed
  B:00D8H.3       PUBLIC        WDT_DIS
  D:0099H         PUBLIC        SBUF
  D:0098H         PUBLIC        SCON
  D:0089H         PUBLIC        TMOD
  D:0088H         PUBLIC        TCON
  X:3747H         PUBLIC        led_status
BL51 BANKED LINKER/LOCATER V6.00                                                      12/23/2015  16:04:37  PAGE 19


 C1:DAB0H         PUBLIC        getch2
  C:2DE7H         SYMBOL        _?ix1000
  C:2DEEH         SYMBOL        _?ix1001
 C1:B750H         PUBLIC        NetworkConfig
  X:3749H         PUBLIC        MODE_TYPE
  D:008CH         PUBLIC        TH0
  D:008AH         PUBLIC        TL0
  D:00D8H         PUBLIC        WDTCON
  B:0088H.4       PUBLIC        TR0
  D:00C8H         PUBLIC        T2CON
 C1:C09DH         PUBLIC        Kbhit_EE_Load_Default
 C1:8947H         PUBLIC        _CatNetworkConfigMsg
  D:00D0H         PUBLIC        PSW

  -------         PROC BANK=1   _CATNETWORKCONFIGMSG
  X:3615H         SYMBOL        Msg
  X:3618H         SYMBOL        endl
  -------         DO            
  X:361BH         SYMBOL        i
  -------         ENDDO         
 C1:8947H         LINE#         60
 C1:8952H         LINE#         61
 C1:8952H         LINE#         64
 C1:899EH         LINE#         65
 C1:89E9H         LINE#         66
 C1:89EEH         LINE#         67
 C1:89EEH         LINE#         68
 C1:8A33H         LINE#         69
 C1:8A3FH         LINE#         71
 C1:8A42H         LINE#         88
 C1:8AC5H         LINE#         89
 C1:8B48H         LINE#         90
 C1:8BCBH         LINE#         92
 C1:8BCEH         LINE#         97
 C1:8C51H         LINE#         98
  -------         ENDPROC       _CATNETWORKCONFIGMSG

  -------         PROC BANK=1   NETWORKCONFIG
  -------         DO            
  D:0006H         SYMBOL        i
  -------         ENDDO         
 C1:B750H         LINE#         102
 C1:B750H         LINE#         103
 C1:B750H         LINE#         106
 C1:B753H         LINE#         107
 C1:B753H         LINE#         108
 C1:B76BH         LINE#         109
 C1:B776H         LINE#         110
 C1:B788H         LINE#         111
 C1:B79AH         LINE#         112
 C1:B7ACH         LINE#         113
 C1:B7BEH         LINE#         114
 C1:B7D0H         LINE#         115
 C1:B7E2H         LINE#         116
 C1:B7F4H         LINE#         117
 C1:B806H         LINE#         119
 C1:B81EH         LINE#         120
BL51 BANKED LINKER/LOCATER V6.00                                                      12/23/2015  16:04:37  PAGE 20


 C1:B83AH         LINE#         121
  -------         ENDPROC       NETWORKCONFIG

  -------         PROC BANK=1   _DELAY0
  D:0006H         SYMBOL        H
 C1:D9B4H         LINE#         125
 C1:D9B4H         LINE#         126
 C1:D9B4H         LINE#         127
 C1:D9C3H         LINE#         128
 C1:D9C3H         LINE#         129
 C1:D9C6H         LINE#         130
 C1:D9C6H         LINE#         131
 C1:D9C7H         LINE#         132
 C1:D9C9H         LINE#         133
  -------         ENDPROC       _DELAY0

  -------         PROC BANK=1   GETCH2
  -------         DO            
  D:0007H         SYMBOL        a
  -------         ENDDO         
 C1:DAB0H         LINE#         134
 C1:DAB0H         LINE#         135
 C1:DAB0H         LINE#         136
 C1:DAB3H         LINE#         137
 C1:DAB5H         LINE#         138
 C1:DAB7H         LINE#         139
 C1:DAB7H         LINE#         140
  -------         ENDPROC       GETCH2

  -------         PROC BANK=1   KBHIT_EE_LOAD_DEFAULT
  -------         DO            
  X:33E4H         SYMBOL        keyword
  X:33EBH         SYMBOL        cur_type
  X:33F2H         SYMBOL        i
  -------         ENDDO         
 C1:C09DH         LINE#         142
 C1:C09DH         LINE#         143
 C1:C09DH         LINE#         144
 C1:C0A4H         LINE#         145
 C1:C0AAH         LINE#         146
 C1:C0AAH         LINE#         147
 C1:C0B9H         LINE#         148
 C1:C0B9H         LINE#         149
 C1:C0B9H         LINE#         150
 C1:C0C2H         LINE#         151
 C1:C0C5H         LINE#         152
 C1:C0C8H         LINE#         153
 C1:C0C8H         LINE#         154
 C1:C0C8H         LINE#         155
 C1:C0C8H         LINE#         156
 C1:C0DBH         LINE#         157
 C1:C0EEH         LINE#         158
 C1:C0F4H         LINE#         159
 C1:C109H         LINE#         160
 C1:C109H         LINE#         161
 C1:C109H         LINE#         162
 C1:C11EH         LINE#         163
BL51 BANKED LINKER/LOCATER V6.00                                                      12/23/2015  16:04:37  PAGE 21


 C1:C11EH         LINE#         164
 C1:C12DH         LINE#         165
 C1:C133H         LINE#         166
 C1:C133H         LINE#         167
 C1:C142H         LINE#         168
 C1:C158H         LINE#         169
 C1:C168H         LINE#         170
 C1:C168H         LINE#         171
 C1:C168H         LINE#         172
 C1:C171H         LINE#         173
 C1:C17AH         LINE#         174
 C1:C17AH         LINE#         175
 C1:C17AH         LINE#         176
 C1:C17AH         LINE#         177
  -------         ENDPROC       KBHIT_EE_LOAD_DEFAULT

  -------         PROC BANK=1   FLASHLED
 C1:DAEDH         LINE#         186
 C1:DAEDH         LINE#         187
 C1:DAEDH         LINE#         203
  -------         ENDPROC       FLASHLED

  -------         PROC BANK=1   MAIN
  -------         DO            
  X:37CDH         SYMBOL        RXFIFO_START
  -------         ENDDO         
 C1:CDDBH         LINE#         225
 C1:CDDBH         LINE#         226
 C1:CDDBH         LINE#         227
 C1:CDE1H         LINE#         229
 C1:CDE3H         LINE#         230
 C1:CDE6H         LINE#         231
 C1:CDE9H         LINE#         232
 C1:CDECH         LINE#         234
 C1:CDEEH         LINE#         235
 C1:CDF0H         LINE#         240
 C1:CDF3H         LINE#         241
 C1:CDF3H         LINE#         242
 C1:CDF6H         LINE#         243
 C1:CDF9H         LINE#         245
 C1:CDFBH         LINE#         246
 C1:CDFDH         LINE#         249
 C1:CE00H         LINE#         250
 C1:CE03H         LINE#         252
 C1:CE06H         LINE#         256
 C1:CE09H         LINE#         257
 C1:CE0CH         LINE#         258
 C1:CE15H         LINE#         260
 C1:CE18H         LINE#         262
 C1:CE1BH         LINE#         269
 C1:CE28H         LINE#         273
 C1:CE28H         LINE#         274
 C1:CE2FH         LINE#         275
 C1:CE2FH         LINE#         278
 C1:CE37H         LINE#         280
 C1:CE3AH         LINE#         289
 C1:CE3DH         LINE#         293
BL51 BANKED LINKER/LOCATER V6.00                                                      12/23/2015  16:04:37  PAGE 22


  -------         ENDPROC       MAIN
  -------         ENDMOD        MAIN

  -------         MODULE        PATCH_INFO
  N:0100H         SYMBOL        EE_LENGTH
  N:0002H         SYMBOL        SIZE_EEAPP_ID
  N:0002H         SYMBOL        SIZE_EECHIP_ID
  C:FFE0H         SYMBOL        _PATCH_INFO
  -------         ENDMOD        PATCH_INFO

  -------         MODULE        EE_PROCESS
  C:0000H         SYMBOL        _ICE_DUMMY_
  D:0090H         PUBLIC        P1
  D:00B0H         PUBLIC        P3
 C1:D99DH         PUBLIC        GetDeviceID
  D:00A8H         PUBLIC        IE
 C1:BD07H         PUBLIC        EEPROMLoadDefault
  D:00B8H         PUBLIC        IP
 C1:CE40H         PUBLIC        _Setup_BLUpgrade
 C1:D22DH         PUBLIC        EEPROMCheckDataAvailable
  D:0098H         PUBLIC        SCON
  D:0088H         PUBLIC        TCON
  X:17FEH         PUBLIC        EE_Reserved_0
  X:1806H         PUBLIC        web_def
  D:00D8H         PUBLIC        WDTCON
 C1:CC80H         PUBLIC        EEPROMInit
 C1:D17DH         SYMBOL        LoadEEPROM2EEConfig
  D:00C8H         PUBLIC        T2CON
 C1:C93BH         PUBLIC        _SaveModuleInfo2EEPROM
  X:1807H         PUBLIC        need_load_default
  X:1808H         PUBLIC        EE_Result
  X:1809H         PUBLIC        EEConfigInfo
  X:184CH         PUBLIC        ModuleInfo
 C1:D125H         SYMBOL        LoadEEPROM2ModuleInfo
  D:00D0H         PUBLIC        PSW

  -------         PROC BANK=1   GETDEVICEID
 C1:D99DH         LINE#         71
 C1:D99DH         LINE#         72
 C1:D99DH         LINE#         73
 C1:D9B3H         LINE#         74
  -------         ENDPROC       GETDEVICEID

  -------         PROC BANK=1   LOADEEPROM2MODULEINFO
  -------         DO            
  X:36DFH         SYMBOL        i
  X:36E1H         SYMBOL        p
  -------         ENDDO         
 C1:D125H         LINE#         90
 C1:D125H         LINE#         91
 C1:D125H         LINE#         96
 C1:D133H         LINE#         98
 C1:D13AH         LINE#         99
 C1:D13AH         LINE#         100
 C1:D15BH         LINE#         101
 C1:D15BH         LINE#         103
 C1:D15DH         LINE#         104
BL51 BANKED LINKER/LOCATER V6.00                                                      12/23/2015  16:04:37  PAGE 23


 C1:D15DH         LINE#         105
 C1:D17AH         LINE#         117
 C1:D17CH         LINE#         118
  -------         ENDPROC       LOADEEPROM2MODULEINFO

  -------         PROC BANK=1   _SAVEMODULEINFO2EEPROM
  X:3453H         SYMBOL        pSubModule
  X:3456H         SYMBOL        size
  -------         DO            
  X:3458H         SYMBOL        i
  X:345AH         SYMBOL        pu8SubMoudle
  X:345DH         SYMBOL        loc_EESubMoudle
  -------         ENDDO         
 C1:C93BH         LINE#         135
 C1:C94EH         LINE#         136
 C1:C94EH         LINE#         138
 C1:C959H         LINE#         139
 C1:C976H         LINE#         140
 C1:C991H         LINE#         141
 C1:C9CDH         LINE#         142
 C1:C9CFH         LINE#         143
  -------         ENDPROC       _SAVEMODULEINFO2EEPROM

  -------         PROC BANK=1   _SETUP_BLUPGRADE
  X:374AH         SYMBOL        uip_hostaddr
 C1:CE40H         LINE#         146
 C1:CE4BH         LINE#         147
 C1:CE4BH         LINE#         148
 C1:CE56H         LINE#         149
 C1:CE6FH         LINE#         150
 C1:CE88H         LINE#         151
 C1:CEA1H         LINE#         153
 C1:CEA3H         LINE#         154
  -------         ENDPROC       _SETUP_BLUPGRADE

  -------         PROC BANK=1   LOADEEPROM2EECONFIG
  -------         DO            
  X:36E4H         SYMBOL        i
  X:36E6H         SYMBOL        p
  -------         ENDDO         
 C1:D17DH         LINE#         173
 C1:D17DH         LINE#         174
 C1:D17DH         LINE#         178
 C1:D18BH         LINE#         180
 C1:D192H         LINE#         181
 C1:D192H         LINE#         182
 C1:D1B3H         LINE#         183
 C1:D1B3H         LINE#         185
 C1:D1B5H         LINE#         186
 C1:D1B5H         LINE#         187
 C1:D1D2H         LINE#         249
 C1:D1D4H         LINE#         250
  -------         ENDPROC       LOADEEPROM2EECONFIG

  -------         PROC BANK=1   EEPROMCHECKDATAAVAILABLE
  -------         DO            
  X:37A7H         SYMBOL        eebyte
BL51 BANKED LINKER/LOCATER V6.00                                                      12/23/2015  16:04:37  PAGE 24


  X:37A8H         SYMBOL        i
  -------         ENDDO         
 C1:D22DH         LINE#         273
 C1:D22DH         LINE#         274
 C1:D22DH         LINE#         280
 C1:D233H         LINE#         307
 C1:D242H         LINE#         308
 C1:D242H         LINE#         309
 C1:D250H         LINE#         310
 C1:D250H         LINE#         312
 C1:D254H         LINE#         313
 C1:D256H         LINE#         314
 C1:D256H         LINE#         316
 C1:D26CH         LINE#         317
 C1:D26CH         LINE#         318
 C1:D275H         LINE#         319
 C1:D278H         LINE#         320
 C1:D278H         LINE#         321
 C1:D280H         LINE#         324
 C1:D282H         LINE#         326
  -------         ENDPROC       EEPROMCHECKDATAAVAILABLE

  -------         PROC BANK=1   EEPROMLOADDEFAULT
  -------         DO            
  X:358DH         SYMBOL        i
  X:358FH         SYMBOL        p
  X:3592H         SYMBOL        pEE_Reserved_0
  -------         ENDDO         
 C1:BD07H         LINE#         344
 C1:BD07H         LINE#         345
 C1:BD07H         LINE#         351
 C1:BD15H         LINE#         352
 C1:BD23H         LINE#         353
 C1:BD3DH         LINE#         354
 C1:BD3DH         LINE#         355
 C1:BD43H         LINE#         356
 C1:BD5CH         LINE#         358
 C1:BD74H         LINE#         359
 C1:BD83H         LINE#         360
 C1:BD83H         LINE#         361
 C1:BD86H         LINE#         362
 C1:BDA9H         LINE#         363
 C1:BDA9H         LINE#         365
 C1:BDACH         LINE#         366
 C1:BDACH         LINE#         367
 C1:BDACH         LINE#         368
 C1:BDACH         LINE#         369
 C1:BDAFH         LINE#         370
 C1:BDD0H         LINE#         371
 C1:BDD0H         LINE#         373
 C1:BDD3H         LINE#         374
 C1:BDD3H         LINE#         375
 C1:BDD3H         LINE#         376
 C1:BDD6H         LINE#         377
 C1:BDEAH         LINE#         380
 C1:BDECH         LINE#         381
  -------         ENDPROC       EEPROMLOADDEFAULT
BL51 BANKED LINKER/LOCATER V6.00                                                      12/23/2015  16:04:37  PAGE 25



  -------         PROC BANK=1   EEPROMINIT
 C1:CC80H         LINE#         402
 C1:CC80H         LINE#         403
 C1:CC80H         LINE#         406
 C1:CC83H         LINE#         408
 C1:CC89H         LINE#         409
 C1:CC89H         LINE#         410
 C1:CC8FH         LINE#         411
 C1:CC8FH         LINE#         412
 C1:CC93H         LINE#         414
 C1:CCA5H         LINE#         415
 C1:CCA5H         LINE#         417
 C1:CCABH         LINE#         418
 C1:CCABH         LINE#         419
 C1:CCAFH         LINE#         421
 C1:CCC2H         LINE#         422
 C1:CCC2H         LINE#         424
 C1:CCC2H         LINE#         425
 C1:CCC2H         LINE#         428
 C1:CCD5H         LINE#         430
 C1:CCE8H         LINE#         431
 C1:CCEEH         LINE#         432
 C1:CCEEH         LINE#         436
 C1:CCF4H         LINE#         441
 C1:CCF4H         LINE#         442
 C1:CCF4H         LINE#         444
  -------         ENDPROC       EEPROMINIT
  -------         ENDMOD        EE_PROCESS

  -------         MODULE        FIRMWARE_REV
  C:0000H         SYMBOL        _ICE_DUMMY_
 C0:6000H         PUBLIC        FWARE_REV
  -------         ENDMOD        FIRMWARE_REV

  -------         MODULE        ?BANK?SWITCHING
  C:3AB8H         SEGMENT       ?BANK?SELECT
  D:002DH         SEGMENT       ?BANK?DATA
  C:2000H         SEGMENT       ?BANK?SWITCH
  C:205EH         PUBLIC        ?B_BANK0
  C:2076H         PUBLIC        ?B_BANK1
  C:214EH         PUBLIC        ?B_BANK10
  C:2166H         PUBLIC        ?B_BANK11
  C:217EH         PUBLIC        ?B_BANK12
  C:2196H         PUBLIC        ?B_BANK13
  C:21AEH         PUBLIC        ?B_BANK14
  C:21C6H         PUBLIC        ?B_BANK15
  C:21DEH         PUBLIC        ?B_BANK16
  C:21F6H         PUBLIC        ?B_BANK17
  C:220EH         PUBLIC        ?B_BANK18
  C:2226H         PUBLIC        ?B_BANK19
  C:208EH         PUBLIC        ?B_BANK2
  C:223EH         PUBLIC        ?B_BANK20
  C:2256H         PUBLIC        ?B_BANK21
  C:226EH         PUBLIC        ?B_BANK22
  C:2286H         PUBLIC        ?B_BANK23
  C:229EH         PUBLIC        ?B_BANK24
BL51 BANKED LINKER/LOCATER V6.00                                                      12/23/2015  16:04:37  PAGE 26


  C:22B6H         PUBLIC        ?B_BANK25
  C:22CEH         PUBLIC        ?B_BANK26
  C:22E6H         PUBLIC        ?B_BANK27
  C:22FEH         PUBLIC        ?B_BANK28
  C:2316H         PUBLIC        ?B_BANK29
  C:20A6H         PUBLIC        ?B_BANK3
  C:232EH         PUBLIC        ?B_BANK30
  C:2346H         PUBLIC        ?B_BANK31
  C:20BEH         PUBLIC        ?B_BANK4
  C:20D6H         PUBLIC        ?B_BANK5
  C:20EEH         PUBLIC        ?B_BANK6
  C:2106H         PUBLIC        ?B_BANK7
  C:211EH         PUBLIC        ?B_BANK8
  C:2136H         PUBLIC        ?B_BANK9
  D:002DH         PUBLIC        ?B_CURRENTBANK
  N:0000H         PUBLIC        ?B_FACTOR
  N:001FH         PUBLIC        ?B_MASK
  N:0004H         PUBLIC        ?B_MODE
  N:0020H         PUBLIC        ?B_NBANKS
  N:00FFH         PUBLIC        ?B_RST_BANK
  C:2000H         PUBLIC        ?B_SWITCH0
  C:2002H         PUBLIC        ?B_SWITCH1
  C:201CH         PUBLIC        ?B_SWITCH10
  C:201FH         PUBLIC        ?B_SWITCH11
  C:2022H         PUBLIC        ?B_SWITCH12
  C:2025H         PUBLIC        ?B_SWITCH13
  C:2028H         PUBLIC        ?B_SWITCH14
  C:202BH         PUBLIC        ?B_SWITCH15
  C:202EH         PUBLIC        ?B_SWITCH16
  C:2031H         PUBLIC        ?B_SWITCH17
  C:2034H         PUBLIC        ?B_SWITCH18
  C:2037H         PUBLIC        ?B_SWITCH19
  C:2004H         PUBLIC        ?B_SWITCH2
  C:203AH         PUBLIC        ?B_SWITCH20
  C:203DH         PUBLIC        ?B_SWITCH21
  C:2040H         PUBLIC        ?B_SWITCH22
  C:2043H         PUBLIC        ?B_SWITCH23
  C:2046H         PUBLIC        ?B_SWITCH24
  C:2049H         PUBLIC        ?B_SWITCH25
  C:204CH         PUBLIC        ?B_SWITCH26
  C:204FH         PUBLIC        ?B_SWITCH27
  C:2052H         PUBLIC        ?B_SWITCH28
  C:2055H         PUBLIC        ?B_SWITCH29
  C:2007H         PUBLIC        ?B_SWITCH3
  C:2058H         PUBLIC        ?B_SWITCH30
  C:205BH         PUBLIC        ?B_SWITCH31
  C:200AH         PUBLIC        ?B_SWITCH4
  C:200DH         PUBLIC        ?B_SWITCH5
  C:2010H         PUBLIC        ?B_SWITCH6
  C:2013H         PUBLIC        ?B_SWITCH7
  C:2016H         PUBLIC        ?B_SWITCH8
  C:2019H         PUBLIC        ?B_SWITCH9
  C:3AB9H         PUBLIC        ?B_SWITCHBANK_A
  C:3AB8H         PUBLIC        _SWITCHBANK
  N:0000H         SYMBOL        ?BANK?SWITCHING
  N:0000H         SYMBOL        ?B_FIRSTBIT
  C:3ABDH         SYMBOL        ?B_RESTORE_BANK
BL51 BANKED LINKER/LOCATER V6.00                                                      12/23/2015  16:04:37  PAGE 27


  N:0000H         SYMBOL        ?B_RTX
  C:2068H         SYMBOL        ?B_SWITCHJ0
  C:2080H         SYMBOL        ?B_SWITCHJ1
  C:2158H         SYMBOL        ?B_SWITCHJ10
  C:2170H         SYMBOL        ?B_SWITCHJ11
  C:2188H         SYMBOL        ?B_SWITCHJ12
  C:21A0H         SYMBOL        ?B_SWITCHJ13
  C:21B8H         SYMBOL        ?B_SWITCHJ14
  C:21D0H         SYMBOL        ?B_SWITCHJ15
  C:21E8H         SYMBOL        ?B_SWITCHJ16
  C:2200H         SYMBOL        ?B_SWITCHJ17
  C:2218H         SYMBOL        ?B_SWITCHJ18
  C:2230H         SYMBOL        ?B_SWITCHJ19
  C:2098H         SYMBOL        ?B_SWITCHJ2
  C:2248H         SYMBOL        ?B_SWITCHJ20
  C:2260H         SYMBOL        ?B_SWITCHJ21
  C:2278H         SYMBOL        ?B_SWITCHJ22
  C:2290H         SYMBOL        ?B_SWITCHJ23
  C:22A8H         SYMBOL        ?B_SWITCHJ24
  C:22C0H         SYMBOL        ?B_SWITCHJ25
  C:22D8H         SYMBOL        ?B_SWITCHJ26
  C:22F0H         SYMBOL        ?B_SWITCHJ27
  C:2308H         SYMBOL        ?B_SWITCHJ28
  C:2320H         SYMBOL        ?B_SWITCHJ29
  C:20B0H         SYMBOL        ?B_SWITCHJ3
  C:2338H         SYMBOL        ?B_SWITCHJ30
  C:2350H         SYMBOL        ?B_SWITCHJ31
  C:20C8H         SYMBOL        ?B_SWITCHJ4
  C:20E0H         SYMBOL        ?B_SWITCHJ5
  C:20F8H         SYMBOL        ?B_SWITCHJ6
  C:2110H         SYMBOL        ?B_SWITCHJ7
  C:2128H         SYMBOL        ?B_SWITCHJ8
  C:2140H         SYMBOL        ?B_SWITCHJ9
  N:0000H         SYMBOL        ?B_VAR_BANKING
  D:00E0H         SYMBOL        ACC
  N:035EH         SYMBOL        B_SWITCH_SIZE
  C:2000H         SYMBOL        B_SWITCH_START
  N:0020H         SYMBOL        CNT
  D:0083H         SYMBOL        DPH
  D:0082H         SYMBOL        DPL
  B:00B0H.5       SYMBOL        H16
  B:00B0H.4       SYMBOL        H17
  B:0090H.7       SYMBOL        H18
  B:00E8H.1       SYMBOL        H19
  B:00E8H.6       SYMBOL        H20
  N:0001H         SYMBOL        LONG_MACRO
  N:001FH         SYMBOL        MASK
  D:0090H         SYMBOL        P1
  D:00B0H         SYMBOL        P3
  D:00E8H         SYMBOL        P4
  C:3AC1H         SYMBOL        SWITCH_TAB
  C:2000H         LINE#         1001
  C:2002H         LINE#         1001
  C:2004H         LINE#         1001
  C:2007H         LINE#         1001
  C:200AH         LINE#         1001
  C:200DH         LINE#         1001
BL51 BANKED LINKER/LOCATER V6.00                                                      12/23/2015  16:04:37  PAGE 28


  C:2010H         LINE#         1001
  C:2013H         LINE#         1001
  C:2016H         LINE#         1001
  C:2019H         LINE#         1001
  C:201CH         LINE#         1001
  C:201FH         LINE#         1001
  C:2022H         LINE#         1001
  C:2025H         LINE#         1001
  C:2028H         LINE#         1001
  C:202BH         LINE#         1001
  C:202EH         LINE#         1001
  C:2031H         LINE#         1001
  C:2034H         LINE#         1001
  C:2037H         LINE#         1001
  C:203AH         LINE#         1001
  C:203DH         LINE#         1001
  C:2040H         LINE#         1001
  C:2043H         LINE#         1001
  C:2046H         LINE#         1001
  C:2049H         LINE#         1001
  C:204CH         LINE#         1001
  C:204FH         LINE#         1001
  C:2052H         LINE#         1001
  C:2055H         LINE#         1001
  C:2058H         LINE#         1001
  C:205BH         LINE#         1001
  C:205EH         LINE#         1012
  C:2060H         LINE#         1012
  C:2062H         LINE#         1012
  C:2064H         LINE#         1012
  C:2066H         LINE#         1012
  C:2068H         LINE#         1012
  C:206BH         LINE#         1012
  C:206DH         LINE#         1012
  C:206FH         LINE#         1012
  C:2071H         LINE#         1012
  C:2073H         LINE#         1012
  C:2075H         LINE#         1012
  C:2076H         LINE#         1012
  C:2078H         LINE#         1012
  C:207AH         LINE#         1012
  C:207CH         LINE#         1012
  C:207EH         LINE#         1012
  C:2080H         LINE#         1012
  C:2083H         LINE#         1012
  C:2085H         LINE#         1012
  C:2087H         LINE#         1012
  C:2089H         LINE#         1012
  C:208BH         LINE#         1012
  C:208DH         LINE#         1012
  C:208EH         LINE#         1012
  C:2090H         LINE#         1012
  C:2092H         LINE#         1012
  C:2094H         LINE#         1012
  C:2096H         LINE#         1012
  C:2098H         LINE#         1012
  C:209BH         LINE#         1012
BL51 BANKED LINKER/LOCATER V6.00                                                      12/23/2015  16:04:37  PAGE 29


  C:209DH         LINE#         1012
  C:209FH         LINE#         1012
  C:20A1H         LINE#         1012
  C:20A3H         LINE#         1012
  C:20A5H         LINE#         1012
  C:20A6H         LINE#         1012
  C:20A8H         LINE#         1012
  C:20AAH         LINE#         1012
  C:20ACH         LINE#         1012
  C:20AEH         LINE#         1012
  C:20B0H         LINE#         1012
  C:20B3H         LINE#         1012
  C:20B5H         LINE#         1012
  C:20B7H         LINE#         1012
  C:20B9H         LINE#         1012
  C:20BBH         LINE#         1012
  C:20BDH         LINE#         1012
  C:20BEH         LINE#         1012
  C:20C0H         LINE#         1012
  C:20C2H         LINE#         1012
  C:20C4H         LINE#         1012
  C:20C6H         LINE#         1012
  C:20C8H         LINE#         1012
  C:20CBH         LINE#         1012
  C:20CDH         LINE#         1012
  C:20CFH         LINE#         1012
  C:20D1H         LINE#         1012
  C:20D3H         LINE#         1012
  C:20D5H         LINE#         1012
  C:20D6H         LINE#         1012
  C:20D8H         LINE#         1012
  C:20DAH         LINE#         1012
  C:20DCH         LINE#         1012
  C:20DEH         LINE#         1012
  C:20E0H         LINE#         1012
  C:20E3H         LINE#         1012
  C:20E5H         LINE#         1012
  C:20E7H         LINE#         1012
  C:20E9H         LINE#         1012
  C:20EBH         LINE#         1012
  C:20EDH         LINE#         1012
  C:20EEH         LINE#         1012
  C:20F0H         LINE#         1012
  C:20F2H         LINE#         1012
  C:20F4H         LINE#         1012
  C:20F6H         LINE#         1012
  C:20F8H         LINE#         1012
  C:20FBH         LINE#         1012
  C:20FDH         LINE#         1012
  C:20FFH         LINE#         1012
  C:2101H         LINE#         1012
  C:2103H         LINE#         1012
  C:2105H         LINE#         1012
  C:2106H         LINE#         1012
  C:2108H         LINE#         1012
  C:210AH         LINE#         1012
  C:210CH         LINE#         1012
BL51 BANKED LINKER/LOCATER V6.00                                                      12/23/2015  16:04:37  PAGE 30


  C:210EH         LINE#         1012
  C:2110H         LINE#         1012
  C:2113H         LINE#         1012
  C:2115H         LINE#         1012
  C:2117H         LINE#         1012
  C:2119H         LINE#         1012
  C:211BH         LINE#         1012
  C:211DH         LINE#         1012
  C:211EH         LINE#         1012
  C:2120H         LINE#         1012
  C:2122H         LINE#         1012
  C:2124H         LINE#         1012
  C:2126H         LINE#         1012
  C:2128H         LINE#         1012
  C:212BH         LINE#         1012
  C:212DH         LINE#         1012
  C:212FH         LINE#         1012
  C:2131H         LINE#         1012
  C:2133H         LINE#         1012
  C:2135H         LINE#         1012
  C:2136H         LINE#         1012
  C:2138H         LINE#         1012
  C:213AH         LINE#         1012
  C:213CH         LINE#         1012
  C:213EH         LINE#         1012
  C:2140H         LINE#         1012
  C:2143H         LINE#         1012
  C:2145H         LINE#         1012
  C:2147H         LINE#         1012
  C:2149H         LINE#         1012
  C:214BH         LINE#         1012
  C:214DH         LINE#         1012
  C:214EH         LINE#         1012
  C:2150H         LINE#         1012
  C:2152H         LINE#         1012
  C:2154H         LINE#         1012
  C:2156H         LINE#         1012
  C:2158H         LINE#         1012
  C:215BH         LINE#         1012
  C:215DH         LINE#         1012
  C:215FH         LINE#         1012
  C:2161H         LINE#         1012
  C:2163H         LINE#         1012
  C:2165H         LINE#         1012
  C:2166H         LINE#         1012
  C:2168H         LINE#         1012
  C:216AH         LINE#         1012
  C:216CH         LINE#         1012
  C:216EH         LINE#         1012
  C:2170H         LINE#         1012
  C:2173H         LINE#         1012
  C:2175H         LINE#         1012
  C:2177H         LINE#         1012
  C:2179H         LINE#         1012
  C:217BH         LINE#         1012
  C:217DH         LINE#         1012
  C:217EH         LINE#         1012
BL51 BANKED LINKER/LOCATER V6.00                                                      12/23/2015  16:04:37  PAGE 31


  C:2180H         LINE#         1012
  C:2182H         LINE#         1012
  C:2184H         LINE#         1012
  C:2186H         LINE#         1012
  C:2188H         LINE#         1012
  C:218BH         LINE#         1012
  C:218DH         LINE#         1012
  C:218FH         LINE#         1012
  C:2191H         LINE#         1012
  C:2193H         LINE#         1012
  C:2195H         LINE#         1012
  C:2196H         LINE#         1012
  C:2198H         LINE#         1012
  C:219AH         LINE#         1012
  C:219CH         LINE#         1012
  C:219EH         LINE#         1012
  C:21A0H         LINE#         1012
  C:21A3H         LINE#         1012
  C:21A5H         LINE#         1012
  C:21A7H         LINE#         1012
  C:21A9H         LINE#         1012
  C:21ABH         LINE#         1012
  C:21ADH         LINE#         1012
  C:21AEH         LINE#         1012
  C:21B0H         LINE#         1012
  C:21B2H         LINE#         1012
  C:21B4H         LINE#         1012
  C:21B6H         LINE#         1012
  C:21B8H         LINE#         1012
  C:21BBH         LINE#         1012
  C:21BDH         LINE#         1012
  C:21BFH         LINE#         1012
  C:21C1H         LINE#         1012
  C:21C3H         LINE#         1012
  C:21C5H         LINE#         1012
  C:21C6H         LINE#         1012
  C:21C8H         LINE#         1012
  C:21CAH         LINE#         1012
  C:21CCH         LINE#         1012
  C:21CEH         LINE#         1012
  C:21D0H         LINE#         1012
  C:21D3H         LINE#         1012
  C:21D5H         LINE#         1012
  C:21D7H         LINE#         1012
  C:21D9H         LINE#         1012
  C:21DBH         LINE#         1012
  C:21DDH         LINE#         1012
  C:21DEH         LINE#         1012
  C:21E0H         LINE#         1012
  C:21E2H         LINE#         1012
  C:21E4H         LINE#         1012
  C:21E6H         LINE#         1012
  C:21E8H         LINE#         1012
  C:21EBH         LINE#         1012
  C:21EDH         LINE#         1012
  C:21EFH         LINE#         1012
  C:21F1H         LINE#         1012
BL51 BANKED LINKER/LOCATER V6.00                                                      12/23/2015  16:04:37  PAGE 32


  C:21F3H         LINE#         1012
  C:21F5H         LINE#         1012
  C:21F6H         LINE#         1012
  C:21F8H         LINE#         1012
  C:21FAH         LINE#         1012
  C:21FCH         LINE#         1012
  C:21FEH         LINE#         1012
  C:2200H         LINE#         1012
  C:2203H         LINE#         1012
  C:2205H         LINE#         1012
  C:2207H         LINE#         1012
  C:2209H         LINE#         1012
  C:220BH         LINE#         1012
  C:220DH         LINE#         1012
  C:220EH         LINE#         1012
  C:2210H         LINE#         1012
  C:2212H         LINE#         1012
  C:2214H         LINE#         1012
  C:2216H         LINE#         1012
  C:2218H         LINE#         1012
  C:221BH         LINE#         1012
  C:221DH         LINE#         1012
  C:221FH         LINE#         1012
  C:2221H         LINE#         1012
  C:2223H         LINE#         1012
  C:2225H         LINE#         1012
  C:2226H         LINE#         1012
  C:2228H         LINE#         1012
  C:222AH         LINE#         1012
  C:222CH         LINE#         1012
  C:222EH         LINE#         1012
  C:2230H         LINE#         1012
  C:2233H         LINE#         1012
  C:2235H         LINE#         1012
  C:2237H         LINE#         1012
  C:2239H         LINE#         1012
  C:223BH         LINE#         1012
  C:223DH         LINE#         1012
  C:223EH         LINE#         1012
  C:2240H         LINE#         1012
  C:2242H         LINE#         1012
  C:2244H         LINE#         1012
  C:2246H         LINE#         1012
  C:2248H         LINE#         1012
  C:224BH         LINE#         1012
  C:224DH         LINE#         1012
  C:224FH         LINE#         1012
  C:2251H         LINE#         1012
  C:2253H         LINE#         1012
  C:2255H         LINE#         1012
  C:2256H         LINE#         1012
  C:2258H         LINE#         1012
  C:225AH         LINE#         1012
  C:225CH         LINE#         1012
  C:225EH         LINE#         1012
  C:2260H         LINE#         1012
  C:2263H         LINE#         1012
BL51 BANKED LINKER/LOCATER V6.00                                                      12/23/2015  16:04:37  PAGE 33


  C:2265H         LINE#         1012
  C:2267H         LINE#         1012
  C:2269H         LINE#         1012
  C:226BH         LINE#         1012
  C:226DH         LINE#         1012
  C:226EH         LINE#         1012
  C:2270H         LINE#         1012
  C:2272H         LINE#         1012
  C:2274H         LINE#         1012
  C:2276H         LINE#         1012
  C:2278H         LINE#         1012
  C:227BH         LINE#         1012
  C:227DH         LINE#         1012
  C:227FH         LINE#         1012
  C:2281H         LINE#         1012
  C:2283H         LINE#         1012
  C:2285H         LINE#         1012
  C:2286H         LINE#         1012
  C:2288H         LINE#         1012
  C:228AH         LINE#         1012
  C:228CH         LINE#         1012
  C:228EH         LINE#         1012
  C:2290H         LINE#         1012
  C:2293H         LINE#         1012
  C:2295H         LINE#         1012
  C:2297H         LINE#         1012
  C:2299H         LINE#         1012
  C:229BH         LINE#         1012
  C:229DH         LINE#         1012
  C:229EH         LINE#         1012
  C:22A0H         LINE#         1012
  C:22A2H         LINE#         1012
  C:22A4H         LINE#         1012
  C:22A6H         LINE#         1012
  C:22A8H         LINE#         1012
  C:22ABH         LINE#         1012
  C:22ADH         LINE#         1012
  C:22AFH         LINE#         1012
  C:22B1H         LINE#         1012
  C:22B3H         LINE#         1012
  C:22B5H         LINE#         1012
  C:22B6H         LINE#         1012
  C:22B8H         LINE#         1012
  C:22BAH         LINE#         1012
  C:22BCH         LINE#         1012
  C:22BEH         LINE#         1012
  C:22C0H         LINE#         1012
  C:22C3H         LINE#         1012
  C:22C5H         LINE#         1012
  C:22C7H         LINE#         1012
  C:22C9H         LINE#         1012
  C:22CBH         LINE#         1012
  C:22CDH         LINE#         1012
  C:22CEH         LINE#         1012
  C:22D0H         LINE#         1012
  C:22D2H         LINE#         1012
  C:22D4H         LINE#         1012
BL51 BANKED LINKER/LOCATER V6.00                                                      12/23/2015  16:04:37  PAGE 34


  C:22D6H         LINE#         1012
  C:22D8H         LINE#         1012
  C:22DBH         LINE#         1012
  C:22DDH         LINE#         1012
  C:22DFH         LINE#         1012
  C:22E1H         LINE#         1012
  C:22E3H         LINE#         1012
  C:22E5H         LINE#         1012
  C:22E6H         LINE#         1012
  C:22E8H         LINE#         1012
  C:22EAH         LINE#         1012
  C:22ECH         LINE#         1012
  C:22EEH         LINE#         1012
  C:22F0H         LINE#         1012
  C:22F3H         LINE#         1012
  C:22F5H         LINE#         1012
  C:22F7H         LINE#         1012
  C:22F9H         LINE#         1012
  C:22FBH         LINE#         1012
  C:22FDH         LINE#         1012
  C:22FEH         LINE#         1012
  C:2300H         LINE#         1012
  C:2302H         LINE#         1012
  C:2304H         LINE#         1012
  C:2306H         LINE#         1012
  C:2308H         LINE#         1012
  C:230BH         LINE#         1012
  C:230DH         LINE#         1012
  C:230FH         LINE#         1012
  C:2311H         LINE#         1012
  C:2313H         LINE#         1012
  C:2315H         LINE#         1012
  C:2316H         LINE#         1012
  C:2318H         LINE#         1012
  C:231AH         LINE#         1012
  C:231CH         LINE#         1012
  C:231EH         LINE#         1012
  C:2320H         LINE#         1012
  C:2323H         LINE#         1012
  C:2325H         LINE#         1012
  C:2327H         LINE#         1012
  C:2329H         LINE#         1012
  C:232BH         LINE#         1012
  C:232DH         LINE#         1012
  C:232EH         LINE#         1012
  C:2330H         LINE#         1012
  C:2332H         LINE#         1012
  C:2334H         LINE#         1012
  C:2336H         LINE#         1012
  C:2338H         LINE#         1012
  C:233BH         LINE#         1012
  C:233DH         LINE#         1012
  C:233FH         LINE#         1012
  C:2341H         LINE#         1012
  C:2343H         LINE#         1012
  C:2345H         LINE#         1012
  C:2346H         LINE#         1012
BL51 BANKED LINKER/LOCATER V6.00                                                      12/23/2015  16:04:37  PAGE 35


  C:2348H         LINE#         1012
  C:234AH         LINE#         1012
  C:234CH         LINE#         1012
  C:234EH         LINE#         1012
  C:2350H         LINE#         1012
  C:2353H         LINE#         1012
  C:2355H         LINE#         1012
  C:2357H         LINE#         1012
  C:2359H         LINE#         1012
  C:235BH         LINE#         1012
  C:235DH         LINE#         1012
  C:3AB8H         LINE#         1033
  C:3AB9H         LINE#         1079
  C:3ABCH         LINE#         1080
  C:3ABDH         LINE#         1082
  C:3AC0H         LINE#         1083
  -------         ENDMOD        ?BANK?SWITCHING

  -------         MODULE        ?C_STARTUP
  C:3022H         SEGMENT       ?C_C51STARTUP
  I:0065H         SEGMENT       ?STACK
  C:0000H         PUBLIC        ?C_STARTUP
  C:30A1H         PUBLIC        CPU_GOTO_0000H
  C:308AH         PUBLIC        CPU_GOTO_FFF7H
  C:30A4H         PUBLIC        CPU_GOTO_FFFDH
  C:0059H         PUBLIC        CPU_GOTO_FUU
  C:30A4H         PUBLIC        CPU_REBOOT
  B:00D0H.6       SYMBOL        AC
  D:00E0H         SYMBOL        ACC
  D:00F0H         SYMBOL        B
  B:0020H.0       SYMBOL        BITADDR
  B:00C8H.0       SYMBOL        CP_RL2
  B:00D0H.7       SYMBOL        CY
  B:00C8H.1       SYMBOL        C_T2
  D:0083H         SYMBOL        DPH
  D:0082H         SYMBOL        DPL
  B:00A8H.7       SYMBOL        EA
  C:305DH         SYMBOL        END_POINT
  B:00A8H.4       SYMBOL        ES
  B:00A8H.1       SYMBOL        ET0
  B:00A8H.3       SYMBOL        ET1
  B:00A8H.5       SYMBOL        ET2
  B:00A8H.0       SYMBOL        EX0
  B:00A8H.2       SYMBOL        EX1
  B:00C8H.3       SYMBOL        EXEN2
  B:00C8H.6       SYMBOL        EXF2
  B:00D0H.5       SYMBOL        F0
  C:00A5H         SYMBOL        H16_1
  C:00ADH         SYMBOL        H16_CHECK_TI
  C:00A8H         SYMBOL        H16_SR
  C:008FH         SYMBOL        H17_1
  C:0097H         SYMBOL        H17_CHECK_TI
  C:0092H         SYMBOL        H17_SR
  C:0079H         SYMBOL        H18_1
  C:0081H         SYMBOL        H18_CHECK_TI
  C:007CH         SYMBOL        H18_SR
  N:0000H         SYMBOL        IBPSTACK
BL51 BANKED LINKER/LOCATER V6.00                                                      12/23/2015  16:04:37  PAGE 36


  N:0100H         SYMBOL        IBPSTACKTOP
  N:0080H         SYMBOL        IDATALEN
  C:3064H         SYMBOL        IDATALOOP
  D:00A8H         SYMBOL        IE
  B:0088H.1       SYMBOL        IE0
  B:0088H.3       SYMBOL        IE1
  B:00B0H.2       SYMBOL        INT0
  B:00B0H.3       SYMBOL        INT1
  D:00B8H         SYMBOL        IP
  B:0088H.0       SYMBOL        IT0
  B:0088H.2       SYMBOL        IT1
  B:00D0H.2       SYMBOL        OV
  B:00D0H.0       SYMBOL        P
  D:0080H         SYMBOL        P0
  D:0090H         SYMBOL        P1
  D:00A0H         SYMBOL        P2
  D:00B0H         SYMBOL        P3
  D:00E8H         SYMBOL        P4
  D:00DAH         SYMBOL        P4ENON
  N:0000H         SYMBOL        PBPSTACK
  N:0000H         SYMBOL        PBPSTACKTOP
  D:0087H         SYMBOL        PCON
  N:0000H         SYMBOL        PDATALEN
  N:0000H         SYMBOL        PDATASTART
  N:0000H         SYMBOL        PPAGE
  N:0000H         SYMBOL        PPAGEENABLE
  D:00A0H         SYMBOL        PPAGE_SFR
  B:00B8H.4       SYMBOL        PS
  D:00D0H         SYMBOL        PSW
  B:00B8H.1       SYMBOL        PT0
  B:00B8H.3       SYMBOL        PT1
  B:00B8H.5       SYMBOL        PT2
  B:00B8H.0       SYMBOL        PX0
  B:00B8H.2       SYMBOL        PX1
  B:0098H.2       SYMBOL        RB8
  D:00CBH         SYMBOL        RCAP2H
  D:00CAH         SYMBOL        RCAP2L
  B:00C8H.5       SYMBOL        RCLK
  B:00B0H.7       SYMBOL        RD
  B:0098H.4       SYMBOL        REN
  D:0030H         SYMBOL        RESERVED_DATA
  B:0098H.0       SYMBOL        RI
  B:00D0H.3       SYMBOL        RS0
  B:00D0H.4       SYMBOL        RS1
  B:00B0H.0       SYMBOL        RXD
  D:0099H         SYMBOL        SBUF
  D:0098H         SYMBOL        SCON
  B:0098H.7       SYMBOL        SM0
  B:0098H.6       SYMBOL        SM1
  B:0098H.5       SYMBOL        SM2
  D:0081H         SYMBOL        SP
  I:0065H         SYMBOL        STACK_LABEL
  C:305FH         SYMBOL        STARTUP1
  B:00B0H.4       SYMBOL        T0
  B:00B0H.5       SYMBOL        T1
  B:0090H.0       SYMBOL        T2
  D:00C8H         SYMBOL        T2CON
BL51 BANKED LINKER/LOCATER V6.00                                                      12/23/2015  16:04:37  PAGE 37


  B:0090H.1       SYMBOL        T2EX
  B:0098H.3       SYMBOL        TB8
  B:00C8H.4       SYMBOL        TCLK
  D:0088H         SYMBOL        TCON
  B:0088H.5       SYMBOL        TF0
  B:0088H.7       SYMBOL        TF1
  B:00C8H.7       SYMBOL        TF2
  D:008CH         SYMBOL        TH0
  D:008DH         SYMBOL        TH1
  D:00CDH         SYMBOL        TH2
  B:0098H.1       SYMBOL        TI
  D:008AH         SYMBOL        TL0
  D:008BH         SYMBOL        TL1
  D:00CCH         SYMBOL        TL2
  D:0089H         SYMBOL        TMOD
  B:0088H.4       SYMBOL        TR0
  B:0088H.6       SYMBOL        TR1
  B:00C8H.2       SYMBOL        TR2
  B:00B0H.1       SYMBOL        TXD
  C:3022H         SYMBOL        VECTOR_INT0_ET0
  C:303EH         SYMBOL        VEC_CLEAN_UART_ISR
  B:00D8H.1       SYMBOL        WDTEN
  B:00B0H.6       SYMBOL        WR
  N:0000H         SYMBOL        XBPSTACK
  N:0000H         SYMBOL        XBPSTACKTOP
  N:8000H         SYMBOL        XDATALEN
  C:306FH         SYMBOL        XDATALOOP
  N:0000H         SYMBOL        XDATASTART
  C:0000H         LINE#         103
  C:0003H         LINE#         106
  C:FFFDH         LINE#         109
  C:000BH         LINE#         112
  C:3022H         LINE#         117
  C:3024H         LINE#         119
  C:3026H         LINE#         120
  C:3028H         LINE#         121
  C:302AH         LINE#         122
  C:302CH         LINE#         123
  C:302EH         LINE#         124
  C:3031H         LINE#         128
  C:3033H         LINE#         129
  C:3035H         LINE#         130
  C:3037H         LINE#         131
  C:3039H         LINE#         132
  C:303BH         LINE#         134
  C:303DH         LINE#         135
  C:303EH         LINE#         138
  C:3040H         LINE#         140
  C:3042H         LINE#         141
  C:3044H         LINE#         142
  C:3046H         LINE#         143
  C:3048H         LINE#         144
  C:304AH         LINE#         145
  C:304DH         LINE#         147
  C:3050H         LINE#         149
  C:3052H         LINE#         150
  C:3054H         LINE#         151
BL51 BANKED LINKER/LOCATER V6.00                                                      12/23/2015  16:04:37  PAGE 38


  C:3056H         LINE#         152
  C:3058H         LINE#         153
  C:305AH         LINE#         155
  C:305CH         LINE#         156
  C:305DH         LINE#         159
  C:305FH         LINE#         161
  C:3061H         LINE#         164
  C:3063H         LINE#         165
  C:3064H         LINE#         166
  C:3065H         LINE#         167
  C:3067H         LINE#         171
  C:306AH         LINE#         172
  C:306CH         LINE#         176
  C:306EH         LINE#         178
  C:306FH         LINE#         179
  C:3070H         LINE#         180
  C:3071H         LINE#         181
  C:3073H         LINE#         182
  C:3075H         LINE#         217
  C:3078H         LINE#         219
  C:307AH         LINE#         220
  C:307CH         LINE#         221
  C:307EH         LINE#         222
  C:3080H         LINE#         223
  C:3082H         LINE#         227
  C:3085H         LINE#         230
  C:3088H         LINE#         231
  C:308AH         LINE#         235
  C:308CH         LINE#         236
  C:308EH         LINE#         237
  C:3090H         LINE#         238
  C:3092H         LINE#         239
  C:3094H         LINE#         240
  C:3096H         LINE#         241
  C:3098H         LINE#         245
  C:309AH         LINE#         246
  C:309CH         LINE#         247
  C:309EH         LINE#         250
  C:30A1H         LINE#         253
  C:30A4H         LINE#         256
  C:30A6H         LINE#         257
  C:30A8H         LINE#         258
  C:30AAH         LINE#         259
  C:30ACH         LINE#         260
  C:30AEH         LINE#         261
  C:30B0H         LINE#         262
  C:30B2H         LINE#         263
  C:0059H         LINE#         272
  C:005BH         LINE#         274
  C:005EH         LINE#         275
  C:0061H         LINE#         276
  C:0064H         LINE#         277
  C:0067H         LINE#         278
  C:006AH         LINE#         279
  C:006CH         LINE#         280
  C:006EH         LINE#         283
  C:0070H         LINE#         284
BL51 BANKED LINKER/LOCATER V6.00                                                      12/23/2015  16:04:37  PAGE 39


  C:0072H         LINE#         285
  C:0074H         LINE#         286
  C:0077H         LINE#         287
  C:0079H         LINE#         290
  C:007CH         LINE#         293
  C:007EH         LINE#         294
  C:0081H         LINE#         296
  C:0084H         LINE#         299
  C:0086H         LINE#         300
  C:0088H         LINE#         301
  C:008AH         LINE#         302
  C:008DH         LINE#         303
  C:008FH         LINE#         306
  C:0092H         LINE#         309
  C:0094H         LINE#         310
  C:0097H         LINE#         312
  C:009AH         LINE#         315
  C:009CH         LINE#         316
  C:009EH         LINE#         317
  C:00A0H         LINE#         318
  C:00A3H         LINE#         319
  C:00A5H         LINE#         322
  C:00A8H         LINE#         325
  C:00AAH         LINE#         326
  C:00ADH         LINE#         328
  C:00B0H         LINE#         331
  C:00B2H         LINE#         333
  -------         ENDMOD        ?C_STARTUP

  -------         MODULE        EE_DEFAULT
  C:0000H         SYMBOL        _ICE_DUMMY_
  C:0E5CH         PUBLIC        EE_Default
  -------         ENDMOD        EE_DEFAULT

  -------         MODULE        DMA
  C:0000H         SYMBOL        _ICE_DUMMY_
  D:0090H         PUBLIC        P1
  D:00B0H         PUBLIC        P3
  B:00A8H.7       PUBLIC        EA
 C1:DA19H         PUBLIC        IP210_DMA_Idle_Restore
  D:00A8H         PUBLIC        IE
  D:00B8H         PUBLIC        IP
  D:0087H         PUBLIC        PCON
  D:0098H         PUBLIC        SCON
  D:0088H         PUBLIC        TCON
 C1:C247H         PUBLIC        _IP210_DMA
  B:00A8H.0       PUBLIC        EX0
 C1:D955H         PUBLIC        IP210_DMA_Set_Idle
  D:00D8H         PUBLIC        WDTCON
 C1:D6B4H         PUBLIC        _Fill_DMA_Setting
  D:00C8H         PUBLIC        T2CON
  D:00E1H         PUBLIC        PDCON
 C1:DAA6H         PUBLIC        IP210_Wait_DMA_Complete
  D:00D0H         PUBLIC        PSW

  -------         PROC BANK=1   IP210_DMA_SET_IDLE
  -------         DO            
BL51 BANKED LINKER/LOCATER V6.00                                                      12/23/2015  16:04:37  PAGE 40


  D:0007H         SYMBOL        temp_ier
  -------         ENDDO         
 C1:D955H         LINE#         27
 C1:D955H         LINE#         28
 C1:D955H         LINE#         34
 C1:D959H         LINE#         36
 C1:D95DH         LINE#         37
 C1:D95FH         LINE#         38
 C1:D962H         LINE#         39
 C1:D965H         LINE#         41
 C1:D967H         LINE#         42
 C1:D969H         LINE#         44
 C1:D96CH         LINE#         45
  -------         ENDPROC       IP210_DMA_SET_IDLE

  -------         PROC BANK=1   IP210_DMA_IDLE_RESTORE
  -------         DO            
  D:0007H         SYMBOL        temp_ier
  -------         ENDDO         
 C1:DA19H         LINE#         58
 C1:DA19H         LINE#         59
 C1:DA19H         LINE#         64
 C1:DA1EH         LINE#         66
 C1:DA22H         LINE#         67
 C1:DA24H         LINE#         68
 C1:DA27H         LINE#         69
 C1:DA2AH         LINE#         71
  -------         ENDPROC       IP210_DMA_IDLE_RESTORE

  -------         PROC BANK=1   _FILL_DMA_SETTING
  X:37A9H         SYMBOL        src_addr
  D:0004H         SYMBOL        des_addr
  D:0002H         SYMBOL        length
 C1:D6B4H         LINE#         87
 C1:D6BCH         LINE#         88
 C1:D6BCH         LINE#         90
 C1:D6C4H         LINE#         91
 C1:D6CDH         LINE#         93
 C1:D6D2H         LINE#         94
 C1:D6D7H         LINE#         96
 C1:D6DCH         LINE#         97
 C1:D6E1H         LINE#         98
  -------         ENDPROC       _FILL_DMA_SETTING

  -------         PROC BANK=1   IP210_WAIT_DMA_COMPLETE
  -------         DO            
  D:0007H         SYMBOL        b
  -------         ENDDO         
 C1:DAA6H         LINE#         111
 C1:DAA6H         LINE#         112
 C1:DAA6H         LINE#         117
 C1:DAA6H         LINE#         118
 C1:DAABH         LINE#         119
 C1:DAAFH         LINE#         122
  -------         ENDPROC       IP210_WAIT_DMA_COMPLETE

  -------         PROC BANK=1   _IP210_DMA
BL51 BANKED LINKER/LOCATER V6.00                                                      12/23/2015  16:04:37  PAGE 41


  X:3506H         SYMBOL        src_addr
  X:3508H         SYMBOL        des_addr
  X:350AH         SYMBOL        length
  X:350CH         SYMBOL        cmd
  -------         DO            
  D:0001H         SYMBOL        i
  X:350DH         SYMBOL        loop_count
  X:350EH         SYMBOL        mode
  -------         ENDDO         
 C1:C247H         LINE#         138
 C1:C25BH         LINE#         139
 C1:C25BH         LINE#         144
 C1:C263H         LINE#         145
 C1:C26BH         LINE#         146
 C1:C26BH         LINE#         149
 C1:C26EH         LINE#         150
 C1:C26EH         LINE#         152
 C1:C27CH         LINE#         153
 C1:C28BH         LINE#         154
 C1:C28BH         LINE#         155
 C1:C296H         LINE#         156
 C1:C296H         LINE#         157
 C1:C29EH         LINE#         158
 C1:C2ABH         LINE#         160
 C1:C2BDH         LINE#         162
 C1:C2C5H         LINE#         164
 C1:C2CCH         LINE#         165
 C1:C2CCH         LINE#         166
 C1:C2CFH         LINE#         168
 C1:C2CFH         LINE#         170
 C1:C2D2H         LINE#         171
 C1:C2D9H         LINE#         172
 C1:C2DCH         LINE#         174
 C1:C2EAH         LINE#         175
 C1:C2F8H         LINE#         176
 C1:C306H         LINE#         177
 C1:C30AH         LINE#         180
 C1:C30CH         LINE#         181
  -------         ENDPROC       _IP210_DMA
  -------         ENDMOD        DMA

  -------         MODULE        EEPROM
  C:0000H         SYMBOL        _ICE_DUMMY_
 C1:CF03H         PUBLIC        _EEPROM_Read_Byte
  D:0090H         PUBLIC        P1
  D:00B0H         PUBLIC        P3
  D:00A8H         PUBLIC        IE
 C1:D558H         PUBLIC        _EEPROM_Write_Byte
  D:00B8H         PUBLIC        IP
  D:0098H         PUBLIC        SCON
  D:0088H         PUBLIC        TCON
  D:00D8H         PUBLIC        WDTCON
  D:00C8H         PUBLIC        T2CON
 C1:DAB8H         PUBLIC        EEPROM_Enable
  D:00D0H         PUBLIC        PSW

  -------         PROC BANK=1   EEPROM_ENABLE
BL51 BANKED LINKER/LOCATER V6.00                                                      12/23/2015  16:04:37  PAGE 42


  -------         DO            
  D:0007H         SYMBOL        byte_data
  -------         ENDDO         
 C1:DAB8H         LINE#         29
 C1:DAB8H         LINE#         30
 C1:DAB8H         LINE#         33
 C1:DABCH         LINE#         35
 C1:DABFH         LINE#         40
  -------         ENDPROC       EEPROM_ENABLE

  -------         PROC BANK=1   _EEPROM_READ_BYTE
  D:0006H         SYMBOL        addr
  X:374DH         SYMBOL        read_data
  -------         DO            
  D:0005H         SYMBOL        EE_addr
  D:0007H         SYMBOL        EE_id
  D:0006H         SYMBOL        byte_data
  D:0004H         SYMBOL        ii
  D:0007H         SYMBOL        i
  -------         ENDDO         
 C1:CF03H         LINE#         84
 C1:CF0EH         LINE#         85
 C1:CF0EH         LINE#         91
 C1:CF10H         LINE#         92
 C1:CF14H         LINE#         94
 C1:CF19H         LINE#         95
 C1:CF1CH         LINE#         98
 C1:CF1EH         LINE#         99
 C1:CF1EH         LINE#         100
 C1:CF24H         LINE#         102
 C1:CF27H         LINE#         103
 C1:CF27H         LINE#         104
 C1:CF2CH         LINE#         105
 C1:CF30H         LINE#         106
 C1:CF30H         LINE#         108
 C1:CF30H         LINE#         109
 C1:CF30H         LINE#         110
 C1:CF35H         LINE#         111
 C1:CF3EH         LINE#         114
 C1:CF42H         LINE#         115
 C1:CF42H         LINE#         116
 C1:CF56H         LINE#         117
 C1:CF59H         LINE#         118
 C1:CF59H         LINE#         121
 C1:CF5EH         LINE#         123
 C1:CF60H         LINE#         124
  -------         ENDPROC       _EEPROM_READ_BYTE

  -------         PROC BANK=1   _EEPROM_WRITE_BYTE
  D:0006H         SYMBOL        addr
  D:0005H         SYMBOL        write_data
  -------         DO            
  D:0004H         SYMBOL        EE_addr
  D:0007H         SYMBOL        EE_id
  D:0006H         SYMBOL        byte_data
  D:0004H         SYMBOL        ii
  D:0007H         SYMBOL        i
BL51 BANKED LINKER/LOCATER V6.00                                                      12/23/2015  16:04:37  PAGE 43


  -------         ENDDO         
 C1:D558H         LINE#         142
 C1:D558H         LINE#         143
 C1:D558H         LINE#         149
 C1:D55AH         LINE#         150
 C1:D55EH         LINE#         152
 C1:D563H         LINE#         153
 C1:D566H         LINE#         154
 C1:D569H         LINE#         158
 C1:D56BH         LINE#         159
 C1:D56BH         LINE#         160
 C1:D570H         LINE#         162
 C1:D572H         LINE#         163
 C1:D572H         LINE#         164
 C1:D577H         LINE#         165
 C1:D57BH         LINE#         166
 C1:D57BH         LINE#         168
 C1:D57BH         LINE#         169
 C1:D57BH         LINE#         170
 C1:D580H         LINE#         171
 C1:D589H         LINE#         174
 C1:D58DH         LINE#         175
 C1:D58DH         LINE#         176
 C1:D590H         LINE#         177
 C1:D590H         LINE#         180
 C1:D595H         LINE#         181
 C1:D597H         LINE#         183
  -------         ENDPROC       _EEPROM_WRITE_BYTE
  -------         ENDMOD        EEPROM

  -------         MODULE        SERIAL
  C:0000H         SYMBOL        _ICE_DUMMY_
  D:0090H         PUBLIC        P1
  D:00B0H         PUBLIC        P3
  D:00A8H         PUBLIC        IE
  D:00B8H         PUBLIC        IP
  B:0098H.0       PUBLIC        RI
  B:0098H.1       PUBLIC        TI
 C1:DA2BH         PUBLIC        _Serial_Check_Rx
  D:0099H         PUBLIC        SBUF
  D:0087H         PUBLIC        PCON
  D:0098H         PUBLIC        SCON
  D:0089H         PUBLIC        TMOD
  D:0088H         PUBLIC        TCON
 C1:DA90H         PUBLIC        Serial_Polling_Rx
  D:008DH         PUBLIC        TH1
  D:00D8H         PUBLIC        WDTCON
  B:0088H.6       PUBLIC        TR1
 C1:D9DFH         PUBLIC        Serial_Init
  D:00C8H         PUBLIC        T2CON
  D:00D0H         PUBLIC        PSW

  -------         PROC BANK=1   SERIAL_INIT
 C1:D9DFH         LINE#         34
 C1:D9DFH         LINE#         35
 C1:D9DFH         LINE#         36
 C1:D9E2H         LINE#         37
BL51 BANKED LINKER/LOCATER V6.00                                                      12/23/2015  16:04:37  PAGE 44


 C1:D9E5H         LINE#         38
 C1:D9E8H         LINE#         39
 C1:D9EBH         LINE#         40
 C1:D9EEH         LINE#         41
 C1:D9F0H         LINE#         42
 C1:D9F2H         LINE#         43
  -------         ENDPROC       SERIAL_INIT

  -------         PROC BANK=1   _SERIAL_CHECK_RX
  D:0007H         SYMBOL        rx_byte
 C1:DA2BH         LINE#         59
 C1:DA2BH         LINE#         60
 C1:DA2BH         LINE#         61
 C1:DA2EH         LINE#         62
 C1:DA2EH         LINE#         63
 C1:DA30H         LINE#         64
 C1:DA3AH         LINE#         65
 C1:DA3AH         LINE#         66
 C1:DA3CH         LINE#         67
  -------         ENDPROC       _SERIAL_CHECK_RX

  -------         PROC BANK=1   SERIAL_POLLING_RX
 C1:DA90H         LINE#         82
 C1:DA90H         LINE#         83
 C1:DA90H         LINE#         84
 C1:DA93H         LINE#         85
 C1:DA93H         LINE#         86
 C1:DA95H         LINE#         87
 C1:DA98H         LINE#         88
 C1:DA98H         LINE#         89
 C1:DA9AH         LINE#         90
  -------         ENDPROC       SERIAL_POLLING_RX
  -------         ENDMOD        SERIAL

  -------         MODULE        MACDRIVER
  C:0000H         SYMBOL        _ICE_DUMMY_
  D:0080H         PUBLIC        P0
  D:0090H         PUBLIC        P1
 C1:D2D9H         PUBLIC        EthernetReceiveFreeSpace
  D:00A0H         PUBLIC        P2
  D:00B0H         PUBLIC        P3
  D:00E8H         PUBLIC        P4
  B:00D8H.1       PUBLIC        WDTEN
  X:34A7H         PUBLIC        RWmismatch
 C1:D86AH         PUBLIC        MAC_Address_fill
  D:00A8H         PUBLIC        IE
  X:34A9H         PUBLIC        Tx_Current
  D:00B8H         PUBLIC        IP
 C1:CC02H         PUBLIC        _uip_add32
 C1:C3D3H         PUBLIC        EthernetReceiveSkip
 C1:D905H         PUBLIC        wait_packet_sent
 C1:7EF2H         PUBLIC        _EthernetSend
  B:00D8H.3       PUBLIC        WDT_DIS
  D:0098H         PUBLIC        SCON
  D:0088H         PUBLIC        TCON
  X:34AAH         PUBLIC        turn_around
 C1:D328H         PUBLIC        check_MAC_status
BL51 BANKED LINKER/LOCATER V6.00                                                      12/23/2015  16:04:37  PAGE 45


  C:3B2AH         SYMBOL        _?ix1000
 C1:D88BH         PUBLIC        IP_Address_fill
  D:00D8H         PUBLIC        WDTCON
 C1:D7EFH         PUBLIC        TFD_index
 C1:C48FH         PUBLIC        _EthernetReceiveLookAhead
  X:34ABH         PUBLIC        Tx_bak
  X:34ACH         PUBLIC        TxTime
 C1:D8CBH         PUBLIC        _Resize_RX_Buf
 C1:B2E2H         PUBLIC        _check_packet_type
 C1:C89FH         PUBLIC        _EthernetSend2
  D:00C8H         PUBLIC        T2CON
 C1:D70FH         PUBLIC        MAC_init
  X:34B0H         PUBLIC        Read_Point
 C1:A0DCH         PUBLIC        _EthernetReceive
  D:00D0H         PUBLIC        PSW

  -------         PROC BANK=1   MAC_ADDRESS_FILL
  -------         DO            
  D:0007H         SYMBOL        i
  -------         ENDDO         
 C1:D86AH         LINE#         69
 C1:D86AH         LINE#         70
 C1:D86AH         LINE#         71
 C1:D86CH         LINE#         72
 C1:D88AH         LINE#         73
  -------         ENDPROC       MAC_ADDRESS_FILL

  -------         PROC BANK=1   IP_ADDRESS_FILL
  -------         DO            
  D:0007H         SYMBOL        i
  -------         ENDDO         
 C1:D88BH         LINE#         87
 C1:D88BH         LINE#         88
 C1:D88BH         LINE#         89
 C1:D88DH         LINE#         90
 C1:D8ABH         LINE#         91
  -------         ENDPROC       IP_ADDRESS_FILL

  -------         PROC BANK=1   _RESIZE_RX_BUF
  D:0007H         SYMBOL        rx_start
  -------         DO            
  D:0005H         SYMBOL        MAC_Setting
  -------         ENDDO         
 C1:D8CBH         LINE#         105
 C1:D8CBH         LINE#         106
 C1:D8D0H         LINE#         108
 C1:D8D3H         LINE#         109
 C1:D8D8H         LINE#         110
 C1:D8E0H         LINE#         111
 C1:D8E7H         LINE#         112
  -------         ENDPROC       _RESIZE_RX_BUF

  -------         PROC BANK=1   MAC_INIT
  -------         DO            
  D:0007H         SYMBOL        reg_value
  -------         ENDDO         
 C1:D70FH         LINE#         125
BL51 BANKED LINKER/LOCATER V6.00                                                      12/23/2015  16:04:37  PAGE 46


 C1:D70FH         LINE#         126
 C1:D70FH         LINE#         129
 C1:D715H         LINE#         131
 C1:D71BH         LINE#         133
 C1:D71EH         LINE#         135
 C1:D722H         LINE#         136
 C1:D727H         LINE#         137
 C1:D728H         LINE#         138
 C1:D733H         LINE#         140
 C1:D736H         LINE#         141
  -------         ENDPROC       MAC_INIT
  -------         PROC          L?0102
  -------         ENDPROC       L?0102

  -------         PROC BANK=1   TFD_INDEX
 C1:D7EFH         LINE#         158
 C1:D7EFH         LINE#         159
 C1:D7EFH         LINE#         160
 C1:D7F7H         LINE#         161
 C1:D7FCH         LINE#         162
 C1:D800H         LINE#         163
  -------         ENDPROC       TFD_INDEX

  -------         PROC BANK=1   _CHECK_PACKET_TYPE
  X:361CH         SYMBOL        tx_buf
  -------         DO            
  X:361FH         SYMBOL        ether_type_offset
  X:3620H         SYMBOL        ip_type_offset
  X:3621H         SYMBOL        VLAN_TAG
  X:3622H         SYMBOL        value
  -------         ENDDO         
 C1:B2E2H         LINE#         196
 C1:B2EDH         LINE#         197
 C1:B2EDH         LINE#         198
 C1:B2F2H         LINE#         200
 C1:B2F9H         LINE#         202
 C1:B2FCH         LINE#         207
 C1:B348H         LINE#         208
 C1:B348H         LINE#         209
 C1:B34EH         LINE#         210
 C1:B352H         LINE#         211
 C1:B354H         LINE#         214
 C1:B354H         LINE#         215
 C1:B35AH         LINE#         216
 C1:B35EH         LINE#         217
 C1:B35EH         LINE#         219
 C1:B3A6H         LINE#         220
 C1:B3A6H         LINE#         221
 C1:B3AEH         LINE#         222
 C1:B3B3H         LINE#         223
 C1:B3B6H         LINE#         224
 C1:B3B6H         LINE#         227
 C1:B3B6H         LINE#         228
 C1:B3BCH         LINE#         229
 C1:B3BFH         LINE#         231
 C1:B3DDH         LINE#         232
 C1:B3DDH         LINE#         233
BL51 BANKED LINKER/LOCATER V6.00                                                      12/23/2015  16:04:37  PAGE 47


 C1:B3E7H         LINE#         234
 C1:B3EAH         LINE#         235
 C1:B3EEH         LINE#         236
 C1:B3F1H         LINE#         237
 C1:B3FAH         LINE#         238
 C1:B3FDH         LINE#         239
 C1:B3FDH         LINE#         240
 C1:B40AH         LINE#         241
 C1:B40DH         LINE#         242
 C1:B40FH         LINE#         243
 C1:B40FH         LINE#         244
  -------         ENDPROC       _CHECK_PACKET_TYPE

  -------         PROC BANK=1   _ETHERNETSEND
  X:33C4H         SYMBOL        tx_buf
  X:33C7H         SYMBOL        plen
  -------         DO            
  X:33C9H         SYMBOL        ptype
  X:33CAH         SYMBOL        chr
  X:33CBH         SYMBOL        send_buf
  X:33CEH         SYMBOL        tag_buf
  X:33D2H         SYMBOL        f_tag
  X:33D3H         SYMBOL        value
  -------         ENDDO         
 C1:7EF2H         LINE#         285
 C1:7F05H         LINE#         286
 C1:7F05H         LINE#         287
 C1:7F0CH         LINE#         288
 C1:7F15H         LINE#         290
 C1:7F28H         LINE#         291
 C1:7F2FH         LINE#         292
 C1:7F4CH         LINE#         293
 C1:7F4CH         LINE#         294
 C1:7F5EH         LINE#         295
 C1:7F6CH         LINE#         296
 C1:7F7AH         LINE#         297
 C1:7F80H         LINE#         299
 C1:7F83H         LINE#         304
 C1:7F98H         LINE#         305
 C1:7F98H         LINE#         306
 C1:7F98H         LINE#         307
 C1:7F9BH         LINE#         309
 C1:7F9BH         LINE#         311
 C1:7F9EH         LINE#         316
 C1:7FDEH         LINE#         317
 C1:7FDEH         LINE#         318
 C1:7FF4H         LINE#         319
 C1:7FF4H         LINE#         320
 C1:8002H         LINE#         321
 C1:8010H         LINE#         322
 C1:8016H         LINE#         323
 C1:8027H         LINE#         324
 C1:8053H         LINE#         325
 C1:8074H         LINE#         326
 C1:8077H         LINE#         330
 C1:80ABH         LINE#         331
 C1:80ABH         LINE#         332
BL51 BANKED LINKER/LOCATER V6.00                                                      12/23/2015  16:04:37  PAGE 48


 C1:80B9H         LINE#         333
 C1:80C7H         LINE#         334
 C1:80CDH         LINE#         335
 C1:80E4H         LINE#         336
 C1:8110H         LINE#         337
 C1:8131H         LINE#         338
 C1:8136H         LINE#         339
 C1:8138H         LINE#         341
 C1:8153H         LINE#         342
 C1:8153H         LINE#         344
 C1:816AH         LINE#         345
 C1:816DH         LINE#         346
 C1:817EH         LINE#         347
 C1:8181H         LINE#         348
 C1:8194H         LINE#         351
 C1:8197H         LINE#         356
 C1:81B5H         LINE#         357
 C1:81CFH         LINE#         359
 C1:81E2H         LINE#         360
 C1:81EFH         LINE#         361
 C1:81F3H         LINE#         362
 C1:8200H         LINE#         363
 C1:8203H         LINE#         364
 C1:8203H         LINE#         368
 C1:8206H         LINE#         371
 C1:820EH         LINE#         372
 C1:8210H         LINE#         373
 C1:8214H         LINE#         374
 C1:821AH         LINE#         375
 C1:8236H         LINE#         376
 C1:824FH         LINE#         377
 C1:8254H         LINE#         378
 C1:8261H         LINE#         379
 C1:8261H         LINE#         382
 C1:8264H         LINE#         387
 C1:8266H         LINE#         388
  -------         ENDPROC       _ETHERNETSEND

  -------         PROC BANK=1   _ETHERNETSEND2
  D:0001H         SYMBOL        tx_buf
  X:3750H         SYMBOL        plen
  -------         DO            
  X:3752H         SYMBOL        ptype
  D:0007H         SYMBOL        chr
  -------         ENDDO         
 C1:C89FH         LINE#         415
 C1:C8A7H         LINE#         416
 C1:C8AAH         LINE#         417
 C1:C8C1H         LINE#         418
 C1:C8C4H         LINE#         419
 C1:C8D5H         LINE#         420
 C1:C8D8H         LINE#         422
 C1:C8EFH         LINE#         423
 C1:C909H         LINE#         425
 C1:C91CH         LINE#         426
 C1:C924H         LINE#         427
 C1:C928H         LINE#         428
BL51 BANKED LINKER/LOCATER V6.00                                                      12/23/2015  16:04:37  PAGE 49


 C1:C933H         LINE#         429
 C1:C935H         LINE#         430
 C1:C935H         LINE#         434
 C1:C938H         LINE#         435
 C1:C93AH         LINE#         436
  -------         ENDPROC       _ETHERNETSEND2

  -------         PROC BANK=1   _ETHERNETRECEIVELOOKAHEAD
  X:3623H         SYMBOL        len
  -------         DO            
  X:3626H         SYMBOL        pkt_addr
  X:3628H         SYMBOL        packet_len
  -------         ENDDO         
 C1:C48FH         LINE#         493
 C1:C49AH         LINE#         494
 C1:C4A9H         LINE#         495
 C1:C4B0H         LINE#         497
 C1:C4BFH         LINE#         498
 C1:C4D5H         LINE#         499
 C1:C4DFH         LINE#         500
 C1:C4E8H         LINE#         501
 C1:C4F1H         LINE#         502
 C1:C504H         LINE#         504
 C1:C518H         LINE#         505
 C1:C530H         LINE#         506
 C1:C542H         LINE#         507
 C1:C542H         LINE#         508
  -------         ENDPROC       _ETHERNETRECEIVELOOKAHEAD

  -------         PROC BANK=1   CHECK_MAC_STATUS
 C1:D328H         LINE#         511
 C1:D328H         LINE#         512
 C1:D328H         LINE#         513
 C1:D346H         LINE#         514
 C1:D346H         LINE#         515
 C1:D354H         LINE#         516
 C1:D354H         LINE#         517
 C1:D363H         LINE#         518
 C1:D363H         LINE#         519
 C1:D36CH         LINE#         520
 C1:D370H         LINE#         521
 C1:D372H         LINE#         522
 C1:D372H         LINE#         523
  -------         ENDPROC       CHECK_MAC_STATUS

  -------         PROC BANK=1   _ETHERNETRECEIVE
  X:342CH         SYMBOL        rx_buf
  -------         DO            
  X:342FH         SYMBOL        packet_len
  X:3431H         SYMBOL        pkt_addr
  X:3433H         SYMBOL        p_type
  -------         DO            
  X:3434H         SYMBOL        fst_len
  X:3436H         SYMBOL        sec_len
  X:3438H         SYMBOL        offset
  -------         ENDDO         
  -------         ENDDO         
BL51 BANKED LINKER/LOCATER V6.00                                                      12/23/2015  16:04:37  PAGE 50


 C1:A0DCH         LINE#         542
 C1:A0E7H         LINE#         543
 C1:A0E7H         LINE#         545
 C1:A0F6H         LINE#         546
 C1:A0F9H         LINE#         547
 C1:A0FDH         LINE#         548
 C1:A0FDH         LINE#         549
 C1:A104H         LINE#         551
 C1:A113H         LINE#         552
 C1:A129H         LINE#         553
 C1:A142H         LINE#         554
 C1:A14EH         LINE#         555
 C1:A157H         LINE#         556
 C1:A160H         LINE#         557
 C1:A173H         LINE#         559
 C1:A187H         LINE#         561
 C1:A195H         LINE#         563
 C1:A1B4H         LINE#         564
 C1:A1C2H         LINE#         565
 C1:A1C7H         LINE#         566
 C1:A1D6H         LINE#         567
 C1:A1F1H         LINE#         568
 C1:A1F8H         LINE#         569
 C1:A219H         LINE#         571
 C1:A21FH         LINE#         572
 C1:A249H         LINE#         573
 C1:A24BH         LINE#         575
 C1:A26DH         LINE#         578
 C1:A281H         LINE#         579
 C1:A28EH         LINE#         580
 C1:A28EH         LINE#         581
 C1:A2A8H         LINE#         582
 C1:A2B2H         LINE#         583
 C1:A2B2H         LINE#         585
 C1:A2C2H         LINE#         586
 C1:A2C8H         LINE#         587
 C1:A2D2H         LINE#         588
 C1:A2E0H         LINE#         590
 C1:A2E8H         LINE#         591
  -------         ENDPROC       _ETHERNETRECEIVE

  -------         PROC BANK=1   ETHERNETRECEIVESKIP
  -------         DO            
  X:37ABH         SYMBOL        packet_len
  D:0004H         SYMBOL        pkt_addr
  -------         ENDDO         
 C1:C3D3H         LINE#         601
 C1:C3D3H         LINE#         602
 C1:C3D3H         LINE#         603
 C1:C3E3H         LINE#         604
 C1:C3E7H         LINE#         606
 C1:C3E7H         LINE#         607
 C1:C3F5H         LINE#         608
 C1:C3FFH         LINE#         609
 C1:C408H         LINE#         610
 C1:C411H         LINE#         611
 C1:C41DH         LINE#         613
BL51 BANKED LINKER/LOCATER V6.00                                                      12/23/2015  16:04:37  PAGE 51


 C1:C431H         LINE#         615
 C1:C445H         LINE#         616
 C1:C44EH         LINE#         617
 C1:C44EH         LINE#         618
 C1:C462H         LINE#         619
 C1:C46CH         LINE#         620
 C1:C46CH         LINE#         622
 C1:C474H         LINE#         623
 C1:C47AH         LINE#         624
 C1:C47EH         LINE#         625
 C1:C486H         LINE#         626
 C1:C48EH         LINE#         627
  -------         ENDPROC       ETHERNETRECEIVESKIP

  -------         PROC BANK=1   ETHERNETRECEIVEFREESPACE
  -------         DO            
  D:0004H         SYMBOL        WritePtr
  -------         ENDDO         
 C1:D2D9H         LINE#         699
 C1:D2D9H         LINE#         700
 C1:D2E5H         LINE#         701
 C1:D2F1H         LINE#         702
 C1:D2F5H         LINE#         703
 C1:D303H         LINE#         704
 C1:D30AH         LINE#         706
 C1:D327H         LINE#         707
  -------         ENDPROC       ETHERNETRECEIVEFREESPACE

  -------         PROC BANK=1   _UIP_ADD32
  D:0001H         SYMBOL        op32
  X:37ADH         SYMBOL        op16
 C1:CC02H         LINE#         814
 C1:CC0AH         LINE#         815
 C1:CC0AH         LINE#         817
 C1:CC15H         LINE#         818
 C1:CC25H         LINE#         819
 C1:CC2FH         LINE#         820
 C1:CC36H         LINE#         822
 C1:CC4BH         LINE#         823
 C1:CC51H         LINE#         824
 C1:CC54H         LINE#         825
 C1:CC5AH         LINE#         826
 C1:CC5AH         LINE#         827
 C1:CC5AH         LINE#         830
 C1:CC67H         LINE#         831
 C1:CC6DH         LINE#         832
 C1:CC70H         LINE#         833
 C1:CC76H         LINE#         834
 C1:CC79H         LINE#         835
 C1:CC7FH         LINE#         836
 C1:CC7FH         LINE#         837
 C1:CC7FH         LINE#         838
 C1:CC7FH         LINE#         839
  -------         ENDPROC       _UIP_ADD32

  -------         PROC BANK=1   WAIT_PACKET_SENT
 C1:D905H         LINE#         845
BL51 BANKED LINKER/LOCATER V6.00                                                      12/23/2015  16:04:37  PAGE 52


 C1:D905H         LINE#         846
 C1:D905H         LINE#         848
 C1:D905H         LINE#         849
 C1:D908H         LINE#         850
 C1:D91FH         LINE#         851
  -------         ENDPROC       WAIT_PACKET_SENT
  -------         ENDMOD        MACDRIVER

  -------         MODULE        TIMER
  C:0000H         SYMBOL        _ICE_DUMMY_
 C1:D93BH         PUBLIC        Timercounter_Init
  D:0090H         PUBLIC        P1
  D:00B0H         PUBLIC        P3
 C1:D8ACH         PUBLIC        Timer_Counter_Overflow
  D:00A8H         PUBLIC        IE
  D:00B8H         PUBLIC        IP
  D:00CBH         PUBLIC        RCAP2H
  D:00CAH         PUBLIC        RCAP2L
  X:3595H         PUBLIC        timercounter
 C1:DA78H         PUBLIC        Timer0_Init
 C1:DA6AH         PUBLIC        Timer2_Init
  X:3599H         PUBLIC        high_timercounter
 C1:DAEAH         PUBLIC        Timercounter0_Init
  D:0098H         PUBLIC        SCON
  D:0089H         PUBLIC        TMOD
  D:0088H         PUBLIC        TCON
 C1:D283H         PUBLIC        IP210_Write_Timer_Counter
  D:008CH         PUBLIC        TH0
  D:00CDH         PUBLIC        TH2
  D:008AH         PUBLIC        TL0
  D:00D8H         PUBLIC        WDTCON
  D:00CCH         PUBLIC        TL2
  B:00C8H.2       PUBLIC        TR2
  D:00C8H         PUBLIC        T2CON
  D:00D0H         PUBLIC        PSW

  -------         PROC BANK=1   TIMER2_INIT
 C1:DA6AH         LINE#         33
 C1:DA6AH         LINE#         34
 C1:DA6AH         LINE#         35
 C1:DA6DH         LINE#         36
 C1:DA70H         LINE#         37
 C1:DA73H         LINE#         38
 C1:DA75H         LINE#         39
 C1:DA77H         LINE#         40
  -------         ENDPROC       TIMER2_INIT

  -------         PROC BANK=1   TIMER0_INIT
 C1:DA78H         LINE#         42
 C1:DA78H         LINE#         43
 C1:DA78H         LINE#         44
 C1:DA7BH         LINE#         45
 C1:DA7EH         LINE#         46
 C1:DA81H         LINE#         47
 C1:DA83H         LINE#         51
  -------         ENDPROC       TIMER0_INIT

BL51 BANKED LINKER/LOCATER V6.00                                                      12/23/2015  16:04:37  PAGE 53


  -------         PROC BANK=1   IP210_WRITE_TIMER_COUNTER
 C1:D283H         LINE#         64
 C1:D283H         LINE#         65
 C1:D283H         LINE#         66
 C1:D290H         LINE#         67
 C1:D2A8H         LINE#         68
 C1:D2C0H         LINE#         69
 C1:D2D8H         LINE#         70
  -------         ENDPROC       IP210_WRITE_TIMER_COUNTER

  -------         PROC BANK=1   TIMERCOUNTER_INIT
 C1:D93BH         LINE#         84
 C1:D93BH         LINE#         85
 C1:D93BH         LINE#         88
 C1:D93EH         LINE#         90
 C1:D948H         LINE#         91
 C1:D952H         LINE#         92
  -------         ENDPROC       TIMERCOUNTER_INIT

  -------         PROC BANK=1   TIMERCOUNTER0_INIT
 C1:DAEAH         LINE#         97
 C1:DAEAH         LINE#         98
 C1:DAEAH         LINE#         101
  -------         ENDPROC       TIMERCOUNTER0_INIT

  -------         PROC BANK=1   TIMER_COUNTER_OVERFLOW
 C1:D8ACH         LINE#         119
 C1:D8ACH         LINE#         120
 C1:D8ACH         LINE#         121
  -------         ENDPROC       TIMER_COUNTER_OVERFLOW
  -------         ENDMOD        TIMER

  -------         MODULE        UART
  C:0000H         SYMBOL        _ICE_DUMMY_
  D:0090H         PUBLIC        P1
  D:00B0H         PUBLIC        P3
  D:00A8H         PUBLIC        IE
 C1:C9D0H         PUBLIC        UART_Set_Property
  D:00B8H         PUBLIC        IP
 C1:DAC0H         PUBLIC        UART_Set_RTS
 C1:D685H         PUBLIC        _UART_Receive_Multi
  D:0098H         PUBLIC        SCON
  D:0088H         PUBLIC        TCON
 C1:D9F3H         PUBLIC        _UART_Receive_Byte
 C1:D598H         PUBLIC        _UART_Transmit_Multi
  X:2C65H         PUBLIC        UART_Baudrate
 C1:DAE4H         PUBLIC        _UART_Transmit_Byte
  D:00D8H         PUBLIC        WDTCON
 C1:DADEH         PUBLIC        UART_Rx_FIFO_Status
 C1:DAD8H         PUBLIC        UART_Tx_FIFO_Status
 C1:D920H         PUBLIC        UART_Empty_Rx_FIFO
 C1:DAC8H         PUBLIC        UART_Clear_RTS
  D:00C8H         PUBLIC        T2CON
 C1:D96DH         PUBLIC        _UART_Set_Divisor
  X:2D01H         PUBLIC        UART_Settings
  D:00D0H         PUBLIC        PSW

BL51 BANKED LINKER/LOCATER V6.00                                                      12/23/2015  16:04:37  PAGE 54


  -------         PROC BANK=1   _UART_SET_DIVISOR
  D:0007H         SYMBOL        divisor_H
  D:0005H         SYMBOL        divisor_L
  -------         DO            
  D:0006H         SYMBOL        byte_data
  -------         ENDDO         
 C1:D96DH         LINE#         21
 C1:D96DH         LINE#         22
 C1:D96DH         LINE#         26
 C1:D971H         LINE#         27
 C1:D974H         LINE#         28
 C1:D975H         LINE#         30
 C1:D97AH         LINE#         31
 C1:D97DH         LINE#         34
 C1:D980H         LINE#         35
 C1:D984H         LINE#         37
  -------         ENDPROC       _UART_SET_DIVISOR

  -------         PROC BANK=1   UART_SET_PROPERTY
  -------         DO            
  D:0005H         SYMBOL        divisor_L
  D:0007H         SYMBOL        divisor_H
  D:0007H         SYMBOL        byte_data
  -------         ENDDO         
 C1:C9D0H         LINE#         39
 C1:C9D0H         LINE#         40
 C1:C9D0H         LINE#         46
 C1:C9DBH         LINE#         47
 C1:C9DBH         LINE#         48
 C1:C9DFH         LINE#         49
 C1:C9E2H         LINE#         50
 C1:C9E3H         LINE#         53
 C1:C9E7H         LINE#         54
 C1:C9E9H         LINE#         57
 C1:C9F1H         LINE#         58
 C1:C9F3H         LINE#         60
 C1:C9F6H         LINE#         62
 C1:C9FAH         LINE#         63
 C1:C9FCH         LINE#         67
 C1:CA00H         LINE#         71
 C1:CA03H         LINE#         72
 C1:CA09H         LINE#         73
 C1:CA0BH         LINE#         76
 C1:CA12H         LINE#         77
 C1:CA18H         LINE#         79
 C1:CA1CH         LINE#         82
 C1:CA20H         LINE#         83
 C1:CA25H         LINE#         84
 C1:CA29H         LINE#         86
 C1:CA2AH         LINE#         90
 C1:CA30H         LINE#         91
 C1:CA30H         LINE#         92
 C1:CA30H         LINE#         93
 C1:CA34H         LINE#         94
 C1:CA35H         LINE#         97
 C1:CA39H         LINE#         100
 C1:CA3BH         LINE#         101
BL51 BANKED LINKER/LOCATER V6.00                                                      12/23/2015  16:04:37  PAGE 55


 C1:CA3CH         LINE#         102
 C1:CA3DH         LINE#         105
 C1:CA3DH         LINE#         106
 C1:CA44H         LINE#         107
 C1:CA44H         LINE#         108
 C1:CA48H         LINE#         110
 C1:CA4BH         LINE#         111
 C1:CA4CH         LINE#         112
 C1:CA4DH         LINE#         114
 C1:CA4DH         LINE#         117
 C1:CA51H         LINE#         118
 C1:CA54H         LINE#         121
 C1:CA5AH         LINE#         122
 C1:CA5EH         LINE#         123
 C1:CA63H         LINE#         124
 C1:CA64H         LINE#         126
 C1:CA64H         LINE#         128
  -------         ENDPROC       UART_SET_PROPERTY

  -------         PROC BANK=1   _UART_TRANSMIT_MULTI
  X:36E9H         SYMBOL        ptr_src
  X:36ECH         SYMBOL        length
  -------         DO            
  D:0006H         SYMBOL        tx_count
  D:0005H         SYMBOL        tx_byte
  -------         ENDDO         
 C1:D598H         LINE#         130
 C1:D5A9H         LINE#         131
 C1:D5A9H         LINE#         132
 C1:D5ACH         LINE#         133
 C1:D5ACH         LINE#         135
 C1:D5B9H         LINE#         136
 C1:D5B9H         LINE#         137
 C1:D5CCH         LINE#         138
 C1:D5D0H         LINE#         139
 C1:D5D7H         LINE#         140
  -------         ENDPROC       _UART_TRANSMIT_MULTI

  -------         PROC BANK=1   _UART_RECEIVE_MULTI
  X:3753H         SYMBOL        ptr_des
  D:0005H         SYMBOL        length
  -------         DO            
  D:0007H         SYMBOL        rx_count
  D:0006H         SYMBOL        rx_byte
  -------         ENDDO         
 C1:D685H         LINE#         142
 C1:D690H         LINE#         143
 C1:D690H         LINE#         144
 C1:D692H         LINE#         146
 C1:D697H         LINE#         147
 C1:D697H         LINE#         148
 C1:D69CH         LINE#         151
 C1:D6B0H         LINE#         152
 C1:D6B3H         LINE#         153
  -------         ENDPROC       _UART_RECEIVE_MULTI

  -------         PROC BANK=1   UART_TX_FIFO_STATUS
BL51 BANKED LINKER/LOCATER V6.00                                                      12/23/2015  16:04:37  PAGE 56


 C1:DAD8H         LINE#         157
 C1:DAD8H         LINE#         158
 C1:DAD8H         LINE#         159
 C1:DADDH         LINE#         160
  -------         ENDPROC       UART_TX_FIFO_STATUS

  -------         PROC BANK=1   UART_RX_FIFO_STATUS
 C1:DADEH         LINE#         162
 C1:DADEH         LINE#         163
 C1:DADEH         LINE#         164
 C1:DAE3H         LINE#         165
  -------         ENDPROC       UART_RX_FIFO_STATUS

  -------         PROC BANK=1   UART_EMPTY_RX_FIFO
  -------         DO            
  D:0007H         SYMBOL        rx_count
  X:37CEH         SYMBOL        rx_byte
  D:0006H         SYMBOL        i
  -------         ENDDO         
 C1:D920H         LINE#         167
 C1:D920H         LINE#         168
 C1:D920H         LINE#         169
 C1:D922H         LINE#         171
 C1:D925H         LINE#         172
 C1:D928H         LINE#         173
 C1:D928H         LINE#         174
 C1:D92FH         LINE#         175
 C1:D92FH         LINE#         176
 C1:D937H         LINE#         177
 C1:D93AH         LINE#         178
 C1:D93AH         LINE#         180
  -------         ENDPROC       UART_EMPTY_RX_FIFO

  -------         PROC BANK=1   _UART_RECEIVE_BYTE
  D:0001H         SYMBOL        Rx_byte
 C1:D9F3H         LINE#         182
 C1:D9F3H         LINE#         183
 C1:D9F3H         LINE#         185
 C1:D9F9H         LINE#         186
 C1:D9F9H         LINE#         187
 C1:DA00H         LINE#         188
 C1:DA03H         LINE#         189
 C1:DA03H         LINE#         191
 C1:DA03H         LINE#         192
 C1:DA05H         LINE#         193
 C1:DA05H         LINE#         195
  -------         ENDPROC       _UART_RECEIVE_BYTE

  -------         PROC BANK=1   _UART_TRANSMIT_BYTE
  D:0007H         SYMBOL        Tx_byte
 C1:DAE4H         LINE#         198
 C1:DAE4H         LINE#         199
 C1:DAE4H         LINE#         200
 C1:DAE9H         LINE#         201
  -------         ENDPROC       _UART_TRANSMIT_BYTE

  -------         PROC BANK=1   UART_SET_RTS
BL51 BANKED LINKER/LOCATER V6.00                                                      12/23/2015  16:04:37  PAGE 57


  -------         DO            
  D:0007H         SYMBOL        tmp
  -------         ENDDO         
 C1:DAC0H         LINE#         202
 C1:DAC0H         LINE#         203
 C1:DAC0H         LINE#         205
 C1:DAC4H         LINE#         206
 C1:DAC7H         LINE#         207
  -------         ENDPROC       UART_SET_RTS

  -------         PROC BANK=1   UART_CLEAR_RTS
  -------         DO            
  D:0007H         SYMBOL        tmp
  -------         ENDDO         
 C1:DAC8H         LINE#         209
 C1:DAC8H         LINE#         210
 C1:DAC8H         LINE#         212
 C1:DACCH         LINE#         213
 C1:DACFH         LINE#         214
  -------         ENDPROC       UART_CLEAR_RTS
  -------         ENDMOD        UART

  -------         MODULE        MDC_MDIO
  C:0000H         SYMBOL        _ICE_DUMMY_
  D:0090H         PUBLIC        P1
  D:00B0H         PUBLIC        P3
  D:00A8H         PUBLIC        IE
 C1:D4D6H         PUBLIC        _Read_MDC
  D:00B8H         PUBLIC        IP
 C1:D44EH         PUBLIC        _Write_MDC
  X:37AFH         PUBLIC        MDC_PREM_OFF
  X:37B0H         PUBLIC        MDC_SPEED
  D:0098H         PUBLIC        SCON
  D:0088H         PUBLIC        TCON
  D:00D8H         PUBLIC        WDTCON
  D:00C8H         PUBLIC        T2CON
  D:00D0H         PUBLIC        PSW

  -------         PROC BANK=1   _READ_MDC
  D:0007H         SYMBOL        phyad
  D:0005H         SYMBOL        regad
  -------         DO            
  D:0007H         SYMBOL        reg
  D:0006H         SYMBOL        ret_reg
  D:0002H         SYMBOL        i
  -------         ENDDO         
 C1:D4D6H         LINE#         31
 C1:D4D6H         LINE#         32
 C1:D4D6H         LINE#         33
 C1:D4D9H         LINE#         34
 C1:D4DEH         LINE#         35
 C1:D4E1H         LINE#         37
 C1:D4F3H         LINE#         38
 C1:D4F3H         LINE#         39
 C1:D4F8H         LINE#         40
 C1:D4FDH         LINE#         41
 C1:D50AH         LINE#         42
BL51 BANKED LINKER/LOCATER V6.00                                                      12/23/2015  16:04:37  PAGE 58


 C1:D50EH         LINE#         43
 C1:D50FH         LINE#         44
 C1:D516H         LINE#         45
 C1:D516H         LINE#         46
  -------         ENDPROC       _READ_MDC

  -------         PROC BANK=1   _WRITE_MDC
  X:37CFH         SYMBOL        phyad
  D:0001H         SYMBOL        regad
  D:0002H         SYMBOL        Regdata
  -------         DO            
  D:0007H         SYMBOL        reg
  D:0004H         SYMBOL        i
  -------         ENDDO         
 C1:D44EH         LINE#         62
 C1:D455H         LINE#         63
 C1:D455H         LINE#         65
 C1:D458H         LINE#         66
 C1:D45DH         LINE#         67
 C1:D462H         LINE#         68
 C1:D46AH         LINE#         69
 C1:D46DH         LINE#         71
 C1:D47BH         LINE#         72
 C1:D47BH         LINE#         73
 C1:D480H         LINE#         74
 C1:D485H         LINE#         75
 C1:D492H         LINE#         76
  -------         ENDPROC       _WRITE_MDC
  -------         ENDMOD        MDC_MDIO

  -------         MODULE        OS_CBK
  C:0000H         SYMBOL        _ICE_DUMMY_
  D:0080H         PUBLIC        P0
 C1:DA3DH         PUBLIC        os_loop
  D:0090H         PUBLIC        P1
  D:00A0H         PUBLIC        P2
  D:00B0H         PUBLIC        P3
  D:00E8H         PUBLIC        P4
  X:350FH         PUBLIC        gateway_count
  D:00A8H         PUBLIC        IE
  B:00E8H.5       PUBLIC        P4_5
  D:00B8H         PUBLIC        IP
  X:3511H         PUBLIC        Link_Status_Change
  X:3512H         PUBLIC        firm_flag
 C1:DA9BH         PUBLIC        os_initial
  X:3513H         PUBLIC        boot_flag
  D:0098H         PUBLIC        SCON
  D:0088H         PUBLIC        TCON
 C1:D073H         PUBLIC        Check_Speed
  X:3514H         PUBLIC        firm_count
 C1:CCF5H         PUBLIC        LoadDefault
  D:00D8H         PUBLIC        WDTCON
 C1:D825H         PUBLIC        os_loop_100ms
 C1:D801H         PUBLIC        Gateway_timer
  X:3516H         PUBLIC        force_reset_countdown
  D:00C8H         PUBLIC        T2CON
 C1:D618H         PUBLIC        Check_FirmwareUpdate
BL51 BANKED LINKER/LOCATER V6.00                                                      12/23/2015  16:04:37  PAGE 59


  X:3517H         PUBLIC        load_default_pin_pressed
  D:00D0H         PUBLIC        PSW

  -------         PROC BANK=1   LOADDEFAULT
 C1:CCF5H         LINE#         27
 C1:CCF5H         LINE#         28
 C1:CD01H         LINE#         29
 C1:CD01H         LINE#         30
 C1:CD1CH         LINE#         31
 C1:CD1CH         LINE#         32
 C1:CD3FH         LINE#         33
 C1:CD42H         LINE#         34
 C1:CD45H         LINE#         35
 C1:CD4AH         LINE#         36
 C1:CD4EH         LINE#         37
 C1:CD57H         LINE#         38
 C1:CD5DH         LINE#         39
 C1:CD5DH         LINE#         40
 C1:CD5DH         LINE#         41
 C1:CD67H         LINE#         42
 C1:CD67H         LINE#         43
 C1:CD69H         LINE#         44
 C1:CD69H         LINE#         45
  -------         ENDPROC       LOADDEFAULT

  -------         PROC BANK=1   OS_INITIAL
 C1:DA9BH         LINE#         47
 C1:DA9BH         LINE#         52
 C1:DAA1H         LINE#         53
 C1:DAA3H         LINE#         60
  -------         ENDPROC       OS_INITIAL

  -------         PROC BANK=1   CHECK_FIRMWAREUPDATE
 C1:D618H         LINE#         89
 C1:D618H         LINE#         90
 C1:D626H         LINE#         91
 C1:D626H         LINE#         92
 C1:D634H         LINE#         93
 C1:D643H         LINE#         94
 C1:D643H         LINE#         95
 C1:D647H         LINE#         96
 C1:D64AH         LINE#         97
 C1:D651H         LINE#         98
 C1:D654H         LINE#         99
 C1:D654H         LINE#         100
 C1:D654H         LINE#         101
  -------         ENDPROC       CHECK_FIRMWAREUPDATE

  -------         PROC BANK=1   GATEWAY_TIMER
 C1:D801H         LINE#         104
 C1:D801H         LINE#         105
 C1:D80FH         LINE#         106
 C1:D81EH         LINE#         107
 C1:D81EH         LINE#         108
 C1:D821H         LINE#         110
 C1:D824H         LINE#         115
 C1:D824H         LINE#         116
BL51 BANKED LINKER/LOCATER V6.00                                                      12/23/2015  16:04:37  PAGE 60


  -------         ENDPROC       GATEWAY_TIMER

  -------         PROC BANK=1   OS_LOOP
 C1:DA3DH         LINE#         118
 C1:DA3DH         LINE#         120
 C1:DA40H         LINE#         123
 C1:DA43H         LINE#         129
 C1:DA46H         LINE#         132
 C1:DA49H         LINE#         135
  -------         ENDPROC       OS_LOOP

  -------         PROC BANK=1   CHECK_SPEED
  -------         DO            
  D:0004H         SYMBOL        status
  X:37D0H         SYMBOL        tmpvalue
  -------         ENDDO         
 C1:D073H         LINE#         139
 C1:D073H         LINE#         140
 C1:D076H         LINE#         141
 C1:D07AH         LINE#         143
 C1:D084H         LINE#         144
 C1:D088H         LINE#         145
 C1:D08EH         LINE#         147
 C1:D09AH         LINE#         148
 C1:D09CH         LINE#         150
 C1:D0A4H         LINE#         152
 C1:D0ACH         LINE#         153
 C1:D0B0H         LINE#         155
 C1:D0B4H         LINE#         156
 C1:D0B8H         LINE#         158
 C1:D0B8H         LINE#         160
 C1:D0B8H         LINE#         161
 C1:D0BCH         LINE#         162
 C1:D0C3H         LINE#         164
 C1:D0C3H         LINE#         166
 C1:D0C3H         LINE#         167
 C1:D0CBH         LINE#         168
 C1:D0CBH         LINE#         169
  -------         ENDPROC       CHECK_SPEED

  -------         PROC BANK=1   OS_LOOP_100MS
 C1:D825H         LINE#         171
 C1:D825H         LINE#         173
 C1:D828H         LINE#         179
 C1:D82BH         LINE#         182
 C1:D82EH         LINE#         185
 C1:D831H         LINE#         191
 C1:D834H         LINE#         193
 C1:D837H         LINE#         194
 C1:D83DH         LINE#         195
 C1:D844H         LINE#         196
 C1:D847H         LINE#         197
 C1:D847H         LINE#         198
  -------         ENDPROC       OS_LOOP_100MS
  -------         ENDMOD        OS_CBK

  -------         MODULE        VTAG
BL51 BANKED LINKER/LOCATER V6.00                                                      12/23/2015  16:04:37  PAGE 61


  C:0000H         SYMBOL        _ICE_DUMMY_
  D:0080H         PUBLIC        P0
  D:0090H         PUBLIC        P1
  D:00A0H         PUBLIC        P2
  D:00B0H         PUBLIC        P3
  D:00E8H         PUBLIC        P4
  D:00A8H         PUBLIC        IE
  D:00B8H         PUBLIC        IP
 C1:D763H         PUBLIC        EnVlanCheck
  X:36EEH         PUBLIC        vlan_value
  D:0098H         PUBLIC        SCON
  D:0088H         PUBLIC        TCON
  C:3C2BH         SYMBOL        _?ix1000
  D:00D8H         PUBLIC        WDTCON
 C1:CD6AH         PUBLIC        Check_Vlan_Tag
  X:36F2H         PUBLIC        eth_vlan
 C1:C6A2H         PUBLIC        _vlan_tag_pkt
  D:00C8H         PUBLIC        T2CON
 C1:C543H         PUBLIC        re_init
  D:00D0H         PUBLIC        PSW

  -------         PROC BANK=1   CHECK_VLAN_TAG
 C1:CD6AH         LINE#         12
 C1:CD6AH         LINE#         13
 C1:CD72H         LINE#         14
 C1:CD72H         LINE#         16
 C1:CD75H         LINE#         21
 C1:CD81H         LINE#         22
 C1:CD81H         LINE#         23
 C1:CD97H         LINE#         24
 C1:CDA5H         LINE#         25
 C1:CDB3H         LINE#         26
 C1:CDB9H         LINE#         27
 C1:CDBBH         LINE#         29
 C1:CDBBH         LINE#         30
 C1:CDC9H         LINE#         31
 C1:CDD7H         LINE#         32
 C1:CDD7H         LINE#         33
 C1:CDDAH         LINE#         34
 C1:CDDAH         LINE#         35
  -------         ENDPROC       CHECK_VLAN_TAG

  -------         PROC BANK=1   _VLAN_TAG_PKT
  X:3375H         SYMBOL        input_buf
  X:3378H         SYMBOL        len_ptr
  -------         DO            
  X:337BH         SYMBOL        tag_buf
  -------         ENDDO         
 C1:C6A2H         LINE#         37
 C1:C6ADH         LINE#         38
 C1:C6ADH         LINE#         39
 C1:C6C0H         LINE#         41
 C1:C6C3H         LINE#         46
 C1:C6E0H         LINE#         47
 C1:C6F3H         LINE#         48
 C1:C70BH         LINE#         49
 C1:C727H         LINE#         50
BL51 BANKED LINKER/LOCATER V6.00                                                      12/23/2015  16:04:37  PAGE 62


 C1:C73AH         LINE#         52
 C1:C73DH         LINE#         57
 C1:C74DH         LINE#         58
  -------         ENDPROC       _VLAN_TAG_PKT

  -------         PROC BANK=1   ENVLANCHECK
 C1:D763H         LINE#         60
 C1:D763H         LINE#         61
 C1:D763H         LINE#         63
 C1:D766H         LINE#         68
 C1:D76DH         LINE#         69
 C1:D76DH         LINE#         70
 C1:D783H         LINE#         71
 C1:D786H         LINE#         72
 C1:D786H         LINE#         74
 C1:D789H         LINE#         79
 C1:D78BH         LINE#         80
  -------         ENDPROC       ENVLANCHECK

  -------         PROC BANK=1   RE_INIT
 C1:C543H         LINE#         82
 C1:C543H         LINE#         83
 C1:C543H         LINE#         84
 C1:C546H         LINE#         85
 C1:C549H         LINE#         86
 C1:C57EH         LINE#         87
 C1:C59BH         LINE#         89
 C1:C59BH         LINE#         90
 C1:C5B0H         LINE#         91
 C1:C5BCH         LINE#         92
 C1:C5BEH         LINE#         94
 C1:C5BEH         LINE#         95
 C1:C5D9H         LINE#         96
 C1:C5F2H         LINE#         97
 C1:C5F2H         LINE#         98
  -------         ENDPROC       RE_INIT
  -------         ENDMOD        VTAG

  -------         MODULE        FS
  C:0000H         SYMBOL        _ICE_DUMMY_
  X:3083H         PUBLIC        fsop
 C1:BFB9H         PUBLIC        _fs_open
  X:30CBH         PUBLIC        indata

  -------         PROC BANK=1   _FS_OPEN
  X:3518H         SYMBOL        name
  X:351BH         SYMBOL        fsop_idx
  -------         DO            
  X:351EH         SYMBOL        ptr
  -------         ENDDO         
 C1:BFB9H         LINE#         84
 C1:BFC4H         LINE#         85
 C1:BFC4H         LINE#         89
 C1:BFD1H         LINE#         90
 C1:C007H         LINE#         91
 C1:C007H         LINE#         92
 C1:C03BH         LINE#         93
BL51 BANKED LINKER/LOCATER V6.00                                                      12/23/2015  16:04:37  PAGE 63


 C1:C049H         LINE#         94
 C1:C049H         LINE#         114
 C1:C06FH         LINE#         115
 C1:C07BH         LINE#         116
 C1:C07BH         LINE#         117
 C1:C096H         LINE#         118
 C1:C09CH         LINE#         119
  -------         ENDPROC       _FS_OPEN
  -------         ENDMOD        FS

  -------         MODULE        HTMFILES0
  C:0000H         SYMBOL        _ICE_DUMMY_
 C0:506DH         PUBLIC        cgi_table00
  D:0090H         PUBLIC        P1
  D:00B0H         PUBLIC        P3
  D:00A8H         PUBLIC        IE
  D:00B8H         PUBLIC        IP
 C0:5333H         PUBLIC        _get_tag00
 C0:52EBH         PUBLIC        _datacpy00
 C0:5077H         PUBLIC        _fs_open00
  D:0098H         PUBLIC        SCON
  D:0088H         PUBLIC        TCON
 C0:5073H         SYMBOL        _?ix1000
  D:00D8H         PUBLIC        WDTCON
 C0:51EFH         PUBLIC        FU_Check
 C0:5064H         PUBLIC        files_table00
  D:00C8H         PUBLIC        T2CON
  D:00D0H         PUBLIC        PSW

  -------         PROC BANK=0   _FS_OPEN00
  X:365BH         SYMBOL        name
  -------         DO            
  X:365EH         SYMBOL        ptr
  -------         ENDDO         
 C0:5077H         LINE#         69
 C0:5082H         LINE#         70
 C0:5082H         LINE#         72
 C0:509AH         LINE#         73
 C0:50ABH         LINE#         74
 C0:50ABH         LINE#         75
 C0:50B5H         LINE#         76
 C0:50C5H         LINE#         77
 C0:50C9H         LINE#         78
 C0:50C9H         LINE#         79
 C0:50EDH         LINE#         80
 C0:50EDH         LINE#         81
 C0:511BH         LINE#         82
 C0:511BH         LINE#         83
 C0:5148H         LINE#         84
 C0:515DH         LINE#         85
 C0:515DH         LINE#         86
 C0:519AH         LINE#         87
 C0:51C3H         LINE#         88
 C0:51C3H         LINE#         89
 C0:51DBH         LINE#         90
 C0:51DBH         LINE#         91
 C0:51E8H         LINE#         92
BL51 BANKED LINKER/LOCATER V6.00                                                      12/23/2015  16:04:37  PAGE 64


 C0:51EEH         LINE#         93
  -------         ENDPROC       _FS_OPEN00

  -------         PROC BANK=0   _DATACPY00
  X:3756H         SYMBOL        inputdata
 C0:52EBH         LINE#         106
 C0:52F6H         LINE#         107
 C0:52F6H         LINE#         108
  -------         ENDPROC       _DATACPY00

  -------         PROC BANK=0   _GET_TAG00
  D:0007H         SYMBOL        index
 C0:5333H         LINE#         122
 C0:5333H         LINE#         123
 C0:5333H         LINE#         124
 C0:5354H         LINE#         125
  -------         ENDPROC       _GET_TAG00

  -------         PROC BANK=0   FU_CHECK
  -------         DO            
  X:359DH         SYMBOL        i
  X:359FH         SYMBOL        bRun_FUU
  X:35A0H         SYMBOL        checksum
  X:35A1H         SYMBOL        magic_code
  -------         ENDDO         
 C0:51EFH         LINE#         127
 C0:51EFH         LINE#         128
 C0:51EFH         LINE#         130
 C0:51F4H         LINE#         131
 C0:51F6H         LINE#         132
 C0:5208H         LINE#         135
 C0:5208H         LINE#         142
 C0:521FH         LINE#         143
 C0:521FH         LINE#         144
 C0:5241H         LINE#         145
 C0:5241H         LINE#         146
 C0:5251H         LINE#         147
 C0:5257H         LINE#         148
 C0:5257H         LINE#         149
 C0:525DH         LINE#         150
 C0:525DH         LINE#         151
 C0:525FH         LINE#         152
 C0:525FH         LINE#         154
 C0:5276H         LINE#         155
 C0:5276H         LINE#         156
 C0:5288H         LINE#         157
 C0:5298H         LINE#         158
 C0:52AEH         LINE#         159
 C0:52BBH         LINE#         160
 C0:52BBH         LINE#         161
 C0:52D2H         LINE#         162
 C0:52D8H         LINE#         163
 C0:52D8H         LINE#         164
 C0:52D8H         LINE#         166
 C0:52DEH         LINE#         167
 C0:52DEH         LINE#         168
 C0:52E7H         LINE#         169
BL51 BANKED LINKER/LOCATER V6.00                                                      12/23/2015  16:04:37  PAGE 65


 C0:52EAH         LINE#         170
 C0:52EAH         LINE#         171
  -------         ENDPROC       FU_CHECK
  -------         ENDMOD        HTMFILES0

  -------         MODULE        HTMFILES1
  C:0000H         SYMBOL        _ICE_DUMMY_
 C1:5009H         PUBLIC        cgi_table01
 C1:D848H         PUBLIC        _get_tag01
 C1:D406H         PUBLIC        _datacpy01
 C1:AC10H         PUBLIC        _fs_open01
 C1:5000H         PUBLIC        files_table01

  -------         PROC BANK=1   _FS_OPEN01
  X:3661H         SYMBOL        name
  -------         DO            
  X:3664H         SYMBOL        ptr
  -------         ENDDO         
 C1:AC10H         LINE#         68
 C1:AC1BH         LINE#         69
 C1:AC1BH         LINE#         71
 C1:AC33H         LINE#         72
 C1:AC44H         LINE#         73
 C1:AC44H         LINE#         74
 C1:AC4EH         LINE#         75
 C1:AC5EH         LINE#         76
 C1:AC62H         LINE#         77
 C1:AC62H         LINE#         78
 C1:AC86H         LINE#         79
 C1:AC86H         LINE#         80
 C1:ACB4H         LINE#         81
 C1:ACB4H         LINE#         82
 C1:ACE1H         LINE#         83
 C1:ACF6H         LINE#         84
 C1:ACF6H         LINE#         85
 C1:AD33H         LINE#         86
 C1:AD5CH         LINE#         87
 C1:AD5CH         LINE#         88
 C1:AD74H         LINE#         89
 C1:AD74H         LINE#         90
 C1:AD81H         LINE#         91
 C1:AD87H         LINE#         92
  -------         ENDPROC       _FS_OPEN01

  -------         PROC BANK=1   _DATACPY01
  X:3759H         SYMBOL        inputdata
 C1:D406H         LINE#         105
 C1:D411H         LINE#         106
 C1:D411H         LINE#         107
  -------         ENDPROC       _DATACPY01

  -------         PROC BANK=1   _GET_TAG01
  D:0007H         SYMBOL        index
 C1:D848H         LINE#         121
 C1:D848H         LINE#         122
 C1:D848H         LINE#         123
 C1:D869H         LINE#         124
BL51 BANKED LINKER/LOCATER V6.00                                                      12/23/2015  16:04:37  PAGE 66


  -------         ENDPROC       _GET_TAG01
  -------         ENDMOD        HTMFILES1

  -------         MODULE        HTMFILES2
  C:0000H         SYMBOL        _ICE_DUMMY_
 C2:5009H         PUBLIC        cgi_table02
 C2:D653H         PUBLIC        _get_tag02
 C2:D3FAH         PUBLIC        _datacpy02
 C2:ACE9H         PUBLIC        _fs_open02
 C2:5000H         PUBLIC        files_table02

  -------         PROC BANK=2   _FS_OPEN02
  X:3667H         SYMBOL        name
  -------         DO            
  X:366AH         SYMBOL        ptr
  -------         ENDDO         
 C2:ACE9H         LINE#         68
 C2:ACF4H         LINE#         69
 C2:ACF4H         LINE#         71
 C2:AD0CH         LINE#         72
 C2:AD1DH         LINE#         73
 C2:AD1DH         LINE#         74
 C2:AD27H         LINE#         75
 C2:AD37H         LINE#         76
 C2:AD3BH         LINE#         77
 C2:AD3BH         LINE#         78
 C2:AD5FH         LINE#         79
 C2:AD5FH         LINE#         80
 C2:AD8DH         LINE#         81
 C2:AD8DH         LINE#         82
 C2:ADBAH         LINE#         83
 C2:ADCFH         LINE#         84
 C2:ADCFH         LINE#         85
 C2:AE0CH         LINE#         86
 C2:AE35H         LINE#         87
 C2:AE35H         LINE#         88
 C2:AE4DH         LINE#         89
 C2:AE4DH         LINE#         90
 C2:AE5AH         LINE#         91
 C2:AE60H         LINE#         92
  -------         ENDPROC       _FS_OPEN02

  -------         PROC BANK=2   _DATACPY02
  X:375CH         SYMBOL        inputdata
 C2:D3FAH         LINE#         105
 C2:D405H         LINE#         106
 C2:D405H         LINE#         107
  -------         ENDPROC       _DATACPY02

  -------         PROC BANK=2   _GET_TAG02
  D:0007H         SYMBOL        index
 C2:D653H         LINE#         121
 C2:D653H         LINE#         122
 C2:D653H         LINE#         123
 C2:D674H         LINE#         124
  -------         ENDPROC       _GET_TAG02
  -------         ENDMOD        HTMFILES2
BL51 BANKED LINKER/LOCATER V6.00                                                      12/23/2015  16:04:37  PAGE 67



  -------         MODULE        HTMFILES3
  C:0000H         SYMBOL        _ICE_DUMMY_
 C3:BF08H         PUBLIC        cgi_table03
  X:2526H         PUBLIC        smtp_htm_tags
  X:2559H         PUBLIC        login2_htm_tags
 C3:8205H         PUBLIC        setDef_htm_file
 C3:82B5H         PUBLIC        setIP_htm_file
 C3:AFA9H         PUBLIC        udp_tel_htm_file
 C3:C14CH         PUBLIC        _get_tag03
  X:2562H         PUBLIC        setIP_htm_tags
 C3:5F9DH         PUBLIC        errormsg_htm_file
 C3:C104H         PUBLIC        _datacpy03
  X:25A7H         PUBLIC        udp_tel_htm_tags
 C3:BF8CH         PUBLIC        _fs_open03
  X:25EFH         PUBLIC        errormsg_htm_tags
 C3:95D1H         PUBLIC        setPASS_htm_file
 C3:9C94H         PUBLIC        Status_htm_file
 C3:70B6H         PUBLIC        telnet_htm_file
  X:2610H         PUBLIC        setPASS_htm_tags
  X:261FH         PUBLIC        Status_htm_tags
 C3:5148H         PUBLIC        index_htm_file
 C3:5CC6H         PUBLIC        login_htm_file
  X:262EH         PUBLIC        telnet_htm_tags
 C3:AC45H         PUBLIC        adc_htm_file
 C3:51FBH         PUBLIC        left_htm_file
 C3:BE15H         PUBLIC        files_table03
  X:2676H         PUBLIC        adc_htm_tags
 C3:613FH         PUBLIC        fw_up_wait_htm_file
 C3:6241H         PUBLIC        uart_htm_file
 C3:9F72H         PUBLIC        smtp_htm_file
  X:2682H         PUBLIC        uart_htm_tags
 C3:5D52H         PUBLIC        login2_htm_file

  -------         PROC BANK=3   _FS_OPEN03
  X:366DH         SYMBOL        name
  -------         DO            
  X:3670H         SYMBOL        ptr
  -------         ENDDO         
 C3:BF8CH         LINE#         337
 C3:BF97H         LINE#         338
 C3:BF97H         LINE#         340
 C3:BFAFH         LINE#         341
 C3:BFC0H         LINE#         342
 C3:BFC0H         LINE#         343
 C3:BFCAH         LINE#         344
 C3:BFDAH         LINE#         345
 C3:BFDEH         LINE#         346
 C3:BFDEH         LINE#         347
 C3:C002H         LINE#         348
 C3:C002H         LINE#         349
 C3:C030H         LINE#         350
 C3:C030H         LINE#         351
 C3:C05DH         LINE#         352
 C3:C072H         LINE#         353
 C3:C072H         LINE#         354
 C3:C0AFH         LINE#         355
BL51 BANKED LINKER/LOCATER V6.00                                                      12/23/2015  16:04:37  PAGE 68


 C3:C0D8H         LINE#         356
 C3:C0D8H         LINE#         357
 C3:C0F0H         LINE#         358
 C3:C0F0H         LINE#         359
 C3:C0FDH         LINE#         360
 C3:C103H         LINE#         361
  -------         ENDPROC       _FS_OPEN03

  -------         PROC BANK=3   _DATACPY03
  X:375FH         SYMBOL        inputdata
 C3:C104H         LINE#         374
 C3:C10FH         LINE#         375
 C3:C10FH         LINE#         376
  -------         ENDPROC       _DATACPY03

  -------         PROC BANK=3   _GET_TAG03
  D:0007H         SYMBOL        index
 C3:C14CH         LINE#         390
 C3:C14CH         LINE#         391
 C3:C14CH         LINE#         392
 C3:C16DH         LINE#         393
  -------         ENDPROC       _GET_TAG03
  -------         ENDMOD        HTMFILES3

  -------         MODULE        HTMFILES4
  C:0000H         SYMBOL        _ICE_DUMMY_
 C4:5271H         PUBLIC        cgi_table04
 C4:5465H         PUBLIC        FUU_Run
 C4:5443H         PUBLIC        _get_tag04
 C4:53FBH         PUBLIC        _datacpy04
 C4:5283H         PUBLIC        _fs_open04
 C4:5136H         PUBLIC        fu_up_htm_file
 C4:5030H         PUBLIC        fw_up_htm_file
 C4:5244H         PUBLIC        files_table04

  -------         PROC BANK=4   _FS_OPEN04
  X:3673H         SYMBOL        name
  -------         DO            
  X:3676H         SYMBOL        ptr
  -------         ENDDO         
 C4:5283H         LINE#         78
 C4:528EH         LINE#         79
 C4:528EH         LINE#         81
 C4:52A6H         LINE#         82
 C4:52B7H         LINE#         83
 C4:52B7H         LINE#         84
 C4:52C1H         LINE#         85
 C4:52D1H         LINE#         86
 C4:52D5H         LINE#         87
 C4:52D5H         LINE#         88
 C4:52F9H         LINE#         89
 C4:52F9H         LINE#         90
 C4:5327H         LINE#         91
 C4:5327H         LINE#         92
 C4:5354H         LINE#         93
 C4:5369H         LINE#         94
 C4:5369H         LINE#         95
BL51 BANKED LINKER/LOCATER V6.00                                                      12/23/2015  16:04:37  PAGE 69


 C4:53A6H         LINE#         96
 C4:53CFH         LINE#         97
 C4:53CFH         LINE#         98
 C4:53E7H         LINE#         99
 C4:53E7H         LINE#         100
 C4:53F4H         LINE#         101
 C4:53FAH         LINE#         102
  -------         ENDPROC       _FS_OPEN04

  -------         PROC BANK=4   _DATACPY04
  X:3762H         SYMBOL        inputdata
 C4:53FBH         LINE#         115
 C4:5406H         LINE#         116
 C4:5406H         LINE#         117
  -------         ENDPROC       _DATACPY04

  -------         PROC BANK=4   _GET_TAG04
  D:0007H         SYMBOL        index
 C4:5443H         LINE#         131
 C4:5443H         LINE#         132
 C4:5443H         LINE#         133
 C4:5464H         LINE#         134
  -------         ENDPROC       _GET_TAG04

  -------         PROC BANK=4   FUU_RUN
 C4:5465H         LINE#         136
 C4:5465H         LINE#         137
 C4:5465H         LINE#         138
  -------         ENDPROC       FUU_RUN
  -------         ENDMOD        HTMFILES4

  -------         MODULE        HTMFILES5
  C:0000H         SYMBOL        _ICE_DUMMY_
 C5:5009H         PUBLIC        cgi_table05
 C5:7E8AH         PUBLIC        _get_tag05
 C5:7D92H         PUBLIC        _datacpy05
 C5:6B6EH         PUBLIC        _fs_open05
 C5:5000H         PUBLIC        files_table05

  -------         PROC BANK=5   _FS_OPEN05
  X:3679H         SYMBOL        name
  -------         DO            
  X:367CH         SYMBOL        ptr
  -------         ENDDO         
 C5:6B6EH         LINE#         68
 C5:6B79H         LINE#         69
 C5:6B79H         LINE#         71
 C5:6B91H         LINE#         72
 C5:6BA2H         LINE#         73
 C5:6BA2H         LINE#         74
 C5:6BACH         LINE#         75
 C5:6BBCH         LINE#         76
 C5:6BC0H         LINE#         77
 C5:6BC0H         LINE#         78
 C5:6BE4H         LINE#         79
 C5:6BE4H         LINE#         80
 C5:6C12H         LINE#         81
BL51 BANKED LINKER/LOCATER V6.00                                                      12/23/2015  16:04:37  PAGE 70


 C5:6C12H         LINE#         82
 C5:6C3FH         LINE#         83
 C5:6C54H         LINE#         84
 C5:6C54H         LINE#         85
 C5:6C91H         LINE#         86
 C5:6CBAH         LINE#         87
 C5:6CBAH         LINE#         88
 C5:6CD2H         LINE#         89
 C5:6CD2H         LINE#         90
 C5:6CDFH         LINE#         91
 C5:6CE5H         LINE#         92
  -------         ENDPROC       _FS_OPEN05

  -------         PROC BANK=5   _DATACPY05
  X:3765H         SYMBOL        inputdata
 C5:7D92H         LINE#         105
 C5:7D9DH         LINE#         106
 C5:7D9DH         LINE#         107
  -------         ENDPROC       _DATACPY05

  -------         PROC BANK=5   _GET_TAG05
  D:0007H         SYMBOL        index
 C5:7E8AH         LINE#         121
 C5:7E8AH         LINE#         122
 C5:7E8AH         LINE#         123
 C5:7EABH         LINE#         124
  -------         ENDPROC       _GET_TAG05
  -------         ENDMOD        HTMFILES5

  -------         MODULE        HTMFILES6
  C:0000H         SYMBOL        _ICE_DUMMY_
 C6:5009H         PUBLIC        cgi_table06
 C6:9D44H         PUBLIC        _get_tag06
 C6:9CC5H         PUBLIC        _datacpy06
 C6:9539H         PUBLIC        _fs_open06
 C6:5000H         PUBLIC        files_table06

  -------         PROC BANK=6   _FS_OPEN06
  X:367FH         SYMBOL        name
  -------         DO            
  X:3682H         SYMBOL        ptr
  -------         ENDDO         
 C6:9539H         LINE#         68
 C6:9544H         LINE#         69
 C6:9544H         LINE#         71
 C6:955CH         LINE#         72
 C6:956DH         LINE#         73
 C6:956DH         LINE#         74
 C6:9577H         LINE#         75
 C6:9587H         LINE#         76
 C6:958BH         LINE#         77
 C6:958BH         LINE#         78
 C6:95AFH         LINE#         79
 C6:95AFH         LINE#         80
 C6:95DDH         LINE#         81
 C6:95DDH         LINE#         82
 C6:960AH         LINE#         83
BL51 BANKED LINKER/LOCATER V6.00                                                      12/23/2015  16:04:37  PAGE 71


 C6:961FH         LINE#         84
 C6:961FH         LINE#         85
 C6:965CH         LINE#         86
 C6:9685H         LINE#         87
 C6:9685H         LINE#         88
 C6:969DH         LINE#         89
 C6:969DH         LINE#         90
 C6:96AAH         LINE#         91
 C6:96B0H         LINE#         92
  -------         ENDPROC       _FS_OPEN06

  -------         PROC BANK=6   _DATACPY06
  X:3768H         SYMBOL        inputdata
 C6:9CC5H         LINE#         105
 C6:9CD0H         LINE#         106
 C6:9CD0H         LINE#         107
  -------         ENDPROC       _DATACPY06

  -------         PROC BANK=6   _GET_TAG06
  D:0007H         SYMBOL        index
 C6:9D44H         LINE#         121
 C6:9D44H         LINE#         122
 C6:9D44H         LINE#         123
 C6:9D65H         LINE#         124
  -------         ENDPROC       _GET_TAG06
  -------         ENDMOD        HTMFILES6

  -------         MODULE        HTMFILES7
  C:0000H         SYMBOL        _ICE_DUMMY_
 C7:5009H         PUBLIC        cgi_table07
 C7:51CFH         PUBLIC        _get_tag07
 C7:5187H         PUBLIC        _datacpy07
 C7:500FH         PUBLIC        _fs_open07
 C7:5000H         PUBLIC        files_table07

  -------         PROC BANK=7   _FS_OPEN07
  X:3685H         SYMBOL        name
  -------         DO            
  X:3688H         SYMBOL        ptr
  -------         ENDDO         
 C7:500FH         LINE#         68
 C7:501AH         LINE#         69
 C7:501AH         LINE#         71
 C7:5032H         LINE#         72
 C7:5043H         LINE#         73
 C7:5043H         LINE#         74
 C7:504DH         LINE#         75
 C7:505DH         LINE#         76
 C7:5061H         LINE#         77
 C7:5061H         LINE#         78
 C7:5085H         LINE#         79
 C7:5085H         LINE#         80
 C7:50B3H         LINE#         81
 C7:50B3H         LINE#         82
 C7:50E0H         LINE#         83
 C7:50F5H         LINE#         84
 C7:50F5H         LINE#         85
BL51 BANKED LINKER/LOCATER V6.00                                                      12/23/2015  16:04:37  PAGE 72


 C7:5132H         LINE#         86
 C7:515BH         LINE#         87
 C7:515BH         LINE#         88
 C7:5173H         LINE#         89
 C7:5173H         LINE#         90
 C7:5180H         LINE#         91
 C7:5186H         LINE#         92
  -------         ENDPROC       _FS_OPEN07

  -------         PROC BANK=7   _DATACPY07
  X:376BH         SYMBOL        inputdata
 C7:5187H         LINE#         105
 C7:5192H         LINE#         106
 C7:5192H         LINE#         107
  -------         ENDPROC       _DATACPY07

  -------         PROC BANK=7   _GET_TAG07
  D:0007H         SYMBOL        index
 C7:51CFH         LINE#         121
 C7:51CFH         LINE#         122
 C7:51CFH         LINE#         123
 C7:51F0H         LINE#         124
  -------         ENDPROC       _GET_TAG07
  -------         ENDMOD        HTMFILES7

  -------         MODULE        UIP
  C:0000H         SYMBOL        _ICE_DUMMY_
  X:0D7FH         SYMBOL        lastport
 C1:9EB4H         PUBLIC        _uip_connect
  X:0D81H         PUBLIC        uip_listenports
  D:0080H         PUBLIC        P0
  D:0090H         PUBLIC        P1
  D:00A0H         PUBLIC        P2
  D:00B0H         PUBLIC        P3
  D:00E8H         PUBLIC        P4
  X:0D8FH         PUBLIC        uip_sappdata
 C1:D493H         PUBLIC        _uip_unlisten
  D:00A8H         PUBLIC        IE
  X:0D92H         PUBLIC        uip_hostaddr
  X:0D96H         PUBLIC        uip_appdata
 C1:500FH         PUBLIC        _uip_process
  X:0D99H         PUBLIC        uip_dnsaddr
  D:00B8H         PUBLIC        IP
  X:0D9DH         PUBLIC        uip_urgdata
 C1:D5D8H         PUBLIC        _uip_listen
 C1:CFCCH         SYMBOL        _uip_add_rcv_nxt
  X:0DA0H         PUBLIC        ipid
  D:0098H         PUBLIC        SCON
  D:0088H         PUBLIC        TCON
  X:0DA2H         PUBLIC        uip_surglen
  X:0DA3H         SYMBOL        tmp16
  X:0DA5H         PUBLIC        uip_acc32
  X:0DA9H         PUBLIC        PKT_FLAGS
  X:0DABH         PUBLIC        uip_flags
  X:0DACH         PUBLIC        uip_urglen
  X:0DADH         PUBLIC        uip_arp_draddr
  X:0DB1H         PUBLIC        uip_arp_netmask
BL51 BANKED LINKER/LOCATER V6.00                                                      12/23/2015  16:04:37  PAGE 73


  X:0DB5H         SYMBOL        iss
  D:00D8H         PUBLIC        WDTCON
 C1:DA84H         PUBLIC        _uip_log
  X:0DB9H         SYMBOL        opt
  X:0DBAH         PUBLIC        uip_conns
 C1:D78CH         PUBLIC        restore_uip_buf
  X:11CAH         PUBLIC        uip_conn
  X:11CDH         SYMBOL        c
 C1:D8E8H         PUBLIC        _chg_uip_buf
  X:11CEH         PUBLIC        uip_slen
 C1:D0CCH         PUBLIC        uip_init
  D:00C8H         PUBLIC        T2CON
  X:11D0H         PUBLIC        uip_stat
  X:11FCH         PUBLIC        uip_buf
 C1:DAEEH         PUBLIC        udp_xmit
  X:11FFH         PUBLIC        uip_len
  X:1201H         PUBLIC        uip_buf_real
  X:1204H         PUBLIC        eth_vlan_buf
  D:00D0H         PUBLIC        PSW

  -------         PROC BANK=1   _UIP_LOG
  D:0001H         SYMBOL        msg
  -------         DO            
  X:376EH         SYMBOL        x
  -------         ENDDO         
 C1:DA84H         LINE#         68
  -------         ENDPROC       _UIP_LOG

  -------         PROC BANK=1   UDP_XMIT
 C1:DAEEH         LINE#         69
  -------         ENDPROC       UDP_XMIT

  -------         PROC BANK=1   _CHG_UIP_BUF
  D:0001H         SYMBOL        new_buf
 C1:D8E8H         LINE#         212
 C1:D8E8H         LINE#         213
 C1:D8E8H         LINE#         214
 C1:D8F3H         LINE#         215
 C1:D904H         LINE#         216
  -------         ENDPROC       _CHG_UIP_BUF

  -------         PROC BANK=1   RESTORE_UIP_BUF
 C1:D78CH         LINE#         218
 C1:D78CH         LINE#         219
 C1:D78CH         LINE#         220
 C1:D7A2H         LINE#         221
 C1:D7B3H         LINE#         222
  -------         ENDPROC       RESTORE_UIP_BUF

  -------         PROC BANK=1   UIP_INIT
 C1:D0CCH         LINE#         225
 C1:D0CCH         LINE#         226
 C1:D0CCH         LINE#         240
 C1:D0DBH         LINE#         241
 C1:D0EBH         LINE#         242
 C1:D0F3H         LINE#         243
 C1:D102H         LINE#         244
BL51 BANKED LINKER/LOCATER V6.00                                                      12/23/2015  16:04:37  PAGE 74


 C1:D113H         LINE#         245
 C1:D11BH         LINE#         247
 C1:D124H         LINE#         262
  -------         ENDPROC       UIP_INIT

  -------         PROC BANK=1   _UIP_CONNECT
  X:34B2H         SYMBOL        ripaddr
  X:34B5H         SYMBOL        rport
  -------         DO            
  X:34B7H         SYMBOL        conn
  X:34BAH         SYMBOL        cconn
 C1:9EC5H         SYMBOL        again
  -------         ENDDO         
 C1:9EB4H         LINE#         277
 C1:9EC5H         LINE#         278
 C1:9EC5H         LINE#         282
 C1:9EC5H         LINE#         283
 C1:9ED3H         LINE#         285
 C1:9EDCH         LINE#         286
 C1:9EE2H         LINE#         287
 C1:9EE2H         LINE#         291
 C1:9EF1H         LINE#         292
 C1:9F0BH         LINE#         293
 C1:9F32H         LINE#         294
 C1:9F32H         LINE#         295
 C1:9F32H         LINE#         296
 C1:9F32H         LINE#         297
 C1:9F3AH         LINE#         298
 C1:9F43H         LINE#         299
 C1:9F54H         LINE#         300
 C1:9F6EH         LINE#         301
 C1:9F77H         LINE#         302
 C1:9F8CH         LINE#         303
 C1:9F8EH         LINE#         304
 C1:9F8EH         LINE#         305
 C1:9F93H         LINE#         306
 C1:9FC5H         LINE#         307
 C1:9FC5H         LINE#         308
 C1:9FDAH         LINE#         309
 C1:9FDAH         LINE#         310
 C1:9FDAH         LINE#         311
 C1:9FE3H         LINE#         313
 C1:9FEEH         LINE#         314
 C1:9FF2H         LINE#         315
 C1:9FF2H         LINE#         317
 C1:A005H         LINE#         319
 C1:A00FH         LINE#         320
 C1:A019H         LINE#         321
 C1:A023H         LINE#         322
 C1:A02DH         LINE#         324
 C1:A043H         LINE#         326
 C1:A04DH         LINE#         327
 C1:A054H         LINE#         328
 C1:A05CH         LINE#         329
 C1:A064H         LINE#         330
 C1:A06BH         LINE#         331
 C1:A073H         LINE#         332
BL51 BANKED LINKER/LOCATER V6.00                                                      12/23/2015  16:04:37  PAGE 75


 C1:A083H         LINE#         333
 C1:A093H         LINE#         334
 C1:A0B4H         LINE#         335
 C1:A0DBH         LINE#         337
 C1:A0DBH         LINE#         338
  -------         ENDPROC       _UIP_CONNECT

  -------         PROC BANK=1   _UIP_UNLISTEN
  D:0006H         SYMBOL        port
 C1:D493H         LINE#         406
 C1:D493H         LINE#         407
 C1:D493H         LINE#         408
 C1:D4A2H         LINE#         409
 C1:D4A2H         LINE#         410
 C1:D4B9H         LINE#         411
 C1:D4B9H         LINE#         412
 C1:D4CDH         LINE#         414
 C1:D4CDH         LINE#         415
 C1:D4D5H         LINE#         416
  -------         ENDPROC       _UIP_UNLISTEN

  -------         PROC BANK=1   _UIP_LISTEN
  D:0006H         SYMBOL        port
 C1:D5D8H         LINE#         430
 C1:D5D8H         LINE#         431
 C1:D5D8H         LINE#         432
 C1:D5E7H         LINE#         433
 C1:D5E7H         LINE#         434
 C1:D5FAH         LINE#         435
 C1:D5FAH         LINE#         436
 C1:D60FH         LINE#         438
 C1:D60FH         LINE#         439
 C1:D617H         LINE#         440
  -------         ENDPROC       _UIP_LISTEN
 C1:CFC7H         SYMBOL        L?0268
  -------         PROC          L?0267
  -------         ENDPROC       L?0267
 C1:CFC7H         SYMBOL        L?0268

  -------         PROC BANK=1   _UIP_ADD_RCV_NXT
  D:0006H         SYMBOL        n
 C1:CFCCH         LINE#         602
 C1:CFCCH         LINE#         603
 C1:CFCCH         LINE#         604
 C1:CFE3H         LINE#         605
 C1:CFFAH         LINE#         606
 C1:D004H         LINE#         607
 C1:D00EH         LINE#         608
  -------         ENDPROC       _UIP_ADD_RCV_NXT

  -------         PROC BANK=1   _UIP_PROCESS
  D:0007H         SYMBOL        flag
  -------         DO            
  X:3707H         SYMBOL        uip_connr
 C1:664CH         SYMBOL        tcp_send_nodata
 C1:5B53H         SYMBOL        tcp_send_synack
 C1:5B6BH         SYMBOL        tcp_send_syn
BL51 BANKED LINKER/LOCATER V6.00                                                      12/23/2015  16:04:37  PAGE 76


 C1:6442H         SYMBOL        apprexmit
 C1:61E9H         SYMBOL        tcp_send_finack
 C1:6301H         SYMBOL        appsend
 C1:6A66H         SYMBOL        drop
 C1:536CH         SYMBOL        icmp_input
 C1:5477H         SYMBOL        tcp_input
 C1:6A57H         SYMBOL        send
 C1:5BCBH         SYMBOL        found
 C1:5605H         SYMBOL        reset
 C1:5788H         SYMBOL        found_listen
 C1:68D8H         SYMBOL        tcp_send_noconn
 C1:666DH         SYMBOL        tcp_send
 C1:6634H         SYMBOL        tcp_send_ack
 C1:6655H         SYMBOL        tcp_send_noopts
  -------         DO            
  X:370AH         SYMBOL        m
  -------         ENDDO         
  -------         ENDDO         
 C1:500FH         LINE#         623
 C1:500FH         LINE#         624
 C1:500FH         LINE#         625
 C1:5024H         LINE#         626
 C1:503FH         LINE#         628
 C1:5047H         LINE#         635
 C1:504FH         LINE#         636
 C1:5057H         LINE#         637
 C1:505FH         LINE#         638
 C1:5065H         LINE#         639
 C1:5065H         LINE#         640
 C1:5065H         LINE#         641
 C1:5065H         LINE#         642
 C1:506CH         LINE#         643
 C1:5086H         LINE#         644
 C1:5086H         LINE#         645
 C1:508EH         LINE#         646
 C1:509BH         LINE#         647
 C1:50A9H         LINE#         648
 C1:50A9H         LINE#         649
 C1:50C2H         LINE#         653
 C1:50CFH         LINE#         654
 C1:50DCH         LINE#         655
 C1:50FAH         LINE#         658
 C1:50FAH         LINE#         659
 C1:5101H         LINE#         665
 C1:5106H         LINE#         666
 C1:510AH         LINE#         668
 C1:5110H         LINE#         674
 C1:5113H         LINE#         676
 C1:5113H         LINE#         677
 C1:5116H         LINE#         678
 C1:5116H         LINE#         681
 C1:5144H         LINE#         684
 C1:514CH         LINE#         692
 C1:515AH         LINE#         693
 C1:5187H         LINE#         694
 C1:5187H         LINE#         697
 C1:5187H         LINE#         700
BL51 BANKED LINKER/LOCATER V6.00                                                      12/23/2015  16:04:37  PAGE 77


 C1:5187H         LINE#         702
 C1:519BH         LINE#         703
 C1:519EH         LINE#         706
 C1:519EH         LINE#         711
 C1:51A5H         LINE#         712
 C1:51ABH         LINE#         713
 C1:51B1H         LINE#         714
 C1:51B4H         LINE#         715
 C1:51B7H         LINE#         717
 C1:51B7H         LINE#         718
 C1:51B7H         LINE#         719
 C1:51B7H         LINE#         721
 C1:51B7H         LINE#         723
 C1:51B7H         LINE#         724
 C1:51B7H         LINE#         725
 C1:51D1H         LINE#         728
 C1:51D7H         LINE#         729
 C1:51DDH         LINE#         730
 C1:51E3H         LINE#         731
 C1:51E3H         LINE#         732
 C1:51E6H         LINE#         733
 C1:51E6H         LINE#         734
 C1:51E6H         LINE#         735
 C1:51E6H         LINE#         736
 C1:51E6H         LINE#         752
 C1:51F4H         LINE#         764
 C1:5209H         LINE#         765
 C1:5217H         LINE#         766
 C1:5225H         LINE#         768
 C1:5228H         LINE#         769
 C1:5228H         LINE#         775
 C1:5240H         LINE#         776
 C1:524FH         LINE#         777
 C1:524FH         LINE#         778
 C1:5270H         LINE#         779
 C1:527DH         LINE#         780
 C1:527DH         LINE#         784
 C1:529FH         LINE#         791
 C1:52ADH         LINE#         792
 C1:52BBH         LINE#         794
 C1:52BEH         LINE#         796
 C1:52BEH         LINE#         802
 C1:52D6H         LINE#         803
 C1:52E3H         LINE#         805
 C1:52E6H         LINE#         806
 C1:52E6H         LINE#         808
 C1:52E6H         LINE#         809
 C1:52E6H         LINE#         810
 C1:52E6H         LINE#         814
 C1:52F4H         LINE#         815
 C1:5302H         LINE#         817
 C1:5305H         LINE#         818
 C1:5305H         LINE#         820
 C1:5319H         LINE#         821
 C1:5327H         LINE#         823
 C1:532AH         LINE#         824
 C1:532AH         LINE#         836
BL51 BANKED LINKER/LOCATER V6.00                                                      12/23/2015  16:04:37  PAGE 78


 C1:5348H         LINE#         838
 C1:5348H         LINE#         845
 C1:534DH         LINE#         847
 C1:535BH         LINE#         848
 C1:5369H         LINE#         850
 C1:536CH         LINE#         851
 C1:536CH         LINE#         853
 C1:536CH         LINE#         854
 C1:537AH         LINE#         859
 C1:5394H         LINE#         860
 C1:53A2H         LINE#         861
 C1:53B0H         LINE#         863
 C1:53B3H         LINE#         864
 C1:53B3H         LINE#         870
 C1:53C7H         LINE#         871
 C1:53D7H         LINE#         872
 C1:53E7H         LINE#         873
 C1:53E7H         LINE#         876
 C1:53FEH         LINE#         879
 C1:5407H         LINE#         880
 C1:5410H         LINE#         891
 C1:5421H         LINE#         892
 C1:5432H         LINE#         893
 C1:543BH         LINE#         894
 C1:544CH         LINE#         895
 C1:545DH         LINE#         896
 C1:5466H         LINE#         898
 C1:5474H         LINE#         899
 C1:5477H         LINE#         995
 C1:5477H         LINE#         996
 C1:5485H         LINE#         1011
 C1:54A9H         LINE#         1016
 C1:5587H         LINE#         1017
 C1:5587H         LINE#         1018
 C1:5587H         LINE#         1019
 C1:5594H         LINE#         1025
 C1:55B0H         LINE#         1026
 C1:55B0H         LINE#         1028
 C1:55C0H         LINE#         1030
 C1:55CFH         LINE#         1031
 C1:55EFH         LINE#         1032
 C1:55EFH         LINE#         1033
 C1:55F7H         LINE#         1036
 C1:5605H         LINE#         1037
 C1:5605H         LINE#         1040
 C1:5621H         LINE#         1041
 C1:5621H         LINE#         1043
 C1:562FH         LINE#         1045
 C1:5637H         LINE#         1046
 C1:5640H         LINE#         1047
 C1:5648H         LINE#         1050
 C1:5653H         LINE#         1051
 C1:565FH         LINE#         1052
 C1:5666H         LINE#         1054
 C1:5671H         LINE#         1055
 C1:567DH         LINE#         1056
 C1:5684H         LINE#         1058
BL51 BANKED LINKER/LOCATER V6.00                                                      12/23/2015  16:04:37  PAGE 79


 C1:568FH         LINE#         1059
 C1:569BH         LINE#         1060
 C1:56A2H         LINE#         1062
 C1:56ADH         LINE#         1063
 C1:56B9H         LINE#         1064
 C1:56C0H         LINE#         1069
 C1:56CAH         LINE#         1070
 C1:56E4H         LINE#         1071
 C1:56EDH         LINE#         1072
 C1:56F4H         LINE#         1073
 C1:56F4H         LINE#         1074
 C1:56F4H         LINE#         1075
 C1:56F4H         LINE#         1078
 C1:5715H         LINE#         1079
 C1:5726H         LINE#         1080
 C1:572FH         LINE#         1083
 C1:5740H         LINE#         1084
 C1:5751H         LINE#         1085
 C1:575AH         LINE#         1086
 C1:576BH         LINE#         1087
 C1:577CH         LINE#         1088
 C1:5785H         LINE#         1092
 C1:5788H         LINE#         1097
 C1:5788H         LINE#         1104
 C1:5791H         LINE#         1105
 C1:57A2H         LINE#         1106
 C1:57B4H         LINE#         1107
 C1:57D0H         LINE#         1108
 C1:57D2H         LINE#         1109
 C1:57D2H         LINE#         1110
 C1:57EAH         LINE#         1111
 C1:5813H         LINE#         1112
 C1:5813H         LINE#         1113
 C1:582FH         LINE#         1114
 C1:582FH         LINE#         1115
 C1:582FH         LINE#         1116
 C1:5838H         LINE#         1118
 C1:5843H         LINE#         1122
 C1:5851H         LINE#         1124
 C1:5854H         LINE#         1125
 C1:5854H         LINE#         1126
 C1:5869H         LINE#         1129
 C1:5882H         LINE#         1130
 C1:5889H         LINE#         1131
 C1:5891H         LINE#         1132
 C1:5898H         LINE#         1133
 C1:58C4H         LINE#         1134
 C1:58F0H         LINE#         1135
 C1:5919H         LINE#         1136
 C1:5945H         LINE#         1137
 C1:594DH         LINE#         1139
 C1:5957H         LINE#         1140
 C1:5961H         LINE#         1141
 C1:596BH         LINE#         1142
 C1:5975H         LINE#         1143
 C1:597FH         LINE#         1146
 C1:59A8H         LINE#         1147
BL51 BANKED LINKER/LOCATER V6.00                                                      12/23/2015  16:04:37  PAGE 80


 C1:59D1H         LINE#         1148
 C1:59FAH         LINE#         1149
 C1:5A23H         LINE#         1150
 C1:5A2AH         LINE#         1153
 C1:5A4AH         LINE#         1154
 C1:5A80H         LINE#         1155
 C1:5A9BH         LINE#         1156
 C1:5AA0H         LINE#         1158
 C1:5AA0H         LINE#         1159
 C1:5AA8H         LINE#         1160
 C1:5AAEH         LINE#         1162
 C1:5AC5H         LINE#         1163
 C1:5AC5H         LINE#         1166
 C1:5AF6H         LINE#         1167
 C1:5B29H         LINE#         1171
 C1:5B2BH         LINE#         1172
 C1:5B2BH         LINE#         1175
 C1:5B4AH         LINE#         1178
 C1:5B4AH         LINE#         1179
 C1:5B4AH         LINE#         1180
 C1:5B50H         LINE#         1181
 C1:5B50H         LINE#         1182
 C1:5B53H         LINE#         1183
 C1:5B53H         LINE#         1187
 C1:5B53H         LINE#         1188
 C1:5B6BH         LINE#         1190
 C1:5B6BH         LINE#         1191
 C1:5B8AH         LINE#         1199
 C1:5BA2H         LINE#         1200
 C1:5BAAH         LINE#         1201
 C1:5BB2H         LINE#         1202
 C1:5BBAH         LINE#         1203
 C1:5BC3H         LINE#         1204
 C1:5BC8H         LINE#         1205
 C1:5BCBH         LINE#         1208
 C1:5BCBH         LINE#         1210
 C1:5BE0H         LINE#         1211
 C1:5BE5H         LINE#         1217
 C1:5BFEH         LINE#         1218
 C1:5C10H         LINE#         1220
 C1:5C15H         LINE#         1221
 C1:5C15H         LINE#         1222
 C1:5C18H         LINE#         1223
 C1:5C18H         LINE#         1226
 C1:5C3AH         LINE#         1230
 C1:5C51H         LINE#         1239
 C1:5D0BH         LINE#         1240
 C1:5D0BH         LINE#         1241
 C1:5D0BH         LINE#         1247
 C1:5D41H         LINE#         1249
 C1:5D4AH         LINE#         1251
 C1:5D4AH         LINE#         1252
 C1:5D54H         LINE#         1256
 C1:5DA8H         LINE#         1258
 C1:5DBFH         LINE#         1259
 C1:5DC9H         LINE#         1260
 C1:5DD3H         LINE#         1261
BL51 BANKED LINKER/LOCATER V6.00                                                      12/23/2015  16:04:37  PAGE 81


 C1:5DDDH         LINE#         1265
 C1:5DE8H         LINE#         1267
 C1:5E07H         LINE#         1269
 C1:5E1AH         LINE#         1270
 C1:5E22H         LINE#         1271
 C1:5E2AH         LINE#         1272
 C1:5E31H         LINE#         1273
 C1:5E31H         LINE#         1274
 C1:5E53H         LINE#         1275
 C1:5E59H         LINE#         1276
 C1:5E72H         LINE#         1277
 C1:5E72H         LINE#         1279
 C1:5E78H         LINE#         1281
 C1:5E8FH         LINE#         1282
 C1:5E8FH         LINE#         1283
 C1:5E91H         LINE#         1285
 C1:5E91H         LINE#         1286
 C1:5E97H         LINE#         1287
 C1:5E97H         LINE#         1289
 C1:5E97H         LINE#         1291
 C1:5ED9H         LINE#         1296
 C1:5ED9H         LINE#         1301
 C1:5EE3H         LINE#         1302
 C1:5EE3H         LINE#         1303
 C1:5EEBH         LINE#         1304
 C1:5EF1H         LINE#         1305
 C1:5EFAH         LINE#         1306
 C1:5F09H         LINE#         1307
 C1:5F09H         LINE#         1308
 C1:5F09H         LINE#         1309
 C1:5F0CH         LINE#         1310
 C1:5F0CH         LINE#         1311
 C1:5F13H         LINE#         1312
 C1:5F13H         LINE#         1313
 C1:5F16H         LINE#         1314
 C1:5F16H         LINE#         1315
 C1:5F16H         LINE#         1317
 C1:5F16H         LINE#         1323
 C1:5F3DH         LINE#         1326
 C1:5F4DH         LINE#         1327
 C1:5F83H         LINE#         1328
 C1:5F9EH         LINE#         1329
 C1:5FA3H         LINE#         1331
 C1:5FA3H         LINE#         1332
 C1:5FABH         LINE#         1333
 C1:5FB1H         LINE#         1335
 C1:5FC8H         LINE#         1336
 C1:5FC8H         LINE#         1338
 C1:5FF9H         LINE#         1340
 C1:602CH         LINE#         1344
 C1:602EH         LINE#         1345
 C1:602EH         LINE#         1348
 C1:604DH         LINE#         1351
 C1:604DH         LINE#         1352
 C1:604DH         LINE#         1353
 C1:6053H         LINE#         1354
 C1:6053H         LINE#         1355
BL51 BANKED LINKER/LOCATER V6.00                                                      12/23/2015  16:04:37  PAGE 82


 C1:6056H         LINE#         1356
 C1:6056H         LINE#         1357
 C1:6069H         LINE#         1358
 C1:6092H         LINE#         1359
 C1:60BBH         LINE#         1360
 C1:60E4H         LINE#         1361
 C1:610DH         LINE#         1362
 C1:6114H         LINE#         1363
 C1:611AH         LINE#         1364
 C1:612EH         LINE#         1365
 C1:6135H         LINE#         1366
 C1:613BH         LINE#         1367
 C1:613BH         LINE#         1368
 C1:613EH         LINE#         1369
 C1:613EH         LINE#         1370
 C1:613EH         LINE#         1373
 C1:613EH         LINE#         1385
 C1:615AH         LINE#         1388
 C1:615DH         LINE#         1391
 C1:6175H         LINE#         1392
 C1:6175H         LINE#         1393
 C1:6175H         LINE#         1394
 C1:6186H         LINE#         1395
 C1:618CH         LINE#         1396
 C1:619BH         LINE#         1397
 C1:61A2H         LINE#         1398
 C1:61A2H         LINE#         1401
 C1:61BBH         LINE#         1402
 C1:61BBH         LINE#         1403
 C1:61C2H         LINE#         1404
 C1:61C2H         LINE#         1407
 C1:61C5H         LINE#         1408
 C1:61DAH         LINE#         1409
 C1:61E2H         LINE#         1410
 C1:61E9H         LINE#         1411
 C1:61E9H         LINE#         1412
 C1:61E9H         LINE#         1413
 C1:61ECH         LINE#         1414
 C1:61ECH         LINE#         1418
 C1:6205H         LINE#         1432
 C1:621EH         LINE#         1433
 C1:622BH         LINE#         1434
 C1:622BH         LINE#         1442
 C1:624EH         LINE#         1443
 C1:624EH         LINE#         1444
 C1:6251H         LINE#         1445
 C1:6251H         LINE#         1446
 C1:6265H         LINE#         1447
 C1:6265H         LINE#         1448
 C1:6265H         LINE#         1449
 C1:6268H         LINE#         1450
 C1:6268H         LINE#         1463
 C1:6293H         LINE#         1465
 C1:62A3H         LINE#         1467
 C1:62C8H         LINE#         1468
 C1:62C8H         LINE#         1469
 C1:62D0H         LINE#         1470
BL51 BANKED LINKER/LOCATER V6.00                                                      12/23/2015  16:04:37  PAGE 83


 C1:62D0H         LINE#         1471
 C1:62ECH         LINE#         1489
 C1:62F7H         LINE#         1490
 C1:62FEH         LINE#         1491
 C1:6301H         LINE#         1493
 C1:6301H         LINE#         1494
 C1:6308H         LINE#         1495
 C1:630FH         LINE#         1496
 C1:6321H         LINE#         1497
 C1:6336H         LINE#         1498
 C1:6339H         LINE#         1499
 C1:6339H         LINE#         1500
 C1:6340H         LINE#         1501
 C1:6347H         LINE#         1502
 C1:635CH         LINE#         1503
 C1:6364H         LINE#         1504
 C1:636BH         LINE#         1505
 C1:6380H         LINE#         1506
 C1:6383H         LINE#         1507
 C1:6383H         LINE#         1509
 C1:6392H         LINE#         1512
 C1:6399H         LINE#         1513
 C1:63ADH         LINE#         1514
 C1:63ADH         LINE#         1518
 C1:63C2H         LINE#         1523
 C1:63D8H         LINE#         1524
 C1:63DDH         LINE#         1525
 C1:63DDH         LINE#         1529
 C1:63EAH         LINE#         1530
 C1:63ECH         LINE#         1535
 C1:6407H         LINE#         1536
 C1:6407H         LINE#         1537
 C1:6409H         LINE#         1539
 C1:6410H         LINE#         1540
 C1:6410H         LINE#         1542
 C1:6416H         LINE#         1544
 C1:642AH         LINE#         1545
 C1:642AH         LINE#         1549
 C1:642AH         LINE#         1551
 C1:6430H         LINE#         1553
 C1:6442H         LINE#         1554
 C1:6442H         LINE#         1555
 C1:6457H         LINE#         1559
 C1:6482H         LINE#         1561
 C1:648FH         LINE#         1563
 C1:64A4H         LINE#         1565
 C1:64A6H         LINE#         1567
 C1:64A6H         LINE#         1570
 C1:64B0H         LINE#         1571
 C1:64B9H         LINE#         1572
 C1:64D1H         LINE#         1573
 C1:64D4H         LINE#         1574
 C1:64D4H         LINE#         1575
 C1:64D4H         LINE#         1576
 C1:64D4H         LINE#         1577
 C1:64D4H         LINE#         1580
 C1:64DEH         LINE#         1581
BL51 BANKED LINKER/LOCATER V6.00                                                      12/23/2015  16:04:37  PAGE 84


 C1:64F0H         LINE#         1582
 C1:64F6H         LINE#         1583
 C1:64F9H         LINE#         1584
 C1:64F9H         LINE#         1585
 C1:64FCH         LINE#         1587
 C1:64FCH         LINE#         1591
 C1:650BH         LINE#         1592
 C1:650EH         LINE#         1593
 C1:650EH         LINE#         1594
 C1:6527H         LINE#         1595
 C1:6531H         LINE#         1596
 C1:6541H         LINE#         1597
 C1:6548H         LINE#         1598
 C1:6551H         LINE#         1599
 C1:6554H         LINE#         1600
 C1:6564H         LINE#         1601
 C1:6564H         LINE#         1602
 C1:6564H         LINE#         1603
 C1:6564H         LINE#         1604
 C1:6564H         LINE#         1605
 C1:6567H         LINE#         1606
 C1:656EH         LINE#         1607
 C1:6581H         LINE#         1608
 C1:658AH         LINE#         1609
 C1:658DH         LINE#         1610
 C1:658DH         LINE#         1611
 C1:659FH         LINE#         1612
 C1:65A2H         LINE#         1613
 C1:65A2H         LINE#         1614
 C1:65A2H         LINE#         1616
 C1:65A2H         LINE#         1617
 C1:65B1H         LINE#         1618
 C1:65B4H         LINE#         1619
 C1:65B4H         LINE#         1620
 C1:65CDH         LINE#         1621
 C1:65E0H         LINE#         1622
 C1:65E7H         LINE#         1623
 C1:65EEH         LINE#         1624
 C1:65F4H         LINE#         1625
 C1:65F7H         LINE#         1626
 C1:65F9H         LINE#         1627
 C1:65F9H         LINE#         1628
 C1:660BH         LINE#         1629
 C1:660DH         LINE#         1630
 C1:660DH         LINE#         1631
 C1:660DH         LINE#         1633
 C1:660DH         LINE#         1634
 C1:660DH         LINE#         1636
 C1:660DH         LINE#         1637
 C1:6617H         LINE#         1638
 C1:662AH         LINE#         1639
 C1:6631H         LINE#         1640
 C1:6631H         LINE#         1641
 C1:6631H         LINE#         1642
 C1:6634H         LINE#         1647
 C1:6634H         LINE#         1648
 C1:664CH         LINE#         1649
BL51 BANKED LINKER/LOCATER V6.00                                                      12/23/2015  16:04:37  PAGE 85


 C1:664CH         LINE#         1650
 C1:6655H         LINE#         1651
 C1:6655H         LINE#         1652
 C1:666DH         LINE#         1653
 C1:666DH         LINE#         1658
 C1:6696H         LINE#         1659
 C1:66BFH         LINE#         1660
 C1:66E8H         LINE#         1661
 C1:6711H         LINE#         1663
 C1:673AH         LINE#         1664
 C1:6763H         LINE#         1665
 C1:678CH         LINE#         1666
 C1:67B5H         LINE#         1668
 C1:67BDH         LINE#         1670
 C1:67E9H         LINE#         1671
 C1:6815H         LINE#         1673
 C1:6825H         LINE#         1674
 C1:6835H         LINE#         1675
 C1:685EH         LINE#         1676
 C1:688AH         LINE#         1679
 C1:68A1H         LINE#         1682
 C1:68B9H         LINE#         1683
 C1:68BBH         LINE#         1684
 C1:68D0H         LINE#         1685
 C1:68D8H         LINE#         1686
 C1:68D8H         LINE#         1688
 C1:68D8H         LINE#         1690
 C1:68F4H         LINE#         1691
 C1:6900H         LINE#         1694
 C1:6909H         LINE#         1696
 C1:6912H         LINE#         1702
 C1:6955H         LINE#         1703
 C1:6977H         LINE#         1710
 C1:698AH         LINE#         1711
 C1:6998H         LINE#         1712
 C1:69A6H         LINE#         1713
 C1:69AEH         LINE#         1714
 C1:69BCH         LINE#         1715
 C1:69CBH         LINE#         1716
 C1:69D2H         LINE#         1719
 C1:69DBH         LINE#         1721
 C1:69E4H         LINE#         1727
 C1:6A27H         LINE#         1728
 C1:6A49H         LINE#         1731
 C1:6A57H         LINE#         1732
 C1:6A57H         LINE#         1733
 C1:6A66H         LINE#         1736
 C1:6A66H         LINE#         1737
 C1:6A6DH         LINE#         1739
  -------         ENDPROC       _UIP_PROCESS
  -------         ENDMOD        UIP

  -------         MODULE        UIP_ARP
  C:0000H         SYMBOL        _ICE_DUMMY_
  D:0080H         PUBLIC        P0
  D:0090H         PUBLIC        P1
  X:29E6H         SYMBOL        tmpage
BL51 BANKED LINKER/LOCATER V6.00                                                      12/23/2015  16:04:37  PAGE 86


  D:00A0H         PUBLIC        P2
  D:00B0H         PUBLIC        P3
  D:00E8H         PUBLIC        P4
 C6:9B0BH         PUBLIC        uip_arp_ipin
 C6:9D0DH         PUBLIC        uip_arp_init
  D:00A8H         PUBLIC        IE
  X:29E8H         PUBLIC        uip_ethaddr
  D:00B8H         PUBLIC        IP
 C6:89CEH         PUBLIC        uip_arp_out
  X:29EEH         PUBLIC        arp_table
 C6:97EDH         PUBLIC        gateway_mac_req
  D:0098H         PUBLIC        SCON
  D:0088H         PUBLIC        TCON
 C6:936BH         SYMBOL        _uip_arp_update
  D:00D8H         PUBLIC        WDTCON
  X:2ADEH         SYMBOL        c
  D:00C8H         PUBLIC        T2CON
  X:2ADFH         SYMBOL        i
 C6:9185H         PUBLIC        uip_arp_arpin
  X:2AE0H         SYMBOL        arptime
  X:2AE2H         SYMBOL        ipaddr
 C6:9BB4H         PUBLIC        uip_arp_timer
  D:00D0H         PUBLIC        PSW

  -------         PROC BANK=6   UIP_ARP_INIT
 C6:9D0DH         LINE#         175
 C6:9D0DH         LINE#         176
 C6:9D0DH         LINE#         184
 C6:9D1CH         LINE#         185
 C6:9D3BH         LINE#         186
 C6:9D43H         LINE#         187
  -------         ENDPROC       UIP_ARP_INIT

  -------         PROC BANK=6   UIP_ARP_TIMER
  -------         DO            
  D:0001H         SYMBOL        tabptr
  -------         ENDDO         
 C6:9BB4H         LINE#         199
 C6:9BB4H         LINE#         200
 C6:9BB4H         LINE#         203
 C6:9BC2H         LINE#         204
 C6:9BD1H         LINE#         205
 C6:9BE0H         LINE#         206
 C6:9C14H         LINE#         207
 C6:9C14H         LINE#         208
 C6:9C1DH         LINE#         209
 C6:9C1DH         LINE#         210
 C6:9C25H         LINE#         212
  -------         ENDPROC       UIP_ARP_TIMER

  -------         PROC BANK=6   _UIP_ARP_UPDATE
  X:3521H         SYMBOL        ipaddr
  X:3524H         SYMBOL        ethaddr
  -------         DO            
  X:3527H         SYMBOL        tabptr
  -------         ENDDO         
 C6:936BH         LINE#         215
BL51 BANKED LINKER/LOCATER V6.00                                                      12/23/2015  16:04:37  PAGE 87


 C6:9376H         LINE#         216
 C6:9376H         LINE#         221
 C6:9388H         LINE#         223
 C6:93A2H         LINE#         225
 C6:93BEH         LINE#         226
 C6:93BEH         LINE#         230
 C6:9407H         LINE#         231
 C6:9407H         LINE#         234
 C6:9407H         LINE#         235
 C6:940AH         LINE#         238
 C6:940AH         LINE#         239
 C6:940AH         LINE#         240
 C6:9413H         LINE#         246
 C6:9422H         LINE#         247
 C6:943CH         LINE#         248
 C6:9458H         LINE#         249
 C6:9458H         LINE#         250
 C6:9458H         LINE#         251
 C6:9458H         LINE#         252
 C6:9460H         LINE#         256
 C6:9468H         LINE#         257
 C6:946EH         LINE#         258
 C6:9472H         LINE#         259
 C6:947EH         LINE#         260
 C6:9498H         LINE#         261
 C6:94BAH         LINE#         262
 C6:94BFH         LINE#         263
 C6:94C7H         LINE#         264
 C6:94C7H         LINE#         265
 C6:94CFH         LINE#         266
 C6:94D5H         LINE#         267
 C6:94D5H         LINE#         271
 C6:94F6H         LINE#         272
 C6:951CH         LINE#         273
 C6:9538H         LINE#         274
  -------         ENDPROC       _UIP_ARP_UPDATE

  -------         PROC BANK=6   UIP_ARP_IPIN
 C6:9B0BH         LINE#         290
 C6:9B0BH         LINE#         291
 C6:9B0BH         LINE#         292
 C6:9B19H         LINE#         296
 C6:9B4AH         LINE#         297
 C6:9B4AH         LINE#         299
 C6:9B4AH         LINE#         300
 C6:9B7BH         LINE#         301
 C6:9B7BH         LINE#         303
 C6:9B7BH         LINE#         304
 C6:9BB3H         LINE#         307
  -------         ENDPROC       UIP_ARP_IPIN

  -------         PROC BANK=6   UIP_ARP_ARPIN
 C6:9185H         LINE#         332
 C6:9185H         LINE#         333
 C6:9185H         LINE#         335
 C6:9194H         LINE#         336
 C6:9199H         LINE#         338
BL51 BANKED LINKER/LOCATER V6.00                                                      12/23/2015  16:04:37  PAGE 88


 C6:9199H         LINE#         340
 C6:91A0H         LINE#         342
 C6:91C9H         LINE#         343
 C6:91C9H         LINE#         347
 C6:91F7H         LINE#         349
 C6:920CH         LINE#         351
 C6:923AH         LINE#         352
 C6:925BH         LINE#         353
 C6:927CH         LINE#         354
 C6:92A8H         LINE#         356
 C6:92C4H         LINE#         357
 C6:92D5H         LINE#         358
 C6:92E5H         LINE#         359
 C6:92F5H         LINE#         361
 C6:9300H         LINE#         362
 C6:9309H         LINE#         363
 C6:9309H         LINE#         364
 C6:930AH         LINE#         365
 C6:930AH         LINE#         369
 C6:933BH         LINE#         370
 C6:936AH         LINE#         371
 C6:936AH         LINE#         372
 C6:936AH         LINE#         373
 C6:936AH         LINE#         376
  -------         ENDPROC       UIP_ARP_ARPIN

  -------         PROC BANK=6   UIP_ARP_OUT
  -------         DO            
  X:3771H         SYMBOL        tabptr
  -------         ENDDO         
 C6:89CEH         LINE#         406
 C6:89CEH         LINE#         407
 C6:89CEH         LINE#         421
 C6:8A25H         LINE#         422
 C6:8A25H         LINE#         428
 C6:8A34H         LINE#         429
 C6:8A3FH         LINE#         430
 C6:8A41H         LINE#         432
 C6:8A5CH         LINE#         433
 C6:8A6CH         LINE#         434
 C6:8A6CH         LINE#         435
 C6:8A7BH         LINE#         436
 C6:8A95H         LINE#         437
 C6:8AC4H         LINE#         439
 C6:8AC4H         LINE#         440
 C6:8ACCH         LINE#         441
 C6:8AF7H         LINE#         443
 C6:8B02H         LINE#         446
 C6:8B15H         LINE#         447
 C6:8B2EH         LINE#         448
 C6:8B4FH         LINE#         449
 C6:8B70H         LINE#         451
 C6:8B8CH         LINE#         452
 C6:8B9CH         LINE#         453
 C6:8BACH         LINE#         454
 C6:8BBCH         LINE#         455
 C6:8BC6H         LINE#         456
BL51 BANKED LINKER/LOCATER V6.00                                                      12/23/2015  16:04:37  PAGE 89


 C6:8BD0H         LINE#         457
 C6:8BDBH         LINE#         458
 C6:8BE3H         LINE#         459
 C6:8BEBH         LINE#         460
 C6:8BF6H         LINE#         462
 C6:8C08H         LINE#         463
 C6:8C12H         LINE#         465
 C6:8C12H         LINE#         468
 C6:8C3BH         LINE#         469
 C6:8C3BH         LINE#         470
 C6:8C44H         LINE#         471
 C6:8C46H         LINE#         473
 C6:8C46H         LINE#         474
 C6:8C74H         LINE#         475
 C6:8C74H         LINE#         476
 C6:8C95H         LINE#         477
 C6:8CABH         LINE#         478
 C6:8CB9H         LINE#         479
  -------         ENDPROC       UIP_ARP_OUT

  -------         PROC BANK=6   GATEWAY_MAC_REQ
 C6:97EDH         LINE#         482
 C6:97EDH         LINE#         483
 C6:97EDH         LINE#         484
 C6:97F3H         LINE#         485
 C6:97F3H         LINE#         486
 C6:9808H         LINE#         487
 C6:980FH         LINE#         488
 C6:980FH         LINE#         489
 C6:9823H         LINE#         490
 C6:983CH         LINE#         491
 C6:985DH         LINE#         492
 C6:987EH         LINE#         494
 C6:989AH         LINE#         495
 C6:98AAH         LINE#         496
 C6:98BAH         LINE#         497
 C6:98CAH         LINE#         498
 C6:98D4H         LINE#         499
 C6:98DEH         LINE#         500
 C6:98E9H         LINE#         501
 C6:98F1H         LINE#         502
 C6:98F9H         LINE#         503
 C6:9904H         LINE#         505
 C6:9916H         LINE#         506
 C6:991FH         LINE#         507
 C6:9926H         LINE#         508
  -------         ENDPROC       GATEWAY_MAC_REQ
  -------         ENDMOD        UIP_ARP

  -------         MODULE        MUIP
  C:0000H         SYMBOL        _ICE_DUMMY_
  D:0080H         PUBLIC        P0
  D:0090H         PUBLIC        P1
  D:00A0H         PUBLIC        P2
  D:00B0H         PUBLIC        P3
  D:00E8H         PUBLIC        P4
  X:1F1EH         PUBLIC        muip_buf_cnt
BL51 BANKED LINKER/LOCATER V6.00                                                      12/23/2015  16:04:37  PAGE 90


  D:00A8H         PUBLIC        IE
  D:00B8H         PUBLIC        IP
 C1:9C73H         PUBLIC        muip_process
  D:0098H         PUBLIC        SCON
  D:0088H         PUBLIC        TCON
  X:1F1FH         PUBLIC        muip_need_send
 C1:92C6H         PUBLIC        muip_send
  X:1F20H         PUBLIC        muip_conn
  D:00D8H         PUBLIC        WDTCON
  X:1F23H         PUBLIC        muip_snd_nxt0
  X:1F27H         PUBLIC        muip_snd_nxt1
 C1:DA4CH         PUBLIC        muip_init
  X:1F2BH         PUBLIC        muip_first_ack
  X:1F2CH         PUBLIC        muip_buf
  X:2522H         PUBLIC        muip_len
  D:00C8H         PUBLIC        T2CON
  X:2524H         PUBLIC        uip_window_size
  D:00D0H         PUBLIC        PSW

  -------         PROC BANK=1   MUIP_INIT
 C1:DA4CH         LINE#         51
 C1:DA4CH         LINE#         52
 C1:DA4CH         LINE#         53
 C1:DA51H         LINE#         54
 C1:DA5AH         LINE#         55
  -------         ENDPROC       MUIP_INIT

  -------         PROC BANK=1   MUIP_SEND
  -------         DO            
  X:368BH         SYMBOL        i
  X:368CH         SYMBOL        len
  X:368EH         SYMBOL        MBUF
  -------         ENDDO         
 C1:92C6H         LINE#         70
 C1:92C6H         LINE#         71
 C1:92C6H         LINE#         76
 C1:92CFH         LINE#         80
 C1:92D5H         LINE#         81
 C1:92DBH         LINE#         84
 C1:92E0H         LINE#         86
 C1:92F3H         LINE#         87
 C1:92FDH         LINE#         88
 C1:9307H         LINE#         89
 C1:9311H         LINE#         96
 C1:9326H         LINE#         97
 C1:9326H         LINE#         99
 C1:9329H         LINE#         104
 C1:9355H         LINE#         113
 C1:935BH         LINE#         114
 C1:935BH         LINE#         115
 C1:9375H         LINE#         116
 C1:9377H         LINE#         118
 C1:9377H         LINE#         119
 C1:939DH         LINE#         120
 C1:939DH         LINE#         122
 C1:93B6H         LINE#         123
 C1:93CBH         LINE#         124
BL51 BANKED LINKER/LOCATER V6.00                                                      12/23/2015  16:04:37  PAGE 91


 C1:93E0H         LINE#         125
 C1:93F5H         LINE#         129
 C1:9415H         LINE#         133
 C1:942EH         LINE#         134
 C1:9443H         LINE#         135
 C1:945CH         LINE#         136
 C1:9471H         LINE#         138
 C1:9490H         LINE#         139
 C1:949FH         LINE#         140
 C1:94A6H         LINE#         141
 C1:94B4H         LINE#         142
 C1:94C3H         LINE#         143
 C1:94CAH         LINE#         144
 C1:94D3H         LINE#         145
 C1:94DCH         LINE#         147
 C1:94E2H         LINE#         148
 C1:94E2H         LINE#         149
 C1:94FFH         LINE#         150
 C1:951CH         LINE#         151
 C1:951CH         LINE#         154
 C1:952AH         LINE#         155
 C1:952DH         LINE#         157
 C1:954EH         LINE#         158
 C1:9555H         LINE#         159
 C1:955EH         LINE#         161
 C1:9563H         LINE#         162
 C1:9567H         LINE#         164
 C1:956AH         LINE#         165
  -------         ENDPROC       MUIP_SEND

  -------         PROC BANK=1   MUIP_PROCESS
 C1:9C73H         LINE#         177
 C1:9C73H         LINE#         178
 C1:9C73H         LINE#         179
 C1:9C81H         LINE#         180
 C1:9C8AH         LINE#         183
 C1:9CA2H         LINE#         186
 C1:9CC0H         LINE#         187
 C1:9CD7H         LINE#         190
 C1:9CE4H         LINE#         193
 C1:9D09H         LINE#         194
 C1:9D3EH         LINE#         196
 C1:9D5BH         LINE#         200
 C1:9DA3H         LINE#         201
 C1:9DA3H         LINE#         204
 C1:9DA9H         LINE#         205
 C1:9DA9H         LINE#         207
 C1:9DACH         LINE#         213
 C1:9DD2H         LINE#         217
 C1:9E26H         LINE#         218
 C1:9E26H         LINE#         220
 C1:9E4FH         LINE#         221
 C1:9E64H         LINE#         222
 C1:9E7DH         LINE#         223
 C1:9E92H         LINE#         224
 C1:9EAAH         LINE#         225
 C1:9EAFH         LINE#         226
BL51 BANKED LINKER/LOCATER V6.00                                                      12/23/2015  16:04:37  PAGE 92


 C1:9EB3H         LINE#         227
 C1:9EB3H         LINE#         228
  -------         ENDPROC       MUIP_PROCESS
  -------         ENDMOD        MUIP

  -------         MODULE        CGI
  C:0000H         SYMBOL        _ICE_DUMMY_
 C1:A8D2H         PUBLIC        Httpd_Data_Processing

  -------         PROC BANK=1   HTTPD_DATA_PROCESSING
 C1:A8D2H         LINE#         41
 C1:A8D2H         LINE#         42
 C1:A8D2H         LINE#         44
 C1:A8E8H         LINE#         45
 C1:A8E8H         LINE#         46
 C1:A904H         LINE#         47
 C1:A928H         LINE#         48
 C1:A941H         LINE#         49
 C1:A941H         LINE#         53
 C1:A944H         LINE#         54
 C1:A946H         LINE#         55
 C1:A946H         LINE#         57
 C1:A946H         LINE#         59
 C1:A9DDH         LINE#         60
 C1:A9DDH         LINE#         64
 C1:A9E0H         LINE#         65
 C1:A9E2H         LINE#         66
 C1:A9E2H         LINE#         68
 C1:A9E2H         LINE#         75
 C1:AA69H         LINE#         76
 C1:AA69H         LINE#         80
 C1:AA6CH         LINE#         81
 C1:AA6EH         LINE#         82
 C1:AA6EH         LINE#         84
 C1:AA6EH         LINE#         88
 C1:AA71H         LINE#         89
 C1:AA73H         LINE#         90
 C1:AA73H         LINE#         91
 C1:AA73H         LINE#         92
 C1:AA73H         LINE#         93
 C1:AA73H         LINE#         94
 C1:AA74H         LINE#         95
  -------         ENDPROC       HTTPD_DATA_PROCESSING
  -------         ENDMOD        CGI

  -------         MODULE        CGIUTIL
  C:0000H         SYMBOL        _ICE_DUMMY_
 C1:C30DH         PUBLIC        tag_address_bigger_mss
 C1:B940H         PUBLIC        _uitos
 C1:CAF4H         PUBLIC        _stoui
 C1:AF00H         PUBLIC        last_tag_page
 C1:77BBH         PUBLIC        with_tag_page
 C1:B848H         PUBLIC        no_tag_page

  -------         PROC BANK=1   _STOUI
  X:352AH         SYMBOL        str_value
  -------         DO            
BL51 BANKED LINKER/LOCATER V6.00                                                      12/23/2015  16:04:37  PAGE 93


  X:352DH         SYMBOL        value
  X:352FH         SYMBOL        i
  X:3531H         SYMBOL        len
  -------         ENDDO         
 C1:CAF4H         LINE#         71
 C1:CAFFH         LINE#         72
 C1:CAFFH         LINE#         73
 C1:CB04H         LINE#         75
 C1:CB0FH         LINE#         76
 C1:CB32H         LINE#         77
 C1:CB32H         LINE#         78
 C1:CB64H         LINE#         79
 C1:CB74H         LINE#         80
 C1:CB7CH         LINE#         81
  -------         ENDPROC       _STOUI

  -------         PROC BANK=1   _UITOS
  X:35A5H         SYMBOL        int_value
  -------         DO            
  D:0002H         SYMBOL        i
  X:3691H         SYMBOL        str
  X:35A7H         SYMBOL        base
  X:35A9H         SYMBOL        last_div
  X:35ABH         SYMBOL        div
  -------         ENDDO         
 C1:B940H         LINE#         86
 C1:B948H         LINE#         87
 C1:B948H         LINE#         88
 C1:B94BH         LINE#         90
 C1:B95CH         LINE#         91
 C1:B96DH         LINE#         92
 C1:B96DH         LINE#         93
 C1:B981H         LINE#         94
 C1:B998H         LINE#         95
 C1:B99AH         LINE#         96
 C1:B9AEH         LINE#         97
 C1:B9AEH         LINE#         98
 C1:B9C6H         LINE#         99
 C1:B9E2H         LINE#         100
 C1:B9F1H         LINE#         101
 C1:BA08H         LINE#         102
 C1:BA0FH         LINE#         103
 C1:BA21H         LINE#         104
 C1:BA30H         LINE#         105
 C1:BA36H         LINE#         106
  -------         ENDPROC       _UITOS

  -------         PROC BANK=1   NO_TAG_PAGE
 C1:B848H         LINE#         118
 C1:B848H         LINE#         119
 C1:B848H         LINE#         120
 C1:B881H         LINE#         121
 C1:B881H         LINE#         122
 C1:B89FH         LINE#         123
 C1:B8BAH         LINE#         125
 C1:B8BCH         LINE#         127
 C1:B8BCH         LINE#         128
BL51 BANKED LINKER/LOCATER V6.00                                                      12/23/2015  16:04:37  PAGE 94


 C1:B8D8H         LINE#         129
 C1:B8E4H         LINE#         130
 C1:B8E4H         LINE#         131
 C1:B921H         LINE#         132
 C1:B93DH         LINE#         133
 C1:B93FH         LINE#         134
  -------         ENDPROC       NO_TAG_PAGE

  -------         PROC BANK=1   LAST_TAG_PAGE
 C1:AF00H         LINE#         148
 C1:AF00H         LINE#         149
 C1:AF00H         LINE#         150
 C1:AF57H         LINE#         151
 C1:AF57H         LINE#         152
 C1:AF75H         LINE#         153
 C1:AF90H         LINE#         154
 C1:AFA6H         LINE#         155
 C1:AFA8H         LINE#         157
 C1:AFA8H         LINE#         158
 C1:AFE0H         LINE#         159
 C1:AFECH         LINE#         160
 C1:AFF5H         LINE#         162
 C1:AFF5H         LINE#         163
 C1:B032H         LINE#         164
 C1:B04EH         LINE#         165
 C1:B058H         LINE#         166
 C1:B05AH         LINE#         167
  -------         ENDPROC       LAST_TAG_PAGE

  -------         PROC BANK=1   TAG_ADDRESS_BIGGER_MSS
 C1:C30DH         LINE#         181
 C1:C30DH         LINE#         182
 C1:C30DH         LINE#         183
 C1:C336H         LINE#         184
 C1:C351H         LINE#         185
 C1:C38EH         LINE#         186
 C1:C3AAH         LINE#         187
 C1:C3B4H         LINE#         188
 C1:C3D0H         LINE#         189
 C1:C3D2H         LINE#         190
  -------         ENDPROC       TAG_ADDRESS_BIGGER_MSS

  -------         PROC BANK=1   WITH_TAG_PAGE
  -------         DO            
  X:34DEH         SYMBOL        tag_value
  X:34E2H         SYMBOL        tag_mss_flag
  D:0007H         SYMBOL        switch_varid
  X:34E3H         SYMBOL        tag_value_len
  X:34E5H         SYMBOL        tag_asc_value
  -------         ENDDO         
 C1:77BBH         LINE#         202
 C1:77BBH         LINE#         203
 C1:77BBH         LINE#         205
 C1:77C0H         LINE#         209
 C1:77C0H         LINE#         211
 C1:7857H         LINE#         212
 C1:7857H         LINE#         213
BL51 BANKED LINKER/LOCATER V6.00                                                      12/23/2015  16:04:37  PAGE 95


 C1:7857H         LINE#         214
 C1:785AH         LINE#         216
 C1:785AH         LINE#         217
 C1:78E4H         LINE#         218
 C1:78E4H         LINE#         219
 C1:794CH         LINE#         220
 C1:79AFH         LINE#         221
 C1:79ECH         LINE#         222
 C1:7A08H         LINE#         223
 C1:7A12H         LINE#         224
 C1:7A19H         LINE#         225
 C1:7A66H         LINE#         226
 C1:7A79H         LINE#         227
 C1:7A94H         LINE#         228
 C1:7A94H         LINE#         229
 C1:7A94H         LINE#         230
 C1:7A9CH         LINE#         231
 C1:7AAAH         LINE#         232
 C1:7AAAH         LINE#         233
 C1:7AB5H         LINE#         234
 C1:7AB5H         LINE#         235
 C1:7AB8H         LINE#         236
 C1:7AB8H         LINE#         237
 C1:7ACBH         LINE#         238
 C1:7AD3H         LINE#         239
 C1:7ADBH         LINE#         240
 C1:7AE4H         LINE#         244
 C1:7AE7H         LINE#         245
 C1:7AE7H         LINE#         246
 C1:7AFAH         LINE#         247
 C1:7B05H         LINE#         248
 C1:7B05H         LINE#         249
 C1:7B17H         LINE#         250
 C1:7B1FH         LINE#         251
 C1:7B58H         LINE#         252
 C1:7B58H         LINE#         253
 C1:7B65H         LINE#         254
 C1:7B6DH         LINE#         255
 C1:7B6DH         LINE#         259
 C1:7B6FH         LINE#         261
 C1:7B6FH         LINE#         262
 C1:7B81H         LINE#         263
 C1:7B86H         LINE#         264
 C1:7B86H         LINE#         265
 C1:7B86H         LINE#         266
 C1:7B89H         LINE#         267
 C1:7B89H         LINE#         268
 C1:7B9FH         LINE#         269
 C1:7B9FH         LINE#         270
 C1:7BA7H         LINE#         271
 C1:7BAFH         LINE#         272
 C1:7BB8H         LINE#         273
 C1:7BB8H         LINE#         274
 C1:7BBAH         LINE#         275
 C1:7BBAH         LINE#         276
 C1:7BD0H         LINE#         277
 C1:7BD0H         LINE#         278
BL51 BANKED LINKER/LOCATER V6.00                                                      12/23/2015  16:04:37  PAGE 96


 C1:7BD8H         LINE#         279
 C1:7C11H         LINE#         280
 C1:7C11H         LINE#         281
 C1:7C1EH         LINE#         282
 C1:7C26H         LINE#         286
 C1:7C29H         LINE#         288
 C1:7C29H         LINE#         289
 C1:7C3BH         LINE#         290
 C1:7C3BH         LINE#         291
 C1:7C3BH         LINE#         292
 C1:7C3EH         LINE#         293
 C1:7C3EH         LINE#         297
 C1:7C56H         LINE#         298
 C1:7C56H         LINE#         299
 C1:7CCAH         LINE#         300
 C1:7CCAH         LINE#         305
 C1:7CD5H         LINE#         306
 C1:7CD5H         LINE#         307
 C1:7CD5H         LINE#         308
 C1:7CE0H         LINE#         309
 C1:7CE0H         LINE#         310
 C1:7CE2H         LINE#         311
 C1:7CE2H         LINE#         312
 C1:7CF8H         LINE#         313
 C1:7D03H         LINE#         314
 C1:7D03H         LINE#         315
 C1:7D03H         LINE#         316
 C1:7D03H         LINE#         317
 C1:7D03H         LINE#         318
 C1:7D03H         LINE#         319
 C1:7D03H         LINE#         320
 C1:7D34H         LINE#         321
 C1:7D34H         LINE#         322
 C1:7D3FH         LINE#         323
 C1:7D3FH         LINE#         324
 C1:7D6AH         LINE#         325
 C1:7D7EH         LINE#         327
 C1:7D7EH         LINE#         328
 C1:7D94H         LINE#         329
 C1:7D94H         LINE#         331
 C1:7DE4H         LINE#         332
 C1:7E04H         LINE#         333
 C1:7E60H         LINE#         335
 C1:7E60H         LINE#         337
 C1:7E60H         LINE#         340
 C1:7E60H         LINE#         341
 C1:7E66H         LINE#         342
 C1:7E82H         LINE#         343
 C1:7EA6H         LINE#         344
 C1:7EADH         LINE#         345
 C1:7EC0H         LINE#         346
 C1:7EC2H         LINE#         348
 C1:7EC2H         LINE#         349
 C1:7EC3H         LINE#         350
 C1:7EC3H         LINE#         351
 C1:7EC5H         LINE#         353
 C1:7EC5H         LINE#         354
BL51 BANKED LINKER/LOCATER V6.00                                                      12/23/2015  16:04:37  PAGE 97


 C1:7ECAH         LINE#         355
 C1:7ECAH         LINE#         356
 C1:7ECAH         LINE#         357
 C1:7ED3H         LINE#         358
 C1:7EEFH         LINE#         371
 C1:7EF1H         LINE#         372
  -------         ENDPROC       WITH_TAG_PAGE
  -------         ENDMOD        CGIUTIL

  -------         MODULE        CHALLENGE
  C:0000H         SYMBOL        _ICE_DUMMY_
  D:0090H         PUBLIC        P1
  D:00B0H         PUBLIC        P3
  D:00A8H         PUBLIC        IE
  D:00B8H         PUBLIC        IP
  X:3533H         PUBLIC        challenge_data
  D:0098H         PUBLIC        SCON
  D:0088H         PUBLIC        TCON
  D:00D8H         PUBLIC        WDTCON
  D:00C8H         PUBLIC        T2CON
  D:00D0H         PUBLIC        PSW
  -------         ENDMOD        CHALLENGE

  -------         MODULE        COOKIE
  C:0000H         SYMBOL        _ICE_DUMMY_
  D:0090H         PUBLIC        P1
  D:00B0H         PUBLIC        P3
 C1:B19FH         PUBLIC        httpd_parse_cookie
  D:00A8H         PUBLIC        IE
  D:00B8H         PUBLIC        IP
  D:0098H         PUBLIC        SCON
 C1:CA65H         PUBLIC        httpd_set_cookie
  D:0088H         PUBLIC        TCON
  D:00D8H         PUBLIC        WDTCON
  D:00C8H         PUBLIC        T2CON
  D:00D0H         PUBLIC        PSW
  X:353CH         PUBLIC        cookie_data

  -------         PROC BANK=1   HTTPD_PARSE_COOKIE
  -------         DO            
  X:35ADH         SYMBOL        currentage
  X:35B1H         SYMBOL        sum_age
  -------         ENDDO         
 C1:B19FH         LINE#         34
 C1:B19FH         LINE#         35
 C1:B19FH         LINE#         37
 C1:B1C5H         LINE#         38
 C1:B1D9H         LINE#         39
 C1:B204H         LINE#         43
 C1:B21DH         LINE#         44
 C1:B21DH         LINE#         45
 C1:B241H         LINE#         46
 C1:B241H         LINE#         47
 C1:B25FH         LINE#         48
 C1:B25FH         LINE#         49
 C1:B26EH         LINE#         51
 C1:B270H         LINE#         53
BL51 BANKED LINKER/LOCATER V6.00                                                      12/23/2015  16:04:37  PAGE 98


 C1:B270H         LINE#         54
 C1:B293H         LINE#         55
 C1:B293H         LINE#         57
 C1:B2B6H         LINE#         58
 C1:B2B6H         LINE#         59
 C1:B2CAH         LINE#         60
 C1:B2DEH         LINE#         61
 C1:B2E0H         LINE#         62
 C1:B2E0H         LINE#         64
 C1:B2E0H         LINE#         66
 C1:B2E0H         LINE#         67
 C1:B2E1H         LINE#         68
  -------         ENDPROC       HTTPD_PARSE_COOKIE

  -------         PROC BANK=1   HTTPD_SET_COOKIE
  -------         DO            
  X:37B1H         SYMBOL        i_cookie
  X:37B2H         SYMBOL        buff
  -------         ENDDO         
 C1:CA65H         LINE#         80
 C1:CA65H         LINE#         81
 C1:CA65H         LINE#         84
 C1:CA72H         LINE#         85
 C1:CA77H         LINE#         86
 C1:CA77H         LINE#         89
 C1:CA77H         LINE#         90
 C1:CA88H         LINE#         91
 C1:CA94H         LINE#         93
 C1:CAA3H         LINE#         94
 C1:CAAFH         LINE#         95
 C1:CAB4H         LINE#         96
 C1:CAD9H         LINE#         97
 C1:CAEDH         LINE#         98
 C1:CAF3H         LINE#         99
  -------         ENDPROC       HTTPD_SET_COOKIE
  -------         ENDMOD        COOKIE

  -------         MODULE        HTTPD
  C:0000H         SYMBOL        _ICE_DUMMY_
  D:0080H         PUBLIC        P0
  D:0090H         PUBLIC        P1
  D:00A0H         PUBLIC        P2
  X:0000H         PUBLIC        getlen
  D:00B0H         PUBLIC        P3
  D:00E8H         PUBLIC        P4
  B:00A8H.7       PUBLIC        EA
  D:00A8H         PUBLIC        IE
  D:00B8H         PUBLIC        IP
  X:0002H         PUBLIC        EE_TMPBUFFER
  D:0098H         PUBLIC        SCON
  D:0088H         PUBLIC        TCON
 C1:6A6EH         PUBLIC        http_server
 C1:D7B4H         PUBLIC        httpd_init
 C1:C5F3H         PUBLIC        _httpd_check_cookie
  D:00D8H         PUBLIC        WDTCON
  X:0BBAH         PUBLIC        hs
 C1:CEA4H         PUBLIC        httpd_copydata
BL51 BANKED LINKER/LOCATER V6.00                                                      12/23/2015  16:04:37  PAGE 99


  X:0BBDH         PUBLIC        reqdata
  D:00C8H         PUBLIC        T2CON
  D:00D0H         PUBLIC        PSW

  -------         PROC BANK=1   HTTPD_INIT
 C1:D7B4H         LINE#         81
 C1:D7B4H         LINE#         82
 C1:D7B4H         LINE#         84
 C1:D7BBH         LINE#         87
 C1:D7CAH         LINE#         88
 C1:D7D9H         LINE#         91
  -------         ENDPROC       HTTPD_INIT

  -------         PROC BANK=1   HTTP_SERVER
  -------         DO            
  X:33B3H         SYMBOL        hfile_ptr
  X:33B6H         SYMBOL        p_reqfile
  X:33B9H         SYMBOL        filenum
  D:0001H         SYMBOL        CR_ptr
  X:33BAH         SYMBOL        str_ptr
  X:33BDH         SYMBOL        requestname_ptr
  X:33BEH         SYMBOL        count
  X:33BFH         SYMBOL        i_httpd
  X:33C1H         SYMBOL        tmp_EA
  -------         DO            
  X:33C2H         SYMBOL        acklen
  -------         ENDDO         
  -------         ENDDO         
 C1:6A6EH         LINE#         109
 C1:6A6EH         LINE#         110
 C1:6A6EH         LINE#         113
 C1:6A75H         LINE#         115
 C1:6A7CH         LINE#         117
 C1:6A7EH         LINE#         119
 C1:6A81H         LINE#         121
 C1:6A84H         LINE#         126
 C1:6A8DH         LINE#         128
 C1:6AA8H         LINE#         137
 C1:6AAFH         LINE#         138
 C1:6AAFH         LINE#         145
 C1:6AC6H         LINE#         146
 C1:6AD8H         LINE#         147
 C1:6AE7H         LINE#         148
 C1:6AEEH         LINE#         149
 C1:6B02H         LINE#         150
 C1:6B09H         LINE#         151
 C1:6B0CH         LINE#         154
 C1:6B0CH         LINE#         155
 C1:6B13H         LINE#         156
 C1:6B13H         LINE#         164
 C1:6B27H         LINE#         165
 C1:6B27H         LINE#         166
 C1:6B3FH         LINE#         167
 C1:6B3FH         LINE#         168
 C1:6B45H         LINE#         169
 C1:6B45H         LINE#         170
 C1:6B45H         LINE#         171
BL51 BANKED LINKER/LOCATER V6.00                                                      12/23/2015  16:04:37  PAGE 100


 C1:6B48H         LINE#         173
 C1:6B48H         LINE#         174
 C1:6B50H         LINE#         175
 C1:6B50H         LINE#         176
 C1:6B53H         LINE#         178
 C1:6B53H         LINE#         179
 C1:6B5DH         LINE#         180
 C1:6B5DH         LINE#         181
 C1:6B73H         LINE#         182
 C1:6B73H         LINE#         183
 C1:6B79H         LINE#         188
 C1:6B9FH         LINE#         189
 C1:6B9FH         LINE#         190
 C1:6BC5H         LINE#         191
 C1:6BC5H         LINE#         193
 C1:6BCAH         LINE#         194
 C1:6BCDH         LINE#         196
 C1:6BCDH         LINE#         198
 C1:6BCDH         LINE#         199
 C1:6BD3H         LINE#         200
 C1:6BE6H         LINE#         201
 C1:6BE6H         LINE#         202
 C1:6BE8H         LINE#         204
 C1:6BE8H         LINE#         205
 C1:6BEEH         LINE#         206
 C1:6C01H         LINE#         208
 C1:6C0AH         LINE#         209
 C1:6C0AH         LINE#         211
 C1:6C0AH         LINE#         212
 C1:6C28H         LINE#         213
 C1:6C28H         LINE#         214
 C1:6C40H         LINE#         215
 C1:6C40H         LINE#         217
 C1:6C40H         LINE#         218
 C1:6C40H         LINE#         220
 C1:6C40H         LINE#         222
 C1:6C40H         LINE#         223
 C1:6C40H         LINE#         224
 C1:6C5AH         LINE#         226
 C1:6C8FH         LINE#         227
 C1:6C8FH         LINE#         228
 C1:6C92H         LINE#         229
 C1:6CCAH         LINE#         232
 C1:6CCAH         LINE#         233
 C1:6CE4H         LINE#         234
 C1:6CE6H         LINE#         235
 C1:6CE6H         LINE#         236
 C1:6CF7H         LINE#         237
 C1:6D14H         LINE#         239
 C1:6D2CH         LINE#         240
 C1:6D2CH         LINE#         241
 C1:6D5BH         LINE#         242
 C1:6D88H         LINE#         243
 C1:6D9EH         LINE#         244
 C1:6D9EH         LINE#         245
 C1:6DB3H         LINE#         246
 C1:6DC9H         LINE#         251
BL51 BANKED LINKER/LOCATER V6.00                                                      12/23/2015  16:04:37  PAGE 101


 C1:6DD1H         LINE#         252
 C1:6DD1H         LINE#         254
 C1:6DD1H         LINE#         257
 C1:6E07H         LINE#         261
 C1:6E1BH         LINE#         264
 C1:6E33H         LINE#         265
 C1:6E33H         LINE#         268
 C1:6E3DH         LINE#         269
 C1:6E46H         LINE#         270
 C1:6E73H         LINE#         271
 C1:6E81H         LINE#         272
 C1:6E81H         LINE#         273
 C1:6E86H         LINE#         274
 C1:6E94H         LINE#         275
 C1:6EA6H         LINE#         276
 C1:6EA8H         LINE#         279
 C1:6EA8H         LINE#         280
 C1:6EE1H         LINE#         282
 C1:6EF7H         LINE#         283
 C1:6EFCH         LINE#         284
 C1:6EFCH         LINE#         285
 C1:6F00H         LINE#         286
 C1:6F00H         LINE#         288
 C1:6F16H         LINE#         289
 C1:6F16H         LINE#         290
 C1:6F1EH         LINE#         291
 C1:6F1EH         LINE#         292
 C1:6F1EH         LINE#         293
 C1:6F1EH         LINE#         294
 C1:6F33H         LINE#         295
 C1:6F3EH         LINE#         296
 C1:6F61H         LINE#         298
 C1:6F6AH         LINE#         299
 C1:6F90H         LINE#         300
 C1:6F9EH         LINE#         301
 C1:6F9EH         LINE#         317
 C1:6FB5H         LINE#         318
 C1:6FB5H         LINE#         319
 C1:6FC5H         LINE#         320
 C1:6FC5H         LINE#         323
 C1:6FDCH         LINE#         324
 C1:6FDCH         LINE#         325
 C1:700BH         LINE#         326
 C1:700BH         LINE#         327
 C1:700BH         LINE#         330
 C1:7026H         LINE#         331
 C1:7026H         LINE#         334
 C1:7041H         LINE#         335
 C1:7041H         LINE#         341
 C1:707BH         LINE#         342
 C1:7096H         LINE#         343
 C1:7096H         LINE#         345
 C1:7099H         LINE#         346
 C1:7099H         LINE#         347
 C1:7099H         LINE#         348
 C1:7099H         LINE#         350
 C1:70A9H         LINE#         351
BL51 BANKED LINKER/LOCATER V6.00                                                      12/23/2015  16:04:37  PAGE 102


 C1:70A9H         LINE#         352
 C1:70D8H         LINE#         353
 C1:70D8H         LINE#         356
 C1:70F5H         LINE#         358
 C1:7108H         LINE#         359
 C1:7108H         LINE#         360
 C1:712FH         LINE#         361
 C1:713DH         LINE#         362
 C1:7166H         LINE#         363
 C1:7166H         LINE#         367
 C1:7166H         LINE#         369
 C1:7166H         LINE#         374
 C1:7169H         LINE#         383
 C1:7169H         LINE#         384
 C1:716FH         LINE#         385
 C1:716FH         LINE#         386
 C1:718CH         LINE#         387
 C1:7191H         LINE#         388
 C1:71B8H         LINE#         390
 C1:71BBH         LINE#         392
 C1:71BBH         LINE#         394
 C1:71CEH         LINE#         395
 C1:71E7H         LINE#         396
 C1:71E7H         LINE#         398
 C1:71E7H         LINE#         399
 C1:71ECH         LINE#         400
 C1:71F2H         LINE#         402
 C1:71F2H         LINE#         403
 C1:7204H         LINE#         404
 C1:7221H         LINE#         405
 C1:7221H         LINE#         406
 C1:7224H         LINE#         407
 C1:7243H         LINE#         410
 C1:7243H         LINE#         411
 C1:7255H         LINE#         412
 C1:7257H         LINE#         413
 C1:7257H         LINE#         414
 C1:7267H         LINE#         416
 C1:7284H         LINE#         417
 C1:72B1H         LINE#         418
 C1:72C7H         LINE#         419
 C1:72C7H         LINE#         420
 C1:72DCH         LINE#         421
 C1:72F2H         LINE#         426
 C1:72FAH         LINE#         427
 C1:72FAH         LINE#         429
 C1:7303H         LINE#         430
 C1:7312H         LINE#         432
 C1:731CH         LINE#         433
 C1:7327H         LINE#         434
 C1:734EH         LINE#         436
 C1:735CH         LINE#         437
 C1:7373H         LINE#         440
 C1:7383H         LINE#         441
 C1:7383H         LINE#         442
 C1:73B2H         LINE#         443
 C1:73B2H         LINE#         446
BL51 BANKED LINKER/LOCATER V6.00                                                      12/23/2015  16:04:37  PAGE 103


 C1:73CFH         LINE#         448
 C1:73E2H         LINE#         449
 C1:73E2H         LINE#         450
 C1:7409H         LINE#         451
 C1:7417H         LINE#         452
 C1:743DH         LINE#         453
 C1:743DH         LINE#         457
 C1:7471H         LINE#         459
 C1:7471H         LINE#         464
 C1:7473H         LINE#         466
 C1:7473H         LINE#         468
 C1:7476H         LINE#         469
 C1:7476H         LINE#         470
 C1:7476H         LINE#         471
 C1:7476H         LINE#         472
 C1:7476H         LINE#         481
 C1:7476H         LINE#         483
 C1:7476H         LINE#         485
 C1:7480H         LINE#         486
 C1:7480H         LINE#         487
 C1:7492H         LINE#         488
 C1:7499H         LINE#         489
 C1:74B5H         LINE#         490
 C1:74B5H         LINE#         492
 C1:74D1H         LINE#         493
 C1:74E1H         LINE#         494
 C1:74E1H         LINE#         496
 C1:74E9H         LINE#         497
 C1:74F6H         LINE#         498
 C1:74F6H         LINE#         499
 C1:7539H         LINE#         500
 C1:755EH         LINE#         502
 C1:7560H         LINE#         504
 C1:7560H         LINE#         505
 C1:7585H         LINE#         506
 C1:759AH         LINE#         507
 C1:759AH         LINE#         508
 C1:759CH         LINE#         510
 C1:759CH         LINE#         511
 C1:75B0H         LINE#         512
 C1:75B0H         LINE#         513
 C1:75B2H         LINE#         515
 C1:75B2H         LINE#         516
 C1:75C5H         LINE#         517
 C1:75D6H         LINE#         518
 C1:75E2H         LINE#         519
 C1:75EEH         LINE#         520
 C1:75FAH         LINE#         526
 C1:75FAH         LINE#         527
 C1:7616H         LINE#         528
 C1:761FH         LINE#         529
 C1:761FH         LINE#         530
 C1:7632H         LINE#         531
 C1:7632H         LINE#         532
 C1:7647H         LINE#         533
 C1:7647H         LINE#         534
 C1:764DH         LINE#         535
BL51 BANKED LINKER/LOCATER V6.00                                                      12/23/2015  16:04:37  PAGE 104


 C1:7650H         LINE#         537
 C1:7650H         LINE#         538
 C1:7650H         LINE#         539
 C1:7657H         LINE#         541
 C1:7661H         LINE#         542
 C1:7661H         LINE#         543
 C1:7673H         LINE#         548
 C1:767DH         LINE#         549
 C1:767DH         LINE#         550
 C1:7685H         LINE#         551
 C1:7690H         LINE#         552
 C1:7690H         LINE#         553
 C1:7696H         LINE#         554
 C1:7699H         LINE#         556
 C1:7699H         LINE#         559
 C1:76B0H         LINE#         560
 C1:76E0H         LINE#         561
 C1:76ECH         LINE#         562
 C1:76F8H         LINE#         564
 C1:7718H         LINE#         565
 C1:7735H         LINE#         566
 C1:7751H         LINE#         580
 C1:7751H         LINE#         581
 C1:7751H         LINE#         584
 C1:7766H         LINE#         586
 C1:7766H         LINE#         587
 C1:776EH         LINE#         588
 C1:776EH         LINE#         589
 C1:7781H         LINE#         590
 C1:7781H         LINE#         592
 C1:7784H         LINE#         593
 C1:7784H         LINE#         595
 C1:7787H         LINE#         596
 C1:7796H         LINE#         597
 C1:77B2H         LINE#         598
 C1:77B2H         LINE#         599
 C1:77B2H         LINE#         600
 C1:77B2H         LINE#         601
 C1:77BAH         LINE#         604
  -------         ENDPROC       HTTP_SERVER

  -------         PROC BANK=1   HTTPD_COPYDATA
 C1:CEA4H         LINE#         606
 C1:CEA4H         LINE#         607
 C1:CEA4H         LINE#         608
 C1:CEC1H         LINE#         609
 C1:CEC1H         LINE#         610
 C1:CEC4H         LINE#         611
 C1:CEC4H         LINE#         613
 C1:CEC4H         LINE#         614
 C1:CEECH         LINE#         615
 C1:CF00H         LINE#         616
 C1:CF02H         LINE#         617
 C1:CF02H         LINE#         618
  -------         ENDPROC       HTTPD_COPYDATA

  -------         PROC BANK=1   _HTTPD_CHECK_COOKIE
BL51 BANKED LINKER/LOCATER V6.00                                                      12/23/2015  16:04:37  PAGE 105


  X:3774H         SYMBOL        reqfile
 C1:C5F3H         LINE#         620
 C1:C5FEH         LINE#         621
 C1:C5FEH         LINE#         622
 C1:C652H         LINE#         625
 C1:C652H         LINE#         626
 C1:C689H         LINE#         628
 C1:C689H         LINE#         629
 C1:C69CH         LINE#         630
 C1:C69FH         LINE#         631
 C1:C69FH         LINE#         636
 C1:C69FH         LINE#         637
 C1:C6A1H         LINE#         638
  -------         ENDPROC       _HTTPD_CHECK_COOKIE
  -------         ENDMOD        HTTPD

  -------         MODULE        APPLICATION
  C:0000H         SYMBOL        _ICE_DUMMY_
  D:0080H         PUBLIC        P0
  D:0090H         PUBLIC        P1
  D:00A0H         PUBLIC        P2
  D:00B0H         PUBLIC        P3
  D:00E8H         PUBLIC        P4
  X:3205H         SYMBOL        current
  X:3209H         PUBLIC        in_isr
 C1:D739H         PUBLIC        fiber_cover
  D:00A8H         PUBLIC        IE
  X:320AH         PUBLIC        f_auto_send
  B:00E8H.0       PUBLIC        P4_0
  B:00B0H.2       PUBLIC        P3_2
  B:00B0H.3       PUBLIC        P3_3
  D:00B8H         PUBLIC        IP
 C1:8267H         PUBLIC        application
 C1:C7F8H         PUBLIC        CheckPktSend
  X:320BH         SYMBOL        start
  D:0098H         PUBLIC        SCON
  X:320FH         PUBLIC        conn_timer
  D:0088H         PUBLIC        TCON
 C1:D1D5H         PUBLIC        fiber_cover2
  X:3213H         PUBLIC        config_g
 C1:D9CAH         PUBLIC        UDP_RECEIVE
  X:3229H         PUBLIC        system_parameter
  D:00D8H         PUBLIC        WDTCON
 C1:D6E2H         PUBLIC        on_tcp_rx
 C1:D985H         PUBLIC        _get_system_parameter
  B:0088H.4       PUBLIC        TR0
  D:00C8H         PUBLIC        T2CON
  X:322DH         PUBLIC        fiber_not_link_cnt
  D:00D0H         PUBLIC        PSW

  -------         PROC BANK=1   CHECKPKTSEND
 C1:C7F8H         LINE#         106
 C1:C7F8H         LINE#         107
 C1:C7F8H         LINE#         108
 C1:C805H         LINE#         109
 C1:C805H         LINE#         111
 C1:C808H         LINE#         117
BL51 BANKED LINKER/LOCATER V6.00                                                      12/23/2015  16:04:37  PAGE 106


 C1:C810H         LINE#         118
 C1:C810H         LINE#         119
 C1:C816H         LINE#         120
 C1:C816H         LINE#         121
 C1:C818H         LINE#         122
 C1:C844H         LINE#         123
 C1:C865H         LINE#         124
 C1:C873H         LINE#         125
 C1:C875H         LINE#         127
 C1:C878H         LINE#         128
 C1:C87EH         LINE#         129
 C1:C880H         LINE#         132
 C1:C883H         LINE#         134
 C1:C886H         LINE#         140
 C1:C897H         LINE#         144
 C1:C89EH         LINE#         145
 C1:C89EH         LINE#         146
  -------         ENDPROC       CHECKPKTSEND

  -------         PROC BANK=1   FIBER_COVER
 C1:D739H         LINE#         149
 C1:D739H         LINE#         150
 C1:D739H         LINE#         151
 C1:D744H         LINE#         152
 C1:D744H         LINE#         153
 C1:D744H         LINE#         154
 C1:D746H         LINE#         156
 C1:D746H         LINE#         157
 C1:D74CH         LINE#         158
 C1:D752H         LINE#         159
 C1:D752H         LINE#         160
 C1:D75DH         LINE#         161
 C1:D762H         LINE#         162
 C1:D762H         LINE#         163
 C1:D762H         LINE#         164
  -------         ENDPROC       FIBER_COVER

  -------         PROC BANK=1   FIBER_COVER2
  -------         DO            
  X:370BH         SYMBOL        tmp10
  X:370DH         SYMBOL        tmp00
  D:0006H         SYMBOL        tmp00b
  -------         ENDDO         
 C1:D1D5H         LINE#         165
 C1:D1D5H         LINE#         166
 C1:D1D5H         LINE#         169
 C1:D1E4H         LINE#         170
 C1:D1F3H         LINE#         171
 C1:D202H         LINE#         172
 C1:D209H         LINE#         173
 C1:D20DH         LINE#         174
 C1:D20DH         LINE#         175
 C1:D21EH         LINE#         176
 C1:D21EH         LINE#         177
  -------         ENDPROC       FIBER_COVER2

  -------         PROC BANK=1   UDP_RECEIVE
BL51 BANKED LINKER/LOCATER V6.00                                                      12/23/2015  16:04:37  PAGE 107


 C1:D9CAH         LINE#         180
 C1:D9CAH         LINE#         181
 C1:D9CAH         LINE#         183
 C1:D9CDH         LINE#         186
 C1:D9D0H         LINE#         190
 C1:D9D6H         LINE#         192
 C1:D9D9H         LINE#         195
 C1:D9DCH         LINE#         201
  -------         ENDPROC       UDP_RECEIVE

  -------         PROC BANK=1   ON_TCP_RX
 C1:D6E2H         LINE#         205
 C1:D6E2H         LINE#         206
 C1:D6E2H         LINE#         209
 C1:D6E8H         LINE#         211
 C1:D6F1H         LINE#         215
 C1:D6FAH         LINE#         219
 C1:D703H         LINE#         223
 C1:D70CH         LINE#         229
 C1:D70EH         LINE#         230
  -------         ENDPROC       ON_TCP_RX

  -------         PROC BANK=1   _GET_SYSTEM_PARAMETER
  D:0006H         SYMBOL        ID
 C1:D985H         LINE#         232
 C1:D985H         LINE#         233
 C1:D985H         LINE#         234
 C1:D98CH         LINE#         235
 C1:D98CH         LINE#         236
 C1:D996H         LINE#         237
 C1:D996H         LINE#         238
 C1:D99CH         LINE#         239
  -------         ENDPROC       _GET_SYSTEM_PARAMETER

  -------         PROC BANK=1   APPLICATION
  -------         DO            
  X:362AH         SYMBOL        tmpvalue
  X:362BH         SYMBOL        i
  X:362CH         SYMBOL        l
  X:362DH         SYMBOL        j
  -------         DO            
  X:362FH         SYMBOL        uip_len_tmp
  -------         ENDDO         
  -------         ENDDO         
 C1:8267H         LINE#         254
 C1:8267H         LINE#         255
 C1:8267H         LINE#         256
 C1:826CH         LINE#         257
 C1:8270H         LINE#         259
 C1:8274H         LINE#         264
 C1:8277H         LINE#         266
 C1:827AH         LINE#         267
 C1:827DH         LINE#         269
 C1:8280H         LINE#         274
 C1:8282H         LINE#         277
 C1:8285H         LINE#         285
 C1:82BAH         LINE#         290
BL51 BANKED LINKER/LOCATER V6.00                                                      12/23/2015  16:04:37  PAGE 108


 C1:82BDH         LINE#         293
 C1:82D4H         LINE#         294
 C1:82EBH         LINE#         296
 C1:8311H         LINE#         297
 C1:8325H         LINE#         298
 C1:8339H         LINE#         299
 C1:8340H         LINE#         302
 C1:8343H         LINE#         306
 C1:8345H         LINE#         307
 C1:8347H         LINE#         308
 C1:834AH         LINE#         312
 C1:834DH         LINE#         316
 C1:8350H         LINE#         320
 C1:8353H         LINE#         323
 C1:8356H         LINE#         325
 C1:8359H         LINE#         327
 C1:835BH         LINE#         329
 C1:835BH         LINE#         330
 C1:835BH         LINE#         333
 C1:835EH         LINE#         338
 C1:8361H         LINE#         340
 C1:8364H         LINE#         342
 C1:8367H         LINE#         345
 C1:836AH         LINE#         350
 C1:836DH         LINE#         352
 C1:8370H         LINE#         356
 C1:8381H         LINE#         360
 C1:8393H         LINE#         361
 C1:8393H         LINE#         365
 C1:8396H         LINE#         368
 C1:8399H         LINE#         373
 C1:83A8H         LINE#         377
 C1:83ABH         LINE#         382
 C1:83AEH         LINE#         383
 C1:83B8H         LINE#         384
 C1:83B8H         LINE#         386
 C1:83C9H         LINE#         390
 C1:83C9H         LINE#         392
 C1:83D8H         LINE#         393
 C1:83DBH         LINE#         394
 C1:83EAH         LINE#         395
 C1:83EDH         LINE#         397
 C1:83F0H         LINE#         402
 C1:83FAH         LINE#         403
 C1:83FAH         LINE#         405
 C1:840BH         LINE#         409
 C1:840BH         LINE#         411
 C1:841AH         LINE#         412
 C1:841DH         LINE#         414
 C1:8420H         LINE#         419
 C1:8423H         LINE#         422
 C1:8432H         LINE#         423
 C1:8435H         LINE#         425
 C1:8444H         LINE#         426
 C1:8449H         LINE#         428
 C1:844CH         LINE#         433
 C1:844FH         LINE#         435
BL51 BANKED LINKER/LOCATER V6.00                                                      12/23/2015  16:04:37  PAGE 109


 C1:8452H         LINE#         438
 C1:8455H         LINE#         441
 C1:8458H         LINE#         446
 C1:8458H         LINE#         447
 C1:847EH         LINE#         448
 C1:8492H         LINE#         449
 C1:84D7H         LINE#         450
 C1:84D7H         LINE#         451
 C1:84DAH         LINE#         453
 C1:84DDH         LINE#         454
 C1:84E7H         LINE#         455
 C1:84E7H         LINE#         457
 C1:84F8H         LINE#         461
 C1:84FFH         LINE#         462
 C1:84FFH         LINE#         464
 C1:8502H         LINE#         468
 C1:8505H         LINE#         469
 C1:8508H         LINE#         470
 C1:850FH         LINE#         473
 C1:8512H         LINE#         476
 C1:8515H         LINE#         489
 C1:8518H         LINE#         490
 C1:851BH         LINE#         492
 C1:851EH         LINE#         497
 C1:8521H         LINE#         498
 C1:8528H         LINE#         501
 C1:852BH         LINE#         505
 C1:852EH         LINE#         510
 C1:8531H         LINE#         511
 C1:853BH         LINE#         512
 C1:853BH         LINE#         513
 C1:853EH         LINE#         515
 C1:854FH         LINE#         519
 C1:8556H         LINE#         520
 C1:8556H         LINE#         522
 C1:855BH         LINE#         523
 C1:855BH         LINE#         525
 C1:855EH         LINE#         530
 C1:857AH         LINE#         531
 C1:857FH         LINE#         533
 C1:8582H         LINE#         538
 C1:8585H         LINE#         540
 C1:8588H         LINE#         543
 C1:858BH         LINE#         546
 C1:858EH         LINE#         551
 C1:859AH         LINE#         552
 C1:85AEH         LINE#         553
 C1:85B1H         LINE#         554
 C1:85BBH         LINE#         555
 C1:85BBH         LINE#         558
 C1:85CCH         LINE#         562
 C1:85D3H         LINE#         563
 C1:85D3H         LINE#         564
 C1:85D3H         LINE#         566
 C1:85D6H         LINE#         571
  -------         ENDPROC       APPLICATION
  -------         ENDMOD        APPLICATION
BL51 BANKED LINKER/LOCATER V6.00                                                      12/23/2015  16:04:37  PAGE 110



  -------         MODULE        HTTPD_APP
  C:0000H         SYMBOL        _ICE_DUMMY_
 C1:A6F4H         PUBLIC        _findcookie
 C1:A2E9H         PUBLIC        httpd_header_init
 C1:CF61H         PUBLIC        httpd_ChallengeError
 C1:B05BH         PUBLIC        _httpd_init_file
 C1:D022H         PUBLIC        _httpd_copy_data
 C1:D3BDH         PUBLIC        httpd_login_fail
 C1:AD88H         PUBLIC        querystr_func
 C1:D517H         PUBLIC        httpd_login_pass
  C:2F01H         SYMBOL        _?ix1000
 C1:CB7DH         PUBLIC        httpd_file_not_found
 C1:B533H         PUBLIC        _strfind

  -------         PROC BANK=1   QUERYSTR_FUNC
  -------         DO            
  X:37B3H         SYMBOL        count
  D:0006H         SYMBOL        index
  -------         ENDDO         
 C1:AD88H         LINE#         26
 C1:AD88H         LINE#         27
 C1:AD88H         LINE#         29
 C1:AD8FH         LINE#         30
 C1:ADA8H         LINE#         31
 C1:ADA8H         LINE#         32
 C1:ADDAH         LINE#         33
 C1:AE07H         LINE#         34
 C1:AE20H         LINE#         35
 C1:AE20H         LINE#         36
 C1:AE35H         LINE#         37
 C1:AE4BH         LINE#         38
 C1:AE7DH         LINE#         39
 C1:AE9FH         LINE#         40
 C1:AEB4H         LINE#         41
 C1:AECBH         LINE#         42
 C1:AECBH         LINE#         43
 C1:AECFH         LINE#         44
 C1:AEE5H         LINE#         45
 C1:AEE5H         LINE#         46
 C1:AEF6H         LINE#         47
 C1:AEF9H         LINE#         54
 C1:AEFFH         LINE#         55
  -------         ENDPROC       QUERYSTR_FUNC

  -------         PROC BANK=1   _STRFIND
  X:3439H         SYMBOL        srcstr
  X:343CH         SYMBOL        findstr
  -------         DO            
  X:343FH         SYMBOL        ptr
  X:3442H         SYMBOL        srcstr_end
  X:3445H         SYMBOL        len
  D:0006H         SYMBOL        i
  D:0007H         SYMBOL        check_count
  -------         ENDDO         
 C1:B533H         LINE#         68
 C1:B53EH         LINE#         69
BL51 BANKED LINKER/LOCATER V6.00                                                      12/23/2015  16:04:37  PAGE 111


 C1:B53EH         LINE#         72
 C1:B55BH         LINE#         74
 C1:B56EH         LINE#         75
 C1:B59AH         LINE#         76
 C1:B59AH         LINE#         77
 C1:B5C2H         LINE#         78
 C1:B5C6H         LINE#         79
 C1:B5C6H         LINE#         80
 C1:B5C8H         LINE#         81
 C1:B5D4H         LINE#         82
 C1:B5D4H         LINE#         83
 C1:B5FEH         LINE#         84
 C1:B5FEH         LINE#         85
 C1:B5FFH         LINE#         86
 C1:B5FFH         LINE#         87
 C1:B602H         LINE#         88
 C1:B60AH         LINE#         89
 C1:B60AH         LINE#         90
 C1:B620H         LINE#         91
 C1:B620H         LINE#         92
 C1:B620H         LINE#         96
 C1:B620H         LINE#         97
 C1:B63BH         LINE#         98
 C1:B63EH         LINE#         99
 C1:B644H         LINE#         100
  -------         ENDPROC       _STRFIND

  -------         PROC BANK=1   _FINDCOOKIE
  X:3697H         SYMBOL        srcstr
  -------         DO            
  X:369AH         SYMBOL        ptr
  -------         ENDDO         
 C1:A6F4H         LINE#         112
 C1:A6FFH         LINE#         113
 C1:A6FFH         LINE#         114
 C1:A706H         LINE#         118
 C1:A72DH         LINE#         119
 C1:A731H         LINE#         120
 C1:A731H         LINE#         121
 C1:A75EH         LINE#         122
 C1:A75EH         LINE#         123
 C1:A771H         LINE#         124
 C1:A771H         LINE#         126
 C1:A782H         LINE#         127
 C1:A782H         LINE#         128
 C1:A78CH         LINE#         129
 C1:A78EH         LINE#         131
 C1:A7B0H         LINE#         133
 C1:A7DDH         LINE#         134
 C1:A7E8H         LINE#         135
 C1:A80AH         LINE#         137
 C1:A813H         LINE#         138
 C1:A834H         LINE#         139
 C1:A838H         LINE#         140
 C1:A838H         LINE#         141
 C1:A847H         LINE#         142
 C1:A850H         LINE#         143
BL51 BANKED LINKER/LOCATER V6.00                                                      12/23/2015  16:04:37  PAGE 112


 C1:A872H         LINE#         144
 C1:A872H         LINE#         145
 C1:A87BH         LINE#         146
 C1:A89CH         LINE#         147
 C1:A8A0H         LINE#         148
 C1:A8A0H         LINE#         149
 C1:A8AFH         LINE#         150
 C1:A8D1H         LINE#         151
 C1:A8D1H         LINE#         155
 C1:A8D1H         LINE#         157
 C1:A8D1H         LINE#         161
 C1:A8D1H         LINE#         162
  -------         ENDPROC       _FINDCOOKIE

  -------         PROC BANK=1   HTTPD_LOGIN_PASS
 C1:D517H         LINE#         176
 C1:D517H         LINE#         177
 C1:D517H         LINE#         178
 C1:D531H         LINE#         179
  -------         ENDPROC       HTTPD_LOGIN_PASS

  -------         PROC BANK=1   HTTPD_LOGIN_FAIL
 C1:D3BDH         LINE#         194
 C1:D3BDH         LINE#         195
 C1:D3BDH         LINE#         196
 C1:D3DAH         LINE#         197
 C1:D3DFH         LINE#         198
  -------         ENDPROC       HTTPD_LOGIN_FAIL

  -------         PROC BANK=1   HTTPD_CHALLENGEERROR
 C1:CF61H         LINE#         212
 C1:CF61H         LINE#         213
 C1:CF61H         LINE#         214
 C1:CF7EH         LINE#         215
 C1:CF84H         LINE#         216
 C1:CF96H         LINE#         217
  -------         ENDPROC       HTTPD_CHALLENGEERROR
 C1:D018H         SYMBOL        L?0039
 C1:D01EH         SYMBOL        L?0040
  -------         PROC          L?0038
  -------         ENDPROC       L?0038
 C1:D018H         SYMBOL        L?0039
 C1:D01EH         SYMBOL        L?0040

  -------         PROC BANK=1   _HTTPD_COPY_DATA
  D:0001H         SYMBOL        indata
  X:37B5H         SYMBOL        length
 C1:D022H         LINE#         230
 C1:D02AH         LINE#         231
 C1:D02AH         LINE#         232
 C1:D032H         LINE#         233
 C1:D032H         LINE#         234
 C1:D05EH         LINE#         235
 C1:D072H         LINE#         236
 C1:D072H         LINE#         237
  -------         ENDPROC       _HTTPD_COPY_DATA

BL51 BANKED LINKER/LOCATER V6.00                                                      12/23/2015  16:04:37  PAGE 113


  -------         PROC BANK=1   HTTPD_HEADER_INIT
  -------         DO            
  X:345FH         SYMBOL        info
  -------         ENDDO         
 C1:A2E9H         LINE#         249
 C1:A2E9H         LINE#         250
 C1:A2E9H         LINE#         251
 C1:A2FCH         LINE#         253
 C1:A303H         LINE#         254
 C1:A30FH         LINE#         255
 C1:A33BH         LINE#         256
 C1:A33EH         LINE#         257
 C1:A347H         LINE#         258
 C1:A35DH         LINE#         259
 C1:A35DH         LINE#         260
 C1:A37AH         LINE#         261
 C1:A387H         LINE#         262
 C1:A3B3H         LINE#         263
 C1:A3B6H         LINE#         264
 C1:A3B6H         LINE#         266
 C1:A3D1H         LINE#         267
 C1:A3D1H         LINE#         268
 C1:A422H         LINE#         269
 C1:A44AH         LINE#         270
 C1:A44AH         LINE#         271
 C1:A460H         LINE#         272
 C1:A460H         LINE#         273
 C1:A4B2H         LINE#         274
 C1:A4DAH         LINE#         275
 C1:A4DAH         LINE#         276
 C1:A4DDH         LINE#         277
  -------         ENDPROC       HTTPD_HEADER_INIT

  -------         PROC BANK=1   _HTTPD_INIT_FILE
  X:3777H         SYMBOL        infile
 C1:B05BH         LINE#         291
 C1:B066H         LINE#         292
 C1:B066H         LINE#         293
 C1:B078H         LINE#         294
 C1:B07FH         LINE#         295
 C1:B0A6H         LINE#         297
 C1:B0C5H         LINE#         298
 C1:B0EDH         LINE#         299
 C1:B100H         LINE#         301
 C1:B107H         LINE#         302
 C1:B10EH         LINE#         303
 C1:B117H         LINE#         304
 C1:B120H         LINE#         305
 C1:B129H         LINE#         306
 C1:B130H         LINE#         307
 C1:B137H         LINE#         308
 C1:B13EH         LINE#         309
 C1:B145H         LINE#         310
 C1:B14CH         LINE#         311
 C1:B153H         LINE#         312
 C1:B15AH         LINE#         313
 C1:B163H         LINE#         314
BL51 BANKED LINKER/LOCATER V6.00                                                      12/23/2015  16:04:37  PAGE 114


 C1:B180H         LINE#         315
 C1:B19DH         LINE#         317
 C1:B19EH         LINE#         318
  -------         ENDPROC       _HTTPD_INIT_FILE

  -------         PROC BANK=1   HTTPD_FILE_NOT_FOUND
 C1:CB7DH         LINE#         330
 C1:CB7DH         LINE#         331
 C1:CB7DH         LINE#         332
 C1:CB84H         LINE#         333
 C1:CB98H         LINE#         334
 C1:CBB2H         LINE#         335
 C1:CBCFH         LINE#         336
 C1:CBE2H         LINE#         337
 C1:CBFFH         LINE#         338
  -------         ENDPROC       HTTPD_FILE_NOT_FOUND
  -------         ENDMOD        HTTPD_APP

  -------         MODULE        CHECKSUM
  C:0000H         SYMBOL        _ICE_DUMMY_
 C5:62E6H         PUBLIC        uip_tcpchksum
 C5:69B5H         PUBLIC        uip_udpchksum
 C5:7E64H         PUBLIC        uip_ipchksum
  X:37D1H         PUBLIC        muip_check_flag
 C5:79E2H         PUBLIC        _uip_chksum

  -------         PROC BANK=5   _UIP_CHKSUM
  D:0001H         SYMBOL        sdata
  X:37B7H         SYMBOL        len
  -------         DO            
  D:0004H         SYMBOL        acc
  -------         ENDDO         
 C5:79E2H         LINE#         32
 C5:79EAH         LINE#         33
 C5:79EAH         LINE#         36
 C5:79FCH         LINE#         37
 C5:7A07H         LINE#         38
 C5:7A0EH         LINE#         41
 C5:7A13H         LINE#         42
 C5:7A13H         LINE#         43
 C5:7A1AH         LINE#         44
 C5:7A2AH         LINE#         47
 C5:7A36H         LINE#         48
 C5:7A42H         LINE#         49
 C5:7A49H         LINE#         50
 C5:7A4EH         LINE#         51
 C5:7A4EH         LINE#         52
 C5:7A4EH         LINE#         54
 C5:7A52H         LINE#         55
  -------         ENDPROC       _UIP_CHKSUM

  -------         PROC BANK=5   UIP_IPCHKSUM
 C5:7E64H         LINE#         69
 C5:7E64H         LINE#         70
 C5:7E64H         LINE#         71
 C5:7E6AH         LINE#         72
 C5:7E72H         LINE#         74
BL51 BANKED LINKER/LOCATER V6.00                                                      12/23/2015  16:04:37  PAGE 115


 C5:7E89H         LINE#         75
  -------         ENDPROC       UIP_IPCHKSUM

  -------         PROC BANK=5   UIP_UDPCHKSUM
  -------         DO            
  X:370FH         SYMBOL        hsum
  X:3711H         SYMBOL        sum
  -------         ENDDO         
 C5:69B5H         LINE#         90
 C5:69B5H         LINE#         91
 C5:69B5H         LINE#         95
 C5:69D4H         LINE#         100
 C5:6A21H         LINE#         102
 C5:6A39H         LINE#         103
 C5:6A47H         LINE#         104
 C5:6A47H         LINE#         106
 C5:6A72H         LINE#         107
 C5:6A80H         LINE#         108
 C5:6A80H         LINE#         109
 C5:6A9BH         LINE#         110
 C5:6AA9H         LINE#         111
 C5:6AA9H         LINE#         112
 C5:6AC4H         LINE#         113
 C5:6AD2H         LINE#         114
 C5:6AD2H         LINE#         115
 C5:6AEDH         LINE#         116
 C5:6AFBH         LINE#         117
 C5:6AFBH         LINE#         118
 C5:6B10H         LINE#         119
 C5:6B1EH         LINE#         120
 C5:6B1EH         LINE#         121
 C5:6B3FH         LINE#         123
 C5:6B57H         LINE#         124
 C5:6B65H         LINE#         125
 C5:6B65H         LINE#         126
 C5:6B6DH         LINE#         127
  -------         ENDPROC       UIP_UDPCHKSUM

  -------         PROC BANK=5   UIP_TCPCHKSUM
  -------         DO            
  X:3713H         SYMBOL        hsum
  X:3715H         SYMBOL        sum
  -------         ENDDO         
 C5:62E6H         LINE#         131
 C5:62E6H         LINE#         132
 C5:62E6H         LINE#         136
 C5:62ECH         LINE#         137
 C5:62F4H         LINE#         139
 C5:6313H         LINE#         143
 C5:6319H         LINE#         144
 C5:6319H         LINE#         146
 C5:6335H         LINE#         147
 C5:6337H         LINE#         149
 C5:6337H         LINE#         151
 C5:6384H         LINE#         152
 C5:6384H         LINE#         154
 C5:639CH         LINE#         155
BL51 BANKED LINKER/LOCATER V6.00                                                      12/23/2015  16:04:37  PAGE 116


 C5:63AAH         LINE#         156
 C5:63AAH         LINE#         157
 C5:63B3H         LINE#         158
 C5:63B3H         LINE#         159
 C5:63CDH         LINE#         160
 C5:63DBH         LINE#         161
 C5:63DBH         LINE#         162
 C5:63F5H         LINE#         163
 C5:6403H         LINE#         164
 C5:6403H         LINE#         165
 C5:641DH         LINE#         166
 C5:642BH         LINE#         167
 C5:642BH         LINE#         168
 C5:6445H         LINE#         169
 C5:6453H         LINE#         170
 C5:6453H         LINE#         171
 C5:6468H         LINE#         172
 C5:6476H         LINE#         173
 C5:6476H         LINE#         174
 C5:647DH         LINE#         175
 C5:6480H         LINE#         177
 C5:6480H         LINE#         178
 C5:64ABH         LINE#         179
 C5:64B9H         LINE#         180
 C5:64B9H         LINE#         181
 C5:64D4H         LINE#         182
 C5:64E2H         LINE#         183
 C5:64E2H         LINE#         184
 C5:64FDH         LINE#         185
 C5:650BH         LINE#         186
 C5:650BH         LINE#         187
 C5:6526H         LINE#         188
 C5:6534H         LINE#         189
 C5:6534H         LINE#         190
 C5:6549H         LINE#         191
 C5:6557H         LINE#         192
 C5:6557H         LINE#         193
 C5:6578H         LINE#         194
 C5:6578H         LINE#         196
 C5:6590H         LINE#         197
 C5:659EH         LINE#         198
 C5:659EH         LINE#         199
 C5:65A6H         LINE#         200
  -------         ENDPROC       UIP_TCPCHKSUM
  -------         ENDMOD        CHECKSUM

  -------         MODULE        LOGINCBK
  C:0000H         SYMBOL        _ICE_DUMMY_
  D:0090H         PUBLIC        P1
  D:00B0H         PUBLIC        P3
  D:00A8H         PUBLIC        IE
 C1:8FBFH         PUBLIC        _cgi_login
  X:33D4H         PUBLIC        ipbuf
  D:00B8H         PUBLIC        IP
 C1:C74EH         PUBLIC        _ssi_login
  D:0098H         PUBLIC        SCON
  D:0088H         PUBLIC        TCON
BL51 BANKED LINKER/LOCATER V6.00                                                      12/23/2015  16:04:37  PAGE 117


  D:00D8H         PUBLIC        WDTCON
  D:00C8H         PUBLIC        T2CON
  D:00D0H         PUBLIC        PSW

  -------         PROC BANK=1   _SSI_LOGIN
  D:0007H         SYMBOL        varid
  X:369DH         SYMBOL        vp
  -------         DO            
  X:36A0H         SYMBOL        ipa
  -------         ENDDO         
 C1:C74EH         LINE#         53
 C1:C759H         LINE#         54
 C1:C759H         LINE#         56
 C1:C75FH         LINE#         57
 C1:C75FH         LINE#         58
 C1:C75FH         LINE#         59
 C1:C76DH         LINE#         60
 C1:C773H         LINE#         61
 C1:C781H         LINE#         62
 C1:C7C8H         LINE#         63
 C1:C7E2H         LINE#         64
 C1:C7F5H         LINE#         65
 C1:C7F5H         LINE#         74
 C1:C7F5H         LINE#         75
 C1:C7F7H         LINE#         76
  -------         ENDPROC       _SSI_LOGIN

  -------         PROC BANK=1   _CGI_LOGIN
  X:31A4H         SYMBOL        cnt
  X:31A5H         SYMBOL        vptr
  -------         DO            
  X:31A8H         SYMBOL        i
  X:31A9H         SYMBOL        username
  X:31ACH         SYMBOL        passwd
  X:31AFH         SYMBOL        resp
  X:31B2H         SYMBOL        name
  X:31C2H         SYMBOL        pass
  X:31D2H         SYMBOL        vp
  X:31D5H         SYMBOL        login_valid
  X:31D6H         SYMBOL        challenge_valid
  -------         ENDDO         
 C1:8FBFH         LINE#         88
 C1:8FCDH         LINE#         89
 C1:8FCDH         LINE#         91
 C1:8FE6H         LINE#         94
 C1:8FFBH         LINE#         95
 C1:9000H         LINE#         100
 C1:900DH         LINE#         101
 C1:901CH         LINE#         103
 C1:9025H         LINE#         104
 C1:9025H         LINE#         105
 C1:9038H         LINE#         106
 C1:9041H         LINE#         107
 C1:9041H         LINE#         108
 C1:9043H         LINE#         109
 C1:9043H         LINE#         110
 C1:904BH         LINE#         111
BL51 BANKED LINKER/LOCATER V6.00                                                      12/23/2015  16:04:37  PAGE 118


 C1:904BH         LINE#         112
 C1:9074H         LINE#         113
 C1:9074H         LINE#         114
 C1:90ADH         LINE#         115
 C1:90C4H         LINE#         116
 C1:90CCH         LINE#         117
 C1:90CCH         LINE#         118
 C1:90CCH         LINE#         119
 C1:90CCH         LINE#         122
 C1:90D4H         LINE#         123
 C1:90D4H         LINE#         127
 C1:90D8H         LINE#         128
 C1:90D8H         LINE#         129
 C1:90EFH         LINE#         133
 C1:90FBH         LINE#         137
 C1:9100H         LINE#         138
 C1:9100H         LINE#         139
 C1:9117H         LINE#         143
 C1:9125H         LINE#         144
 C1:9125H         LINE#         146
 C1:9125H         LINE#         147
 C1:9134H         LINE#         148
 C1:9143H         LINE#         149
 C1:9143H         LINE#         155
 C1:9158H         LINE#         156
 C1:9158H         LINE#         157
 C1:9178H         LINE#         158
 C1:9178H         LINE#         159
 C1:918CH         LINE#         160
 C1:918EH         LINE#         161
 C1:91AEH         LINE#         162
 C1:91AEH         LINE#         163
 C1:91C2H         LINE#         165
 C1:91C4H         LINE#         166
 C1:91E4H         LINE#         167
 C1:91E4H         LINE#         168
 C1:9200H         LINE#         169
 C1:9200H         LINE#         171
 C1:9206H         LINE#         187
 C1:9219H         LINE#         188
 C1:925BH         LINE#         189
 C1:925BH         LINE#         190
 C1:929DH         LINE#         191
 C1:929DH         LINE#         192
 C1:92A2H         LINE#         193
 C1:92A2H         LINE#         194
 C1:92A2H         LINE#         195
 C1:92ACH         LINE#         196
 C1:92ACH         LINE#         197
 C1:92AFH         LINE#         198
 C1:92B1H         LINE#         200
 C1:92B1H         LINE#         201
 C1:92B7H         LINE#         202
 C1:92B7H         LINE#         203
 C1:92BAH         LINE#         204
 C1:92BAH         LINE#         206
 C1:92C0H         LINE#         207
BL51 BANKED LINKER/LOCATER V6.00                                                      12/23/2015  16:04:37  PAGE 119


 C1:92C0H         LINE#         208
 C1:92C3H         LINE#         209
 C1:92C3H         LINE#         211
 C1:92C3H         LINE#         212
 C1:92C5H         LINE#         213
  -------         ENDPROC       _CGI_LOGIN
  -------         ENDMOD        LOGINCBK

  -------         MODULE        ERRORMSGCBK
  C:0000H         SYMBOL        _ICE_DUMMY_
 C1:956BH         PUBLIC        _ssi_errormsg
 C1:BB2BH         PUBLIC        _cgi_reset
  X:37D2H         PUBLIC        errmsgflag
 C1:D373H         PUBLIC        eepromerr

  -------         PROC BANK=1   _SSI_ERRORMSG
  D:0007H         SYMBOL        varid
  X:377AH         SYMBOL        vp
 C1:956BH         LINE#         28
 C1:9576H         LINE#         29
 C1:9576H         LINE#         30
 C1:95A1H         LINE#         31
 C1:95A1H         LINE#         32
 C1:95A1H         LINE#         33
 C1:95BBH         LINE#         34
 C1:95C2H         LINE#         35
 C1:95DCH         LINE#         36
 C1:95E3H         LINE#         37
 C1:95FDH         LINE#         38
 C1:960EH         LINE#         39
 C1:9628H         LINE#         40
 C1:962BH         LINE#         41
 C1:962BH         LINE#         42
 C1:9650H         LINE#         43
 C1:9650H         LINE#         44
 C1:9653H         LINE#         46
 C1:9653H         LINE#         47
 C1:966DH         LINE#         48
 C1:967AH         LINE#         49
 C1:9694H         LINE#         50
 C1:9694H         LINE#         51
 C1:9697H         LINE#         52
 C1:9697H         LINE#         53
 C1:96B1H         LINE#         54
 C1:96D2H         LINE#         55
 C1:96D2H         LINE#         56
 C1:96D5H         LINE#         58
 C1:96D5H         LINE#         59
 C1:96E2H         LINE#         60
 C1:96E2H         LINE#         61
 C1:96E8H         LINE#         62
 C1:96EAH         LINE#         63
 C1:96F5H         LINE#         64
 C1:96F5H         LINE#         65
 C1:96FBH         LINE#         66
 C1:96FDH         LINE#         68
 C1:9717H         LINE#         69
BL51 BANKED LINKER/LOCATER V6.00                                                      12/23/2015  16:04:37  PAGE 120


 C1:9717H         LINE#         70
 C1:971AH         LINE#         71
 C1:971AH         LINE#         72
 C1:9723H         LINE#         73
 C1:9729H         LINE#         75
 C1:9741H         LINE#         76
 C1:9741H         LINE#         77
 C1:9744H         LINE#         78
 C1:9744H         LINE#         79
 C1:974DH         LINE#         80
 C1:9753H         LINE#         82
 C1:976BH         LINE#         83
 C1:976BH         LINE#         84
 C1:976DH         LINE#         85
 C1:976DH         LINE#         86
 C1:977AH         LINE#         87
 C1:977AH         LINE#         88
 C1:9780H         LINE#         89
 C1:9782H         LINE#         91
 C1:979CH         LINE#         92
 C1:979CH         LINE#         93
 C1:979EH         LINE#         94
 C1:979EH         LINE#         95
 C1:97B0H         LINE#         96
 C1:97B8H         LINE#         98
 C1:97D2H         LINE#         99
 C1:97E5H         LINE#         100
 C1:97E5H         LINE#         101
 C1:97E5H         LINE#         102
 C1:97E7H         LINE#         103
  -------         ENDPROC       _SSI_ERRORMSG

  -------         PROC BANK=1   EEPROMERR
 C1:D373H         LINE#         115
 C1:D373H         LINE#         116
 C1:D373H         LINE#         117
 C1:D390H         LINE#         118
 C1:D396H         LINE#         119
  -------         ENDPROC       EEPROMERR

  -------         PROC BANK=1   _CGI_RESET
  X:35B5H         SYMBOL        cnt
  D:0001H         SYMBOL        vp
  -------         DO            
  X:35B6H         SYMBOL        i
  X:35B7H         SYMBOL        vp2
  X:35BAH         SYMBOL        filename
  -------         ENDDO         
 C1:BB2BH         LINE#         139
 C1:BB30H         LINE#         140
 C1:BB30H         LINE#         142
 C1:BB3BH         LINE#         143
 C1:BB47H         LINE#         144
 C1:BB64H         LINE#         145
 C1:BB6AH         LINE#         146
 C1:BB7AH         LINE#         147
 C1:BB7AH         LINE#         148
BL51 BANKED LINKER/LOCATER V6.00                                                      12/23/2015  16:04:37  PAGE 121


 C1:BB98H         LINE#         149
 C1:BB98H         LINE#         150
 C1:BBA4H         LINE#         151
 C1:BBA4H         LINE#         152
 C1:BBAAH         LINE#         153
 C1:BBB0H         LINE#         154
 C1:BBB0H         LINE#         155
 C1:BBB2H         LINE#         157
 C1:BBB2H         LINE#         158
 C1:BBB8H         LINE#         159
 C1:BBD5H         LINE#         160
 C1:BBDBH         LINE#         161
 C1:BBDBH         LINE#         162
 C1:BBDBH         LINE#         163
 C1:BBEDH         LINE#         164
 C1:BC19H         LINE#         165
 C1:BC1BH         LINE#         166
  -------         ENDPROC       _CGI_RESET
  -------         ENDMOD        ERRORMSGCBK

  -------         MODULE        UARTCBK
  C:0000H         SYMBOL        _ICE_DUMMY_
  D:0080H         PUBLIC        P0
  D:0090H         PUBLIC        P1
  D:00A0H         PUBLIC        P2
  D:00B0H         PUBLIC        P3
  D:00E8H         PUBLIC        P4
  D:00A8H         PUBLIC        IE
  B:00E8H.0       PUBLIC        P4_0
  C:34A2H         PUBLIC        fc_n
  B:00E8H.5       PUBLIC        P4_5
  D:00B8H         PUBLIC        IP
  C:34B7H         PUBLIC        md_n
  C:34A0H         PUBLIC        fc_v
  C:348EH         PUBLIC        sb_n
  X:3402H         PUBLIC        s_tmp
  C:34B4H         PUBLIC        md_v
  C:348CH         PUBLIC        sb_v
  C:346EH         PUBLIC        pr_n
 C2:67BCH         PUBLIC        _cgi_uart
  D:0098H         PUBLIC        SCON
  D:0088H         PUBLIC        TCON
  C:3469H         PUBLIC        pr_v
  X:3407H         PUBLIC        selected
 C2:737BH         PUBLIC        _ssi_uart
  D:00D8H         PUBLIC        WDTCON
  D:00C8H         PUBLIC        T2CON
  D:00D0H         PUBLIC        PSW

  -------         PROC BANK=2   _SSI_UART
  X:3717H         SYMBOL        varid
  X:3718H         SYMBOL        vp
 C2:737BH         LINE#         46
 C2:7389H         LINE#         47
 C2:7389H         LINE#         49
 C2:73B2H         LINE#         50
 C2:73B2H         LINE#         51
BL51 BANKED LINKER/LOCATER V6.00                                                      12/23/2015  16:04:37  PAGE 122


 C2:73B2H         LINE#         52
 C2:73B2H         LINE#         53
 C2:73B2H         LINE#         54
 C2:73B2H         LINE#         55
 C2:73B2H         LINE#         57
 C2:73B2H         LINE#         59
 C2:73B5H         LINE#         60
 C2:73B5H         LINE#         61
 C2:73CFH         LINE#         62
 C2:73E2H         LINE#         63
 C2:7452H         LINE#         64
 C2:7452H         LINE#         65
 C2:7452H         LINE#         66
 C2:747DH         LINE#         67
 C2:7480H         LINE#         68
 C2:7480H         LINE#         69
 C2:7480H         LINE#         70
 C2:749CH         LINE#         71
 C2:74B0H         LINE#         72
 C2:74B3H         LINE#         74
 C2:74B3H         LINE#         75
 C2:74B3H         LINE#         76
 C2:74CFH         LINE#         77
 C2:74D7H         LINE#         78
 C2:74D7H         LINE#         79
 C2:74DAH         LINE#         80
 C2:74DAH         LINE#         81
 C2:750BH         LINE#         82
 C2:750EH         LINE#         84
 C2:750EH         LINE#         85
 C2:752AH         LINE#         86
 C2:7534H         LINE#         87
 C2:7534H         LINE#         88
 C2:7537H         LINE#         89
 C2:7537H         LINE#         90
 C2:7556H         LINE#         91
 C2:7559H         LINE#         92
 C2:7559H         LINE#         93
 C2:758EH         LINE#         94
 C2:7591H         LINE#         96
 C2:7591H         LINE#         97
 C2:75ADH         LINE#         98
 C2:75B7H         LINE#         99
 C2:75B7H         LINE#         100
 C2:75BAH         LINE#         101
 C2:75BAH         LINE#         102
 C2:75D9H         LINE#         103
 C2:75DCH         LINE#         104
 C2:75DCH         LINE#         105
 C2:7611H         LINE#         106
 C2:7614H         LINE#         108
 C2:7614H         LINE#         109
 C2:7630H         LINE#         110
 C2:763AH         LINE#         111
 C2:763AH         LINE#         112
 C2:763DH         LINE#         113
 C2:763DH         LINE#         114
BL51 BANKED LINKER/LOCATER V6.00                                                      12/23/2015  16:04:37  PAGE 123


 C2:765CH         LINE#         115
 C2:765FH         LINE#         116
 C2:765FH         LINE#         117
 C2:7694H         LINE#         118
 C2:7697H         LINE#         120
 C2:7697H         LINE#         121
 C2:76B3H         LINE#         122
 C2:76BDH         LINE#         123
 C2:76BDH         LINE#         124
 C2:76C0H         LINE#         125
 C2:76C0H         LINE#         126
 C2:76DFH         LINE#         127
 C2:76E2H         LINE#         128
 C2:76E2H         LINE#         129
 C2:7714H         LINE#         130
 C2:7717H         LINE#         133
 C2:7717H         LINE#         134
 C2:771AH         LINE#         135
 C2:771AH         LINE#         136
 C2:771CH         LINE#         138
 C2:771CH         LINE#         139
 C2:771FH         LINE#         140
 C2:771FH         LINE#         141
 C2:7721H         LINE#         143
 C2:7721H         LINE#         144
 C2:7726H         LINE#         145
 C2:7726H         LINE#         146
 C2:7728H         LINE#         148
 C2:7728H         LINE#         149
 C2:773DH         LINE#         150
 C2:773DH         LINE#         151
 C2:7740H         LINE#         153
 C2:7740H         LINE#         154
 C2:7757H         LINE#         155
 C2:7757H         LINE#         156
 C2:775DH         LINE#         157
 C2:775DH         LINE#         158
 C2:7760H         LINE#         160
 C2:7760H         LINE#         161
 C2:777BH         LINE#         162
 C2:7781H         LINE#         163
 C2:7784H         LINE#         165
 C2:7784H         LINE#         166
 C2:779BH         LINE#         167
 C2:779BH         LINE#         168
 C2:77A1H         LINE#         169
 C2:77A1H         LINE#         171
 C2:77A4H         LINE#         173
 C2:77A4H         LINE#         174
 C2:77BFH         LINE#         175
 C2:77C5H         LINE#         176
 C2:77C8H         LINE#         178
 C2:77C8H         LINE#         179
 C2:77DFH         LINE#         180
 C2:77DFH         LINE#         181
 C2:77E5H         LINE#         182
 C2:77E5H         LINE#         184
BL51 BANKED LINKER/LOCATER V6.00                                                      12/23/2015  16:04:37  PAGE 124


 C2:77E8H         LINE#         186
 C2:77E8H         LINE#         187
 C2:780BH         LINE#         188
 C2:781EH         LINE#         189
 C2:7820H         LINE#         190
 C2:7820H         LINE#         191
 C2:7833H         LINE#         192
 C2:7833H         LINE#         193
 C2:7839H         LINE#         194
 C2:7839H         LINE#         195
 C2:783BH         LINE#         197
 C2:783BH         LINE#         198
 C2:784FH         LINE#         199
 C2:7855H         LINE#         200
 C2:7857H         LINE#         201
 C2:7857H         LINE#         202
 C2:786AH         LINE#         203
 C2:7884H         LINE#         204
 C2:7884H         LINE#         206
 C2:7884H         LINE#         211
 C2:7886H         LINE#         212
  -------         ENDPROC       _SSI_UART

  -------         PROC BANK=2   _CGI_UART
  X:35BDH         SYMBOL        cnt
  D:0001H         SYMBOL        vptr
  -------         DO            
  X:35BEH         SYMBOL        vp
  X:35C1H         SYMBOL        i
  X:35C3H         SYMBOL        j
  D:0007H         SYMBOL        value
  -------         ENDDO         
 C2:67BCH         LINE#         214
 C2:67C1H         LINE#         215
 C2:67C1H         LINE#         217
 C2:67CAH         LINE#         220
 C2:67DCH         LINE#         221
 C2:67E3H         LINE#         222
 C2:6804H         LINE#         223
 C2:6804H         LINE#         225
 C2:6824H         LINE#         226
 C2:6824H         LINE#         227
 C2:684DH         LINE#         228
 C2:6865H         LINE#         229
 C2:6865H         LINE#         230
 C2:6865H         LINE#         231
 C2:6867H         LINE#         232
 C2:6869H         LINE#         233
 C2:686BH         LINE#         234
 C2:686BH         LINE#         235
 C2:686BH         LINE#         236
 C2:686BH         LINE#         237
 C2:686BH         LINE#         238
 C2:686DH         LINE#         240
 C2:686FH         LINE#         241
 C2:686FH         LINE#         242
 C2:686FH         LINE#         243
BL51 BANKED LINKER/LOCATER V6.00                                                      12/23/2015  16:04:37  PAGE 125


 C2:686FH         LINE#         245
 C2:6892H         LINE#         246
 C2:6892H         LINE#         247
 C2:68ADH         LINE#         248
 C2:68ADH         LINE#         249
 C2:68DBH         LINE#         250
 C2:68DBH         LINE#         251
 C2:68F9H         LINE#         252
 C2:6924H         LINE#         253
 C2:6924H         LINE#         254
 C2:6935H         LINE#         255
 C2:6935H         LINE#         256
 C2:6955H         LINE#         257
 C2:6955H         LINE#         258
 C2:6985H         LINE#         259
 C2:69A0H         LINE#         260
 C2:69A0H         LINE#         261
 C2:69C0H         LINE#         262
 C2:69C0H         LINE#         263
 C2:69ECH         LINE#         264
 C2:6A05H         LINE#         265
 C2:6A05H         LINE#         266
 C2:6A25H         LINE#         267
 C2:6A25H         LINE#         268
 C2:6A51H         LINE#         269
 C2:6A6AH         LINE#         270
 C2:6A6AH         LINE#         271
 C2:6A8AH         LINE#         272
 C2:6A8AH         LINE#         273
 C2:6AB6H         LINE#         274
 C2:6ACFH         LINE#         276
 C2:6AE5H         LINE#         277
 C2:6AE5H         LINE#         278
 C2:6AFDH         LINE#         279
 C2:6B02H         LINE#         280
 C2:6B02H         LINE#         282
 C2:6B02H         LINE#         283
 C2:6B22H         LINE#         284
 C2:6B22H         LINE#         285
 C2:6B3AH         LINE#         286
 C2:6B3AH         LINE#         287
 C2:6B5AH         LINE#         288
 C2:6B5AH         LINE#         289
 C2:6B80H         LINE#         290
 C2:6B80H         LINE#         291
 C2:6BA0H         LINE#         292
 C2:6BA0H         LINE#         293
 C2:6BB8H         LINE#         294
 C2:6BB8H         LINE#         295
 C2:6BD8H         LINE#         296
 C2:6BD8H         LINE#         297
 C2:6BFEH         LINE#         298
 C2:6BFEH         LINE#         299
 C2:6C1EH         LINE#         300
 C2:6C1EH         LINE#         301
 C2:6C36H         LINE#         302
 C2:6C36H         LINE#         303
BL51 BANKED LINKER/LOCATER V6.00                                                      12/23/2015  16:04:37  PAGE 126


 C2:6C56H         LINE#         304
 C2:6C56H         LINE#         305
 C2:6C6AH         LINE#         306
 C2:6C6FH         LINE#         307
 C2:6C77H         LINE#         308
 C2:6C89H         LINE#         309
 C2:6C89H         LINE#         310
 C2:6CA9H         LINE#         311
 C2:6CA9H         LINE#         312
 C2:6CBCH         LINE#         313
 C2:6CBCH         LINE#         314
 C2:6CDCH         LINE#         315
 C2:6CFFH         LINE#         316
 C2:6D12H         LINE#         317
 C2:6D35H         LINE#         318
 C2:6D47H         LINE#         319
 C2:6D47H         LINE#         320
 C2:6D62H         LINE#         321
 C2:6D65H         LINE#         322
 C2:6D68H         LINE#         323
 C2:6D7AH         LINE#         324
 C2:6DA1H         LINE#         329
 C2:6DA3H         LINE#         330
  -------         ENDPROC       _CGI_UART
  -------         ENDMOD        UARTCBK

  -------         MODULE        TELNETCBK
  C:0000H         SYMBOL        _ICE_DUMMY_
  D:0080H         PUBLIC        P0
  D:0090H         PUBLIC        P1
  D:00A0H         PUBLIC        P2
  D:00B0H         PUBLIC        P3
  D:00E8H         PUBLIC        P4
 C2:6170H         PUBLIC        _cgi_telnet
  D:00A8H         PUBLIC        IE
  D:00B8H         PUBLIC        IP
 C2:7D62H         PUBLIC        _ssi_telnet
  D:0098H         PUBLIC        SCON
  D:0088H         PUBLIC        TCON
  D:00D8H         PUBLIC        WDTCON
  D:00C8H         PUBLIC        T2CON
  D:00D0H         PUBLIC        PSW

  -------         PROC BANK=2   _SSI_TELNET
  D:0007H         SYMBOL        varid
  X:377DH         SYMBOL        vp
  -------         DO            
  C:361AH         SYMBOL        SCdis
  -------         ENDDO         
 C2:7D62H         LINE#         22
 C2:7D6DH         LINE#         23
 C2:7D6DH         LINE#         29
 C2:7D87H         LINE#         30
 C2:7D9AH         LINE#         31
 C2:7DECH         LINE#         32
 C2:7DECH         LINE#         33
 C2:7DECH         LINE#         34
BL51 BANKED LINKER/LOCATER V6.00                                                      12/23/2015  16:04:37  PAGE 127


 C2:7E07H         LINE#         35
 C2:7E09H         LINE#         36
 C2:7E09H         LINE#         37
 C2:7E24H         LINE#         38
 C2:7E26H         LINE#         39
 C2:7E26H         LINE#         40
 C2:7E50H         LINE#         41
 C2:7E53H         LINE#         42
 C2:7E53H         LINE#         43
 C2:7E67H         LINE#         44
 C2:7E67H         LINE#         45
 C2:7E6AH         LINE#         47
 C2:7E6AH         LINE#         48
 C2:7E85H         LINE#         49
 C2:7E8BH         LINE#         51
 C2:7EA3H         LINE#         52
 C2:7EA3H         LINE#         53
 C2:7EA6H         LINE#         54
 C2:7EA6H         LINE#         55
 C2:7EC1H         LINE#         56
 C2:7EC7H         LINE#         58
 C2:7EDFH         LINE#         59
 C2:7EDFH         LINE#         60
 C2:7EE2H         LINE#         61
 C2:7EE2H         LINE#         62
 C2:7F0EH         LINE#         63
 C2:7F0EH         LINE#         64
 C2:7F11H         LINE#         66
 C2:7F11H         LINE#         67
 C2:7F22H         LINE#         68
 C2:7F22H         LINE#         69
 C2:7F24H         LINE#         70
 C2:7F24H         LINE#         71
 C2:7F3FH         LINE#         72
 C2:7F3FH         LINE#         73
 C2:7F41H         LINE#         74
 C2:7F41H         LINE#         75
 C2:7F5CH         LINE#         76
 C2:7F5CH         LINE#         77
 C2:7F5EH         LINE#         78
 C2:7F5EH         LINE#         79
 C2:7F89H         LINE#         80
 C2:7F89H         LINE#         81
 C2:7F8CH         LINE#         101
 C2:7F8CH         LINE#         102
 C2:7FB1H         LINE#         103
 C2:7FB1H         LINE#         104
 C2:7FB4H         LINE#         105
 C2:7FB4H         LINE#         106
 C2:7FDDH         LINE#         107
 C2:7FEFH         LINE#         108
 C2:8014H         LINE#         109
 C2:8014H         LINE#         110
 C2:8016H         LINE#         112
 C2:8016H         LINE#         113
 C2:8040H         LINE#         114
 C2:8050H         LINE#         115
BL51 BANKED LINKER/LOCATER V6.00                                                      12/23/2015  16:04:37  PAGE 128


 C2:8053H         LINE#         116
 C2:8053H         LINE#         117
 C2:8071H         LINE#         118
 C2:8077H         LINE#         119
 C2:807AH         LINE#         120
 C2:807AH         LINE#         121
 C2:8094H         LINE#         122
 C2:80AEH         LINE#         123
 C2:80CCH         LINE#         124
 C2:80D2H         LINE#         125
 C2:80D5H         LINE#         126
 C2:80D5H         LINE#         127
 C2:80F9H         LINE#         128
 C2:80FBH         LINE#         131
 C2:80FBH         LINE#         132
 C2:811FH         LINE#         133
 C2:8121H         LINE#         134
 C2:8121H         LINE#         135
 C2:8142H         LINE#         136
 C2:8144H         LINE#         139
 C2:8144H         LINE#         140
 C2:8179H         LINE#         141
 C2:817BH         LINE#         144
 C2:817BH         LINE#         145
 C2:8195H         LINE#         146
 C2:81A5H         LINE#         147
 C2:81A5H         LINE#         154
 C2:81A8H         LINE#         157
 C2:81A8H         LINE#         163
 C2:81A8H         LINE#         168
 C2:81AAH         LINE#         169
  -------         ENDPROC       _SSI_TELNET

  -------         PROC BANK=2   _CGI_TELNET
  X:35C5H         SYMBOL        cnt
  D:0001H         SYMBOL        vptr
  -------         DO            
  X:35C6H         SYMBOL        en_re_rf
  X:35C7H         SYMBOL        count
  X:35C8H         SYMBOL        vp
  X:35CBH         SYMBOL        i
  -------         ENDDO         
 C2:6170H         LINE#         171
 C2:6175H         LINE#         172
 C2:6175H         LINE#         173
 C2:617AH         LINE#         175
 C2:6183H         LINE#         177
 C2:6186H         LINE#         179
 C2:619EH         LINE#         182
 C2:61B6H         LINE#         185
 C2:61CFH         LINE#         187
 C2:61F0H         LINE#         188
 C2:61F0H         LINE#         189
 C2:6223H         LINE#         190
 C2:623BH         LINE#         191
 C2:6271H         LINE#         192
 C2:628AH         LINE#         193
BL51 BANKED LINKER/LOCATER V6.00                                                      12/23/2015  16:04:37  PAGE 129


 C2:629EH         LINE#         194
 C2:62BFH         LINE#         195
 C2:62BFH         LINE#         196
 C2:62E2H         LINE#         197
 C2:62E2H         LINE#         198
 C2:6305H         LINE#         199
 C2:631BH         LINE#         200
 C2:633EH         LINE#         201
 C2:6354H         LINE#         202
 C2:6377H         LINE#         203
 C2:638CH         LINE#         204
 C2:638CH         LINE#         206
 C2:63ACH         LINE#         207
 C2:63ACH         LINE#         208
 C2:63C5H         LINE#         209
 C2:63C8H         LINE#         210
 C2:63E1H         LINE#         211
 C2:63E1H         LINE#         213
 C2:6401H         LINE#         214
 C2:6401H         LINE#         215
 C2:642FH         LINE#         216
 C2:642FH         LINE#         218
 C2:644FH         LINE#         219
 C2:644FH         LINE#         220
 C2:647DH         LINE#         221
 C2:647DH         LINE#         222
 C2:649DH         LINE#         223
 C2:649DH         LINE#         224
 C2:64B6H         LINE#         225
 C2:64BAH         LINE#         226
 C2:64BAH         LINE#         227
 C2:64D5H         LINE#         228
 C2:64D5H         LINE#         229
 C2:64DDH         LINE#         230
 C2:64F5H         LINE#         231
 C2:64F5H         LINE#         232
 C2:64F5H         LINE#         233
 C2:64F5H         LINE#         236
 C2:6518H         LINE#         237
 C2:6518H         LINE#         238
 C2:6537H         LINE#         239
 C2:6550H         LINE#         240
 C2:65A0H         LINE#         241
 C2:65A0H         LINE#         242
 C2:65C3H         LINE#         243
 C2:65C3H         LINE#         244
 C2:65DDH         LINE#         245
 C2:65F7H         LINE#         246
 C2:6610H         LINE#         247
 C2:6610H         LINE#         248
 C2:661EH         LINE#         249
 C2:666AH         LINE#         250
 C2:666AH         LINE#         251
 C2:666AH         LINE#         287
 C2:668AH         LINE#         288
 C2:668AH         LINE#         289
 C2:66B8H         LINE#         290
BL51 BANKED LINKER/LOCATER V6.00                                                      12/23/2015  16:04:37  PAGE 130


 C2:66B8H         LINE#         291
 C2:66D8H         LINE#         292
 C2:66D8H         LINE#         293
 C2:6706H         LINE#         294
 C2:6706H         LINE#         296
 C2:6726H         LINE#         297
 C2:6726H         LINE#         298
 C2:673FH         LINE#         299
 C2:673FH         LINE#         301
 C2:675AH         LINE#         302
 C2:675DH         LINE#         303
 C2:676FH         LINE#         305
 C2:678CH         LINE#         306
 C2:6792H         LINE#         307
 C2:67B9H         LINE#         312
 C2:67BBH         LINE#         313
  -------         ENDPROC       _CGI_TELNET
  -------         ENDMOD        TELNETCBK

  -------         MODULE        SETDEFCBK
  C:0000H         SYMBOL        _ICE_DUMMY_
  D:0080H         PUBLIC        P0
  D:0090H         PUBLIC        P1
  D:00A0H         PUBLIC        P2
  D:00B0H         PUBLIC        P3
  D:00E8H         PUBLIC        P4
  D:00A8H         PUBLIC        IE
  D:00B8H         PUBLIC        IP
  D:0098H         PUBLIC        SCON
  D:0088H         PUBLIC        TCON
  D:00D8H         PUBLIC        WDTCON
 C5:7A53H         PUBLIC        _cgi_setDef
  D:00C8H         PUBLIC        T2CON
  D:00D0H         PUBLIC        PSW

  -------         PROC BANK=5   _CGI_SETDEF
  X:371BH         SYMBOL        cnt
  X:371CH         SYMBOL        vp
 C5:7A53H         LINE#         33
 C5:7A61H         LINE#         34
 C5:7A61H         LINE#         35
 C5:7A61H         LINE#         37
 C5:7A69H         LINE#         38
 C5:7A69H         LINE#         39
 C5:7A6EH         LINE#         40
 C5:7A71H         LINE#         41
 C5:7A8EH         LINE#         42
 C5:7A94H         LINE#         43
 C5:7ABBH         LINE#         44
 C5:7ABDH         LINE#         46
 C5:7ABDH         LINE#         47
 C5:7AC0H         LINE#         48
 C5:7AC0H         LINE#         49
 C5:7AC2H         LINE#         50
  -------         ENDPROC       _CGI_SETDEF
  -------         ENDMOD        SETDEFCBK

BL51 BANKED LINKER/LOCATER V6.00                                                      12/23/2015  16:04:37  PAGE 131


  -------         MODULE        SETIPCBK
  C:0000H         SYMBOL        _ICE_DUMMY_
 C1:85D9H         PUBLIC        _cgi_setip
  X:37D3H         PUBLIC        ip_chged
 C1:9A31H         PUBLIC        _ssi_setip
  C:38D7H         SYMBOL        _?ix1000

  -------         PROC BANK=1   _SSI_SETIP
  X:34E8H         SYMBOL        varid
  X:34E9H         SYMBOL        vp
  -------         DO            
  X:34ECH         SYMBOL        eep_val
  -------         DO            
  X:34EDH         SYMBOL        buf
  X:34F1H         SYMBOL        i
  -------         ENDDO         
  -------         ENDDO         
 C1:9A31H         LINE#         38
 C1:9A41H         LINE#         39
 C1:9A41H         LINE#         42
 C1:9A47H         LINE#         45
 C1:9A4CH         LINE#         46
 C1:9A5BH         LINE#         47
 C1:9A5BH         LINE#         48
 C1:9A62H         LINE#         49
 C1:9A62H         LINE#         50
 C1:9A63H         LINE#         51
 C1:9A66H         LINE#         52
 C1:9A66H         LINE#         53
 C1:9A69H         LINE#         54
 C1:9A69H         LINE#         55
 C1:9A6CH         LINE#         56
 C1:9A7BH         LINE#         57
 C1:9A7BH         LINE#         58
 C1:9A85H         LINE#         59
 C1:9A85H         LINE#         60
 C1:9A86H         LINE#         61
 C1:9A89H         LINE#         62
 C1:9A89H         LINE#         63
 C1:9A89H         LINE#         64
 C1:9A89H         LINE#         65
 C1:9A8CH         LINE#         66
 C1:9A9BH         LINE#         67
 C1:9A9BH         LINE#         68
 C1:9AA5H         LINE#         69
 C1:9AA5H         LINE#         70
 C1:9AA6H         LINE#         71
 C1:9AA8H         LINE#         72
 C1:9AA8H         LINE#         73
 C1:9AA8H         LINE#         74
 C1:9AA8H         LINE#         75
 C1:9AAAH         LINE#         77
 C1:9AB2H         LINE#         78
 C1:9AB2H         LINE#         79
 C1:9AC0H         LINE#         80
 C1:9AC4H         LINE#         81
 C1:9AC6H         LINE#         82
BL51 BANKED LINKER/LOCATER V6.00                                                      12/23/2015  16:04:37  PAGE 132


 C1:9ACAH         LINE#         83
 C1:9ACAH         LINE#         84
 C1:9AD8H         LINE#         85
 C1:9AF0H         LINE#         86
 C1:9AF2H         LINE#         90
 C1:9B01H         LINE#         91
 C1:9B01H         LINE#         92
 C1:9B0BH         LINE#         93
 C1:9B0BH         LINE#         94
 C1:9B1AH         LINE#         95
 C1:9B1CH         LINE#         96
 C1:9B1CH         LINE#         97
 C1:9B2BH         LINE#         98
 C1:9B2BH         LINE#         99
 C1:9B2BH         LINE#         101
 C1:9B38H         LINE#         102
 C1:9B38H         LINE#         103
 C1:9B48H         LINE#         104
 C1:9B4AH         LINE#         106
 C1:9B4AH         LINE#         107
 C1:9B60H         LINE#         108
 C1:9B73H         LINE#         109
 C1:9B73H         LINE#         111
 C1:9B7AH         LINE#         112
 C1:9B7AH         LINE#         113
 C1:9B83H         LINE#         114
 C1:9B89H         LINE#         116
 C1:9BA1H         LINE#         117
 C1:9BB4H         LINE#         118
 C1:9BB4H         LINE#         119
 C1:9BBBH         LINE#         120
 C1:9BBBH         LINE#         121
 C1:9BC3H         LINE#         122
 C1:9BC9H         LINE#         124
 C1:9BE1H         LINE#         125
 C1:9BF4H         LINE#         126
 C1:9BF4H         LINE#         127
 C1:9BFCH         LINE#         128
 C1:9BFCH         LINE#         129
 C1:9C0EH         LINE#         130
 C1:9C1DH         LINE#         131
 C1:9C43H         LINE#         132
 C1:9C5DH         LINE#         133
 C1:9C70H         LINE#         134
 C1:9C70H         LINE#         136
 C1:9C72H         LINE#         137
  -------         ENDPROC       _SSI_SETIP

  -------         PROC BANK=1   _CGI_SETIP
  X:34BDH         SYMBOL        cnt
  X:34BEH         SYMBOL        vp
  -------         DO            
  X:34C1H         SYMBOL        i
  X:34C2H         SYMBOL        chr
  X:34C3H         SYMBOL        vp2
  -------         DO            
  X:34C6H         SYMBOL        value
BL51 BANKED LINKER/LOCATER V6.00                                                      12/23/2015  16:04:37  PAGE 133


  -------         ENDDO         
  -------         ENDDO         
 C1:85D9H         LINE#         150
 C1:85E7H         LINE#         151
 C1:85E7H         LINE#         154
 C1:85F2H         LINE#         155
 C1:85FDH         LINE#         156
 C1:85FDH         LINE#         158
 C1:8611H         LINE#         159
 C1:8611H         LINE#         160
 C1:8631H         LINE#         161
 C1:8631H         LINE#         162
 C1:8654H         LINE#         163
 C1:8654H         LINE#         164
 C1:865AH         LINE#         165
 C1:865AH         LINE#         166
 C1:865CH         LINE#         168
 C1:865CH         LINE#         169
 C1:865CH         LINE#         170
 C1:867FH         LINE#         171
 C1:867FH         LINE#         172
 C1:8685H         LINE#         173
 C1:8685H         LINE#         174
 C1:8688H         LINE#         176
 C1:8688H         LINE#         177
 C1:8688H         LINE#         178
 C1:8688H         LINE#         180
 C1:86A8H         LINE#         181
 C1:86A8H         LINE#         182
 C1:86CEH         LINE#         183
 C1:86D1H         LINE#         185
 C1:86D4H         LINE#         186
 C1:86D4H         LINE#         187
 C1:86F4H         LINE#         188
 C1:86F4H         LINE#         189
 C1:86FAH         LINE#         190
 C1:8716H         LINE#         191
 C1:8723H         LINE#         192
 C1:8726H         LINE#         193
 C1:8726H         LINE#         195
 C1:8739H         LINE#         196
 C1:8745H         LINE#         198
 C1:8752H         LINE#         205
 C1:8764H         LINE#         206
 C1:8764H         LINE#         207
 C1:87B8H         LINE#         208
 C1:87B8H         LINE#         209
 C1:87DCH         LINE#         210
 C1:87DCH         LINE#         211
 C1:87E5H         LINE#         212
 C1:87ECH         LINE#         215
 C1:87FBH         LINE#         216
 C1:8830H         LINE#         218
 C1:8842H         LINE#         219
 C1:8842H         LINE#         220
 C1:8851H         LINE#         221
 C1:886AH         LINE#         222
BL51 BANKED LINKER/LOCATER V6.00                                                      12/23/2015  16:04:37  PAGE 134


 C1:8893H         LINE#         223
 C1:8893H         LINE#         224
 C1:88B0H         LINE#         225
 C1:88B6H         LINE#         226
 C1:88DDH         LINE#         227
 C1:88E0H         LINE#         228
 C1:88E0H         LINE#         229
 C1:88E9H         LINE#         232
 C1:88F5H         LINE#         233
 C1:8912H         LINE#         234
 C1:8918H         LINE#         235
 C1:893FH         LINE#         236
 C1:8941H         LINE#         238
 C1:8941H         LINE#         239
 C1:8944H         LINE#         240
 C1:8944H         LINE#         241
 C1:8946H         LINE#         242
  -------         ENDPROC       _CGI_SETIP
  -------         ENDMOD        SETIPCBK

  -------         MODULE        SETPASSCBK
  C:0000H         SYMBOL        _ICE_DUMMY_
  D:0080H         PUBLIC        P0
  D:0090H         PUBLIC        P1
  D:00A0H         PUBLIC        P2
  D:00B0H         PUBLIC        P3
  D:00E8H         PUBLIC        P4
  D:00A8H         PUBLIC        IE
 C1:C17BH         PUBLIC        _ssi_setpass
  D:00B8H         PUBLIC        IP
  D:0098H         PUBLIC        SCON
  D:0088H         PUBLIC        TCON
  D:00D8H         PUBLIC        WDTCON
  D:00C8H         PUBLIC        T2CON
  D:00D0H         PUBLIC        PSW
 C1:8CA8H         PUBLIC        _cgi_setpass

  -------         PROC BANK=1   _SSI_SETPASS
  D:0007H         SYMBOL        varid
  X:32A8H         SYMBOL        vp
  -------         DO            
  X:32ABH         SYMBOL        i
  X:32ACH         SYMBOL        username
  X:32BCH         SYMBOL        password
  -------         ENDDO         
 C1:C17BH         LINE#         32
 C1:C186H         LINE#         33
 C1:C186H         LINE#         39
 C1:C18BH         LINE#         40
 C1:C18FH         LINE#         41
 C1:C199H         LINE#         42
 C1:C199H         LINE#         43
 C1:C199H         LINE#         44
 C1:C1A1H         LINE#         45
 C1:C1A1H         LINE#         46
 C1:C1A5H         LINE#         47
 C1:C1C8H         LINE#         48
BL51 BANKED LINKER/LOCATER V6.00                                                      12/23/2015  16:04:37  PAGE 135


 C1:C1CEH         LINE#         49
 C1:C1D0H         LINE#         51
 C1:C1D0H         LINE#         52
 C1:C1D6H         LINE#         53
 C1:C1D6H         LINE#         54
 C1:C1D8H         LINE#         55
 C1:C1D8H         LINE#         56
 C1:C1E0H         LINE#         57
 C1:C1E0H         LINE#         58
 C1:C1E4H         LINE#         59
 C1:C207H         LINE#         60
 C1:C20DH         LINE#         61
 C1:C20FH         LINE#         63
 C1:C20FH         LINE#         64
 C1:C215H         LINE#         65
 C1:C215H         LINE#         66
 C1:C217H         LINE#         68
 C1:C217H         LINE#         69
 C1:C231H         LINE#         70
 C1:C231H         LINE#         71
 C1:C231H         LINE#         72
 C1:C244H         LINE#         73
 C1:C246H         LINE#         74
  -------         ENDPROC       _SSI_SETPASS

  -------         PROC BANK=1   _CGI_SETPASS
  X:3631H         SYMBOL        cnt
  X:3632H         SYMBOL        vp
  -------         DO            
  X:3635H         SYMBOL        i
  X:3636H         SYMBOL        len
  X:3637H         SYMBOL        chr
  -------         ENDDO         
 C1:8CA8H         LINE#         90
 C1:8CB6H         LINE#         91
 C1:8CB6H         LINE#         95
 C1:8CB6H         LINE#         96
 C1:8CC1H         LINE#         97
 C1:8CC1H         LINE#         99
 C1:8CFBH         LINE#         100
 C1:8CFBH         LINE#         101
 C1:8D1FH         LINE#         102
 C1:8D1FH         LINE#         104
 C1:8D26H         LINE#         107
 C1:8D3FH         LINE#         108
 C1:8D51H         LINE#         109
 C1:8D7DH         LINE#         110
 C1:8D87H         LINE#         111
 C1:8D9AH         LINE#         114
 C1:8DB3H         LINE#         115
 C1:8DC5H         LINE#         116
 C1:8DF1H         LINE#         117
 C1:8DFBH         LINE#         118
 C1:8E0EH         LINE#         122
 C1:8E24H         LINE#         123
 C1:8E24H         LINE#         124
 C1:8E33H         LINE#         125
BL51 BANKED LINKER/LOCATER V6.00                                                      12/23/2015  16:04:37  PAGE 136


 C1:8E58H         LINE#         126
 C1:8E58H         LINE#         127
 C1:8E75H         LINE#         128
 C1:8E7BH         LINE#         129
 C1:8E9CH         LINE#         130
 C1:8E9FH         LINE#         131
 C1:8E9FH         LINE#         132
 C1:8EA8H         LINE#         135
 C1:8EC1H         LINE#         136
 C1:8ED7H         LINE#         137
 C1:8ED7H         LINE#         138
 C1:8EE6H         LINE#         139
 C1:8F0BH         LINE#         140
 C1:8F0BH         LINE#         141
 C1:8F28H         LINE#         142
 C1:8F2EH         LINE#         143
 C1:8F55H         LINE#         144
 C1:8F58H         LINE#         145
 C1:8F58H         LINE#         146
 C1:8F61H         LINE#         149
 C1:8F6DH         LINE#         151
 C1:8F8AH         LINE#         152
 C1:8F90H         LINE#         153
 C1:8FB7H         LINE#         154
 C1:8FB9H         LINE#         156
 C1:8FB9H         LINE#         157
 C1:8FBCH         LINE#         158
 C1:8FBCH         LINE#         159
 C1:8FBEH         LINE#         160
  -------         ENDPROC       _CGI_SETPASS
  -------         ENDMOD        SETPASSCBK

  -------         MODULE        STATUSCBK
  C:0000H         SYMBOL        _ICE_DUMMY_
  D:0080H         PUBLIC        P0
  D:0090H         PUBLIC        P1
  D:00A0H         PUBLIC        P2
  D:00B0H         PUBLIC        P3
  D:00E8H         PUBLIC        P4
  D:00A8H         PUBLIC        IE
  D:00B8H         PUBLIC        IP
 C1:BC1CH         PUBLIC        _cgi_status
  D:0098H         PUBLIC        SCON
  D:0088H         PUBLIC        TCON
 C1:BA37H         PUBLIC        _ssi_status
  D:00D8H         PUBLIC        WDTCON
  D:00C8H         PUBLIC        T2CON
  D:00D0H         PUBLIC        PSW

  -------         PROC BANK=1   _SSI_STATUS
  D:0007H         SYMBOL        varid
  X:338BH         SYMBOL        vp
  -------         DO            
  X:338EH         SYMBOL        i
  X:338FH         SYMBOL        MACAddr
  -------         ENDDO         
 C1:BA37H         LINE#         34
BL51 BANKED LINKER/LOCATER V6.00                                                      12/23/2015  16:04:37  PAGE 137


 C1:BA42H         LINE#         35
 C1:BA42H         LINE#         38
 C1:BA52H         LINE#         39
 C1:BA52H         LINE#         40
 C1:BA52H         LINE#         41
 C1:BA61H         LINE#         42
 C1:BA61H         LINE#         43
 C1:BA7FH         LINE#         44
 C1:BA93H         LINE#         45
 C1:BA9BH         LINE#         46
 C1:BAADH         LINE#         47
 C1:BAADH         LINE#         48
 C1:BAAFH         LINE#         49
 C1:BAAFH         LINE#         50
 C1:BAB7H         LINE#         51
 C1:BAB7H         LINE#         52
 C1:BABBH         LINE#         53
 C1:BABBH         LINE#         54
 C1:BAD2H         LINE#         55
 C1:BADEH         LINE#         56
 C1:BAE3H         LINE#         57
 C1:BAE9H         LINE#         58
 C1:BAEBH         LINE#         60
 C1:BAF1H         LINE#         61
 C1:BAF3H         LINE#         62
 C1:BAF3H         LINE#         63
 C1:BAF9H         LINE#         64
 C1:BAFBH         LINE#         65
 C1:BAFBH         LINE#         66
 C1:BB15H         LINE#         67
 C1:BB15H         LINE#         68
 C1:BB15H         LINE#         69
 C1:BB28H         LINE#         70
 C1:BB2AH         LINE#         71
  -------         ENDPROC       _SSI_STATUS

  -------         PROC BANK=1   _CGI_STATUS
  X:36A3H         SYMBOL        cnt
  X:36A4H         SYMBOL        vp
  -------         DO            
  X:36A7H         SYMBOL        i
  X:36A8H         SYMBOL        len
  -------         ENDDO         
 C1:BC1CH         LINE#         83
 C1:BC2AH         LINE#         84
 C1:BC2AH         LINE#         86
 C1:BC2AH         LINE#         87
 C1:BC35H         LINE#         88
 C1:BC35H         LINE#         89
 C1:BC64H         LINE#         90
 C1:BC64H         LINE#         91
 C1:BC7DH         LINE#         92
 C1:BC8FH         LINE#         93
 C1:BCBBH         LINE#         94
 C1:BCC5H         LINE#         95
 C1:BCD8H         LINE#         97
 C1:BCFFH         LINE#         98
BL51 BANKED LINKER/LOCATER V6.00                                                      12/23/2015  16:04:37  PAGE 138


 C1:BCFFH         LINE#         100
 C1:BD01H         LINE#         102
 C1:BD01H         LINE#         103
 C1:BD04H         LINE#         104
 C1:BD04H         LINE#         105
 C1:BD06H         LINE#         106
  -------         ENDPROC       _CGI_STATUS
  -------         ENDMOD        STATUSCBK

  -------         MODULE        SMTPCBK
  C:0000H         SYMBOL        _ICE_DUMMY_
 C1:B410H         PUBLIC        _ReplaceDoubleQuotes
 C1:97E8H         PUBLIC        _cgi_smtp
  C:3679H         SYMBOL        _?ix1000
  C:3685H         SYMBOL        _?ix1001
  C:36E0H         SYMBOL        _?ix1002
 C1:A4F6H         PUBLIC        _ssi_smtp
 C1:AA75H         PUBLIC        _CGIstrcpy

  -------         PROC BANK=1   _REPLACEDOUBLEQUOTES
  X:3545H         SYMBOL        src
  X:3548H         SYMBOL        des
  -------         DO            
  X:354BH         SYMBOL        i
  X:354CH         SYMBOL        j
  X:354DH         SYMBOL        len
  -------         ENDDO         
 C1:B410H         LINE#         26
 C1:B41BH         LINE#         27
 C1:B41BH         LINE#         28
 C1:B423H         LINE#         29
 C1:B43AH         LINE#         30
 C1:B43AH         LINE#         31
 C1:B43DH         LINE#         32
 C1:B458H         LINE#         33
 C1:B458H         LINE#         34
 C1:B473H         LINE#         35
 C1:B484H         LINE#         36
 C1:B486H         LINE#         37
 C1:B4A1H         LINE#         38
 C1:B4A1H         LINE#         39
 C1:B4B9H         LINE#         40
 C1:B4CAH         LINE#         41
 C1:B4DDH         LINE#         42
 C1:B4DFH         LINE#         44
 C1:B4DFH         LINE#         45
 C1:B512H         LINE#         46
 C1:B512H         LINE#         47
 C1:B51BH         LINE#         48
  -------         ENDPROC       _REPLACEDOUBLEQUOTES

  -------         PROC BANK=1   _CGISTRCPY
  X:33F3H         SYMBOL        str
  X:33F6H         SYMBOL        cgistr
  -------         DO            
  X:33F9H         SYMBOL        buf
  X:33FCH         SYMBOL        i
BL51 BANKED LINKER/LOCATER V6.00                                                      12/23/2015  16:04:37  PAGE 139


  X:33FEH         SYMBOL        j
  X:3400H         SYMBOL        len
  -------         ENDDO         
 C1:AA75H         LINE#         50
 C1:AA80H         LINE#         51
 C1:AA80H         LINE#         52
 C1:AA93H         LINE#         53
 C1:AAA9H         LINE#         55
 C1:AACCH         LINE#         56
 C1:AACCH         LINE#         57
 C1:AACFH         LINE#         58
 C1:AAECH         LINE#         59
 C1:AAECH         LINE#         60
 C1:AB0AH         LINE#         61
 C1:AB28H         LINE#         62
 C1:AB2BH         LINE#         63
 C1:AB66H         LINE#         64
 C1:AB6EH         LINE#         65
 C1:AB6EH         LINE#         66
 C1:AB8AH         LINE#         67
 C1:AB97H         LINE#         68
 C1:ABA5H         LINE#         69
 C1:ABAEH         LINE#         70
 C1:ABB0H         LINE#         72
 C1:ABB0H         LINE#         73
 C1:ABE5H         LINE#         74
 C1:ABE5H         LINE#         75
 C1:ABF6H         LINE#         76
  -------         ENDPROC       _CGISTRCPY

  -------         PROC BANK=1   _SSI_SMTP
  D:0007H         SYMBOL        varid
  X:2EFFH         SYMBOL        vp
  -------         DO            
  X:2F02H         SYMBOL        buf
  C:367CH         SYMBOL        title
  -------         ENDDO         
 C1:A4F6H         LINE#         79
 C1:A501H         LINE#         80
 C1:A501H         LINE#         84
 C1:A51AH         LINE#         85
 C1:A52DH         LINE#         86
 C1:A547H         LINE#         87
 C1:A57EH         LINE#         88
 C1:A57EH         LINE#         89
 C1:A57EH         LINE#         90
 C1:A592H         LINE#         91
 C1:A592H         LINE#         92
 C1:A592H         LINE#         93
 C1:A592H         LINE#         94
 C1:A594H         LINE#         95
 C1:A594H         LINE#         96
 C1:A5B3H         LINE#         97
 C1:A5B3H         LINE#         98
 C1:A5B6H         LINE#         99
 C1:A5B6H         LINE#         100
 C1:A5C2H         LINE#         101
BL51 BANKED LINKER/LOCATER V6.00                                                      12/23/2015  16:04:37  PAGE 140


 C1:A5C4H         LINE#         103
 C1:A5C4H         LINE#         104
 C1:A5DBH         LINE#         105
 C1:A5DBH         LINE#         106
 C1:A5E1H         LINE#         107
 C1:A5E1H         LINE#         108
 C1:A5E3H         LINE#         110
 C1:A5E3H         LINE#         111
 C1:A5F3H         LINE#         112
 C1:A5F5H         LINE#         114
 C1:A5F5H         LINE#         115
 C1:A605H         LINE#         116
 C1:A607H         LINE#         118
 C1:A607H         LINE#         119
 C1:A617H         LINE#         120
 C1:A619H         LINE#         122
 C1:A619H         LINE#         123
 C1:A62AH         LINE#         124
 C1:A62CH         LINE#         125
 C1:A62CH         LINE#         126
 C1:A65FH         LINE#         127
 C1:A662H         LINE#         129
 C1:A662H         LINE#         130
 C1:A679H         LINE#         131
 C1:A67BH         LINE#         133
 C1:A67BH         LINE#         134
 C1:A6B8H         LINE#         135
 C1:A6BAH         LINE#         137
 C1:A6BAH         LINE#         138
 C1:A6D9H         LINE#         139
 C1:A6D9H         LINE#         140
 C1:A6D9H         LINE#         141
 C1:A6DEH         LINE#         143
 C1:A6F1H         LINE#         144
 C1:A6F1H         LINE#         146
 C1:A6F1H         LINE#         151
 C1:A6F3H         LINE#         152
  -------         ENDPROC       _SSI_SMTP

  -------         PROC BANK=1   _CGI_SMTP
  X:2E19H         SYMBOL        cnt
  D:0001H         SYMBOL        vptr
  -------         DO            
  X:2E1AH         SYMBOL        vp
  X:2E1DH         SYMBOL        i
  X:2E1EH         SYMBOL        j
  X:2E1FH         SYMBOL        smtp_cbk_cnt
  X:2E20H         SYMBOL        totallen
  X:2E22H         SYMBOL        NameArray
  X:2E7DH         SYMBOL        ValuePtrArray
  -------         ENDDO         
 C1:97E8H         LINE#         154
 C1:97EDH         LINE#         155
 C1:97EDH         LINE#         157
 C1:97F6H         LINE#         158
 C1:97F9H         LINE#         159
 C1:97FBH         LINE#         160
BL51 BANKED LINKER/LOCATER V6.00                                                      12/23/2015  16:04:37  PAGE 141


 C1:97FDH         LINE#         161
 C1:9801H         LINE#         162
 C1:9813H         LINE#         171
 C1:9826H         LINE#         179
 C1:9835H         LINE#         180
 C1:9847H         LINE#         182
 C1:985CH         LINE#         183
 C1:985CH         LINE#         184
 C1:988CH         LINE#         185
 C1:98BFH         LINE#         186
 C1:9907H         LINE#         188
 C1:9919H         LINE#         189
 C1:9919H         LINE#         190
 C1:9958H         LINE#         191
 C1:9958H         LINE#         192
 C1:997AH         LINE#         193
 C1:9981H         LINE#         194
 C1:9981H         LINE#         195
 C1:9991H         LINE#         196
 C1:9993H         LINE#         197
 C1:999AH         LINE#         198
 C1:999AH         LINE#         199
 C1:99D9H         LINE#         200
 C1:99D9H         LINE#         201
 C1:99D9H         LINE#         202
 C1:99E2H         LINE#         203
 C1:99F5H         LINE#         204
 C1:9A07H         LINE#         205
 C1:9A2EH         LINE#         211
 C1:9A30H         LINE#         212
  -------         ENDPROC       _CGI_SMTP
  -------         ENDMOD        SMTPCBK

  -------         MODULE        FW_UPCBK
  C:0000H         SYMBOL        _ICE_DUMMY_
 C1:BED3H         PUBLIC        _cgi_fu_up
 C1:BDEDH         PUBLIC        _cgi_fw_up

  -------         PROC BANK=1   _CGI_FW_UP
  D:0007H         SYMBOL        cnt
  D:0001H         SYMBOL        vp
  -------         DO            
  X:371FH         SYMBOL        i
  X:3720H         SYMBOL        y
  -------         ENDDO         
 C1:BDEDH         LINE#         23
 C1:BDEDH         LINE#         24
 C1:BDEDH         LINE#         25
 C1:BDF2H         LINE#         26
 C1:BDFBH         LINE#         27
 C1:BE00H         LINE#         28
 C1:BE00H         LINE#         29
 C1:BE19H         LINE#         30
 C1:BE25H         LINE#         31
 C1:BE2AH         LINE#         32
 C1:BE2AH         LINE#         33
 C1:BE43H         LINE#         34
BL51 BANKED LINKER/LOCATER V6.00                                                      12/23/2015  16:04:37  PAGE 142


 C1:BE4FH         LINE#         35
 C1:BE54H         LINE#         36
 C1:BE54H         LINE#         37
 C1:BE6DH         LINE#         38
 C1:BE79H         LINE#         39
 C1:BE7EH         LINE#         40
 C1:BE7EH         LINE#         41
 C1:BE97H         LINE#         42
 C1:BEA3H         LINE#         43
 C1:BEA9H         LINE#         44
 C1:BED0H         LINE#         46
 C1:BED2H         LINE#         47
  -------         ENDPROC       _CGI_FW_UP

  -------         PROC BANK=1   _CGI_FU_UP
  D:0007H         SYMBOL        cnt
  D:0001H         SYMBOL        vp
  -------         DO            
  X:3723H         SYMBOL        i
  X:3724H         SYMBOL        y
  -------         ENDDO         
 C1:BED3H         LINE#         50
 C1:BED3H         LINE#         51
 C1:BED3H         LINE#         52
 C1:BED8H         LINE#         53
 C1:BEE1H         LINE#         54
 C1:BEE6H         LINE#         55
 C1:BEE6H         LINE#         56
 C1:BEFFH         LINE#         57
 C1:BF0BH         LINE#         58
 C1:BF10H         LINE#         59
 C1:BF10H         LINE#         60
 C1:BF29H         LINE#         61
 C1:BF35H         LINE#         62
 C1:BF3AH         LINE#         63
 C1:BF3AH         LINE#         64
 C1:BF53H         LINE#         65
 C1:BF5FH         LINE#         66
 C1:BF64H         LINE#         67
 C1:BF64H         LINE#         68
 C1:BF7DH         LINE#         69
 C1:BF89H         LINE#         72
 C1:BF8FH         LINE#         73
 C1:BFB6H         LINE#         75
 C1:BFB8H         LINE#         76
  -------         ENDPROC       _CGI_FU_UP
  -------         ENDMOD        FW_UPCBK

  -------         MODULE        ADCCBK
  C:0000H         SYMBOL        _ICE_DUMMY_
  D:0090H         PUBLIC        P1
  D:00B0H         PUBLIC        P3
  D:00A8H         PUBLIC        IE
 C5:746AH         PUBLIC        adc_convert
  D:00B8H         PUBLIC        IP
 C5:7194H         PUBLIC        _cgi_adc
  D:0098H         PUBLIC        SCON
BL51 BANKED LINKER/LOCATER V6.00                                                      12/23/2015  16:04:37  PAGE 143


  D:0088H         PUBLIC        TCON
 C5:7D43H         PUBLIC        _ssi_adc
  X:37BBH         PUBLIC        current_vrs
  X:37BCH         PUBLIC        current_channel
  D:00D8H         PUBLIC        WDTCON
  D:00C8H         PUBLIC        T2CON
  D:00D0H         PUBLIC        PSW

  -------         PROC BANK=5   ADC_CONVERT
  -------         DO            
  D:0005H         SYMBOL        byte_data
  D:0007H         SYMBOL        adc_h
  D:0001H         SYMBOL        adc_l
  X:37B9H         SYMBOL        adcValue
  -------         ENDDO         
 C5:746AH         LINE#         21
 C5:746AH         LINE#         22
 C5:746AH         LINE#         30
 C5:746EH         LINE#         31
 C5:7483H         LINE#         32
 C5:7487H         LINE#         35
 C5:7487H         LINE#         36
 C5:748CH         LINE#         37
 C5:748FH         LINE#         40
 C5:7490H         LINE#         41
 C5:7492H         LINE#         42
 C5:7493H         LINE#         45
 C5:7493H         LINE#         46
 C5:7498H         LINE#         47
 C5:749BH         LINE#         49
 C5:749EH         LINE#         50
 C5:74A0H         LINE#         52
 C5:74A3H         LINE#         54
 C5:74A6H         LINE#         55
 C5:74A6H         LINE#         77
 C5:74A8H         LINE#         78
 C5:74B5H         LINE#         79
 C5:74C8H         LINE#         80
 C5:74D3H         LINE#         81
 C5:74D5H         LINE#         83
 C5:74D5H         LINE#         85
 C5:74E7H         LINE#         86
 C5:74F2H         LINE#         87
 C5:74F2H         LINE#         91
 C5:74F6H         LINE#         92
 C5:74F9H         LINE#         93
 C5:74FAH         LINE#         95
 C5:7513H         LINE#         97
 C5:7513H         LINE#         98
  -------         ENDPROC       ADC_CONVERT

  -------         PROC BANK=5   _SSI_ADC
  D:0007H         SYMBOL        varid
  X:3780H         SYMBOL        vp
 C5:7D43H         LINE#         103
 C5:7D4EH         LINE#         104
 C5:7D4EH         LINE#         109
BL51 BANKED LINKER/LOCATER V6.00                                                      12/23/2015  16:04:37  PAGE 144


 C5:7D55H         LINE#         110
 C5:7D55H         LINE#         112
 C5:7D55H         LINE#         116
 C5:7D66H         LINE#         117
 C5:7D66H         LINE#         118
 C5:7D68H         LINE#         119
 C5:7D68H         LINE#         123
 C5:7D7CH         LINE#         124
 C5:7D8FH         LINE#         128
 C5:7D8FH         LINE#         130
 C5:7D8FH         LINE#         131
 C5:7D8FH         LINE#         132
 C5:7D8FH         LINE#         133
 C5:7D91H         LINE#         134
  -------         ENDPROC       _SSI_ADC

  -------         PROC BANK=5   _CGI_ADC
  X:34F2H         SYMBOL        cnt
  X:34F3H         SYMBOL        vptr
  -------         DO            
  X:34F6H         SYMBOL        vp
  X:34F9H         SYMBOL        temp_channel
  X:34FAH         SYMBOL        i
  -------         ENDDO         
 C5:7194H         LINE#         135
 C5:71A2H         LINE#         136
 C5:71A2H         LINE#         137
 C5:71ABH         LINE#         142
 C5:71CAH         LINE#         143
 C5:71CAH         LINE#         144
 C5:71E7H         LINE#         148
 C5:7201H         LINE#         149
 C5:7214H         LINE#         151
 C5:7237H         LINE#         152
 C5:7237H         LINE#         156
 C5:723FH         LINE#         160
 C5:723FH         LINE#         161
 C5:725CH         LINE#         162
 C5:725CH         LINE#         166
 C5:725CH         LINE#         168
 C5:726EH         LINE#         169
 C5:7295H         LINE#         171
 C5:7297H         LINE#         172
  -------         ENDPROC       _CGI_ADC
  -------         ENDMOD        ADCCBK

  -------         MODULE        UDP_TELCBK
  C:0000H         SYMBOL        _ICE_DUMMY_
  D:0080H         PUBLIC        P0
  D:0090H         PUBLIC        P1
  D:00A0H         PUBLIC        P2
 C5:5EBCH         PUBLIC        _ssi_udp_tel
  D:00B0H         PUBLIC        P3
  D:00E8H         PUBLIC        P4
  D:00A8H         PUBLIC        IE
  D:00B8H         PUBLIC        IP
  D:0098H         PUBLIC        SCON
BL51 BANKED LINKER/LOCATER V6.00                                                      12/23/2015  16:04:37  PAGE 145


  D:0088H         PUBLIC        TCON
  C:3757H         SYMBOL        _?ix1000
  D:00D8H         PUBLIC        WDTCON
 C5:5A05H         PUBLIC        _cgi_udp_tel
  D:00C8H         PUBLIC        T2CON
  D:00D0H         PUBLIC        PSW

  -------         PROC BANK=5   _SSI_UDP_TEL
  X:322EH         SYMBOL        varid
  X:322FH         SYMBOL        vp
  -------         DO            
  X:3232H         SYMBOL        index
  X:3233H         SYMBOL        ee_value
  X:3234H         SYMBOL        i
  X:3235H         SYMBOL        ee_port
  X:3237H         SYMBOL        name_buf
  -------         DO            
  X:3256H         SYMBOL        offset
  -------         ENDDO         
  -------         ENDDO         
 C5:5EBCH         LINE#         32
 C5:5ECAH         LINE#         33
 C5:5ECAH         LINE#         35
 C5:5EE0H         LINE#         37
 C5:5EE5H         LINE#         38
 C5:5EE9H         LINE#         39
 C5:5EFBH         LINE#         41
 C5:5F14H         LINE#         42
 C5:5F27H         LINE#         43
 C5:5F53H         LINE#         44
 C5:5F53H         LINE#         46
 C5:5F53H         LINE#         47
 C5:5F60H         LINE#         48
 C5:5F6DH         LINE#         49
 C5:5F76H         LINE#         50
 C5:5F83H         LINE#         51
 C5:5F9AH         LINE#         52
 C5:5FAAH         LINE#         53
 C5:5FADH         LINE#         54
 C5:5FADH         LINE#         55
 C5:5FC7H         LINE#         56
 C5:5FDAH         LINE#         57
 C5:5FF5H         LINE#         58
 C5:5FF8H         LINE#         59
 C5:5FF8H         LINE#         60
 C5:6012H         LINE#         61
 C5:6025H         LINE#         62
 C5:6040H         LINE#         63
 C5:6042H         LINE#         64
 C5:6042H         LINE#         65
 C5:605CH         LINE#         66
 C5:606FH         LINE#         67
 C5:608DH         LINE#         70
 C5:60A7H         LINE#         71
 C5:60A9H         LINE#         88
 C5:60A9H         LINE#         89
 C5:60BEH         LINE#         90
BL51 BANKED LINKER/LOCATER V6.00                                                      12/23/2015  16:04:37  PAGE 146


 C5:60BEH         LINE#         91
 C5:60C0H         LINE#         92
 C5:60C0H         LINE#         93
 C5:60C0H         LINE#         94
 C5:60C0H         LINE#         95
 C5:60C0H         LINE#         96
 C5:60C0H         LINE#         97
 C5:60C0H         LINE#         98
 C5:60F1H         LINE#         99
 C5:6104H         LINE#         100
 C5:6104H         LINE#         102
 C5:6104H         LINE#         104
 C5:610CH         LINE#         105
 C5:610CH         LINE#         106
 C5:611AH         LINE#         107
 C5:6149H         LINE#         108
 C5:6163H         LINE#         109
 C5:6163H         LINE#         110
 C5:6166H         LINE#         111
 C5:616EH         LINE#         112
 C5:616EH         LINE#         113
 C5:6188H         LINE#         114
 C5:6195H         LINE#         115
 C5:619EH         LINE#         116
 C5:61B8H         LINE#         117
 C5:61CFH         LINE#         118
 C5:61DAH         LINE#         119
 C5:61DAH         LINE#         120
 C5:61DCH         LINE#         121
 C5:61F4H         LINE#         122
 C5:61F4H         LINE#         123
 C5:6201H         LINE#         125
 C5:621CH         LINE#         126
 C5:6232H         LINE#         127
 C5:6242H         LINE#         128
 C5:6245H         LINE#         129
 C5:624EH         LINE#         130
 C5:624EH         LINE#         131
 C5:6265H         LINE#         132
 C5:626BH         LINE#         134
 C5:6283H         LINE#         135
 C5:6293H         LINE#         136
 C5:6295H         LINE#         137
 C5:629AH         LINE#         138
 C5:629AH         LINE#         139
 C5:62B2H         LINE#         140
 C5:62B8H         LINE#         142
 C5:62D0H         LINE#         143
 C5:62E3H         LINE#         144
 C5:62E3H         LINE#         161
 C5:62E5H         LINE#         162
  -------         ENDPROC       _SSI_UDP_TEL

  -------         PROC BANK=5   _CGI_UDP_TEL
  X:3410H         SYMBOL        cnt
  D:0001H         SYMBOL        vptr
  -------         DO            
BL51 BANKED LINKER/LOCATER V6.00                                                      12/23/2015  16:04:37  PAGE 147


  X:3411H         SYMBOL        i
  X:3412H         SYMBOL        begin
  X:3413H         SYMBOL        j
  X:3414H         SYMBOL        count
  X:3415H         SYMBOL        ee_value
  X:3416H         SYMBOL        ee_port
  X:3418H         SYMBOL        vp2
  -------         DO            
  X:341BH         SYMBOL        ptr
  -------         ENDDO         
  -------         ENDDO         
 C5:5A05H         LINE#         164
 C5:5A0AH         LINE#         165
 C5:5A0AH         LINE#         167
 C5:5A13H         LINE#         169
 C5:5A15H         LINE#         170
 C5:5A19H         LINE#         172
 C5:5A22H         LINE#         173
 C5:5A25H         LINE#         174
 C5:5A39H         LINE#         175
 C5:5A39H         LINE#         176
 C5:5A66H         LINE#         177
 C5:5A66H         LINE#         179
 C5:5A97H         LINE#         180
 C5:5AADH         LINE#         181
 C5:5ADEH         LINE#         182
 C5:5AF4H         LINE#         187
 C5:5B25H         LINE#         188
 C5:5B3AH         LINE#         189
 C5:5B3AH         LINE#         190
 C5:5B67H         LINE#         191
 C5:5B67H         LINE#         195
 C5:5B91H         LINE#         196
 C5:5B91H         LINE#         198
 C5:5BC7H         LINE#         199
 C5:5BC7H         LINE#         200
 C5:5BFBH         LINE#         201
 C5:5C0EH         LINE#         203
 C5:5C20H         LINE#         204
 C5:5C26H         LINE#         205
 C5:5C26H         LINE#         207
 C5:5C2FH         LINE#         209
 C5:5C43H         LINE#         210
 C5:5C43H         LINE#         211
 C5:5C70H         LINE#         212
 C5:5C70H         LINE#         213
 C5:5C87H         LINE#         214
 C5:5C9AH         LINE#         215
 C5:5C9AH         LINE#         216
 C5:5CA7H         LINE#         217
 C5:5CB6H         LINE#         218
 C5:5D05H         LINE#         219
 C5:5D05H         LINE#         220
 C5:5D05H         LINE#         221
 C5:5D35H         LINE#         222
 C5:5D35H         LINE#         223
 C5:5D4BH         LINE#         224
BL51 BANKED LINKER/LOCATER V6.00                                                      12/23/2015  16:04:37  PAGE 148


 C5:5D6AH         LINE#         226
 C5:5DCEH         LINE#         227
 C5:5DCEH         LINE#         228
 C5:5DFBH         LINE#         229
 C5:5DFBH         LINE#         230
 C5:5E34H         LINE#         231
 C5:5E3AH         LINE#         232
 C5:5E3AH         LINE#         233
 C5:5E43H         LINE#         245
 C5:5E50H         LINE#         246
 C5:5E62H         LINE#         247
 C5:5E6FH         LINE#         249
 C5:5E8CH         LINE#         250
 C5:5E92H         LINE#         251
 C5:5EB9H         LINE#         256
 C5:5EBBH         LINE#         257
  -------         ENDPROC       _CGI_UDP_TEL
  -------         ENDMOD        UDP_TELCBK

  -------         MODULE        DIDOCBK
  C:0000H         SYMBOL        _ICE_DUMMY_
  -------         ENDMOD        DIDOCBK

  -------         MODULE        COMMANDLINE
  C:0000H         SYMBOL        _ICE_DUMMY_
  D:0080H         PUBLIC        P0
  D:0090H         PUBLIC        P1
  D:00A0H         PUBLIC        P2
  D:00B0H         PUBLIC        P3
  D:00E8H         PUBLIC        P4
  X:311EH         PUBLIC        listen_back
 C6:806AH         PUBLIC        command_type
  D:00A8H         PUBLIC        IE
  B:00E8H.0       PUBLIC        P4_0
  B:00E8H.5       PUBLIC        P4_5
  D:00B8H         PUBLIC        IP
  X:311FH         PUBLIC        code_flag
  X:3120H         PUBLIC        flag
  X:3121H         PUBLIC        echo_flag
  X:3122H         PUBLIC        result
 C6:9D66H         PUBLIC        help
  X:3123H         PUBLIC        cmd_flag
  D:0098H         PUBLIC        SCON
  D:0088H         PUBLIC        TCON
  C:1CCBH         PUBLIC        car
 C6:8F59H         PUBLIC        CLI_Timer
  C:1FCBH         SYMBOL        _?ix1000
  C:1CDEH         PUBLIC        ans
  C:1FD1H         SYMBOL        _?ix1001
  C:1FD5H         SYMBOL        _?ix1002
  C:1FF3H         SYMBOL        _?ix1003
  C:1FF6H         SYMBOL        _?ix1004
 C6:500FH         PUBLIC        command_setting
  B:00A8H.1       PUBLIC        ET0
 C6:9C87H         PUBLIC        _up2lwr
 C6:992EH         PUBLIC        _hex_2_asc
  D:00D8H         PUBLIC        WDTCON
BL51 BANKED LINKER/LOCATER V6.00                                                      12/23/2015  16:04:37  PAGE 149


  X:3124H         PUBLIC        tmp
  X:3156H         PUBLIC        ATD_close
  X:3157H         PUBLIC        CMD
  X:315AH         PUBLIC        ATD_flag
  X:315BH         PUBLIC        ATH_flag
  X:315CH         PUBLIC        za
  X:315DH         PUBLIC        ATD_timer
  X:3161H         PUBLIC        back_2_CLI
  C:1CF0H         PUBLIC        CLT
  C:1CC5H         PUBLIC        rs
  X:3162H         PUBLIC        cmd2
  D:00C8H         PUBLIC        T2CON
  X:3165H         PUBLIC        ip_info
  C:1CD9H         PUBLIC        car1
 C6:9C26H         PUBLIC        CLI_init
 C6:8CBAH         PUBLIC        command_info
  C:1CEBH         PUBLIC        ans1
 C6:96B1H         PUBLIC        ATD_loop
  X:3166H         PUBLIC        z
  D:00D0H         PUBLIC        PSW
 C6:9A61H         PUBLIC        re_rorn
 C6:9927H         SYMBOL        L?0960
  -------         PROC          L?0959
  -------         ENDPROC       L?0959
 C6:9927H         SYMBOL        L?0960

  -------         PROC BANK=6   _HEX_2_ASC
  X:341EH         SYMBOL        value
  -------         DO            
  X:3420H         SYMBOL        ipset
  X:3426H         SYMBOL        i
  X:342AH         SYMBOL        pos
  X:342BH         SYMBOL        loop
  -------         ENDDO         
 C6:992EH         LINE#         105
 C6:9936H         LINE#         106
 C6:9936H         LINE#         107
 C6:9949H         LINE#         109
 C6:9950H         LINE#         110
 C6:995AH         LINE#         111
 C6:9963H         LINE#         113
 C6:9963H         LINE#         114
 C6:998AH         LINE#         115
 C6:998AH         LINE#         116
 C6:99B4H         LINE#         117
 C6:99B4H         LINE#         118
 C6:99E3H         LINE#         119
 C6:9A09H         LINE#         120
 C6:9A0FH         LINE#         121
 C6:9A15H         LINE#         122
 C6:9A2FH         LINE#         123
 C6:9A2FH         LINE#         124
 C6:9A2FH         LINE#         125
 C6:9A4FH         LINE#         126
 C6:9A4FH         LINE#         127
 C6:9A60H         LINE#         129
  -------         ENDPROC       _HEX_2_ASC
BL51 BANKED LINKER/LOCATER V6.00                                                      12/23/2015  16:04:37  PAGE 150



  -------         PROC BANK=6   COMMAND_TYPE
  -------         DO            
  X:33A1H         SYMBOL        cmd
  X:33A4H         SYMBOL        i
  X:33A5H         SYMBOL        tu
  X:33A6H         SYMBOL        len
  X:33A7H         SYMBOL        Kont
  X:33A8H         SYMBOL        Cont
  X:33A9H         SYMBOL        atd
  X:33AAH         SYMBOL        remote_ip
  X:33AEH         SYMBOL        rip
  X:33B0H         SYMBOL        loaddef
  -------         ENDDO         
 C6:806AH         LINE#         134
 C6:806AH         LINE#         135
 C6:806AH         LINE#         136
 C6:8078H         LINE#         137
 C6:8085H         LINE#         139
 C6:8097H         LINE#         141
 C6:809EH         LINE#         142
 C6:80AAH         LINE#         143
 C6:80B0H         LINE#         144
 C6:80B5H         LINE#         145
 C6:80BEH         LINE#         146
 C6:80BEH         LINE#         147
 C6:80D9H         LINE#         148
 C6:80EBH         LINE#         149
 C6:80EBH         LINE#         150
 C6:810DH         LINE#         151
 C6:8157H         LINE#         152
 C6:8157H         LINE#         153
 C6:8164H         LINE#         154
 C6:8164H         LINE#         156
 C6:816CH         LINE#         157
 C6:816CH         LINE#         158
 C6:8175H         LINE#         159
 C6:817EH         LINE#         160
 C6:817EH         LINE#         161
 C6:81C6H         LINE#         162
 C6:81C6H         LINE#         164
 C6:81C6H         LINE#         165
 C6:81D9H         LINE#         166
 C6:81E0H         LINE#         167
 C6:81E0H         LINE#         168
 C6:81E4H         LINE#         169
 C6:821AH         LINE#         170
 C6:8250H         LINE#         171
 C6:8255H         LINE#         172
 C6:825AH         LINE#         173
 C6:825EH         LINE#         174
 C6:8262H         LINE#         175
 C6:8267H         LINE#         176
 C6:826AH         LINE#         180
 C6:826AH         LINE#         181
 C6:8294H         LINE#         182
 C6:8294H         LINE#         183
BL51 BANKED LINKER/LOCATER V6.00                                                      12/23/2015  16:04:37  PAGE 151


 C6:82ACH         LINE#         184
 C6:82AFH         LINE#         185
 C6:82AFH         LINE#         186
 C6:82BCH         LINE#         187
 C6:82D0H         LINE#         188
 C6:82D0H         LINE#         189
 C6:82D3H         LINE#         191
 C6:82D3H         LINE#         192
 C6:82D6H         LINE#         194
 C6:82D6H         LINE#         195
 C6:82EEH         LINE#         196
 C6:82F7H         LINE#         197
 C6:82FAH         LINE#         199
 C6:8310H         LINE#         200
 C6:8310H         LINE#         201
 C6:8313H         LINE#         202
 C6:8313H         LINE#         203
 C6:833DH         LINE#         204
 C6:833DH         LINE#         205
 C6:8355H         LINE#         206
 C6:8358H         LINE#         207
 C6:8358H         LINE#         208
 C6:8365H         LINE#         209
 C6:8382H         LINE#         210
 C6:8382H         LINE#         211
 C6:8385H         LINE#         213
 C6:8385H         LINE#         214
 C6:8388H         LINE#         216
 C6:8388H         LINE#         217
 C6:83A0H         LINE#         218
 C6:83A9H         LINE#         219
 C6:83ACH         LINE#         221
 C6:83C8H         LINE#         222
 C6:83C8H         LINE#         223
 C6:83CBH         LINE#         224
 C6:83CBH         LINE#         225
 C6:83D3H         LINE#         226
 C6:83D3H         LINE#         227
 C6:83D8H         LINE#         228
 C6:83E8H         LINE#         229
 C6:83F3H         LINE#         230
 C6:83F8H         LINE#         231
 C6:83FCH         LINE#         232
 C6:8406H         LINE#         233
 C6:8409H         LINE#         252
 C6:8409H         LINE#         253
 C6:840CH         LINE#         254
 C6:840CH         LINE#         255
 C6:8427H         LINE#         256
 C6:8427H         LINE#         257
 C6:843FH         LINE#         258
 C6:8444H         LINE#         259
 C6:8447H         LINE#         261
 C6:8447H         LINE#         262
 C6:845DH         LINE#         263
 C6:845DH         LINE#         264
 C6:847FH         LINE#         265
BL51 BANKED LINKER/LOCATER V6.00                                                      12/23/2015  16:04:37  PAGE 152


 C6:847FH         LINE#         266
 C6:849DH         LINE#         267
 C6:84DFH         LINE#         268
 C6:8519H         LINE#         269
 C6:851BH         LINE#         270
 C6:851BH         LINE#         271
 C6:8524H         LINE#         272
 C6:8530H         LINE#         273
 C6:8530H         LINE#         274
 C6:8533H         LINE#         275
 C6:8533H         LINE#         276
 C6:855CH         LINE#         277
 C6:855CH         LINE#         278
 C6:8562H         LINE#         279
 C6:8566H         LINE#         280
 C6:8569H         LINE#         282
 C6:8569H         LINE#         283
 C6:8569H         LINE#         284
 C6:856CH         LINE#         286
 C6:856CH         LINE#         287
 C6:856FH         LINE#         288
 C6:856FH         LINE#         289
 C6:8587H         LINE#         290
 C6:858EH         LINE#         291
 C6:858EH         LINE#         292
 C6:85A3H         LINE#         293
 C6:85C4H         LINE#         294
 C6:85C4H         LINE#         295
 C6:85D5H         LINE#         296
 C6:85D5H         LINE#         297
 C6:85D8H         LINE#         298
 C6:85E0H         LINE#         299
 C6:85E0H         LINE#         300
 C6:85E2H         LINE#         302
 C6:85E2H         LINE#         303
 C6:85E5H         LINE#         304
 C6:85F2H         LINE#         305
 C6:85F8H         LINE#         306
 C6:85F8H         LINE#         307
 C6:85FAH         LINE#         308
 C6:8608H         LINE#         309
 C6:8611H         LINE#         311
 C6:8611H         LINE#         312
 C6:8630H         LINE#         313
 C6:8635H         LINE#         314
 C6:863EH         LINE#         315
 C6:863EH         LINE#         317
 C6:8654H         LINE#         318
 C6:8654H         LINE#         319
 C6:866CH         LINE#         320
 C6:8671H         LINE#         321
 C6:8671H         LINE#         323
 C6:867AH         LINE#         324
 C6:8692H         LINE#         325
 C6:8692H         LINE#         326
 C6:8695H         LINE#         328
 C6:8695H         LINE#         329
BL51 BANKED LINKER/LOCATER V6.00                                                      12/23/2015  16:04:37  PAGE 153


 C6:8698H         LINE#         331
 C6:8698H         LINE#         332
 C6:86ABH         LINE#         333
 C6:86AEH         LINE#         334
 C6:86B6H         LINE#         336
 C6:86BDH         LINE#         337
 C6:86C0H         LINE#         338
 C6:86C0H         LINE#         339
 C6:86D9H         LINE#         340
 C6:86DCH         LINE#         342
 C6:8705H         LINE#         347
 C6:8705H         LINE#         349
 C6:870AH         LINE#         350
 C6:8740H         LINE#         351
 C6:8776H         LINE#         352
 C6:877BH         LINE#         353
 C6:8780H         LINE#         355
 C6:879EH         LINE#         360
 C6:879EH         LINE#         361
 C6:87ECH         LINE#         362
 C6:87F3H         LINE#         363
 C6:87F7H         LINE#         364
 C6:87F7H         LINE#         366
 C6:87FAH         LINE#         367
 C6:87FCH         LINE#         369
 C6:87FFH         LINE#         370
 C6:8801H         LINE#         371
 C6:8801H         LINE#         372
 C6:8819H         LINE#         373
 C6:882EH         LINE#         374
 C6:8833H         LINE#         375
 C6:8838H         LINE#         376
 C6:8840H         LINE#         377
 C6:8840H         LINE#         378
 C6:8845H         LINE#         379
 C6:8845H         LINE#         380
 C6:8848H         LINE#         381
 C6:884CH         LINE#         382
 C6:884CH         LINE#         383
 C6:8852H         LINE#         384
 C6:8853H         LINE#         385
 C6:8856H         LINE#         387
 C6:885CH         LINE#         388
 C6:885FH         LINE#         389
 C6:885FH         LINE#         390
 C6:887FH         LINE#         391
 C6:8882H         LINE#         392
 C6:8888H         LINE#         393
 C6:8889H         LINE#         394
 C6:888CH         LINE#         395
 C6:888CH         LINE#         396
 C6:8893H         LINE#         397
 C6:8896H         LINE#         398
 C6:8896H         LINE#         399
 C6:88AEH         LINE#         400
 C6:88C3H         LINE#         401
 C6:88C8H         LINE#         402
BL51 BANKED LINKER/LOCATER V6.00                                                      12/23/2015  16:04:37  PAGE 154


 C6:88C8H         LINE#         403
 C6:88DDH         LINE#         404
 C6:88E6H         LINE#         405
 C6:88EFH         LINE#         406
 C6:88FBH         LINE#         408
 C6:890AH         LINE#         409
 C6:890CH         LINE#         411
 C6:8917H         LINE#         412
 C6:8919H         LINE#         413
 C6:8919H         LINE#         414
 C6:891CH         LINE#         415
 C6:891EH         LINE#         416
 C6:891EH         LINE#         417
 C6:8921H         LINE#         418
 C6:8923H         LINE#         419
 C6:8923H         LINE#         420
 C6:8928H         LINE#         421
 C6:892DH         LINE#         422
 C6:8946H         LINE#         423
 C6:8946H         LINE#         424
 C6:896CH         LINE#         425
 C6:896CH         LINE#         427
 C6:8972H         LINE#         428
 C6:8975H         LINE#         430
 C6:897AH         LINE#         431
 C6:897AH         LINE#         432
 C6:897AH         LINE#         433
 C6:897AH         LINE#         434
 C6:897AH         LINE#         435
 C6:8980H         LINE#         436
 C6:8985H         LINE#         438
 C6:8998H         LINE#         439
 C6:899DH         LINE#         440
 C6:899EH         LINE#         442
 C6:899EH         LINE#         443
 C6:89C0H         LINE#         444
 C6:89CDH         LINE#         445
 C6:89CDH         LINE#         446
 C6:89CDH         LINE#         447
  -------         ENDPROC       COMMAND_TYPE

  -------         PROC BANK=6   COMMAND_SETTING
  -------         DO            
  X:30D3H         SYMBOL        i
  X:30D4H         SYMBOL        Cont
  X:30D5H         SYMBOL        Kont
  X:30D6H         SYMBOL        len
  X:30D7H         SYMBOL        c_name
  X:30D8H         SYMBOL        tu
  X:30D9H         SYMBOL        buf_udp
  X:30F7H         SYMBOL        ipset
  X:30FAH         SYMBOL        re_ip
  X:30FEH         SYMBOL        re
  X:30FFH         SYMBOL        re_num
  X:3100H         SYMBOL        eep_val
  X:3101H         SYMBOL        re_port
  X:3103H         SYMBOL        ser
BL51 BANKED LINKER/LOCATER V6.00                                                      12/23/2015  16:04:37  PAGE 155


  X:3106H         SYMBOL        cli
  X:3109H         SYMBOL        u_l
  X:310CH         SYMBOL        u_n
  X:310FH         SYMBOL        point
  X:3112H         SYMBOL        on
  X:3115H         SYMBOL        off
  X:3118H         SYMBOL        ptr
  X:311BH         SYMBOL        ptd
  -------         ENDDO         
 C6:500FH         LINE#         449
 C6:500FH         LINE#         450
 C6:500FH         LINE#         452
 C6:501EH         LINE#         453
 C6:5030H         LINE#         454
 C6:505DH         LINE#         456
 C6:5063H         LINE#         458
 C6:507BH         LINE#         460
 C6:5093H         LINE#         463
 C6:509FH         LINE#         464
 C6:50B7H         LINE#         466
 C6:50C3H         LINE#         467
 C6:50CFH         LINE#         469
 C6:50F1H         LINE#         470
 C6:5101H         LINE#         471
 C6:5101H         LINE#         472
 C6:5119H         LINE#         473
 C6:5122H         LINE#         474
 C6:5157H         LINE#         475
 C6:515EH         LINE#         476
 C6:5166H         LINE#         477
 C6:5175H         LINE#         478
 C6:5183H         LINE#         479
 C6:5196H         LINE#         480
 C6:519FH         LINE#         481
 C6:519FH         LINE#         482
 C6:51A5H         LINE#         483
 C6:522BH         LINE#         484
 C6:522BH         LINE#         485
 C6:522BH         LINE#         486
 C6:522EH         LINE#         487
 C6:5237H         LINE#         488
 C6:523AH         LINE#         489
 C6:525FH         LINE#         490
 C6:525FH         LINE#         491
 C6:5266H         LINE#         492
 C6:5266H         LINE#         493
 C6:5273H         LINE#         494
 C6:5279H         LINE#         495
 C6:527CH         LINE#         497
 C6:527CH         LINE#         498
 C6:527FH         LINE#         500
 C6:527FH         LINE#         501
 C6:5292H         LINE#         502
 C6:52C7H         LINE#         503
 C6:52C7H         LINE#         504
 C6:52C7H         LINE#         505
 C6:52CDH         LINE#         506
BL51 BANKED LINKER/LOCATER V6.00                                                      12/23/2015  16:04:37  PAGE 156


 C6:52D2H         LINE#         507
 C6:52D4H         LINE#         508
 C6:52D4H         LINE#         509
 C6:52DCH         LINE#         510
 C6:52E7H         LINE#         511
 C6:52E7H         LINE#         512
 C6:52E7H         LINE#         513
 C6:52F6H         LINE#         514
 C6:5311H         LINE#         515
 C6:5323H         LINE#         516
 C6:5349H         LINE#         517
 C6:5353H         LINE#         518
 C6:5366H         LINE#         519
 C6:5366H         LINE#         520
 C6:5366H         LINE#         521
 C6:5369H         LINE#         522
 C6:5369H         LINE#         523
 C6:536CH         LINE#         524
 C6:5375H         LINE#         525
 C6:5378H         LINE#         526
 C6:539DH         LINE#         527
 C6:539DH         LINE#         528
 C6:53A4H         LINE#         529
 C6:53A4H         LINE#         530
 C6:53B1H         LINE#         531
 C6:53B9H         LINE#         532
 C6:53BCH         LINE#         534
 C6:53BCH         LINE#         535
 C6:53BFH         LINE#         537
 C6:53BFH         LINE#         538
 C6:53D2H         LINE#         539
 C6:5407H         LINE#         540
 C6:5407H         LINE#         541
 C6:5407H         LINE#         542
 C6:540DH         LINE#         543
 C6:5412H         LINE#         544
 C6:5414H         LINE#         545
 C6:5414H         LINE#         546
 C6:541CH         LINE#         547
 C6:5427H         LINE#         548
 C6:5427H         LINE#         549
 C6:5427H         LINE#         550
 C6:5436H         LINE#         551
 C6:5451H         LINE#         552
 C6:5463H         LINE#         553
 C6:5489H         LINE#         554
 C6:5493H         LINE#         555
 C6:54A6H         LINE#         556
 C6:54A6H         LINE#         557
 C6:54A6H         LINE#         558
 C6:54A9H         LINE#         559
 C6:54A9H         LINE#         560
 C6:54AFH         LINE#         561
 C6:54B2H         LINE#         562
 C6:54DAH         LINE#         563
 C6:54DAH         LINE#         564
 C6:54E2H         LINE#         565
BL51 BANKED LINKER/LOCATER V6.00                                                      12/23/2015  16:04:37  PAGE 157


 C6:54E2H         LINE#         566
 C6:54EEH         LINE#         567
 C6:5500H         LINE#         568
 C6:5500H         LINE#         569
 C6:5507H         LINE#         570
 C6:5518H         LINE#         572
 C6:552AH         LINE#         573
 C6:552DH         LINE#         574
 C6:5555H         LINE#         575
 C6:555DH         LINE#         576
 C6:555DH         LINE#         578
 C6:555DH         LINE#         579
 C6:5560H         LINE#         580
 C6:5574H         LINE#         581
 C6:5577H         LINE#         583
 C6:5577H         LINE#         584
 C6:558AH         LINE#         585
 C6:55AEH         LINE#         586
 C6:55AEH         LINE#         587
 C6:55AEH         LINE#         588
 C6:55B4H         LINE#         589
 C6:55B9H         LINE#         590
 C6:55BBH         LINE#         591
 C6:55BBH         LINE#         592
 C6:55C3H         LINE#         593
 C6:55CEH         LINE#         594
 C6:55CEH         LINE#         595
 C6:55CEH         LINE#         596
 C6:55E3H         LINE#         597
 C6:55E3H         LINE#         598
 C6:55F2H         LINE#         599
 C6:5611H         LINE#         600
 C6:5611H         LINE#         601
 C6:5620H         LINE#         602
 C6:5626H         LINE#         603
 C6:5626H         LINE#         604
 C6:5656H         LINE#         605
 C6:565FH         LINE#         606
 C6:567FH         LINE#         607
 C6:5685H         LINE#         608
 C6:5687H         LINE#         609
 C6:5687H         LINE#         610
 C6:569FH         LINE#         611
 C6:56A5H         LINE#         612
 C6:56A5H         LINE#         613
 C6:56A5H         LINE#         614
 C6:56AEH         LINE#         615
 C6:56FAH         LINE#         616
 C6:5700H         LINE#         617
 C6:5702H         LINE#         618
 C6:5702H         LINE#         619
 C6:572CH         LINE#         620
 C6:572CH         LINE#         621
 C6:573AH         LINE#         622
 C6:573DH         LINE#         624
 C6:573DH         LINE#         625
 C6:5742H         LINE#         626
BL51 BANKED LINKER/LOCATER V6.00                                                      12/23/2015  16:04:37  PAGE 158


 C6:5767H         LINE#         627
 C6:5767H         LINE#         628
 C6:5767H         LINE#         629
 C6:5767H         LINE#         630
 C6:576AH         LINE#         631
 C6:576AH         LINE#         632
 C6:5770H         LINE#         633
 C6:5773H         LINE#         634
 C6:579BH         LINE#         635
 C6:579BH         LINE#         636
 C6:57A3H         LINE#         637
 C6:57A3H         LINE#         638
 C6:57AFH         LINE#         639
 C6:57C1H         LINE#         640
 C6:57C1H         LINE#         641
 C6:57C8H         LINE#         642
 C6:57D9H         LINE#         644
 C6:57EBH         LINE#         645
 C6:57EEH         LINE#         646
 C6:5816H         LINE#         647
 C6:581EH         LINE#         648
 C6:581EH         LINE#         650
 C6:581EH         LINE#         651
 C6:5821H         LINE#         652
 C6:5835H         LINE#         653
 C6:5838H         LINE#         655
 C6:5838H         LINE#         656
 C6:584BH         LINE#         657
 C6:586FH         LINE#         658
 C6:586FH         LINE#         659
 C6:586FH         LINE#         660
 C6:5875H         LINE#         661
 C6:587AH         LINE#         662
 C6:587CH         LINE#         663
 C6:587CH         LINE#         664
 C6:5884H         LINE#         665
 C6:5899H         LINE#         666
 C6:5899H         LINE#         667
 C6:58A8H         LINE#         668
 C6:58C7H         LINE#         669
 C6:58C7H         LINE#         670
 C6:58D6H         LINE#         671
 C6:58DCH         LINE#         672
 C6:58DCH         LINE#         673
 C6:590CH         LINE#         674
 C6:5915H         LINE#         675
 C6:5935H         LINE#         676
 C6:593BH         LINE#         677
 C6:593DH         LINE#         678
 C6:593DH         LINE#         679
 C6:5955H         LINE#         680
 C6:595BH         LINE#         681
 C6:595BH         LINE#         682
 C6:595BH         LINE#         683
 C6:5964H         LINE#         684
 C6:59B0H         LINE#         685
 C6:59B6H         LINE#         686
BL51 BANKED LINKER/LOCATER V6.00                                                      12/23/2015  16:04:37  PAGE 159


 C6:59B8H         LINE#         687
 C6:59B8H         LINE#         688
 C6:59E2H         LINE#         689
 C6:59E2H         LINE#         690
 C6:59F0H         LINE#         691
 C6:59F3H         LINE#         693
 C6:59F3H         LINE#         694
 C6:59F8H         LINE#         695
 C6:5A1DH         LINE#         696
 C6:5A1DH         LINE#         697
 C6:5A1DH         LINE#         698
 C6:5A1DH         LINE#         699
 C6:5A20H         LINE#         700
 C6:5A20H         LINE#         701
 C6:5A26H         LINE#         702
 C6:5A29H         LINE#         703
 C6:5A51H         LINE#         704
 C6:5A51H         LINE#         705
 C6:5A59H         LINE#         706
 C6:5A59H         LINE#         707
 C6:5A65H         LINE#         708
 C6:5A77H         LINE#         709
 C6:5A77H         LINE#         710
 C6:5A7EH         LINE#         711
 C6:5A8FH         LINE#         713
 C6:5AA1H         LINE#         714
 C6:5AA4H         LINE#         715
 C6:5ACCH         LINE#         716
 C6:5AD4H         LINE#         717
 C6:5AD4H         LINE#         719
 C6:5AD4H         LINE#         720
 C6:5AD7H         LINE#         721
 C6:5AEBH         LINE#         722
 C6:5AEEH         LINE#         724
 C6:5AEEH         LINE#         725
 C6:5B01H         LINE#         726
 C6:5B25H         LINE#         727
 C6:5B25H         LINE#         728
 C6:5B25H         LINE#         729
 C6:5B2BH         LINE#         730
 C6:5B30H         LINE#         731
 C6:5B32H         LINE#         732
 C6:5B32H         LINE#         733
 C6:5B3AH         LINE#         734
 C6:5B4FH         LINE#         735
 C6:5B4FH         LINE#         736
 C6:5B5EH         LINE#         737
 C6:5B7DH         LINE#         738
 C6:5B7DH         LINE#         739
 C6:5B8CH         LINE#         740
 C6:5B92H         LINE#         741
 C6:5B92H         LINE#         742
 C6:5BC2H         LINE#         743
 C6:5BCBH         LINE#         744
 C6:5BEBH         LINE#         745
 C6:5BF1H         LINE#         746
 C6:5BF3H         LINE#         747
BL51 BANKED LINKER/LOCATER V6.00                                                      12/23/2015  16:04:37  PAGE 160


 C6:5BF3H         LINE#         748
 C6:5C0BH         LINE#         749
 C6:5C11H         LINE#         750
 C6:5C11H         LINE#         751
 C6:5C11H         LINE#         752
 C6:5C1AH         LINE#         753
 C6:5C66H         LINE#         754
 C6:5C6CH         LINE#         755
 C6:5C6EH         LINE#         756
 C6:5C6EH         LINE#         757
 C6:5C98H         LINE#         758
 C6:5C98H         LINE#         759
 C6:5CA6H         LINE#         760
 C6:5CA9H         LINE#         762
 C6:5CA9H         LINE#         763
 C6:5CAEH         LINE#         764
 C6:5CD3H         LINE#         765
 C6:5CD3H         LINE#         766
 C6:5CD3H         LINE#         767
 C6:5CD3H         LINE#         768
 C6:5CD6H         LINE#         769
 C6:5CD6H         LINE#         770
 C6:5CDCH         LINE#         771
 C6:5CDFH         LINE#         772
 C6:5D07H         LINE#         773
 C6:5D07H         LINE#         774
 C6:5D0FH         LINE#         775
 C6:5D0FH         LINE#         776
 C6:5D1BH         LINE#         777
 C6:5D2DH         LINE#         778
 C6:5D2DH         LINE#         779
 C6:5D34H         LINE#         780
 C6:5D45H         LINE#         782
 C6:5D57H         LINE#         783
 C6:5D5AH         LINE#         784
 C6:5D82H         LINE#         785
 C6:5D8AH         LINE#         786
 C6:5D8AH         LINE#         788
 C6:5D8AH         LINE#         789
 C6:5D8DH         LINE#         790
 C6:5DA1H         LINE#         791
 C6:5DA4H         LINE#         793
 C6:5DA4H         LINE#         794
 C6:5DB7H         LINE#         795
 C6:5DDBH         LINE#         796
 C6:5DDBH         LINE#         797
 C6:5DDBH         LINE#         798
 C6:5DE1H         LINE#         799
 C6:5DE6H         LINE#         800
 C6:5DE8H         LINE#         801
 C6:5DE8H         LINE#         802
 C6:5DF0H         LINE#         803
 C6:5E05H         LINE#         804
 C6:5E05H         LINE#         805
 C6:5E14H         LINE#         806
 C6:5E33H         LINE#         807
 C6:5E33H         LINE#         808
BL51 BANKED LINKER/LOCATER V6.00                                                      12/23/2015  16:04:37  PAGE 161


 C6:5E42H         LINE#         809
 C6:5E48H         LINE#         810
 C6:5E48H         LINE#         811
 C6:5E78H         LINE#         812
 C6:5E81H         LINE#         813
 C6:5EA1H         LINE#         814
 C6:5EA7H         LINE#         815
 C6:5EA9H         LINE#         816
 C6:5EA9H         LINE#         817
 C6:5EC1H         LINE#         818
 C6:5EC7H         LINE#         819
 C6:5EC7H         LINE#         820
 C6:5EC7H         LINE#         821
 C6:5ED0H         LINE#         822
 C6:5F1CH         LINE#         823
 C6:5F22H         LINE#         824
 C6:5F24H         LINE#         825
 C6:5F24H         LINE#         826
 C6:5F4EH         LINE#         827
 C6:5F4EH         LINE#         828
 C6:5F5CH         LINE#         829
 C6:5F5FH         LINE#         831
 C6:5F5FH         LINE#         832
 C6:5F64H         LINE#         833
 C6:5F89H         LINE#         834
 C6:5F89H         LINE#         835
 C6:5F89H         LINE#         836
 C6:5F89H         LINE#         837
 C6:5F8CH         LINE#         838
 C6:5F8CH         LINE#         839
 C6:5F8FH         LINE#         840
 C6:5FB4H         LINE#         841
 C6:5FB4H         LINE#         842
 C6:5FBCH         LINE#         843
 C6:5FBCH         LINE#         844
 C6:5FC8H         LINE#         845
 C6:5FCEH         LINE#         846
 C6:5FE5H         LINE#         848
 C6:6002H         LINE#         849
 C6:6005H         LINE#         851
 C6:6005H         LINE#         852
 C6:6008H         LINE#         853
 C6:601CH         LINE#         854
 C6:601FH         LINE#         855
 C6:6045H         LINE#         856
 C6:6045H         LINE#         857
 C6:604CH         LINE#         858
 C6:604CH         LINE#         859
 C6:6052H         LINE#         860
 C6:605AH         LINE#         861
 C6:605FH         LINE#         862
 C6:6062H         LINE#         864
 C6:6069H         LINE#         865
 C6:606CH         LINE#         866
 C6:6092H         LINE#         867
 C6:6092H         LINE#         868
 C6:6099H         LINE#         869
BL51 BANKED LINKER/LOCATER V6.00                                                      12/23/2015  16:04:37  PAGE 162


 C6:6099H         LINE#         870
 C6:609EH         LINE#         871
 C6:60A5H         LINE#         872
 C6:60AAH         LINE#         873
 C6:60ACH         LINE#         875
 C6:60B3H         LINE#         876
 C6:60B6H         LINE#         878
 C6:60BDH         LINE#         879
 C6:60C0H         LINE#         880
 C6:60C0H         LINE#         881
 C6:60E5H         LINE#         882
 C6:60E5H         LINE#         883
 C6:60ECH         LINE#         884
 C6:60ECH         LINE#         885
 C6:60F9H         LINE#         886
 C6:6103H         LINE#         887
 C6:6106H         LINE#         889
 C6:610DH         LINE#         890
 C6:6110H         LINE#         891
 C6:6125H         LINE#         892
 C6:6125H         LINE#         893
 C6:6138H         LINE#         894
 C6:6179H         LINE#         895
 C6:6179H         LINE#         896
 C6:6179H         LINE#         897
 C6:617FH         LINE#         898
 C6:6184H         LINE#         899
 C6:6186H         LINE#         900
 C6:6186H         LINE#         901
 C6:618EH         LINE#         902
 C6:6199H         LINE#         903
 C6:6199H         LINE#         904
 C6:6199H         LINE#         905
 C6:61A8H         LINE#         906
 C6:61C3H         LINE#         907
 C6:61D5H         LINE#         908
 C6:61FBH         LINE#         909
 C6:6205H         LINE#         910
 C6:6218H         LINE#         911
 C6:621DH         LINE#         912
 C6:6220H         LINE#         914
 C6:6227H         LINE#         915
 C6:622AH         LINE#         917
 C6:622AH         LINE#         918
 C6:622DH         LINE#         919
 C6:6255H         LINE#         920
 C6:6255H         LINE#         921
 C6:6260H         LINE#         922
 C6:6260H         LINE#         923
 C6:626CH         LINE#         925
 C6:628AH         LINE#         930
 C6:62A1H         LINE#         932
 C6:62B8H         LINE#         933
 C6:62CFH         LINE#         934
 C6:62EAH         LINE#         935
 C6:630AH         LINE#         940
 C6:630DH         LINE#         944
BL51 BANKED LINKER/LOCATER V6.00                                                      12/23/2015  16:04:37  PAGE 163


 C6:6321H         LINE#         945
 C6:6324H         LINE#         946
 C6:634AH         LINE#         947
 C6:634AH         LINE#         948
 C6:6351H         LINE#         949
 C6:6367H         LINE#         950
 C6:636CH         LINE#         951
 C6:6370H         LINE#         952
 C6:6375H         LINE#         953
 C6:6378H         LINE#         954
 C6:6378H         LINE#         955
 C6:637BH         LINE#         957
 C6:63A1H         LINE#         958
 C6:63A1H         LINE#         959
 C6:63A8H         LINE#         960
 C6:63A8H         LINE#         961
 C6:63BBH         LINE#         962
 C6:63BBH         LINE#         963
 C6:63BBH         LINE#         964
 C6:63BBH         LINE#         965
 C6:63BDH         LINE#         966
 C6:63BDH         LINE#         967
 C6:63BFH         LINE#         968
 C6:63E5H         LINE#         969
 C6:63E5H         LINE#         970
 C6:63ECH         LINE#         971
 C6:63ECH         LINE#         972
 C6:6402H         LINE#         973
 C6:6408H         LINE#         974
 C6:640DH         LINE#         975
 C6:6412H         LINE#         976
 C6:6414H         LINE#         977
 C6:6414H         LINE#         978
 C6:6416H         LINE#         993
 C6:6421H         LINE#         994
 C6:642AH         LINE#         995
 C6:642AH         LINE#         996
 C6:642AH         LINE#         997
 C6:642DH         LINE#         999
 C6:642DH         LINE#         1000
 C6:6430H         LINE#         1001
 C6:6455H         LINE#         1002
 C6:6455H         LINE#         1003
 C6:6460H         LINE#         1004
 C6:6460H         LINE#         1005
 C6:646CH         LINE#         1006
 C6:6485H         LINE#         1007
 C6:6494H         LINE#         1009
 C6:64A6H         LINE#         1010
 C6:64A9H         LINE#         1014
 C6:64CFH         LINE#         1015
 C6:64CFH         LINE#         1016
 C6:64F6H         LINE#         1017
 C6:64FDH         LINE#         1018
 C6:64FFH         LINE#         1019
 C6:6525H         LINE#         1020
 C6:6525H         LINE#         1021
BL51 BANKED LINKER/LOCATER V6.00                                                      12/23/2015  16:04:37  PAGE 164


 C6:654BH         LINE#         1022
 C6:6552H         LINE#         1023
 C6:6554H         LINE#         1025
 C6:655FH         LINE#         1026
 C6:6568H         LINE#         1027
 C6:6568H         LINE#         1028
 C6:6568H         LINE#         1029
 C6:656BH         LINE#         1031
 C6:656BH         LINE#         1032
 C6:6590H         LINE#         1033
 C6:6590H         LINE#         1034
 C6:6597H         LINE#         1035
 C6:6597H         LINE#         1036
 C6:65A4H         LINE#         1037
 C6:65B8H         LINE#         1038
 C6:65BBH         LINE#         1040
 C6:65C2H         LINE#         1041
 C6:65C5H         LINE#         1042
 C6:65D9H         LINE#         1043
 C6:65E3H         LINE#         1044
 C6:65F8H         LINE#         1045
 C6:65F8H         LINE#         1046
 C6:660BH         LINE#         1047
 C6:662AH         LINE#         1048
 C6:662AH         LINE#         1049
 C6:662AH         LINE#         1050
 C6:6630H         LINE#         1051
 C6:6635H         LINE#         1052
 C6:6637H         LINE#         1053
 C6:6637H         LINE#         1054
 C6:663FH         LINE#         1055
 C6:6643H         LINE#         1056
 C6:6656H         LINE#         1057
 C6:665CH         LINE#         1058
 C6:6661H         LINE#         1059
 C6:6661H         LINE#         1060
 C6:6661H         LINE#         1061
 C6:668DH         LINE#         1062
 C6:6693H         LINE#         1063
 C6:6698H         LINE#         1064
 C6:6698H         LINE#         1065
 C6:66A3H         LINE#         1066
 C6:66A3H         LINE#         1067
 C6:66A3H         LINE#         1068
 C6:66CBH         LINE#         1069
 C6:66D4H         LINE#         1070
 C6:66D9H         LINE#         1071
 C6:66D9H         LINE#         1072
 C6:66D9H         LINE#         1073
 C6:66DCH         LINE#         1075
 C6:66E3H         LINE#         1076
 C6:66E6H         LINE#         1077
 C6:66E6H         LINE#         1078
 C6:670BH         LINE#         1079
 C6:670BH         LINE#         1080
 C6:6712H         LINE#         1081
 C6:6712H         LINE#         1082
BL51 BANKED LINKER/LOCATER V6.00                                                      12/23/2015  16:04:37  PAGE 165


 C6:671FH         LINE#         1083
 C6:6733H         LINE#         1084
 C6:6736H         LINE#         1086
 C6:673DH         LINE#         1087
 C6:6740H         LINE#         1088
 C6:6754H         LINE#         1089
 C6:675EH         LINE#         1090
 C6:6773H         LINE#         1091
 C6:6773H         LINE#         1092
 C6:6786H         LINE#         1093
 C6:67BAH         LINE#         1094
 C6:67BAH         LINE#         1095
 C6:67BAH         LINE#         1096
 C6:67C0H         LINE#         1097
 C6:67C5H         LINE#         1098
 C6:67C7H         LINE#         1099
 C6:67C7H         LINE#         1100
 C6:67CFH         LINE#         1101
 C6:67D6H         LINE#         1102
 C6:67E9H         LINE#         1103
 C6:67EFH         LINE#         1104
 C6:67F4H         LINE#         1105
 C6:67F4H         LINE#         1106
 C6:67F4H         LINE#         1107
 C6:6820H         LINE#         1108
 C6:6826H         LINE#         1109
 C6:682BH         LINE#         1110
 C6:682BH         LINE#         1111
 C6:6836H         LINE#         1112
 C6:6836H         LINE#         1113
 C6:6836H         LINE#         1114
 C6:685EH         LINE#         1115
 C6:6867H         LINE#         1116
 C6:686CH         LINE#         1117
 C6:686CH         LINE#         1118
 C6:686CH         LINE#         1119
 C6:686FH         LINE#         1121
 C6:6876H         LINE#         1122
 C6:6879H         LINE#         1123
 C6:6879H         LINE#         1124
 C6:68A1H         LINE#         1125
 C6:68A1H         LINE#         1126
 C6:68A9H         LINE#         1127
 C6:68A9H         LINE#         1128
 C6:68B5H         LINE#         1129
 C6:68C7H         LINE#         1130
 C6:68C7H         LINE#         1131
 C6:68EEH         LINE#         1132
 C6:68F3H         LINE#         1133
 C6:691BH         LINE#         1134
 C6:6923H         LINE#         1135
 C6:6923H         LINE#         1137
 C6:692AH         LINE#         1138
 C6:692DH         LINE#         1139
 C6:6941H         LINE#         1140
 C6:694BH         LINE#         1141
 C6:6951H         LINE#         1142
BL51 BANKED LINKER/LOCATER V6.00                                                      12/23/2015  16:04:37  PAGE 166


 C6:695AH         LINE#         1144
 C6:695AH         LINE#         1145
 C6:696DH         LINE#         1146
 C6:6991H         LINE#         1147
 C6:6991H         LINE#         1148
 C6:6991H         LINE#         1149
 C6:6997H         LINE#         1150
 C6:699CH         LINE#         1151
 C6:699EH         LINE#         1152
 C6:699EH         LINE#         1153
 C6:69A6H         LINE#         1154
 C6:69B1H         LINE#         1155
 C6:69B1H         LINE#         1156
 C6:69B1H         LINE#         1157
 C6:69C6H         LINE#         1158
 C6:69C6H         LINE#         1159
 C6:69D5H         LINE#         1160
 C6:69F4H         LINE#         1161
 C6:69F4H         LINE#         1162
 C6:6A03H         LINE#         1163
 C6:6A09H         LINE#         1164
 C6:6A09H         LINE#         1165
 C6:6A39H         LINE#         1166
 C6:6A42H         LINE#         1167
 C6:6A62H         LINE#         1168
 C6:6A68H         LINE#         1169
 C6:6A6AH         LINE#         1170
 C6:6A6AH         LINE#         1171
 C6:6A82H         LINE#         1172
 C6:6A88H         LINE#         1173
 C6:6A88H         LINE#         1174
 C6:6A88H         LINE#         1175
 C6:6A91H         LINE#         1176
 C6:6ADDH         LINE#         1177
 C6:6AE3H         LINE#         1178
 C6:6AE5H         LINE#         1179
 C6:6AE5H         LINE#         1180
 C6:6B0FH         LINE#         1181
 C6:6B0FH         LINE#         1182
 C6:6B1DH         LINE#         1183
 C6:6B26H         LINE#         1185
 C6:6B26H         LINE#         1186
 C6:6B2BH         LINE#         1187
 C6:6B69H         LINE#         1188
 C6:6B81H         LINE#         1189
 C6:6B8AH         LINE#         1190
 C6:6B8AH         LINE#         1191
 C6:6B93H         LINE#         1192
 C6:6B93H         LINE#         1193
 C6:6B93H         LINE#         1194
 C6:6B93H         LINE#         1195
 C6:6B96H         LINE#         1196
 C6:6B96H         LINE#         1197
 C6:6BBBH         LINE#         1198
 C6:6BBBH         LINE#         1199
 C6:6BC2H         LINE#         1200
 C6:6BC2H         LINE#         1201
BL51 BANKED LINKER/LOCATER V6.00                                                      12/23/2015  16:04:37  PAGE 167


 C6:6BCFH         LINE#         1202
 C6:6BE3H         LINE#         1203
 C6:6BE6H         LINE#         1205
 C6:6BEDH         LINE#         1206
 C6:6BF0H         LINE#         1207
 C6:6BF9H         LINE#         1208
 C6:6BF9H         LINE#         1209
 C6:6C21H         LINE#         1210
 C6:6C26H         LINE#         1211
 C6:6C2AH         LINE#         1212
 C6:6C2AH         LINE#         1213
 C6:6C2DH         LINE#         1215
 C6:6C34H         LINE#         1216
 C6:6C37H         LINE#         1217
 C6:6C37H         LINE#         1218
 C6:6C5CH         LINE#         1219
 C6:6C5CH         LINE#         1220
 C6:6C63H         LINE#         1221
 C6:6C63H         LINE#         1222
 C6:6C70H         LINE#         1223
 C6:6C8AH         LINE#         1224
 C6:6C8DH         LINE#         1226
 C6:6C94H         LINE#         1227
 C6:6C97H         LINE#         1228
 C6:6CA0H         LINE#         1229
 C6:6CA0H         LINE#         1230
 C6:6CC8H         LINE#         1231
 C6:6CCDH         LINE#         1232
 C6:6CD1H         LINE#         1233
 C6:6CDFH         LINE#         1234
 C6:6CE2H         LINE#         1236
 C6:6CE9H         LINE#         1237
 C6:6CECH         LINE#         1240
 C6:6CECH         LINE#         1241
 C6:6D11H         LINE#         1242
 C6:6D11H         LINE#         1243
 C6:6D18H         LINE#         1244
 C6:6D18H         LINE#         1245
 C6:6D25H         LINE#         1246
 C6:6D2DH         LINE#         1247
 C6:6D30H         LINE#         1249
 C6:6D37H         LINE#         1250
 C6:6D3AH         LINE#         1251
 C6:6D4EH         LINE#         1252
 C6:6D58H         LINE#         1253
 C6:6D6DH         LINE#         1254
 C6:6D6DH         LINE#         1255
 C6:6D80H         LINE#         1256
 C6:6DB4H         LINE#         1257
 C6:6DB4H         LINE#         1258
 C6:6DB4H         LINE#         1259
 C6:6DBAH         LINE#         1260
 C6:6DBFH         LINE#         1261
 C6:6DC1H         LINE#         1262
 C6:6DC1H         LINE#         1263
 C6:6DC9H         LINE#         1264
 C6:6DD0H         LINE#         1265
BL51 BANKED LINKER/LOCATER V6.00                                                      12/23/2015  16:04:37  PAGE 168


 C6:6DE3H         LINE#         1266
 C6:6DE9H         LINE#         1267
 C6:6DEEH         LINE#         1268
 C6:6DEEH         LINE#         1269
 C6:6DEEH         LINE#         1270
 C6:6E1AH         LINE#         1271
 C6:6E20H         LINE#         1272
 C6:6E25H         LINE#         1273
 C6:6E25H         LINE#         1274
 C6:6E30H         LINE#         1275
 C6:6E30H         LINE#         1276
 C6:6E30H         LINE#         1277
 C6:6E46H         LINE#         1278
 C6:6E53H         LINE#         1279
 C6:6E58H         LINE#         1280
 C6:6E58H         LINE#         1281
 C6:6E5BH         LINE#         1283
 C6:6E62H         LINE#         1284
 C6:6E65H         LINE#         1285
 C6:6E65H         LINE#         1286
 C6:6E68H         LINE#         1287
 C6:6E90H         LINE#         1288
 C6:6E90H         LINE#         1289
 C6:6E9BH         LINE#         1290
 C6:6E9BH         LINE#         1291
 C6:6EACH         LINE#         1292
 C6:6EACH         LINE#         1293
 C6:6EB7H         LINE#         1294
 C6:6EC4H         LINE#         1295
 C6:6ECBH         LINE#         1296
 C6:6ECBH         LINE#         1297
 C6:6ED8H         LINE#         1298
 C6:6EE0H         LINE#         1299
 C6:6EE2H         LINE#         1301
 C6:6EEFH         LINE#         1302
 C6:6F2CH         LINE#         1303
 C6:6F35H         LINE#         1304
 C6:6F35H         LINE#         1306
 C6:6F3CH         LINE#         1307
 C6:6F3FH         LINE#         1308
 C6:6F53H         LINE#         1309
 C6:6F5DH         LINE#         1310
 C6:6F63H         LINE#         1311
 C6:6F6CH         LINE#         1313
 C6:6F6CH         LINE#         1314
 C6:6F82H         LINE#         1315
 C6:6F82H         LINE#         1316
 C6:6F99H         LINE#         1317
 C6:6F99H         LINE#         1318
 C6:6FC0H         LINE#         1319
 C6:6FC6H         LINE#         1320
 C6:6FC6H         LINE#         1321
 C6:6FF4H         LINE#         1322
 C6:6FF6H         LINE#         1323
 C6:6FF6H         LINE#         1324
 C6:6FFFH         LINE#         1325
 C6:7012H         LINE#         1326
BL51 BANKED LINKER/LOCATER V6.00                                                      12/23/2015  16:04:37  PAGE 169


 C6:7018H         LINE#         1327
 C6:7019H         LINE#         1328
 C6:701CH         LINE#         1329
 C6:701CH         LINE#         1330
 C6:7032H         LINE#         1331
 C6:7032H         LINE#         1332
 C6:7059H         LINE#         1333
 C6:7093H         LINE#         1334
 C6:70B4H         LINE#         1335
 C6:70B9H         LINE#         1336
 C6:70BDH         LINE#         1337
 C6:70C7H         LINE#         1338
 C6:70CAH         LINE#         1340
 C6:70D1H         LINE#         1341
 C6:70D1H         LINE#         1342
 C6:70D4H         LINE#         1343
 C6:70D4H         LINE#         1344
 C6:70FCH         LINE#         1345
 C6:70FCH         LINE#         1346
 C6:7107H         LINE#         1347
 C6:7107H         LINE#         1348
 C6:7118H         LINE#         1349
 C6:7118H         LINE#         1350
 C6:7123H         LINE#         1351
 C6:7130H         LINE#         1352
 C6:7137H         LINE#         1353
 C6:7137H         LINE#         1354
 C6:7144H         LINE#         1355
 C6:714CH         LINE#         1356
 C6:714EH         LINE#         1358
 C6:715BH         LINE#         1359
 C6:7180H         LINE#         1360
 C6:7188H         LINE#         1361
 C6:7188H         LINE#         1363
 C6:718FH         LINE#         1364
 C6:7192H         LINE#         1365
 C6:71A6H         LINE#         1366
 C6:71B0H         LINE#         1367
 C6:71B9H         LINE#         1368
 C6:71C3H         LINE#         1370
 C6:71C3H         LINE#         1371
 C6:71D9H         LINE#         1372
 C6:71D9H         LINE#         1373
 C6:71F3H         LINE#         1374
 C6:71F3H         LINE#         1375
 C6:71F8H         LINE#         1376
 C6:720EH         LINE#         1377
 C6:7218H         LINE#         1378
 C6:721EH         LINE#         1379
 C6:721EH         LINE#         1380
 C6:7220H         LINE#         1381
 C6:7227H         LINE#         1382
 C6:7230H         LINE#         1383
 C6:7235H         LINE#         1384
 C6:7235H         LINE#         1385
 C6:7235H         LINE#         1386
 C6:7296H         LINE#         1387
BL51 BANKED LINKER/LOCATER V6.00                                                      12/23/2015  16:04:37  PAGE 170


 C6:72A7H         LINE#         1388
 C6:72A9H         LINE#         1389
 C6:72A9H         LINE#         1390
 C6:72AEH         LINE#         1391
 C6:72AEH         LINE#         1392
 C6:72B0H         LINE#         1393
 C6:72B0H         LINE#         1395
 C6:72B9H         LINE#         1396
 C6:72C9H         LINE#         1397
 C6:72CEH         LINE#         1398
 C6:72D4H         LINE#         1399
 C6:72D4H         LINE#         1400
 C6:72F5H         LINE#         1401
 C6:731FH         LINE#         1402
 C6:7324H         LINE#         1403
 C6:7328H         LINE#         1404
 C6:7331H         LINE#         1405
 C6:7334H         LINE#         1407
 C6:733BH         LINE#         1408
 C6:733BH         LINE#         1409
 C6:733EH         LINE#         1412
 C6:733EH         LINE#         1413
 C6:7363H         LINE#         1414
 C6:7363H         LINE#         1415
 C6:736EH         LINE#         1416
 C6:736EH         LINE#         1417
 C6:737AH         LINE#         1418
 C6:73A3H         LINE#         1419
 C6:73A6H         LINE#         1423
 C6:73CCH         LINE#         1424
 C6:73CCH         LINE#         1425
 C6:73D3H         LINE#         1426
 C6:73D3H         LINE#         1427
 C6:73E8H         LINE#         1428
 C6:73EAH         LINE#         1429
 C6:73ECH         LINE#         1430
 C6:73EEH         LINE#         1431
 C6:73F2H         LINE#         1432
 C6:73F5H         LINE#         1434
 C6:73FCH         LINE#         1435
 C6:73FFH         LINE#         1436
 C6:7425H         LINE#         1437
 C6:7425H         LINE#         1438
 C6:742CH         LINE#         1439
 C6:742CH         LINE#         1440
 C6:7442H         LINE#         1441
 C6:7444H         LINE#         1442
 C6:7446H         LINE#         1443
 C6:7448H         LINE#         1444
 C6:744DH         LINE#         1445
 C6:744FH         LINE#         1447
 C6:7456H         LINE#         1448
 C6:7458H         LINE#         1449
 C6:747EH         LINE#         1450
 C6:747EH         LINE#         1451
 C6:7485H         LINE#         1452
 C6:7485H         LINE#         1453
BL51 BANKED LINKER/LOCATER V6.00                                                      12/23/2015  16:04:37  PAGE 171


 C6:749BH         LINE#         1454
 C6:749DH         LINE#         1455
 C6:749FH         LINE#         1456
 C6:74A4H         LINE#         1457
 C6:74A6H         LINE#         1459
 C6:74ADH         LINE#         1460
 C6:74AFH         LINE#         1462
 C6:74BAH         LINE#         1463
 C6:74C3H         LINE#         1464
 C6:74D8H         LINE#         1465
 C6:74D8H         LINE#         1466
 C6:74DBH         LINE#         1467
 C6:74DBH         LINE#         1468
 C6:7500H         LINE#         1469
 C6:7500H         LINE#         1470
 C6:7508H         LINE#         1471
 C6:7508H         LINE#         1472
 C6:7514H         LINE#         1473
 C6:7556H         LINE#         1474
 C6:7559H         LINE#         1476
 C6:7560H         LINE#         1477
 C6:7563H         LINE#         1478
 C6:7577H         LINE#         1479
 C6:7581H         LINE#         1480
 C6:758DH         LINE#         1481
 C6:758DH         LINE#         1482
 C6:7598H         LINE#         1483
 C6:75A9H         LINE#         1484
 C6:75A9H         LINE#         1485
 C6:75D5H         LINE#         1486
 C6:75D5H         LINE#         1487
 C6:75F2H         LINE#         1488
 C6:761DH         LINE#         1489
 C6:7622H         LINE#         1490
 C6:763AH         LINE#         1491
 C6:763AH         LINE#         1492
 C6:7643H         LINE#         1493
 C6:7643H         LINE#         1495
 C6:764AH         LINE#         1496
 C6:764DH         LINE#         1497
 C6:764DH         LINE#         1498
 C6:7672H         LINE#         1499
 C6:7672H         LINE#         1500
 C6:767AH         LINE#         1501
 C6:767AH         LINE#         1502
 C6:7686H         LINE#         1503
 C6:76A6H         LINE#         1504
 C6:76A9H         LINE#         1506
 C6:76B0H         LINE#         1507
 C6:76B3H         LINE#         1508
 C6:76BCH         LINE#         1509
 C6:76C6H         LINE#         1511
 C6:76C6H         LINE#         1512
 C6:76D9H         LINE#         1513
 C6:76E6H         LINE#         1514
 C6:76E6H         LINE#         1515
 C6:7702H         LINE#         1516
BL51 BANKED LINKER/LOCATER V6.00                                                      12/23/2015  16:04:37  PAGE 172


 C6:7707H         LINE#         1517
 C6:7710H         LINE#         1518
 C6:7725H         LINE#         1519
 C6:7728H         LINE#         1521
 C6:772FH         LINE#         1522
 C6:772FH         LINE#         1523
 C6:7732H         LINE#         1524
 C6:7732H         LINE#         1525
 C6:7735H         LINE#         1526
 C6:775DH         LINE#         1527
 C6:775DH         LINE#         1528
 C6:7765H         LINE#         1529
 C6:7765H         LINE#         1530
 C6:7771H         LINE#         1531
 C6:7780H         LINE#         1532
 C6:77A8H         LINE#         1533
 C6:77D7H         LINE#         1534
 C6:77DAH         LINE#         1536
 C6:77E1H         LINE#         1537
 C6:77E4H         LINE#         1538
 C6:77F0H         LINE#         1539
 C6:77F0H         LINE#         1540
 C6:77FBH         LINE#         1541
 C6:7809H         LINE#         1542
 C6:7835H         LINE#         1543
 C6:783BH         LINE#         1544
 C6:7843H         LINE#         1545
 C6:784CH         LINE#         1546
 C6:784CH         LINE#         1547
 C6:786DH         LINE#         1548
 C6:7882H         LINE#         1549
 C6:7882H         LINE#         1550
 C6:7885H         LINE#         1552
 C6:788CH         LINE#         1553
 C6:788FH         LINE#         1554
 C6:788FH         LINE#         1555
 C6:7892H         LINE#         1556
 C6:78B7H         LINE#         1557
 C6:78B7H         LINE#         1558
 C6:78BFH         LINE#         1559
 C6:78BFH         LINE#         1560
 C6:78CBH         LINE#         1561
 C6:7910H         LINE#         1562
 C6:7913H         LINE#         1564
 C6:791AH         LINE#         1565
 C6:791DH         LINE#         1566
 C6:7925H         LINE#         1567
 C6:7925H         LINE#         1568
 C6:7938H         LINE#         1569
 C6:7943H         LINE#         1570
 C6:7943H         LINE#         1571
 C6:7961H         LINE#         1572
 C6:7966H         LINE#         1573
 C6:797EH         LINE#         1574
 C6:7983H         LINE#         1575
 C6:7986H         LINE#         1577
 C6:798DH         LINE#         1578
BL51 BANKED LINKER/LOCATER V6.00                                                      12/23/2015  16:04:37  PAGE 173


 C6:7990H         LINE#         1580
 C6:7997H         LINE#         1581
 C6:799AH         LINE#         1582
 C6:799AH         LINE#         1583
 C6:799DH         LINE#         1584
 C6:79C5H         LINE#         1585
 C6:79C5H         LINE#         1586
 C6:79D0H         LINE#         1587
 C6:79D0H         LINE#         1588
 C6:79DCH         LINE#         1589
 C6:79F0H         LINE#         1590
 C6:7A0FH         LINE#         1592
 C6:7A0FH         LINE#         1593
 C6:7A15H         LINE#         1594
 C6:7A35H         LINE#         1595
 C6:7A50H         LINE#         1596
 C6:7A5DH         LINE#         1597
 C6:7A5DH         LINE#         1598
 C6:7A60H         LINE#         1602
 C6:7A86H         LINE#         1603
 C6:7A86H         LINE#         1604
 C6:7A8DH         LINE#         1605
 C6:7AADH         LINE#         1607
 C6:7AB4H         LINE#         1608
 C6:7AB7H         LINE#         1609
 C6:7ADDH         LINE#         1610
 C6:7ADDH         LINE#         1611
 C6:7AECH         LINE#         1612
 C6:7AECH         LINE#         1613
 C6:7B04H         LINE#         1614
 C6:7B2EH         LINE#         1615
 C6:7B30H         LINE#         1617
 C6:7B37H         LINE#         1618
 C6:7B39H         LINE#         1620
 C6:7B44H         LINE#         1621
 C6:7B4DH         LINE#         1622
 C6:7B5CH         LINE#         1623
 C6:7B5CH         LINE#         1624
 C6:7B5FH         LINE#         1625
 C6:7B5FH         LINE#         1626
 C6:7B62H         LINE#         1627
 C6:7B8AH         LINE#         1628
 C6:7B8AH         LINE#         1629
 C6:7B95H         LINE#         1630
 C6:7B95H         LINE#         1631
 C6:7BA1H         LINE#         1632
 C6:7BB5H         LINE#         1633
 C6:7BC2H         LINE#         1635
 C6:7BC2H         LINE#         1636
 C6:7BC8H         LINE#         1637
 C6:7BE8H         LINE#         1638
 C6:7C03H         LINE#         1639
 C6:7C10H         LINE#         1640
 C6:7C10H         LINE#         1641
 C6:7C13H         LINE#         1645
 C6:7C39H         LINE#         1646
 C6:7C39H         LINE#         1647
BL51 BANKED LINKER/LOCATER V6.00                                                      12/23/2015  16:04:37  PAGE 174


 C6:7C40H         LINE#         1648
 C6:7C60H         LINE#         1650
 C6:7C67H         LINE#         1651
 C6:7C6AH         LINE#         1652
 C6:7C90H         LINE#         1653
 C6:7C90H         LINE#         1654
 C6:7C9FH         LINE#         1655
 C6:7C9FH         LINE#         1656
 C6:7CB7H         LINE#         1657
 C6:7CE1H         LINE#         1658
 C6:7CE3H         LINE#         1660
 C6:7CEAH         LINE#         1661
 C6:7CECH         LINE#         1663
 C6:7CF7H         LINE#         1664
 C6:7D00H         LINE#         1665
 C6:7D0FH         LINE#         1666
 C6:7D0FH         LINE#         1667
 C6:7D12H         LINE#         1668
 C6:7D12H         LINE#         1669
 C6:7D15H         LINE#         1670
 C6:7D3DH         LINE#         1671
 C6:7D3DH         LINE#         1672
 C6:7D48H         LINE#         1673
 C6:7D48H         LINE#         1674
 C6:7D54H         LINE#         1675
 C6:7D68H         LINE#         1676
 C6:7D8BH         LINE#         1678
 C6:7D8BH         LINE#         1679
 C6:7D91H         LINE#         1680
 C6:7DB1H         LINE#         1681
 C6:7DBEH         LINE#         1682
 C6:7DD5H         LINE#         1684
 C6:7DD5H         LINE#         1685
 C6:7DD8H         LINE#         1689
 C6:7DFEH         LINE#         1690
 C6:7DFEH         LINE#         1691
 C6:7E05H         LINE#         1692
 C6:7E25H         LINE#         1694
 C6:7E2CH         LINE#         1695
 C6:7E2FH         LINE#         1696
 C6:7E55H         LINE#         1697
 C6:7E55H         LINE#         1698
 C6:7E64H         LINE#         1699
 C6:7E64H         LINE#         1700
 C6:7E7CH         LINE#         1701
 C6:7E94H         LINE#         1702
 C6:7EA1H         LINE#         1703
 C6:7EBAH         LINE#         1705
 C6:7EC1H         LINE#         1706
 C6:7EC3H         LINE#         1708
 C6:7ECAH         LINE#         1709
 C6:7ECCH         LINE#         1711
 C6:7ED7H         LINE#         1712
 C6:7EE0H         LINE#         1713
 C6:7EEFH         LINE#         1714
 C6:7EEFH         LINE#         1715
 C6:7EF2H         LINE#         1716
BL51 BANKED LINKER/LOCATER V6.00                                                      12/23/2015  16:04:37  PAGE 175


 C6:7EF2H         LINE#         1717
 C6:7EF5H         LINE#         1718
 C6:7F1AH         LINE#         1719
 C6:7F1AH         LINE#         1720
 C6:7F25H         LINE#         1721
 C6:7F25H         LINE#         1722
 C6:7F31H         LINE#         1723
 C6:7F45H         LINE#         1724
 C6:7F5CH         LINE#         1726
 C6:7F7CH         LINE#         1727
 C6:7F7FH         LINE#         1731
 C6:7FA5H         LINE#         1732
 C6:7FA5H         LINE#         1733
 C6:7FACH         LINE#         1734
 C6:7FCBH         LINE#         1736
 C6:7FD2H         LINE#         1737
 C6:7FD4H         LINE#         1738
 C6:7FFAH         LINE#         1739
 C6:7FFAH         LINE#         1740
 C6:8001H         LINE#         1741
 C6:8020H         LINE#         1743
 C6:8027H         LINE#         1744
 C6:8029H         LINE#         1746
 C6:8034H         LINE#         1747
 C6:803AH         LINE#         1748
 C6:804CH         LINE#         1749
 C6:804CH         LINE#         1750
 C6:804EH         LINE#         1752
 C6:804EH         LINE#         1753
 C6:8059H         LINE#         1754
 C6:8059H         LINE#         1755
 C6:8059H         LINE#         1757
 C6:805CH         LINE#         1758
 C6:805FH         LINE#         1760
 C6:805FH         LINE#         1762
 C6:8069H         LINE#         1763
  -------         ENDPROC       COMMAND_SETTING

  -------         PROC BANK=6   COMMAND_INFO
  -------         DO            
  X:3328H         SYMBOL        c_name
  X:3329H         SYMBOL        tu
  X:332AH         SYMBOL        len
  X:332BH         SYMBOL        information
  X:333FH         SYMBOL        end
  -------         ENDDO         
 C6:8CBAH         LINE#         1765
 C6:8CBAH         LINE#         1766
 C6:8CBAH         LINE#         1767
 C6:8CC3H         LINE#         1769
 C6:8CD1H         LINE#         1770
 C6:8CE3H         LINE#         1771
 C6:8CE3H         LINE#         1772
 C6:8CE6H         LINE#         1774
 C6:8CE6H         LINE#         1775
 C6:8CF0H         LINE#         1776
 C6:8D02H         LINE#         1777
BL51 BANKED LINKER/LOCATER V6.00                                                      12/23/2015  16:04:37  PAGE 176


 C6:8D05H         LINE#         1778
 C6:8D15H         LINE#         1779
 C6:8D15H         LINE#         1780
 C6:8D2DH         LINE#         1781
 C6:8D3BH         LINE#         1782
 C6:8D76H         LINE#         1783
 C6:8D7DH         LINE#         1784
 C6:8D85H         LINE#         1785
 C6:8D8BH         LINE#         1786
 C6:8D9DH         LINE#         1787
 C6:8DB7H         LINE#         1788
 C6:8DC2H         LINE#         1789
 C6:8DCBH         LINE#         1790
 C6:8DCBH         LINE#         1791
 C6:8DF3H         LINE#         1792
 C6:8DF3H         LINE#         1793
 C6:8DF3H         LINE#         1794
 C6:8E40H         LINE#         1795
 C6:8E40H         LINE#         1796
 C6:8E43H         LINE#         1797
 C6:8E43H         LINE#         1798
 C6:8E90H         LINE#         1799
 C6:8E90H         LINE#         1800
 C6:8E93H         LINE#         1801
 C6:8E93H         LINE#         1802
 C6:8EE0H         LINE#         1803
 C6:8EE0H         LINE#         1804
 C6:8EE2H         LINE#         1805
 C6:8EE2H         LINE#         1806
 C6:8F42H         LINE#         1807
 C6:8F58H         LINE#         1808
 C6:8F58H         LINE#         1809
 C6:8F58H         LINE#         1810
 C6:8F58H         LINE#         1812
  -------         ENDPROC       COMMAND_INFO

  -------         PROC BANK=6   RE_RORN
  -------         DO            
  X:346BH         SYMBOL        error
  X:346EH         SYMBOL        ok
  X:3471H         SYMBOL        ok1
  X:3474H         SYMBOL        error1
  -------         ENDDO         
 C6:9A61H         LINE#         1814
 C6:9A61H         LINE#         1815
 C6:9A61H         LINE#         1816
 C6:9A6FH         LINE#         1817
 C6:9A7BH         LINE#         1818
 C6:9A87H         LINE#         1819
 C6:9A93H         LINE#         1821
 C6:9A99H         LINE#         1822
 C6:9A99H         LINE#         1823
 C6:9A9FH         LINE#         1824
 C6:9AB6H         LINE#         1826
 C6:9ACBH         LINE#         1827
 C6:9ACDH         LINE#         1829
 C6:9ACDH         LINE#         1830
BL51 BANKED LINKER/LOCATER V6.00                                                      12/23/2015  16:04:37  PAGE 177


 C6:9AD3H         LINE#         1831
 C6:9AEAH         LINE#         1833
 C6:9B0AH         LINE#         1834
 C6:9B0AH         LINE#         1835
  -------         ENDPROC       RE_RORN
 C6:9C77H         SYMBOL        L?0958
  -------         PROC          L?0957
  -------         ENDPROC       L?0957
 C6:9C77H         SYMBOL        L?0958

  -------         PROC BANK=6   _UP2LWR
  X:3783H         SYMBOL        buf
  D:0005H         SYMBOL        len
  -------         DO            
  D:0007H         SYMBOL        i
  -------         ENDDO         
 C6:9C87H         LINE#         1837
 C6:9C92H         LINE#         1838
 C6:9C92H         LINE#         1839
 C6:9C94H         LINE#         1841
 C6:9C99H         LINE#         1842
 C6:9CB7H         LINE#         1843
 C6:9CC1H         LINE#         1844
 C6:9CC1H         LINE#         1845
 C6:9CC4H         LINE#         1846
  -------         ENDPROC       _UP2LWR

  -------         PROC BANK=6   ATD_LOOP
 C6:96B1H         LINE#         1849
 C6:96B1H         LINE#         1850
 C6:96B1H         LINE#         1852
 C6:96BAH         LINE#         1853
 C6:96BAH         LINE#         1854
 C6:96C5H         LINE#         1855
 C6:96C5H         LINE#         1856
 C6:96FAH         LINE#         1857
 C6:96FAH         LINE#         1858
 C6:96FFH         LINE#         1859
 C6:9703H         LINE#         1860
 C6:9707H         LINE#         1861
 C6:970BH         LINE#         1862
 C6:9741H         LINE#         1863
 C6:9777H         LINE#         1864
 C6:977CH         LINE#         1865
 C6:977CH         LINE#         1866
 C6:977CH         LINE#         1867
 C6:9781H         LINE#         1868
 C6:9785H         LINE#         1869
 C6:978AH         LINE#         1870
 C6:978EH         LINE#         1872
 C6:97B2H         LINE#         1873
 C6:97C6H         LINE#         1874
 C6:97ECH         LINE#         1875
 C6:97ECH         LINE#         1877
  -------         ENDPROC       ATD_LOOP

  -------         PROC BANK=6   HELP
BL51 BANKED LINKER/LOCATER V6.00                                                      12/23/2015  16:04:37  PAGE 178


 C6:9D66H         LINE#         1879
 C6:9D66H         LINE#         1880
 C6:9D66H         LINE#         1882
  -------         ENDPROC       HELP

  -------         PROC BANK=6   CLI_INIT
 C6:9C26H         LINE#         1884
 C6:9C26H         LINE#         1885
 C6:9C26H         LINE#         1888
 C6:9C3FH         LINE#         1890
 C6:9C3FH         LINE#         1892
 C6:9C5DH         LINE#         1897
 C6:9C5DH         LINE#         1898
 C6:9C62H         LINE#         1899
 C6:9C62H         LINE#         1900
 C6:9C62H         LINE#         1907
 C6:9C74H         LINE#         1908
  -------         ENDPROC       CLI_INIT

  -------         PROC BANK=6   CLI_TIMER
 C6:8F59H         LINE#         1912
 C6:8F59H         LINE#         1914
 C6:8F5CH         LINE#         1915
 C6:8F5FH         LINE#         1917
 C6:8F62H         LINE#         1922
 C6:8F6DH         LINE#         1923
 C6:8F6DH         LINE#         1924
 C6:8FDFH         LINE#         1925
 C6:8FDFH         LINE#         1926
 C6:8FE6H         LINE#         1927
 C6:8FE9H         LINE#         1929
 C6:8FE9H         LINE#         1930
 C6:8FF3H         LINE#         1931
 C6:8FFCH         LINE#         1932
 C6:9003H         LINE#         1933
 C6:9003H         LINE#         1934
 C6:9013H         LINE#         1935
 C6:901EH         LINE#         1936
 C6:9020H         LINE#         1938
 C6:9020H         LINE#         1939
 C6:9030H         LINE#         1940
 C6:903BH         LINE#         1941
 C6:9041H         LINE#         1942
 C6:9041H         LINE#         1943
 C6:904AH         LINE#         1944
 C6:904AH         LINE#         1945
 C6:904AH         LINE#         1946
 C6:904AH         LINE#         1947
 C6:904DH         LINE#         1949
 C6:9069H         LINE#         1953
 C6:9069H         LINE#         1955
 C6:906CH         LINE#         1960
 C6:9075H         LINE#         1961
 C6:9075H         LINE#         1963
 C6:909AH         LINE#         1967
 C6:90A1H         LINE#         1969
 C6:90A1H         LINE#         1970
BL51 BANKED LINKER/LOCATER V6.00                                                      12/23/2015  16:04:37  PAGE 179


 C6:90ABH         LINE#         1971
 C6:90B0H         LINE#         1972
 C6:90B6H         LINE#         1973
 C6:90B6H         LINE#         1974
 C6:90C6H         LINE#         1975
 C6:90D1H         LINE#         1976
 C6:90D7H         LINE#         1977
 C6:90D7H         LINE#         1978
 C6:90DDH         LINE#         1979
 C6:90FDH         LINE#         1980
 C6:90FDH         LINE#         1981
 C6:90FDH         LINE#         1982
 C6:90FDH         LINE#         1983
 C6:9106H         LINE#         1984
 C6:9106H         LINE#         1985
 C6:910CH         LINE#         1986
 C6:917BH         LINE#         1987
 C6:9184H         LINE#         1988
 C6:9184H         LINE#         1990
  -------         ENDPROC       CLI_TIMER
  -------         ENDMOD        COMMANDLINE

  -------         MODULE        UTILITY
  C:0000H         SYMBOL        _ICE_DUMMY_
 C1:DAD0H         PUBLIC        CPUInit
  D:0090H         PUBLIC        P1
  D:00B0H         PUBLIC        P3
 C1:D655H         PUBLIC        _hex_to_asc
 C1:B645H         PUBLIC        _asc_to_hex
  B:00D8H.1       PUBLIC        WDTEN
  D:00A8H         PUBLIC        IE
  D:00B8H         PUBLIC        IP
  D:0098H         PUBLIC        SCON
  D:0088H         PUBLIC        TCON
 C1:DA5BH         PUBLIC        IP210_SWReset
 C1:DA06H         PUBLIC        _Delay
  D:00D8H         PUBLIC        WDTCON
  D:00C8H         PUBLIC        T2CON
  D:00D0H         PUBLIC        PSW

  -------         PROC BANK=1   IP210_SWRESET
  -------         DO            
  D:0007H         SYMBOL        i
  -------         ENDDO         
 C1:DA5BH         LINE#         33
 C1:DA5BH         LINE#         34
 C1:DA5BH         LINE#         37
 C1:DA61H         LINE#         38
 C1:DA63H         LINE#         39
 C1:DA69H         LINE#         40
  -------         ENDPROC       IP210_SWRESET

  -------         PROC BANK=1   CPUINIT
 C1:DAD0H         LINE#         52
 C1:DAD0H         LINE#         53
 C1:DAD0H         LINE#         54
 C1:DAD2H         LINE#         55
BL51 BANKED LINKER/LOCATER V6.00                                                      12/23/2015  16:04:37  PAGE 180


 C1:DAD5H         LINE#         56
  -------         ENDPROC       CPUINIT

  -------         PROC BANK=1   _DELAY
  D:0006H         SYMBOL        delay
 C1:DA06H         LINE#         70
 C1:DA06H         LINE#         71
 C1:DA06H         LINE#         72
 C1:DA15H         LINE#         73
 C1:DA18H         LINE#         74
  -------         ENDPROC       _DELAY

  -------         PROC BANK=1   _ASC_TO_HEX
  X:3638H         SYMBOL        asc
  -------         DO            
  X:363BH         SYMBOL        value
  X:363DH         SYMBOL        i
  X:363EH         SYMBOL        len
  -------         ENDDO         
 C1:B645H         LINE#         112
 C1:B650H         LINE#         113
 C1:B650H         LINE#         114
 C1:B655H         LINE#         117
 C1:B65DH         LINE#         118
 C1:B665H         LINE#         119
 C1:B67BH         LINE#         120
 C1:B67BH         LINE#         121
 C1:B68FH         LINE#         122
 C1:B6B2H         LINE#         123
 C1:B6C2H         LINE#         124
 C1:B6DEH         LINE#         125
 C1:B6F9H         LINE#         126
 C1:B720H         LINE#         127
 C1:B73AH         LINE#         129
 C1:B73EH         LINE#         130
 C1:B747H         LINE#         131
 C1:B74FH         LINE#         132
  -------         ENDPROC       _ASC_TO_HEX

  -------         PROC BANK=1   _HEX_TO_ASC
  D:0007H         SYMBOL        hex
  D:0001H         SYMBOL        buf
  -------         DO            
  D:0006H         SYMBOL        i
  -------         ENDDO         
 C1:D655H         LINE#         145
 C1:D655H         LINE#         146
 C1:D655H         LINE#         149
 C1:D65AH         LINE#         150
 C1:D66CH         LINE#         151
 C1:D670H         LINE#         152
  -------         ENDPROC       _HEX_TO_ASC
  -------         ENDMOD        UTILITY

  -------         MODULE        TELNET
  C:0000H         SYMBOL        _ICE_DUMMY_
 C2:8F79H         PUBLIC        ReadEth2UARTTxBuf
BL51 BANKED LINKER/LOCATER V6.00                                                      12/23/2015  16:04:37  PAGE 181


 C2:95B3H         PUBLIC        ClearUARTRxBuf_ParityError
  X:2BBDH         PUBLIC        CLI_tmp_back
  D:0080H         PUBLIC        P0
  D:0090H         PUBLIC        P1
  D:00A0H         PUBLIC        P2
  D:00B0H         PUBLIC        P3
  D:00E8H         PUBLIC        P4
  X:2BBEH         PUBLIC        UartRxBuf
 C2:D732H         PUBLIC        telnet_close
  X:2BC9H         PUBLIC        UartTxBuf
  X:2BD4H         PUBLIC        CLI_tmp
 C2:D78FH         PUBLIC        telnetd_init
  D:00A8H         PUBLIC        IE
 C2:D792H         PUBLIC        telnet
  X:2BD7H         PUBLIC        reverse_telnet_len
 C2:594EH         PUBLIC        ClearUARTRxBuf
  B:00E8H.0       PUBLIC        P4_0
 C2:D789H         PUBLIC        _ip210_isr_ctrl
  B:00A0H.4       PUBLIC        P2_4
  B:00E8H.5       PUBLIC        P4_5
  D:00B8H         PUBLIC        IP
  X:2BD9H         PUBLIC        s_con_timer
  X:2BDDH         PUBLIC        silent_total
 C2:D798H         PUBLIC        ip210_uart_isr_process
 C2:7887H         PUBLIC        ReSendUARTRx2Eth
 C2:BA41H         PUBLIC        reverse_telnet_on_tcp_rx
 C2:D743H         PUBLIC        telnet_init
 C2:D706H         PUBLIC        check_RS485
  X:2BDEH         PUBLIC        listen_wait
  X:2BDFH         PUBLIC        conn_flag
  X:2BE0H         PUBLIC        char_delimiter_offset
  D:0098H         PUBLIC        SCON
  D:0088H         PUBLIC        TCON
  X:2BE4H         PUBLIC        end
  X:2BE8H         PUBLIC        silent_delimiter
  X:2BFCH         PUBLIC        UartBuf
 C2:C951H         PUBLIC        telnet_connected_init
  X:2BFEH         PUBLIC        con
 C2:D760H         PUBLIC        UART_RS485_Update_TxControl
  C:3B6EH         SYMBOL        _?ix1000
  C:3B76H         SYMBOL        _?ix1001
  X:2C01H         PUBLIC        CLI_local
 C2:AB0BH         PUBLIC        telnet_init_com
  X:2C03H         PUBLIC        lb_flag
 C2:8561H         PUBLIC        _SendUARTRx2Eth
  D:008CH         PUBLIC        TH0
  X:2C04H         PUBLIC        silent_ri
  D:008AH         PUBLIC        TL0
  D:00D8H         PUBLIC        WDTCON
  X:2C05H         PUBLIC        CLI_read_flag
  X:2C06H         PUBLIC        silent_wi
  X:2C07H         PUBLIC        CLI_flag
  B:0088H.4       PUBLIC        TR0
  X:2C08H         PUBLIC        reverse_telnet_current
 C2:9883H         PUBLIC        ResendUARTRx2UART
 C2:B835H         PUBLIC        telnet_connect
  X:2C09H         PUBLIC        tcp_check_ip
BL51 BANKED LINKER/LOCATER V6.00                                                      12/23/2015  16:04:37  PAGE 182


 C2:C3A8H         PUBLIC        uart_auto_send
  D:00C8H         PUBLIC        T2CON
 C2:D601H         PUBLIC        telnetd_listen
  X:2C0DH         PUBLIC        RxBuf
  X:2C0FH         PUBLIC        TxBuf
  X:2C11H         PUBLIC        TelnetData
 C2:A06AH         PUBLIC        WriteEthRx2UART
  X:2C40H         PUBLIC        reverse_telnet_data
 C2:D62BH         PUBLIC        telnetd_close
  X:2C5EH         PUBLIC        CLI_star_flag
  X:2C5FH         PUBLIC        max_uart_rx_buf_len
  X:2C61H         PUBLIC        max_uart_tx_buf_len
 C2:6DA4H         PUBLIC        telnetd
 C2:C8BEH         PUBLIC        telnet_server_timeout
  X:2C63H         PUBLIC        CLI_tmp_local
  X:2C64H         PUBLIC        CLI_con
  D:00D0H         PUBLIC        PSW

  -------         PROC BANK=2   REVERSE_TELNET_ON_TCP_RX
 C2:BA41H         LINE#         132
 C2:BA41H         LINE#         133
 C2:BA41H         LINE#         134
 C2:BA48H         LINE#         135
 C2:BA48H         LINE#         136
 C2:BA4BH         LINE#         137
 C2:BA50H         LINE#         138
 C2:BA7DH         LINE#         139
 C2:BA94H         LINE#         140
 C2:BAA3H         LINE#         141
 C2:BAA3H         LINE#         143
 C2:BAACH         LINE#         144
 C2:BAAFH         LINE#         146
 C2:BAB6H         LINE#         147
 C2:BAB6H         LINE#         148
 C2:BABCH         LINE#         149
 C2:BAC3H         LINE#         150
 C2:BAD2H         LINE#         151
 C2:BADEH         LINE#         152
 C2:BADEH         LINE#         155
 C2:BAE5H         LINE#         156
 C2:BAE5H         LINE#         157
 C2:BB15H         LINE#         158
 C2:BB2CH         LINE#         159
 C2:BB3BH         LINE#         160
 C2:BB3BH         LINE#         161
 C2:BB3DH         LINE#         162
  -------         ENDPROC       REVERSE_TELNET_ON_TCP_RX

  -------         PROC BANK=2   _IP210_ISR_CTRL
  X:37D4H         SYMBOL        status
 C2:D789H         LINE#         168
 C2:D78EH         LINE#         169
 C2:D78EH         LINE#         170
 C2:D78EH         LINE#         190
  -------         ENDPROC       _IP210_ISR_CTRL

  -------         PROC BANK=2   IP210_UART_ISR_PROCESS
BL51 BANKED LINKER/LOCATER V6.00                                                      12/23/2015  16:04:37  PAGE 183


 C2:D798H         LINE#         196
 C2:D798H         LINE#         197
 C2:D798H         LINE#         220
  -------         ENDPROC       IP210_UART_ISR_PROCESS

  -------         PROC BANK=2   TELNET_INIT_COM
 C2:AB0BH         LINE#         233
 C2:AB0BH         LINE#         234
 C2:AB0BH         LINE#         235
 C2:AB19H         LINE#         236
 C2:AB25H         LINE#         238
 C2:AB2AH         LINE#         240
 C2:AB2EH         LINE#         242
 C2:AB34H         LINE#         243
 C2:AB38H         LINE#         244
 C2:AB40H         LINE#         245
 C2:AB4AH         LINE#         247
 C2:AB4FH         LINE#         248
 C2:AB59H         LINE#         249
 C2:AB73H         LINE#         251
 C2:AB7DH         LINE#         252
 C2:AB8CH         LINE#         254
 C2:AB9BH         LINE#         256
 C2:ABADH         LINE#         257
 C2:ABB8H         LINE#         258
 C2:ABC2H         LINE#         259
 C2:ABCAH         LINE#         260
 C2:ABF6H         LINE#         261
 C2:AC26H         LINE#         262
 C2:AC2DH         LINE#         263
 C2:AC37H         LINE#         264
 C2:AC3CH         LINE#         265
 C2:AC40H         LINE#         266
 C2:AC44H         LINE#         267
 C2:AC49H         LINE#         268
 C2:AC4EH         LINE#         269
 C2:AC79H         LINE#         270
 C2:AC7EH         LINE#         271
 C2:AC88H         LINE#         272
 C2:AC92H         LINE#         273
 C2:AC9CH         LINE#         274
 C2:ACA6H         LINE#         276
 C2:ACB3H         LINE#         277
 C2:ACB3H         LINE#         278
 C2:ACB3H         LINE#         279
 C2:ACB5H         LINE#         280
 C2:ACB7H         LINE#         281
 C2:ACB9H         LINE#         282
 C2:ACB9H         LINE#         283
 C2:ACB9H         LINE#         284
 C2:ACB9H         LINE#         285
 C2:ACB9H         LINE#         286
 C2:ACBBH         LINE#         288
 C2:ACBDH         LINE#         289
 C2:ACBDH         LINE#         290
 C2:ACBDH         LINE#         295
 C2:ACC0H         LINE#         296
BL51 BANKED LINKER/LOCATER V6.00                                                      12/23/2015  16:04:37  PAGE 184


 C2:ACD5H         LINE#         297
 C2:ACE8H         LINE#         309
  -------         ENDPROC       TELNET_INIT_COM

  -------         PROC BANK=2   TELNETD_CLOSE
 C2:D62BH         LINE#         322
 C2:D62BH         LINE#         323
 C2:D62BH         LINE#         324
 C2:D642H         LINE#         325
 C2:D649H         LINE#         326
 C2:D64DH         LINE#         328
 C2:D652H         LINE#         329
  -------         ENDPROC       TELNETD_CLOSE

  -------         PROC BANK=2   TELNETD_INIT
 C2:D78FH         LINE#         342
 C2:D78FH         LINE#         343
 C2:D78FH         LINE#         344
  -------         ENDPROC       TELNETD_INIT

  -------         PROC BANK=2   TELNETD_LISTEN
 C2:D601H         LINE#         358
 C2:D601H         LINE#         359
 C2:D601H         LINE#         360
 C2:D618H         LINE#         361
  -------         ENDPROC       TELNETD_LISTEN

  -------         PROC BANK=2   TELNET_CONNECTED_INIT
  -------         DO            
  X:3786H         SYMBOL        con1
  -------         ENDDO         
 C2:C951H         LINE#         363
 C2:C951H         LINE#         364
 C2:C951H         LINE#         365
 C2:C95FH         LINE#         366
 C2:C965H         LINE#         367
 C2:C96CH         LINE#         369
 C2:C96CH         LINE#         370
 C2:C981H         LINE#         371
 C2:C987H         LINE#         372
 C2:C98CH         LINE#         373
 C2:C996H         LINE#         374
 C2:C99CH         LINE#         376
 C2:C9A2H         LINE#         377
 C2:C9A2H         LINE#         378
 C2:C9BFH         LINE#         379
 C2:C9DFH         LINE#         380
 C2:C9DFH         LINE#         382
 C2:C9DFH         LINE#         383
  -------         ENDPROC       TELNET_CONNECTED_INIT

  -------         PROC BANK=2   TELNETD
  -------         DO            
  X:35CDH         SYMBOL        cont
  -------         ENDDO         
 C2:6DA4H         LINE#         395
 C2:6DA4H         LINE#         396
BL51 BANKED LINKER/LOCATER V6.00                                                      12/23/2015  16:04:37  PAGE 185


 C2:6DA4H         LINE#         398
 C2:6DB7H         LINE#         400
 C2:6DBAH         LINE#         405
 C2:6DD4H         LINE#         406
 C2:6DD4H         LINE#         407
 C2:6DDDH         LINE#         408
 C2:6DDDH         LINE#         410
 C2:6DE7H         LINE#         411
 C2:6DE7H         LINE#         413
 C2:6DF0H         LINE#         414
 C2:6DF0H         LINE#         415
 C2:6DFDH         LINE#         416
 C2:6E03H         LINE#         417
 C2:6E23H         LINE#         418
 C2:6E29H         LINE#         419
 C2:6E4DH         LINE#         420
 C2:6E61H         LINE#         421
 C2:6E87H         LINE#         422
 C2:6E87H         LINE#         423
 C2:6E8AH         LINE#         427
 C2:6E8AH         LINE#         428
 C2:6E9EH         LINE#         429
 C2:6E9EH         LINE#         430
 C2:6EC5H         LINE#         431
 C2:6EC5H         LINE#         432
 C2:6EC8H         LINE#         434
 C2:6EC8H         LINE#         435
 C2:6EC8H         LINE#         436
 C2:6ECFH         LINE#         437
 C2:6ECFH         LINE#         438
 C2:6ED5H         LINE#         439
 C2:6ED5H         LINE#         440
 C2:6EDBH         LINE#         441
 C2:6EDBH         LINE#         442
 C2:6EE0H         LINE#         443
 C2:6F2BH         LINE#         444
 C2:6F30H         LINE#         445
 C2:6F37H         LINE#         446
 C2:6F37H         LINE#         447
 C2:6F3CH         LINE#         448
 C2:6F3CH         LINE#         449
 C2:6F3FH         LINE#         453
 C2:6F3FH         LINE#         454
 C2:6F49H         LINE#         455
 C2:6F49H         LINE#         456
 C2:6F4CH         LINE#         461
 C2:6F66H         LINE#         462
 C2:6F66H         LINE#         463
 C2:6F69H         LINE#         464
 C2:6F70H         LINE#         465
 C2:6F70H         LINE#         466
 C2:6F76H         LINE#         467
 C2:6F79H         LINE#         468
 C2:6F79H         LINE#         469
 C2:6F79H         LINE#         472
 C2:6F9FH         LINE#         473
 C2:6FB3H         LINE#         474
BL51 BANKED LINKER/LOCATER V6.00                                                      12/23/2015  16:04:37  PAGE 186


 C2:6FD9H         LINE#         475
 C2:6FDFH         LINE#         490
 C2:6FE6H         LINE#         491
 C2:6FE6H         LINE#         495
 C2:6FEDH         LINE#         496
 C2:6FEDH         LINE#         497
 C2:6FF0H         LINE#         498
 C2:6FF3H         LINE#         502
 C2:6FF5H         LINE#         506
 C2:6FF8H         LINE#         507
 C2:7010H         LINE#         508
 C2:7010H         LINE#         509
 C2:7010H         LINE#         510
 C2:7010H         LINE#         511
 C2:7017H         LINE#         512
 C2:7017H         LINE#         513
 C2:701AH         LINE#         517
 C2:7027H         LINE#         518
 C2:7027H         LINE#         519
 C2:7029H         LINE#         520
 C2:703AH         LINE#         521
 C2:703AH         LINE#         522
 C2:703FH         LINE#         523
 C2:7045H         LINE#         524
 C2:7045H         LINE#         525
 C2:7045H         LINE#         526
 C2:7048H         LINE#         527
 C2:7048H         LINE#         529
 C2:7056H         LINE#         530
 C2:7056H         LINE#         531
 C2:7059H         LINE#         535
 C2:705CH         LINE#         537
 C2:7082H         LINE#         538
 C2:7096H         LINE#         539
 C2:70BCH         LINE#         540
 C2:70C2H         LINE#         543
 C2:70DCH         LINE#         544
 C2:70DCH         LINE#         545
 C2:70DFH         LINE#         546
 C2:70E6H         LINE#         547
 C2:70E6H         LINE#         548
 C2:70ECH         LINE#         549
 C2:70EFH         LINE#         550
 C2:70EFH         LINE#         551
 C2:70EFH         LINE#         553
 C2:70F4H         LINE#         554
 C2:7104H         LINE#         555
 C2:7104H         LINE#         556
 C2:7109H         LINE#         558
 C2:710FH         LINE#         560
 C2:710FH         LINE#         561
 C2:7124H         LINE#         562
 C2:7124H         LINE#         563
 C2:7127H         LINE#         564
 C2:712DH         LINE#         565
 C2:712DH         LINE#         566
 C2:712DH         LINE#         567
BL51 BANKED LINKER/LOCATER V6.00                                                      12/23/2015  16:04:37  PAGE 187


 C2:712DH         LINE#         568
 C2:7137H         LINE#         569
 C2:713AH         LINE#         570
 C2:7144H         LINE#         571
 C2:7144H         LINE#         572
 C2:7147H         LINE#         576
 C2:714AH         LINE#         578
 C2:7150H         LINE#         579
 C2:7150H         LINE#         580
 C2:7156H         LINE#         581
 C2:7156H         LINE#         582
 C2:715AH         LINE#         583
 C2:7160H         LINE#         584
 C2:7160H         LINE#         585
 C2:7165H         LINE#         586
 C2:7175H         LINE#         588
 C2:7175H         LINE#         589
 C2:7175H         LINE#         590
 C2:7175H         LINE#         591
 C2:717BH         LINE#         592
 C2:7190H         LINE#         595
 C2:71AAH         LINE#         596
 C2:71AAH         LINE#         597
 C2:71B1H         LINE#         598
 C2:71B1H         LINE#         599
 C2:71B7H         LINE#         600
 C2:71BAH         LINE#         601
 C2:71BAH         LINE#         602
 C2:71BAH         LINE#         604
 C2:71CAH         LINE#         605
 C2:71CAH         LINE#         606
 C2:71CFH         LINE#         608
 C2:71D5H         LINE#         610
 C2:71D5H         LINE#         611
 C2:71EAH         LINE#         612
 C2:71EAH         LINE#         613
 C2:71EDH         LINE#         614
 C2:71F3H         LINE#         615
 C2:71F3H         LINE#         616
 C2:71F3H         LINE#         617
 C2:71F3H         LINE#         618
 C2:720AH         LINE#         619
 C2:720AH         LINE#         620
 C2:7238H         LINE#         621
 C2:7238H         LINE#         622
 C2:7242H         LINE#         623
 C2:7253H         LINE#         624
 C2:7253H         LINE#         625
 C2:7258H         LINE#         626
 C2:725EH         LINE#         627
 C2:725EH         LINE#         628
 C2:725EH         LINE#         629
 C2:725EH         LINE#         630
 C2:725EH         LINE#         631
 C2:7265H         LINE#         632
 C2:7265H         LINE#         633
 C2:726AH         LINE#         634
BL51 BANKED LINKER/LOCATER V6.00                                                      12/23/2015  16:04:37  PAGE 188


 C2:729FH         LINE#         635
 C2:72D5H         LINE#         636
 C2:72DBH         LINE#         637
 C2:72DBH         LINE#         638
 C2:72E9H         LINE#         639
 C2:72E9H         LINE#         640
 C2:731BH         LINE#         641
 C2:731BH         LINE#         642
 C2:731FH         LINE#         643
 C2:7323H         LINE#         644
 C2:7327H         LINE#         645
 C2:732BH         LINE#         646
 C2:732FH         LINE#         649
 C2:7333H         LINE#         650
 C2:7364H         LINE#         651
 C2:7368H         LINE#         652
 C2:7368H         LINE#         653
 C2:7368H         LINE#         654
 C2:736FH         LINE#         655
 C2:736FH         LINE#         656
 C2:7374H         LINE#         657
 C2:737AH         LINE#         658
 C2:737AH         LINE#         659
  -------         ENDPROC       TELNETD

  -------         PROC BANK=2   TELNET_INIT
 C2:D743H         LINE#         673
 C2:D743H         LINE#         674
 C2:D743H         LINE#         675
  -------         ENDPROC       TELNET_INIT

  -------         PROC BANK=2   TELNET_CLOSE
 C2:D732H         LINE#         689
 C2:D732H         LINE#         690
 C2:D732H         LINE#         691
 C2:D739H         LINE#         692
 C2:D73DH         LINE#         694
 C2:D742H         LINE#         695
  -------         ENDPROC       TELNET_CLOSE

  -------         PROC BANK=2   TELNET_CONNECT
  -------         DO            
  X:36F3H         SYMBOL        result
  X:36F4H         SYMBOL        ip
  -------         ENDDO         
 C2:B835H         LINE#         709
 C2:B835H         LINE#         710
 C2:B835H         LINE#         711
 C2:B83BH         LINE#         713
 C2:B84DH         LINE#         715
 C2:B866H         LINE#         716
 C2:B86EH         LINE#         717
 C2:B870H         LINE#         718
 C2:B875H         LINE#         720
 C2:B87DH         LINE#         721
 C2:B87EH         LINE#         723
 C2:B899H         LINE#         724
BL51 BANKED LINKER/LOCATER V6.00                                                      12/23/2015  16:04:37  PAGE 189


 C2:B8ABH         LINE#         727
 C2:B8C4H         LINE#         728
 C2:B8C4H         LINE#         730
 C2:B8DBH         LINE#         731
 C2:B8DBH         LINE#         732
 C2:B8E1H         LINE#         733
 C2:B8E1H         LINE#         734
 C2:B8E7H         LINE#         735
 C2:B8EAH         LINE#         736
 C2:B8F2H         LINE#         737
 C2:B8FAH         LINE#         738
 C2:B900H         LINE#         739
 C2:B900H         LINE#         740
 C2:B900H         LINE#         742
 C2:B909H         LINE#         743
 C2:B916H         LINE#         745
 C2:B93BH         LINE#         746
 C2:B93BH         LINE#         782
 C2:B93DH         LINE#         783
  -------         ENDPROC       TELNET_CONNECT

  -------         PROC BANK=2   TELNET
 C2:D792H         LINE#         796
 C2:D792H         LINE#         797
 C2:D792H         LINE#         798
  -------         ENDPROC       TELNET

  -------         PROC BANK=2   CLEARUARTRXBUF
  -------         DO            
  X:35D5H         SYMBOL        i
  X:35D6H         SYMBOL        con1
  X:35D9H         SYMBOL        UART_newdata_len
  -------         DO            
  X:35DBH         SYMBOL        last_wi
  -------         ENDDO         
  -------         DO            
  X:35DBH         SYMBOL        WB
  -------         ENDDO         
  -------         ENDDO         
 C2:594EH         LINE#         818
 C2:594EH         LINE#         819
 C2:594EH         LINE#         822
 C2:595CH         LINE#         825
 C2:5961H         LINE#         826
 C2:5987H         LINE#         828
 C2:5994H         LINE#         829
 C2:5994H         LINE#         830
 C2:59ABH         LINE#         831
 C2:59ABH         LINE#         832
 C2:5A0AH         LINE#         833
 C2:5A0AH         LINE#         834
 C2:5A13H         LINE#         835
 C2:5A13H         LINE#         836
 C2:5A20H         LINE#         837
 C2:5A20H         LINE#         839
 C2:5A34H         LINE#         840
 C2:5A48H         LINE#         842
BL51 BANKED LINKER/LOCATER V6.00                                                      12/23/2015  16:04:37  PAGE 190


 C2:5A74H         LINE#         843
 C2:5A74H         LINE#         844
 C2:5A8BH         LINE#         845
 C2:5A8BH         LINE#         846
 C2:5A9FH         LINE#         847
 C2:5AA1H         LINE#         849
 C2:5AA1H         LINE#         850
 C2:5ABFH         LINE#         851
 C2:5ABFH         LINE#         852
 C2:5AC5H         LINE#         853
 C2:5ACBH         LINE#         854
 C2:5AD6H         LINE#         855
 C2:5AD6H         LINE#         856
 C2:5AD6H         LINE#         857
 C2:5AD6H         LINE#         858
 C2:5AD6H         LINE#         859
 C2:5AD6H         LINE#         860
 C2:5AD6H         LINE#         862
 C2:5ADCH         LINE#         863
 C2:5ADCH         LINE#         864
 C2:5ADFH         LINE#         865
 C2:5AE2H         LINE#         867
 C2:5AE2H         LINE#         869
 C2:5AE8H         LINE#         871
 C2:5AF3H         LINE#         886
 C2:5AF9H         LINE#         887
 C2:5AF9H         LINE#         889
 C2:5B17H         LINE#         890
 C2:5B17H         LINE#         892
 C2:5B1AH         LINE#         893
 C2:5B1CH         LINE#         895
 C2:5B1CH         LINE#         897
 C2:5B1FH         LINE#         898
 C2:5B1FH         LINE#         899
 C2:5B1FH         LINE#         903
 C2:5B3BH         LINE#         905
 C2:5B3BH         LINE#         906
 C2:5B46H         LINE#         907
 C2:5B46H         LINE#         909
 C2:5B64H         LINE#         914
 C2:5B64H         LINE#         915
 C2:5B69H         LINE#         916
 C2:5B75H         LINE#         917
 C2:5B92H         LINE#         918
 C2:5BB2H         LINE#         919
 C2:5BBBH         LINE#         920
 C2:5BBEH         LINE#         922
 C2:5BBEH         LINE#         923
 C2:5BC3H         LINE#         924
 C2:5BCDH         LINE#         925
 C2:5BD1H         LINE#         926
 C2:5C07H         LINE#         927
 C2:5C17H         LINE#         928
 C2:5C1DH         LINE#         929
 C2:5C1DH         LINE#         930
 C2:5C2AH         LINE#         931
 C2:5C4AH         LINE#         932
BL51 BANKED LINKER/LOCATER V6.00                                                      12/23/2015  16:04:37  PAGE 191


 C2:5C4AH         LINE#         933
 C2:5C51H         LINE#         934
 C2:5C95H         LINE#         935
 C2:5C95H         LINE#         936
 C2:5C95H         LINE#         937
 C2:5C95H         LINE#         941
 C2:5CA8H         LINE#         942
 C2:5CA8H         LINE#         943
 C2:5CC6H         LINE#         944
 C2:5CC6H         LINE#         945
 C2:5CF1H         LINE#         946
 C2:5D05H         LINE#         947
 C2:5D24H         LINE#         948
 C2:5D24H         LINE#         949
 C2:5D46H         LINE#         962
 C2:5D6DH         LINE#         966
 C2:5D6DH         LINE#         967
 C2:5D88H         LINE#         968
 C2:5D88H         LINE#         969
 C2:5D91H         LINE#         970
 C2:5D91H         LINE#         971
 C2:5DB6H         LINE#         972
 C2:5DB6H         LINE#         973
 C2:5DD6H         LINE#         974
 C2:5DD6H         LINE#         975
 C2:5E11H         LINE#         976
 C2:5E26H         LINE#         977
 C2:5E29H         LINE#         978
 C2:5E29H         LINE#         980
 C2:5E29H         LINE#         981
 C2:5E54H         LINE#         982
 C2:5E54H         LINE#         983
 C2:5E54H         LINE#         984
 C2:5E54H         LINE#         985
 C2:5E57H         LINE#         987
 C2:5E57H         LINE#         988
 C2:5E72H         LINE#         989
 C2:5E72H         LINE#         990
 C2:5EA9H         LINE#         991
 C2:5EBEH         LINE#         992
 C2:5EC0H         LINE#         994
 C2:5EC0H         LINE#         995
 C2:5EFBH         LINE#         996
 C2:5F01H         LINE#         997
 C2:5F01H         LINE#         998
 C2:5F01H         LINE#         999
 C2:5F0CH         LINE#         1000
 C2:5F0CH         LINE#         1001
 C2:5F30H         LINE#         1002
 C2:5F30H         LINE#         1003
 C2:5F3DH         LINE#         1004
 C2:5F42H         LINE#         1005
 C2:5F4CH         LINE#         1006
 C2:5F81H         LINE#         1007
 C2:5FB7H         LINE#         1008
 C2:5FBCH         LINE#         1009
 C2:5FC2H         LINE#         1010
BL51 BANKED LINKER/LOCATER V6.00                                                      12/23/2015  16:04:37  PAGE 192


 C2:5FC2H         LINE#         1011
 C2:5FC5H         LINE#         1012
 C2:5FE5H         LINE#         1013
 C2:5FE7H         LINE#         1015
 C2:5FEAH         LINE#         1016
 C2:5FF1H         LINE#         1017
 C2:5FF3H         LINE#         1018
 C2:5FF3H         LINE#         1020
 C2:5FF8H         LINE#         1021
 C2:5FF8H         LINE#         1022
 C2:6001H         LINE#         1023
 C2:6001H         LINE#         1024
 C2:604BH         LINE#         1025
 C2:6054H         LINE#         1026
 C2:6066H         LINE#         1031
 C2:6069H         LINE#         1033
 C2:6069H         LINE#         1034
 C2:6084H         LINE#         1035
 C2:60A4H         LINE#         1050
 C2:60ABH         LINE#         1051
 C2:60CCH         LINE#         1061
 C2:60EEH         LINE#         1062
 C2:60FAH         LINE#         1063
 C2:60FAH         LINE#         1064
 C2:60FCH         LINE#         1066
 C2:60FCH         LINE#         1067
 C2:6102H         LINE#         1068
 C2:6116H         LINE#         1069
 C2:611CH         LINE#         1070
 C2:611CH         LINE#         1071
 C2:6128H         LINE#         1072
 C2:6136H         LINE#         1073
 C2:6136H         LINE#         1074
 C2:613FH         LINE#         1075
 C2:613FH         LINE#         1076
 C2:614BH         LINE#         1077
 C2:616AH         LINE#         1078
 C2:616AH         LINE#         1082
 C2:616AH         LINE#         1083
 C2:616AH         LINE#         1084
 C2:616AH         LINE#         1085
 C2:616FH         LINE#         1086
  -------         ENDPROC       CLEARUARTRXBUF

  -------         PROC BANK=2   _SENDUARTRX2ETH
  X:34C8H         SYMBOL        protocol
  -------         DO            
  X:34C9H         SYMBOL        mss
  X:34CBH         SYMBOL        i
  X:34CDH         SYMBOL        current_pos
  D:0006H         SYMBOL        current_pos2
  D:0006H         SYMBOL        len
  X:34CFH         SYMBOL        wrap
  -------         ENDDO         
 C2:8561H         LINE#         1099
 C2:8566H         LINE#         1100
 C2:8566H         LINE#         1101
BL51 BANKED LINKER/LOCATER V6.00                                                      12/23/2015  16:04:37  PAGE 193


 C2:8582H         LINE#         1103
 C2:858CH         LINE#         1104
 C2:8591H         LINE#         1106
 C2:85B4H         LINE#         1109
 C2:85BDH         LINE#         1111
 C2:85CCH         LINE#         1112
 C2:85E2H         LINE#         1113
 C2:85E2H         LINE#         1115
 C2:8602H         LINE#         1116
 C2:8602H         LINE#         1117
 C2:860DH         LINE#         1118
 C2:860DH         LINE#         1119
 C2:8610H         LINE#         1123
 C2:8610H         LINE#         1124
 C2:863BH         LINE#         1125
 C2:8648H         LINE#         1126
 C2:8648H         LINE#         1127
 C2:8665H         LINE#         1128
 C2:866CH         LINE#         1129
 C2:866CH         LINE#         1130
 C2:8683H         LINE#         1131
 C2:8683H         LINE#         1132
 C2:8697H         LINE#         1133
 C2:8697H         LINE#         1134
 C2:86AEH         LINE#         1135
 C2:86AEH         LINE#         1136
 C2:86BEH         LINE#         1137
 C2:86D2H         LINE#         1138
 C2:86D5H         LINE#         1139
 C2:86D5H         LINE#         1140
 C2:86D5H         LINE#         1141
 C2:86E3H         LINE#         1142
 C2:86F0H         LINE#         1143
 C2:86F0H         LINE#         1144
 C2:86F3H         LINE#         1145
 C2:86F3H         LINE#         1146
 C2:8713H         LINE#         1147
 C2:8713H         LINE#         1148
 C2:871EH         LINE#         1149
 C2:8736H         LINE#         1150
 C2:8736H         LINE#         1151
 C2:873CH         LINE#         1152
 C2:8742H         LINE#         1153
 C2:8750H         LINE#         1154
 C2:8750H         LINE#         1155
 C2:8753H         LINE#         1156
 C2:8753H         LINE#         1157
 C2:8753H         LINE#         1158
 C2:8767H         LINE#         1159
 C2:8767H         LINE#         1160
 C2:8795H         LINE#         1161
 C2:8795H         LINE#         1162
 C2:8795H         LINE#         1163
 C2:8797H         LINE#         1164
 C2:8797H         LINE#         1165
 C2:8797H         LINE#         1166
 C2:87ABH         LINE#         1167
BL51 BANKED LINKER/LOCATER V6.00                                                      12/23/2015  16:04:37  PAGE 194


 C2:87ABH         LINE#         1168
 C2:87D9H         LINE#         1169
 C2:87D9H         LINE#         1170
 C2:87EBH         LINE#         1171
 C2:87EDH         LINE#         1172
 C2:87EDH         LINE#         1173
 C2:87EDH         LINE#         1174
 C2:87FEH         LINE#         1175
 C2:8815H         LINE#         1176
 C2:8815H         LINE#         1177
 C2:8824H         LINE#         1178
 C2:882BH         LINE#         1179
 C2:882DH         LINE#         1181
 C2:882DH         LINE#         1182
 C2:8834H         LINE#         1183
 C2:8848H         LINE#         1184
 C2:8848H         LINE#         1186
 C2:884AH         LINE#         1188
 C2:884AH         LINE#         1189
 C2:886EH         LINE#         1190
 C2:886EH         LINE#         1192
 C2:8898H         LINE#         1193
 C2:8898H         LINE#         1194
 C2:889EH         LINE#         1195
 C2:889EH         LINE#         1196
 C2:88A7H         LINE#         1197
 C2:88A7H         LINE#         1198
 C2:88B7H         LINE#         1199
 C2:88F5H         LINE#         1200
 C2:88F5H         LINE#         1201
  -------         ENDPROC       _SENDUARTRX2ETH

  -------         PROC BANK=2   RESENDUARTRX2ETH
  -------         DO            
  X:354EH         SYMBOL        mss
  X:3550H         SYMBOL        len
  -------         DO            
  X:3552H         SYMBOL        i
  X:3553H         SYMBOL        remain_len
  X:3555H         SYMBOL        old_ri
  -------         ENDDO         
  -------         ENDDO         
 C2:7887H         LINE#         1214
 C2:7887H         LINE#         1215
 C2:7887H         LINE#         1216
 C2:78A2H         LINE#         1217
 C2:78A7H         LINE#         1220
 C2:78B0H         LINE#         1223
 C2:78CDH         LINE#         1225
 C2:78D7H         LINE#         1227
 C2:78E1H         LINE#         1234
 C2:790BH         LINE#         1236
 C2:792FH         LINE#         1238
 C2:7932H         LINE#         1243
 C2:7954H         LINE#         1244
 C2:7954H         LINE#         1245
 C2:7989H         LINE#         1246
BL51 BANKED LINKER/LOCATER V6.00                                                      12/23/2015  16:04:37  PAGE 195


 C2:798CH         LINE#         1248
 C2:798CH         LINE#         1249
 C2:79D4H         LINE#         1250
 C2:7A2CH         LINE#         1251
 C2:7A2CH         LINE#         1253
 C2:7A2FH         LINE#         1258
 C2:7A45H         LINE#         1259
 C2:7A45H         LINE#         1260
 C2:7A56H         LINE#         1261
 C2:7A58H         LINE#         1263
 C2:7A58H         LINE#         1264
 C2:7A67H         LINE#         1265
 C2:7A67H         LINE#         1266
 C2:7A76H         LINE#         1268
 C2:7A9AH         LINE#         1273
 C2:7A9AH         LINE#         1275
 C2:7A9AH         LINE#         1277
 C2:7A9FH         LINE#         1278
 C2:7AA2H         LINE#         1282
 C2:7AA7H         LINE#         1283
 C2:7AC0H         LINE#         1284
 C2:7AC0H         LINE#         1286
 C2:7AD4H         LINE#         1287
 C2:7AE3H         LINE#         1289
 C2:7AE9H         LINE#         1291
 C2:7B05H         LINE#         1293
 C2:7B1EH         LINE#         1295
 C2:7B33H         LINE#         1297
 C2:7B48H         LINE#         1298
 C2:7B48H         LINE#         1300
 C2:7B4BH         LINE#         1304
 C2:7B5FH         LINE#         1305
 C2:7B81H         LINE#         1307
 C2:7BA5H         LINE#         1309
 C2:7BB1H         LINE#         1310
 C2:7BD7H         LINE#         1312
 C2:7BF1H         LINE#         1314
 C2:7C06H         LINE#         1316
 C2:7C22H         LINE#         1317
 C2:7C22H         LINE#         1319
 C2:7C5DH         LINE#         1323
 C2:7C60H         LINE#         1325
 C2:7C60H         LINE#         1327
 C2:7CB7H         LINE#         1328
 C2:7D24H         LINE#         1333
 C2:7D24H         LINE#         1334
 C2:7D2DH         LINE#         1335
 C2:7D3CH         LINE#         1336
 C2:7D51H         LINE#         1337
 C2:7D51H         LINE#         1338
 C2:7D55H         LINE#         1339
 C2:7D59H         LINE#         1340
 C2:7D59H         LINE#         1342
 C2:7D59H         LINE#         1343
 C2:7D5EH         LINE#         1344
 C2:7D61H         LINE#         1349
  -------         ENDPROC       RESENDUARTRX2ETH
BL51 BANKED LINKER/LOCATER V6.00                                                      12/23/2015  16:04:37  PAGE 196



  -------         PROC BANK=2   WRITEETHRX2UART
  -------         DO            
  X:3727H         SYMBOL        len
  D:0006H         SYMBOL        tx_fifo_space
  -------         DO            
  X:3729H         SYMBOL        RB
  -------         ENDDO         
  -------         ENDDO         
 C2:A06AH         LINE#         1362
 C2:A06AH         LINE#         1363
 C2:A06AH         LINE#         1366
 C2:A073H         LINE#         1369
 C2:A091H         LINE#         1370
 C2:A091H         LINE#         1371
 C2:A0A5H         LINE#         1372
 C2:A0A5H         LINE#         1373
 C2:A0BBH         LINE#         1374
 C2:A0BBH         LINE#         1375
 C2:A0BBH         LINE#         1376
 C2:A0CDH         LINE#         1377
 C2:A0CDH         LINE#         1379
 C2:A0DEH         LINE#         1380
 C2:A0DEH         LINE#         1381
 C2:A0E0H         LINE#         1382
 C2:A0E0H         LINE#         1384
 C2:A0E5H         LINE#         1388
 C2:A0F2H         LINE#         1389
 C2:A0F2H         LINE#         1390
 C2:A102H         LINE#         1391
 C2:A102H         LINE#         1392
 C2:A107H         LINE#         1393
 C2:A109H         LINE#         1395
 C2:A109H         LINE#         1396
 C2:A10EH         LINE#         1397
 C2:A10EH         LINE#         1399
 C2:A131H         LINE#         1400
 C2:A131H         LINE#         1401
 C2:A14DH         LINE#         1402
 C2:A18BH         LINE#         1403
 C2:A18EH         LINE#         1405
 C2:A18EH         LINE#         1406
 C2:A1ABH         LINE#         1407
 C2:A1C7H         LINE#         1408
 C2:A212H         LINE#         1409
 C2:A243H         LINE#         1410
 C2:A2A8H         LINE#         1411
 C2:A2A8H         LINE#         1412
 C2:A2A8H         LINE#         1413
 C2:A2A8H         LINE#         1414
 C2:A2AEH         LINE#         1415
 C2:A2BDH         LINE#         1416
 C2:A2BDH         LINE#         1417
 C2:A2C4H         LINE#         1418
 C2:A2C4H         LINE#         1420
  -------         ENDPROC       WRITEETHRX2UART

BL51 BANKED LINKER/LOCATER V6.00                                                      12/23/2015  16:04:37  PAGE 197


  -------         PROC BANK=2   RESENDUARTRX2UART
  -------         DO            
  X:372BH         SYMBOL        i
  X:372CH         SYMBOL        back
  -------         ENDDO         
 C2:9883H         LINE#         1435
 C2:9883H         LINE#         1436
 C2:9883H         LINE#         1438
 C2:9891H         LINE#         1440
 C2:98A9H         LINE#         1441
 C2:98A9H         LINE#         1442
 C2:98D3H         LINE#         1443
 C2:98D3H         LINE#         1444
 C2:98F8H         LINE#         1445
 C2:98F8H         LINE#         1446
 C2:9907H         LINE#         1447
 C2:990AH         LINE#         1448
 C2:9919H         LINE#         1449
 C2:991EH         LINE#         1450
 C2:9922H         LINE#         1451
 C2:9931H         LINE#         1452
 C2:993CH         LINE#         1453
 C2:993CH         LINE#         1454
 C2:9940H         LINE#         1455
 C2:9976H         LINE#         1456
 C2:99ACH         LINE#         1457
 C2:99B1H         LINE#         1458
 C2:99B6H         LINE#         1459
 C2:99BCH         LINE#         1460
 C2:99BFH         LINE#         1461
 C2:99BFH         LINE#         1463
 C2:99BFH         LINE#         1464
 C2:99C8H         LINE#         1465
 C2:99E5H         LINE#         1466
 C2:99E5H         LINE#         1467
 C2:99E8H         LINE#         1468
 C2:9A14H         LINE#         1469
 C2:9A14H         LINE#         1470
 C2:9A18H         LINE#         1471
 C2:9A18H         LINE#         1472
 C2:9A24H         LINE#         1473
 C2:9A50H         LINE#         1474
 C2:9A52H         LINE#         1476
 C2:9A52H         LINE#         1477
 C2:9A58H         LINE#         1478
 C2:9A93H         LINE#         1480
 C2:9A9CH         LINE#         1481
 C2:9A9FH         LINE#         1482
 C2:9AA5H         LINE#         1483
 C2:9ACDH         LINE#         1484
 C2:9ACDH         LINE#         1485
 C2:9AD6H         LINE#         1486
 C2:9ADCH         LINE#         1487
 C2:9B3EH         LINE#         1488
 C2:9B3EH         LINE#         1489
  -------         ENDPROC       RESENDUARTRX2UART

BL51 BANKED LINKER/LOCATER V6.00                                                      12/23/2015  16:04:37  PAGE 198


  -------         PROC BANK=2   READETH2UARTTXBUF
  -------         DO            
  X:37BDH         SYMBOL        WB
  X:37BDH         SYMBOL        WB
  -------         ENDDO         
  -------         DO            
  X:37BDH         SYMBOL        WB
  -------         ENDDO         
 C2:8F79H         LINE#         1503
 C2:8F79H         LINE#         1504
 C2:8F79H         LINE#         1509
 C2:8F82H         LINE#         1521
 C2:8F85H         LINE#         1526
 C2:8F8EH         LINE#         1527
 C2:8F8EH         LINE#         1528
 C2:8FB2H         LINE#         1529
 C2:8FB2H         LINE#         1530
 C2:8FCEH         LINE#         1531
 C2:8FCEH         LINE#         1532
 C2:9003H         LINE#         1533
 C2:9039H         LINE#         1534
 C2:903CH         LINE#         1536
 C2:903CH         LINE#         1537
 C2:9057H         LINE#         1538
 C2:908CH         LINE#         1539
 C2:9093H         LINE#         1540
 C2:90DAH         LINE#         1541
 C2:90FBH         LINE#         1542
 C2:910CH         LINE#         1543
 C2:910CH         LINE#         1544
 C2:910FH         LINE#         1547
 C2:910FH         LINE#         1550
 C2:910FH         LINE#         1551
 C2:9133H         LINE#         1552
 C2:9133H         LINE#         1553
 C2:9152H         LINE#         1554
 C2:9152H         LINE#         1555
 C2:9187H         LINE#         1556
 C2:91CEH         LINE#         1557
 C2:91D1H         LINE#         1559
 C2:91D1H         LINE#         1560
 C2:91ECH         LINE#         1561
 C2:9221H         LINE#         1562
 C2:9228H         LINE#         1563
 C2:926FH         LINE#         1564
 C2:9290H         LINE#         1565
 C2:92A4H         LINE#         1566
 C2:92A4H         LINE#         1567
 C2:92A6H         LINE#         1569
 C2:92A6H         LINE#         1570
 C2:92AAH         LINE#         1571
 C2:92AAH         LINE#         1572
 C2:92AAH         LINE#         1573
 C2:92AEH         LINE#         1574
  -------         ENDPROC       READETH2UARTTXBUF

  -------         PROC BANK=2   CLEARUARTRXBUF_PARITYERROR
BL51 BANKED LINKER/LOCATER V6.00                                                      12/23/2015  16:04:37  PAGE 199


  -------         DO            
  X:35DDH         SYMBOL        i
  X:35DEH         SYMBOL        rx_status
  X:35DFH         SYMBOL        reg_data
  X:35E0H         SYMBOL        Rx_data
  X:35E1H         SYMBOL        ring_space
  X:35E3H         SYMBOL        write_boundary
  -------         ENDDO         
 C2:95B3H         LINE#         1576
 C2:95B3H         LINE#         1577
 C2:95B3H         LINE#         1583
 C2:95BBH         LINE#         1585
 C2:95C5H         LINE#         1586
 C2:95C5H         LINE#         1588
 C2:95E0H         LINE#         1590
 C2:95EEH         LINE#         1591
 C2:95EEH         LINE#         1592
 C2:9602H         LINE#         1593
 C2:961EH         LINE#         1595
 C2:9627H         LINE#         1596
 C2:9627H         LINE#         1597
 C2:9627H         LINE#         1598
 C2:9629H         LINE#         1599
 C2:9630H         LINE#         1600
 C2:9630H         LINE#         1603
 C2:964DH         LINE#         1605
 C2:965BH         LINE#         1606
 C2:9669H         LINE#         1607
 C2:9677H         LINE#         1608
 C2:967DH         LINE#         1612
 C2:9684H         LINE#         1613
 C2:9684H         LINE#         1614
 C2:9684H         LINE#         1615
 C2:9684H         LINE#         1616
 C2:9686H         LINE#         1618
 C2:9686H         LINE#         1620
 C2:9689H         LINE#         1621
 C2:9689H         LINE#         1622
 C2:9689H         LINE#         1623
 C2:9689H         LINE#         1625
 C2:9689H         LINE#         1626
 C2:9691H         LINE#         1627
 C2:9699H         LINE#         1628
 C2:9699H         LINE#         1629
 C2:9699H         LINE#         1630
 C2:969BH         LINE#         1632
 C2:96A7H         LINE#         1633
 C2:96A7H         LINE#         1634
 C2:96AAH         LINE#         1636
 C2:96BDH         LINE#         1637
 C2:96CDH         LINE#         1641
 C2:96D9H         LINE#         1642
 C2:96D9H         LINE#         1643
 C2:96DEH         LINE#         1644
 C2:96E6H         LINE#         1645
 C2:96E8H         LINE#         1646
 C2:96E8H         LINE#         1647
BL51 BANKED LINKER/LOCATER V6.00                                                      12/23/2015  16:04:37  PAGE 200


 C2:96E8H         LINE#         1652
 C2:96F2H         LINE#         1653
 C2:96F2H         LINE#         1656
 C2:96FCH         LINE#         1657
 C2:96FCH         LINE#         1658
 C2:9710H         LINE#         1659
 C2:9718H         LINE#         1660
 C2:9726H         LINE#         1661
 C2:9741H         LINE#         1662
 C2:9743H         LINE#         1664
 C2:9743H         LINE#         1665
 C2:9762H         LINE#         1666
 C2:9770H         LINE#         1667
 C2:977EH         LINE#         1668
 C2:978CH         LINE#         1669
 C2:978CH         LINE#         1670
 C2:9792H         LINE#         1671
 C2:9799H         LINE#         1672
 C2:9799H         LINE#         1673
 C2:9799H         LINE#         1674
 C2:9799H         LINE#         1675
 C2:979BH         LINE#         1677
 C2:979BH         LINE#         1679
 C2:979EH         LINE#         1680
 C2:979EH         LINE#         1681
 C2:979EH         LINE#         1682
 C2:979EH         LINE#         1684
 C2:979EH         LINE#         1685
 C2:97A6H         LINE#         1686
 C2:97AEH         LINE#         1687
 C2:97AEH         LINE#         1688
 C2:97AEH         LINE#         1689
 C2:97B1H         LINE#         1691
 C2:97BDH         LINE#         1692
 C2:97BDH         LINE#         1693
 C2:97C0H         LINE#         1695
 C2:97D3H         LINE#         1696
 C2:97E3H         LINE#         1700
 C2:97ECH         LINE#         1701
 C2:97ECH         LINE#         1702
 C2:97F1H         LINE#         1703
 C2:97F9H         LINE#         1704
 C2:97FBH         LINE#         1705
 C2:97FBH         LINE#         1707
 C2:97FBH         LINE#         1708
 C2:97FBH         LINE#         1710
 C2:97FBH         LINE#         1711
 C2:9801H         LINE#         1714
 C2:9813H         LINE#         1715
 C2:9819H         LINE#         1716
 C2:9819H         LINE#         1717
 C2:9825H         LINE#         1718
 C2:9833H         LINE#         1719
 C2:9833H         LINE#         1720
 C2:983CH         LINE#         1721
 C2:983CH         LINE#         1722
 C2:9848H         LINE#         1723
BL51 BANKED LINKER/LOCATER V6.00                                                      12/23/2015  16:04:37  PAGE 201


 C2:9867H         LINE#         1724
 C2:9867H         LINE#         1728
 C2:9867H         LINE#         1729
 C2:9867H         LINE#         1731
 C2:986DH         LINE#         1732
 C2:986DH         LINE#         1734
 C2:987CH         LINE#         1735
 C2:987CH         LINE#         1737
 C2:987FH         LINE#         1738
 C2:987FH         LINE#         1740
 C2:987FH         LINE#         1742
 C2:9882H         LINE#         1743
 C2:9882H         LINE#         1744
 C2:9882H         LINE#         1745
 C2:9882H         LINE#         1747
  -------         ENDPROC       CLEARUARTRXBUF_PARITYERROR

  -------         PROC BANK=2   UART_RS485_UPDATE_TXCONTROL
  -------         DO            
  D:0007H         SYMBOL        reg_data
  -------         ENDDO         
 C2:D760H         LINE#         1749
 C2:D760H         LINE#         1750
 C2:D760H         LINE#         1751
 C2:D760H         LINE#         1753
 C2:D764H         LINE#         1754
 C2:D767H         LINE#         1755
 C2:D767H         LINE#         1756
 C2:D769H         LINE#         1757
 C2:D769H         LINE#         1758
  -------         ENDPROC       UART_RS485_UPDATE_TXCONTROL

  -------         PROC BANK=2   UART_AUTO_SEND
  -------         DO            
  X:37BFH         SYMBOL        timer0_tick
  -------         ENDDO         
 C2:C3A8H         LINE#         1762
 C2:C3A8H         LINE#         1763
 C2:C3A8H         LINE#         1764
 C2:C3AFH         LINE#         1766
 C2:C3C8H         LINE#         1767
 C2:C3C8H         LINE#         1768
 C2:C3CBH         LINE#         1773
 C2:C3E6H         LINE#         1778
 C2:C3E6H         LINE#         1779
 C2:C3E8H         LINE#         1780
 C2:C3FCH         LINE#         1782
 C2:C408H         LINE#         1783
 C2:C408H         LINE#         1784
 C2:C418H         LINE#         1785
 C2:C41EH         LINE#         1786
 C2:C421H         LINE#         1787
 C2:C423H         LINE#         1788
 C2:C423H         LINE#         1789
 C2:C425H         LINE#         1790
 C2:C425H         LINE#         1791
 C2:C425H         LINE#         1792
BL51 BANKED LINKER/LOCATER V6.00                                                      12/23/2015  16:04:37  PAGE 202


 C2:C42BH         LINE#         1793
 C2:C42BH         LINE#         1794
 C2:C440H         LINE#         1795
 C2:C445H         LINE#         1796
 C2:C448H         LINE#         1798
 C2:C44BH         LINE#         1800
 C2:C450H         LINE#         1801
 C2:C450H         LINE#         1802
  -------         ENDPROC       UART_AUTO_SEND

  -------         PROC BANK=2   CHECK_RS485
 C2:D706H         LINE#         1804
 C2:D706H         LINE#         1805
 C2:D716H         LINE#         1806
 C2:D719H         LINE#         1808
 C2:D71BH         LINE#         1809
  -------         ENDPROC       CHECK_RS485

  -------         PROC BANK=2   TELNET_SERVER_TIMEOUT
 C2:C8BEH         LINE#         1811
 C2:C8BEH         LINE#         1812
 C2:C8C7H         LINE#         1813
 C2:C8C7H         LINE#         1814
 C2:C8E4H         LINE#         1815
 C2:C8E6H         LINE#         1816
 C2:C8ECH         LINE#         1817
 C2:C8ECH         LINE#         1818
 C2:C94BH         LINE#         1819
 C2:C950H         LINE#         1820
 C2:C950H         LINE#         1821
 C2:C950H         LINE#         1822
  -------         ENDPROC       TELNET_SERVER_TIMEOUT
  -------         ENDMOD        TELNET

  -------         MODULE        UDP
  C:0000H         SYMBOL        _ICE_DUMMY_
  D:0080H         PUBLIC        P0
  D:0090H         PUBLIC        P1
  D:00A0H         PUBLIC        P2
  D:00B0H         PUBLIC        P3
  D:00E8H         PUBLIC        P4
  D:00A8H         PUBLIC        IE
  D:00B8H         PUBLIC        IP
  X:335CH         PUBLIC        UdpData
 C2:D214H         PUBLIC        udp_process
  D:0098H         PUBLIC        SCON
  D:0088H         PUBLIC        TCON
 C2:A732H         PUBLIC        _udp_send
 C2:D35EH         PUBLIC        _udp_init
  D:00D8H         PUBLIC        WDTCON
  D:00C8H         PUBLIC        T2CON
 C2:D484H         PUBLIC        _udp_set_buf
  D:00D0H         PUBLIC        PSW

  -------         PROC BANK=2   _UDP_INIT
  D:0001H         SYMBOL        p_DataPkt
  X:355AH         SYMBOL        p_uip_len
BL51 BANKED LINKER/LOCATER V6.00                                                      12/23/2015  16:04:37  PAGE 203


  X:355DH         SYMBOL        hostaddr
 C2:D35EH         LINE#         76
 C2:D35EH         LINE#         77
 C2:D35EH         LINE#         78
 C2:D365H         LINE#         79
 C2:D36EH         LINE#         80
 C2:D383H         LINE#         81
 C2:D39BH         LINE#         82
 C2:D3ABH         LINE#         83
  -------         ENDPROC       _UDP_INIT

  -------         PROC BANK=2   _UDP_SET_BUF
  X:3789H         SYMBOL        p_DataPkt
 C2:D484H         LINE#         85
 C2:D48FH         LINE#         86
 C2:D48FH         LINE#         87
 C2:D4A4H         LINE#         88
 C2:D4B9H         LINE#         89
 C2:D4C4H         LINE#         90
  -------         ENDPROC       _UDP_SET_BUF

  -------         PROC BANK=2   UDP_PROCESS
 C2:D214H         LINE#         102
 C2:D214H         LINE#         103
 C2:D214H         LINE#         104
 C2:D229H         LINE#         105
 C2:D229H         LINE#         126
 C2:D245H         LINE#         127
 C2:D256H         LINE#         128
 C2:D259H         LINE#         129
 C2:D259H         LINE#         131
 C2:D259H         LINE#         132
 C2:D26AH         LINE#         133
 C2:D26AH         LINE#         134
  -------         ENDPROC       UDP_PROCESS

  -------         PROC BANK=2   _UDP_SEND
  X:37C1H         SYMBOL        length
 C2:A732H         LINE#         150
 C2:A73AH         LINE#         151
 C2:A73AH         LINE#         152
 C2:A73DH         LINE#         153
 C2:A73DH         LINE#         154
 C2:A74EH         LINE#         156
 C2:A74EH         LINE#         158
 C2:A751H         LINE#         163
 C2:A76FH         LINE#         164
 C2:A78BH         LINE#         165
 C2:A79BH         LINE#         166
 C2:A7ABH         LINE#         167
 C2:A7BBH         LINE#         169
 C2:A7C0H         LINE#         170
 C2:A7D2H         LINE#         171
 C2:A7E0H         LINE#         172
 C2:A7E8H         LINE#         173
 C2:A7F6H         LINE#         174
 C2:A810H         LINE#         175
BL51 BANKED LINKER/LOCATER V6.00                                                      12/23/2015  16:04:37  PAGE 204


 C2:A817H         LINE#         176
 C2:A81FH         LINE#         177
 C2:A82FH         LINE#         178
 C2:A83FH         LINE#         180
 C2:A842H         LINE#         185
 C2:A867H         LINE#         186
 C2:A86EH         LINE#         188
 C2:A877H         LINE#         195
 C2:A886H         LINE#         196
 C2:A8A3H         LINE#         199
 C2:A8CDH         LINE#         201
 C2:A8D6H         LINE#         210
 C2:A8E5H         LINE#         211
 C2:A8E5H         LINE#         212
 C2:A902H         LINE#         213
 C2:A90CH         LINE#         214
 C2:A921H         LINE#         215
 C2:A921H         LINE#         219
  -------         ENDPROC       _UDP_SEND
  -------         ENDMOD        UDP

  -------         MODULE        DHCPC
  C:0000H         SYMBOL        _ICE_DUMMY_
  D:0080H         PUBLIC        P0
  D:0090H         PUBLIC        P1
  D:00A0H         PUBLIC        P2
  D:00B0H         PUBLIC        P3
  D:00E8H         PUBLIC        P4
 C2:CDC9H         PUBLIC        DHCPCApplyIP
 C2:D774H         PUBLIC        DHCPCReceiveNAck
  D:00A8H         PUBLIC        IE
 C2:C644H         PUBLIC        DHCPC_UDP_RECEIVE
  D:00B8H         PUBLIC        IP
  X:3257H         PUBLIC        dhcp_flag
 C2:D5D6H         PUBLIC        DHCPCReceiveOffer
  D:0098H         PUBLIC        SCON
  D:0088H         PUBLIC        TCON
 C2:C24AH         PUBLIC        DHCPCSendDiscover
 C2:CF7FH         PUBLIC        DHCPCReceiveAck
 C2:B246H         PUBLIC        _DHCPCSendRequest
  C:001EH         SYMBOL        _?ix1000
  C:0038H         SYMBOL        _?ix1001
 C2:B397H         PUBLIC        DHCPCCltPktInit
  D:00D8H         PUBLIC        WDTCON
 C2:B0FCH         PUBLIC        DHCPCCheckInfo
 C2:C199H         PUBLIC        _DHCPCFoundTag
  D:00C8H         PUBLIC        T2CON
 C2:BE90H         PUBLIC        DHCPCTimer
  X:3258H         PUBLIC        DHCPCInfo
  D:00D0H         PUBLIC        PSW
 C2:D57AH         PUBLIC        DHCPCInit
  X:327FH         PUBLIC        DHCP_get_ip

  -------         PROC BANK=2   DHCPCINIT
 C2:D57AH         LINE#         38
 C2:D57AH         LINE#         39
 C2:D57AH         LINE#         40
BL51 BANKED LINKER/LOCATER V6.00                                                      12/23/2015  16:04:37  PAGE 205


 C2:D583H         LINE#         41
 C2:D586H         LINE#         43
 C2:D589H         LINE#         45
 C2:D593H         LINE#         46
 C2:D59DH         LINE#         47
 C2:D5A7H         LINE#         48
  -------         ENDPROC       DHCPCINIT

  -------         PROC BANK=2   DHCPCAPPLYIP
 C2:CDC9H         LINE#         61
 C2:CDC9H         LINE#         62
 C2:CDC9H         LINE#         63
 C2:CDDDH         LINE#         64
 C2:CDF1H         LINE#         65
 C2:CE05H         LINE#         66
 C2:CE19H         LINE#         67
 C2:CE28H         LINE#         68
 C2:CE37H         LINE#         70
  -------         ENDPROC       DHCPCAPPLYIP

  -------         PROC BANK=2   _DHCPCFOUNDTAG
  X:372FH         SYMBOL        tag
  -------         DO            
  X:3730H         SYMBOL        Options
  D:0006H         SYMBOL        i
  -------         ENDDO         
 C2:C199H         LINE#         88
 C2:C19EH         LINE#         89
 C2:C19EH         LINE#         90
 C2:C1C0H         LINE#         93
 C2:C1C3H         LINE#         99
 C2:C1E1H         LINE#         101
 C2:C1FAH         LINE#         102
 C2:C1FAH         LINE#         103
 C2:C212H         LINE#         104
 C2:C227H         LINE#         105
 C2:C241H         LINE#         106
 C2:C243H         LINE#         107
 C2:C249H         LINE#         109
  -------         ENDPROC       _DHCPCFOUNDTAG
  -------         PROC          L?0052
  -------         ENDPROC       L?0052

  -------         PROC BANK=2   DHCPCCLTPKTINIT
  -------         DO            
  X:378CH         SYMBOL        DHCPPkt
  -------         ENDDO         
 C2:B397H         LINE#         122
 C2:B397H         LINE#         123
 C2:B397H         LINE#         124
 C2:B3B2H         LINE#         125
 C2:B3C2H         LINE#         126
 C2:B3D5H         LINE#         127
 C2:B3DDH         LINE#         128
 C2:B3E4H         LINE#         129
 C2:B3EEH         LINE#         130
 C2:B3F8H         LINE#         131
BL51 BANKED LINKER/LOCATER V6.00                                                      12/23/2015  16:04:37  PAGE 206


 C2:B401H         LINE#         132
 C2:B40BH         LINE#         133
 C2:B415H         LINE#         134
 C2:B41FH         LINE#         135
 C2:B429H         LINE#         136
 C2:B433H         LINE#         137
 C2:B43DH         LINE#         138
 C2:B447H         LINE#         139
 C2:B451H         LINE#         140
 C2:B472H         LINE#         141
 C2:B48BH         LINE#         142
 C2:B4A4H         LINE#         144
 C2:B4B9H         LINE#         145
 C2:B4C2H         LINE#         146
  -------         ENDPROC       DHCPCCLTPKTINIT

  -------         PROC BANK=2   DHCPCSENDDISCOVER
  -------         DO            
  X:32F0H         SYMBOL        DHCPPkt
  X:32F3H         SYMBOL        DiscoverTemplate
  -------         ENDDO         
 C2:C24AH         LINE#         160
 C2:C24AH         LINE#         161
 C2:C24AH         LINE#         162
 C2:C265H         LINE#         163
 C2:C26FH         LINE#         170
 C2:C272H         LINE#         171
 C2:C288H         LINE#         172
 C2:C2B5H         LINE#         173
 C2:C2C3H         LINE#         177
 C2:C2CAH         LINE#         178
 C2:C2CEH         LINE#         179
 C2:C2D6H         LINE#         180
 C2:C2DAH         LINE#         181
 C2:C2E3H         LINE#         182
 C2:C2EAH         LINE#         183
  -------         ENDPROC       DHCPCSENDDISCOVER

  -------         PROC BANK=2   _DHCPCSENDREQUEST
  X:330DH         SYMBOL        reply_offer
  -------         DO            
  X:330EH         SYMBOL        DHCPPkt
  X:3311H         SYMBOL        len
  X:3313H         SYMBOL        RequestTemplate
  -------         ENDDO         
 C2:B246H         LINE#         197
 C2:B24BH         LINE#         198
 C2:B24BH         LINE#         199
 C2:B266H         LINE#         201
 C2:B270H         LINE#         208
 C2:B273H         LINE#         209
 C2:B27CH         LINE#         210
 C2:B285H         LINE#         211
 C2:B285H         LINE#         212
 C2:B2A1H         LINE#         213
 C2:B2A7H         LINE#         214
 C2:B2B5H         LINE#         215
BL51 BANKED LINKER/LOCATER V6.00                                                      12/23/2015  16:04:37  PAGE 207


 C2:B2B7H         LINE#         217
 C2:B2B7H         LINE#         218
 C2:B2C8H         LINE#         219
 C2:B2DCH         LINE#         220
 C2:B2DCH         LINE#         222
 C2:B309H         LINE#         223
 C2:B31DH         LINE#         227
 C2:B323H         LINE#         228
 C2:B323H         LINE#         229
 C2:B32AH         LINE#         230
 C2:B32EH         LINE#         231
 C2:B336H         LINE#         232
 C2:B33AH         LINE#         233
 C2:B33CH         LINE#         235
 C2:B33CH         LINE#         236
 C2:B350H         LINE#         237
 C2:B364H         LINE#         238
 C2:B364H         LINE#         239
 C2:B36DH         LINE#         240
 C2:B374H         LINE#         241
 C2:B385H         LINE#         243
 C2:B38BH         LINE#         245
  -------         ENDPROC       _DHCPCSENDREQUEST

  -------         PROC BANK=2   DHCPCCHECKINFO
  -------         DO            
  X:36A9H         SYMBOL        Tag
  X:36ACH         SYMBOL        pValue32
  -------         ENDDO         
 C2:B0FCH         LINE#         263
 C2:B0FCH         LINE#         264
 C2:B0FCH         LINE#         267
 C2:B10CH         LINE#         268
 C2:B111H         LINE#         269
 C2:B111H         LINE#         270
 C2:B12AH         LINE#         271
 C2:B133H         LINE#         272
 C2:B133H         LINE#         273
 C2:B143H         LINE#         274
 C2:B148H         LINE#         275
 C2:B148H         LINE#         276
 C2:B161H         LINE#         277
 C2:B16AH         LINE#         278
 C2:B16AH         LINE#         279
 C2:B17AH         LINE#         280
 C2:B17FH         LINE#         281
 C2:B17FH         LINE#         282
 C2:B198H         LINE#         283
 C2:B1A1H         LINE#         284
 C2:B1A1H         LINE#         285
 C2:B1B1H         LINE#         286
 C2:B1B6H         LINE#         287
 C2:B1B6H         LINE#         288
 C2:B1CFH         LINE#         289
 C2:B20CH         LINE#         290
 C2:B20CH         LINE#         291
 C2:B21CH         LINE#         292
BL51 BANKED LINKER/LOCATER V6.00                                                      12/23/2015  16:04:37  PAGE 208


 C2:B221H         LINE#         293
 C2:B23AH         LINE#         294
 C2:B243H         LINE#         295
 C2:B243H         LINE#         297
  -------         ENDPROC       DHCPCCHECKINFO

  -------         PROC BANK=2   DHCPCRECEIVEOFFER
  -------         DO            
  D:0001H         SYMBOL        DHCPPkt
  -------         ENDDO         
 C2:D5D6H         LINE#         314
 C2:D5D6H         LINE#         315
 C2:D5D6H         LINE#         316
 C2:D5E6H         LINE#         318
 C2:D5F2H         LINE#         320
 C2:D5FEH         LINE#         321
  -------         ENDPROC       DHCPCRECEIVEOFFER

  -------         PROC BANK=2   DHCPCRECEIVEACK
 C2:CF7FH         LINE#         336
 C2:CF7FH         LINE#         337
 C2:CF7FH         LINE#         346
 C2:CF82H         LINE#         347
 C2:CF88H         LINE#         348
 C2:CF8BH         LINE#         349
 C2:CF91H         LINE#         350
 C2:CF91H         LINE#         352
 C2:CFA9H         LINE#         354
 C2:CFC5H         LINE#         355
 C2:CFD3H         LINE#         356
 C2:CFD9H         LINE#         357
 C2:CFE2H         LINE#         358
 C2:CFE2H         LINE#         359
  -------         ENDPROC       DHCPCRECEIVEACK

  -------         PROC BANK=2   DHCPCRECEIVENACK
 C2:D774H         LINE#         372
 C2:D774H         LINE#         373
 C2:D774H         LINE#         374
 C2:D77AH         LINE#         375
  -------         ENDPROC       DHCPCRECEIVENACK

  -------         PROC BANK=2   DHCPCTIMER
 C2:BE90H         LINE#         389
 C2:BE90H         LINE#         390
 C2:BE90H         LINE#         392
 C2:BEA5H         LINE#         393
 C2:BEAFH         LINE#         395
 C2:BEC3H         LINE#         396
 C2:BEC3H         LINE#         397
 C2:BEC3H         LINE#         398
 C2:BEC6H         LINE#         399
 C2:BEC6H         LINE#         400
 C2:BEC6H         LINE#         401
 C2:BEE5H         LINE#         402
 C2:BEEBH         LINE#         403
 C2:BEEBH         LINE#         404
BL51 BANKED LINKER/LOCATER V6.00                                                      12/23/2015  16:04:37  PAGE 209


 C2:BF1AH         LINE#         405
 C2:BF1FH         LINE#         406
 C2:BF1FH         LINE#         407
 C2:BF39H         LINE#         408
 C2:BF3FH         LINE#         409
 C2:BF40H         LINE#         410
 C2:BF40H         LINE#         411
 C2:BF4EH         LINE#         412
 C2:BF4EH         LINE#         413
 C2:BF52H         LINE#         414
 C2:BF58H         LINE#         415
 C2:BF58H         LINE#         416
 C2:BF58H         LINE#         417
 C2:BF58H         LINE#         418
  -------         ENDPROC       DHCPCTIMER

  -------         PROC BANK=2   DHCPC_UDP_RECEIVE
  -------         DO            
  X:378FH         SYMBOL        DHCPPkt
  D:0001H         SYMBOL        Tag
  -------         ENDDO         
 C2:C644H         LINE#         431
 C2:C644H         LINE#         432
 C2:C644H         LINE#         433
 C2:C65FH         LINE#         435
 C2:C692H         LINE#         436
 C2:C697H         LINE#         437
 C2:C69BH         LINE#         438
 C2:C6ACH         LINE#         439
 C2:C6ACH         LINE#         440
 C2:C6ACH         LINE#         441
 C2:C6B4H         LINE#         442
 C2:C6B7H         LINE#         443
 C2:C6BCH         LINE#         444
 C2:C6BCH         LINE#         445
 C2:C6BCH         LINE#         446
 C2:C6C3H         LINE#         447
 C2:C6C6H         LINE#         448
 C2:C6C9H         LINE#         449
 C2:C6CEH         LINE#         450
 C2:C6D8H         LINE#         451
 C2:C6D9H         LINE#         452
 C2:C6D9H         LINE#         453
 C2:C6E0H         LINE#         454
 C2:C6E3H         LINE#         455
 C2:C6E3H         LINE#         456
 C2:C6E3H         LINE#         458
  -------         ENDPROC       DHCPC_UDP_RECEIVE
  -------         ENDMOD        DHCPC

  -------         MODULE        NET_UART
  C:0000H         SYMBOL        _ICE_DUMMY_
  D:0080H         PUBLIC        P0
  D:0090H         PUBLIC        P1
  D:00A0H         PUBLIC        P2
  D:00B0H         PUBLIC        P3
  X:2D0AH         PUBLIC        dtr_rts_flag
BL51 BANKED LINKER/LOCATER V6.00                                                      12/23/2015  16:04:37  PAGE 210


  D:00E8H         PUBLIC        P4
  X:2D0BH         PUBLIC        RFCPkt
  D:00A8H         PUBLIC        IE
  X:2D0EH         PUBLIC        BaudrateTable
  D:00B8H         PUBLIC        IP
  X:2D83H         PUBLIC        TelnetRFC2217
  X:2D8CH         PUBLIC        local_iac
 C2:92AFH         PUBLIC        telnet_rfc
  X:2D8EH         PUBLIC        local_len
 C2:D675H         PUBLIC        NetUartTelnetClose
  D:0098H         PUBLIC        SCON
  D:0088H         PUBLIC        TCON
 C2:BCF4H         PUBLIC        NetUartOnTCPRx
  C:3BBBH         SYMBOL        _?ix1000
  C:3BC0H         SYMBOL        _?ix1001
  X:2D90H         PUBLIC        local_end_len
 C2:CB76H         PUBLIC        NetUartTimer
 C2:BC21H         PUBLIC        check_rfc2217_signal
  D:00D8H         PUBLIC        WDTCON
 C2:D76AH         PUBLIC        CHECK_210
 C2:C821H         PUBLIC        rfc_loop
 C2:D4C5H         PUBLIC        NetUartInit
  X:2D92H         PUBLIC        NetUARTData
 C2:D696H         PUBLIC        NetUartLoop
 C2:500FH         PUBLIC        com_port_option
  D:00C8H         PUBLIC        T2CON
  D:00D0H         PUBLIC        PSW

  -------         PROC BANK=2   CHECK_210
  -------         DO            
  D:0007H         SYMBOL        value
  -------         ENDDO         
 C2:D76AH         LINE#         57
 C2:D76AH         LINE#         58
 C2:D76AH         LINE#         59
 C2:D76AH         LINE#         61
 C2:D76EH         LINE#         62
 C2:D771H         LINE#         63
 C2:D773H         LINE#         64
  -------         ENDPROC       CHECK_210

  -------         PROC BANK=2   NETUARTINIT
 C2:D4C5H         LINE#         77
 C2:D4C5H         LINE#         78
 C2:D4C5H         LINE#         79
 C2:D4CAH         LINE#         80
 C2:D4D7H         LINE#         81
 C2:D4DAH         LINE#         82
 C2:D4FCH         LINE#         83
 C2:D4FCH         LINE#         84
 C2:D4FCH         LINE#         85
 C2:D4FFH         LINE#         86
 C2:D4FFH         LINE#         87
 C2:D4FFH         LINE#         88
 C2:D502H         LINE#         89
 C2:D502H         LINE#         92
 C2:D502H         LINE#         93
BL51 BANKED LINKER/LOCATER V6.00                                                      12/23/2015  16:04:37  PAGE 211


 C2:D502H         LINE#         97
 C2:D505H         LINE#         98
 C2:D505H         LINE#         100
 C2:D505H         LINE#         101
  -------         ENDPROC       NETUARTINIT

  -------         PROC BANK=2   NETUARTTELNETCLOSE
 C2:D675H         LINE#         114
 C2:D675H         LINE#         115
 C2:D675H         LINE#         116
 C2:D68FH         LINE#         117
 C2:D68FH         LINE#         118
 C2:D68FH         LINE#         119
 C2:D692H         LINE#         120
 C2:D692H         LINE#         121
 C2:D692H         LINE#         122
 C2:D695H         LINE#         123
 C2:D695H         LINE#         124
 C2:D695H         LINE#         125
  -------         ENDPROC       NETUARTTELNETCLOSE

  -------         PROC BANK=2   NETUARTONTCPRX
 C2:BCF4H         LINE#         139
 C2:BCF4H         LINE#         140
 C2:BCF4H         LINE#         141
 C2:BD12H         LINE#         142
 C2:BD12H         LINE#         143
 C2:BD12H         LINE#         144
 C2:BD12H         LINE#         146
 C2:BD18H         LINE#         147
 C2:BD18H         LINE#         148
 C2:BD4BH         LINE#         149
 C2:BD4BH         LINE#         150
 C2:BD4EH         LINE#         151
 C2:BD51H         LINE#         152
 C2:BD51H         LINE#         153
 C2:BD84H         LINE#         154
 C2:BD84H         LINE#         155
 C2:BD84H         LINE#         156
 C2:BD86H         LINE#         157
 C2:BD86H         LINE#         158
 C2:BD86H         LINE#         160
 C2:BD86H         LINE#         161
 C2:BDB9H         LINE#         162
 C2:BDB9H         LINE#         163
 C2:BDBCH         LINE#         164
 C2:BDBFH         LINE#         165
 C2:BDBFH         LINE#         166
 C2:BDBFH         LINE#         179
 C2:BDC2H         LINE#         180
 C2:BDC2H         LINE#         181
 C2:BDC4H         LINE#         182
 C2:BDC4H         LINE#         183
  -------         ENDPROC       NETUARTONTCPRX

  -------         PROC BANK=2   NETUARTLOOP
 C2:D696H         LINE#         196
BL51 BANKED LINKER/LOCATER V6.00                                                      12/23/2015  16:04:37  PAGE 212


 C2:D696H         LINE#         197
 C2:D696H         LINE#         217
 C2:D6A7H         LINE#         218
 C2:D6A7H         LINE#         219
 C2:D6AAH         LINE#         220
 C2:D6AAH         LINE#         223
 C2:D6ADH         LINE#         224
 C2:D6B0H         LINE#         225
  -------         ENDPROC       NETUARTLOOP

  -------         PROC BANK=2   NETUARTTIMER
 C2:CB76H         LINE#         242
 C2:CB76H         LINE#         243
 C2:CB76H         LINE#         255
 C2:CB90H         LINE#         256
 C2:CB90H         LINE#         257
 C2:CB90H         LINE#         258
 C2:CBA9H         LINE#         259
 C2:CBA9H         LINE#         260
 C2:CBAFH         LINE#         261
 C2:CBB5H         LINE#         263
 C2:CBB5H         LINE#         264
 C2:CBBBH         LINE#         265
 C2:CBBFH         LINE#         266
 C2:CBBFH         LINE#         267
 C2:CBBFH         LINE#         268
 C2:CBBFH         LINE#         269
 C2:CBC1H         LINE#         270
 C2:CBC1H         LINE#         271
 C2:CBD4H         LINE#         273
 C2:CBDBH         LINE#         274
 C2:CBE1H         LINE#         275
 C2:CBE7H         LINE#         276
 C2:CBECH         LINE#         277
 C2:CBECH         LINE#         278
 C2:CBEDH         LINE#         281
 C2:CBEDH         LINE#         282
 C2:CBF0H         LINE#         283
 C2:CBF0H         LINE#         284
 C2:CBF0H         LINE#         285
 C2:CBF0H         LINE#         286
 C2:CBF0H         LINE#         287
  -------         ENDPROC       NETUARTTIMER

  -------         PROC BANK=2   TELNET_RFC
  -------         DO            
  X:3792H         SYMBOL        flag
  X:3793H         SYMBOL        i
  X:3794H         SYMBOL        CMPflag
  -------         ENDDO         
 C2:92AFH         LINE#         304
 C2:92AFH         LINE#         305
 C2:92AFH         LINE#         306
 C2:92BAH         LINE#         308
 C2:92D9H         LINE#         309
 C2:92D9H         LINE#         310
 C2:92EEH         LINE#         311
BL51 BANKED LINKER/LOCATER V6.00                                                      12/23/2015  16:04:37  PAGE 213


 C2:92EEH         LINE#         312
 C2:934DH         LINE#         314
 C2:9355H         LINE#         315
 C2:9355H         LINE#         316
 C2:9366H         LINE#         317
 C2:9380H         LINE#         318
 C2:9380H         LINE#         319
 C2:93A1H         LINE#         320
 C2:93A1H         LINE#         321
 C2:93B9H         LINE#         322
 C2:93B9H         LINE#         323
 C2:9400H         LINE#         325
 C2:9400H         LINE#         326
 C2:9422H         LINE#         327
 C2:9422H         LINE#         329
 C2:942AH         LINE#         330
 C2:942AH         LINE#         332
 C2:942AH         LINE#         333
 C2:944EH         LINE#         334
 C2:944EH         LINE#         335
 C2:9463H         LINE#         336
 C2:9463H         LINE#         337
 C2:947AH         LINE#         338
 C2:948AH         LINE#         339
 C2:948AH         LINE#         340
 C2:948AH         LINE#         341
 C2:948AH         LINE#         342
 C2:949BH         LINE#         343
 C2:94E1H         LINE#         345
 C2:94F6H         LINE#         346
 C2:94FFH         LINE#         347
 C2:94FFH         LINE#         348
 C2:951CH         LINE#         349
 C2:951CH         LINE#         350
 C2:951CH         LINE#         351
 C2:9528H         LINE#         352
 C2:952CH         LINE#         354
 C2:952EH         LINE#         355
 C2:9530H         LINE#         356
 C2:9530H         LINE#         357
 C2:953FH         LINE#         358
 C2:9546H         LINE#         360
 C2:954EH         LINE#         361
 C2:9550H         LINE#         362
 C2:9550H         LINE#         363
 C2:9556H         LINE#         364
 C2:955BH         LINE#         365
 C2:955BH         LINE#         366
 C2:955BH         LINE#         367
 C2:9561H         LINE#         368
 C2:9561H         LINE#         369
 C2:9583H         LINE#         370
 C2:9589H         LINE#         371
 C2:9591H         LINE#         373
 C2:9597H         LINE#         374
 C2:9597H         LINE#         375
 C2:959AH         LINE#         376
BL51 BANKED LINKER/LOCATER V6.00                                                      12/23/2015  16:04:37  PAGE 214


 C2:95A0H         LINE#         377
 C2:95A3H         LINE#         379
 C2:95B2H         LINE#         381
  -------         ENDPROC       TELNET_RFC

  -------         PROC BANK=2   COM_PORT_OPTION
  -------         DO            
  X:2D9CH         SYMBOL        cp_data
  X:2D9FH         SYMBOL        NetUART
  X:2DA2H         SYMBOL        i
  X:2DA3H         SYMBOL        coun
  X:2DA4H         SYMBOL        j
  X:2DA5H         SYMBOL        k
  X:2DA7H         SYMBOL        tmp
  X:2DA8H         SYMBOL        parity
  X:2DADH         SYMBOL        cp_buff
  X:2E11H         SYMBOL        baudrate
  X:2E15H         SYMBOL        baudrate_table
  -------         ENDDO         
 C2:500FH         LINE#         384
 C2:500FH         LINE#         385
 C2:500FH         LINE#         386
 C2:5024H         LINE#         387
 C2:5030H         LINE#         388
 C2:5037H         LINE#         389
 C2:503BH         LINE#         391
 C2:504DH         LINE#         393
 C2:5061H         LINE#         395
 C2:5070H         LINE#         396
 C2:50A7H         LINE#         398
 C2:50C7H         LINE#         399
 C2:50C7H         LINE#         400
 C2:510FH         LINE#         401
 C2:510FH         LINE#         402
 C2:510FH         LINE#         403
 C2:512AH         LINE#         404
 C2:5130H         LINE#         405
 C2:513DH         LINE#         406
 C2:515BH         LINE#         407
 C2:51AFH         LINE#         408
 C2:51B2H         LINE#         409
 C2:51B2H         LINE#         410
 C2:51D8H         LINE#         411
 C2:51E9H         LINE#         412
 C2:51EEH         LINE#         413
 C2:51EEH         LINE#         414
 C2:5261H         LINE#         415
 C2:526CH         LINE#         416
 C2:5288H         LINE#         417
 C2:5288H         LINE#         418
 C2:52A4H         LINE#         419
 C2:52E5H         LINE#         420
 C2:52EAH         LINE#         421
 C2:52EAH         LINE#         422
 C2:5337H         LINE#         423
 C2:5341H         LINE#         424
 C2:5341H         LINE#         425
BL51 BANKED LINKER/LOCATER V6.00                                                      12/23/2015  16:04:37  PAGE 215


 C2:5353H         LINE#         426
 C2:5353H         LINE#         427
 C2:5382H         LINE#         428
 C2:53A2H         LINE#         429
 C2:53A2H         LINE#         430
 C2:53BFH         LINE#         431
 C2:53D9H         LINE#         432
 C2:53D9H         LINE#         433
 C2:53E2H         LINE#         434
 C2:53E2H         LINE#         435
 C2:53E2H         LINE#         436
 C2:5408H         LINE#         437
 C2:5419H         LINE#         438
 C2:542EH         LINE#         439
 C2:542EH         LINE#         440
 C2:5441H         LINE#         441
 C2:5444H         LINE#         443
 C2:5444H         LINE#         444
 C2:547FH         LINE#         445
 C2:5497H         LINE#         446
 C2:5497H         LINE#         447
 C2:549AH         LINE#         448
 C2:549AH         LINE#         449
 C2:54C0H         LINE#         450
 C2:54D1H         LINE#         451
 C2:54E6H         LINE#         452
 C2:54E6H         LINE#         453
 C2:54F4H         LINE#         454
 C2:54F4H         LINE#         455
 C2:5514H         LINE#         456
 C2:5514H         LINE#         457
 C2:551CH         LINE#         458
 C2:5521H         LINE#         459
 C2:5524H         LINE#         461
 C2:5524H         LINE#         462
 C2:5533H         LINE#         463
 C2:5533H         LINE#         464
 C2:5567H         LINE#         465
 C2:5567H         LINE#         466
 C2:556FH         LINE#         467
 C2:55B2H         LINE#         468
 C2:55D2H         LINE#         469
 C2:55D2H         LINE#         470
 C2:55D5H         LINE#         471
 C2:55D5H         LINE#         472
 C2:55FBH         LINE#         473
 C2:560CH         LINE#         474
 C2:5621H         LINE#         475
 C2:5621H         LINE#         476
 C2:5633H         LINE#         477
 C2:5636H         LINE#         479
 C2:5636H         LINE#         480
 C2:565BH         LINE#         481
 C2:5661H         LINE#         482
 C2:567EH         LINE#         483
 C2:5683H         LINE#         484
 C2:5683H         LINE#         485
BL51 BANKED LINKER/LOCATER V6.00                                                      12/23/2015  16:04:37  PAGE 216


 C2:5686H         LINE#         486
 C2:5686H         LINE#         487
 C2:56ACH         LINE#         488
 C2:56BDH         LINE#         489
 C2:5712H         LINE#         490
 C2:5712H         LINE#         491
 C2:5712H         LINE#         492
 C2:572EH         LINE#         493
 C2:572EH         LINE#         494
 C2:5730H         LINE#         495
 C2:5730H         LINE#         496
 C2:573AH         LINE#         497
 C2:573DH         LINE#         498
 C2:573FH         LINE#         499
 C2:573FH         LINE#         500
 C2:5745H         LINE#         501
 C2:5745H         LINE#         502
 C2:5747H         LINE#         503
 C2:5747H         LINE#         504
 C2:574DH         LINE#         505
 C2:574DH         LINE#         506
 C2:574FH         LINE#         507
 C2:574FH         LINE#         508
 C2:5759H         LINE#         509
 C2:5772H         LINE#         510
 C2:5775H         LINE#         511
 C2:5775H         LINE#         512
 C2:577BH         LINE#         513
 C2:577BH         LINE#         514
 C2:577DH         LINE#         515
 C2:577DH         LINE#         516
 C2:5787H         LINE#         517
 C2:578CH         LINE#         518
 C2:578FH         LINE#         519
 C2:578FH         LINE#         520
 C2:578FH         LINE#         521
 C2:578FH         LINE#         522
 C2:578FH         LINE#         523
 C2:578FH         LINE#         524
 C2:578FH         LINE#         525
 C2:57A7H         LINE#         527
 C2:57ACH         LINE#         528
 C2:57AFH         LINE#         529
 C2:57AFH         LINE#         530
 C2:57AFH         LINE#         531
 C2:57C8H         LINE#         532
 C2:57CEH         LINE#         533
 C2:57D1H         LINE#         534
 C2:57D1H         LINE#         535
 C2:57D1H         LINE#         536
 C2:57D1H         LINE#         537
 C2:57F7H         LINE#         538
 C2:5808H         LINE#         540
 C2:580BH         LINE#         541
 C2:580BH         LINE#         542
 C2:5831H         LINE#         543
 C2:5842H         LINE#         545
BL51 BANKED LINKER/LOCATER V6.00                                                      12/23/2015  16:04:37  PAGE 217


 C2:5845H         LINE#         546
 C2:5845H         LINE#         547
 C2:5868H         LINE#         548
 C2:5879H         LINE#         550
 C2:587BH         LINE#         551
 C2:587BH         LINE#         552
 C2:589EH         LINE#         553
 C2:58AFH         LINE#         555
 C2:58B1H         LINE#         556
 C2:58B1H         LINE#         557
 C2:58D3H         LINE#         558
 C2:58E4H         LINE#         560
 C2:58E4H         LINE#         561
 C2:58E4H         LINE#         562
 C2:58F5H         LINE#         563
 C2:58F8H         LINE#         564
 C2:591EH         LINE#         565
 C2:593EH         LINE#         566
 C2:594DH         LINE#         568
  -------         ENDPROC       COM_PORT_OPTION

  -------         PROC BANK=2   RFC_LOOP
  -------         DO            
  D:0007H         SYMBOL        value
  D:0006H         SYMBOL        old
  -------         ENDDO         
 C2:C821H         LINE#         570
 C2:C821H         LINE#         571
 C2:C821H         LINE#         572
 C2:C826H         LINE#         573
 C2:C82BH         LINE#         575
 C2:C831H         LINE#         576
 C2:C832H         LINE#         577
 C2:C839H         LINE#         578
 C2:C839H         LINE#         579
 C2:C843H         LINE#         580
 C2:C843H         LINE#         581
 C2:C849H         LINE#         582
 C2:C84DH         LINE#         583
 C2:C852H         LINE#         585
 C2:C858H         LINE#         586
 C2:C858H         LINE#         587
 C2:C865H         LINE#         588
 C2:C865H         LINE#         589
 C2:C86BH         LINE#         590
 C2:C86FH         LINE#         591
 C2:C874H         LINE#         593
 C2:C87AH         LINE#         594
 C2:C87AH         LINE#         595
 C2:C887H         LINE#         596
 C2:C887H         LINE#         597
 C2:C88DH         LINE#         598
 C2:C891H         LINE#         599
 C2:C896H         LINE#         601
 C2:C89CH         LINE#         602
 C2:C89CH         LINE#         603
 C2:C8A9H         LINE#         604
BL51 BANKED LINKER/LOCATER V6.00                                                      12/23/2015  16:04:37  PAGE 218


 C2:C8A9H         LINE#         605
 C2:C8AFH         LINE#         606
 C2:C8B3H         LINE#         607
 C2:C8B7H         LINE#         609
 C2:C8BDH         LINE#         610
 C2:C8BDH         LINE#         611
 C2:C8BDH         LINE#         612
  -------         ENDPROC       RFC_LOOP

  -------         PROC BANK=2   CHECK_RFC2217_SIGNAL
  -------         DO            
  X:363FH         SYMBOL        pkt_signal
  -------         ENDDO         
 C2:BC21H         LINE#         614
 C2:BC21H         LINE#         615
 C2:BC21H         LINE#         616
 C2:BC34H         LINE#         618
 C2:BC58H         LINE#         619
 C2:BC58H         LINE#         620
 C2:BC5EH         LINE#         621
 C2:BC61H         LINE#         622
 C2:BC61H         LINE#         623
 C2:BC66H         LINE#         624
 C2:BC6FH         LINE#         625
 C2:BC72H         LINE#         626
 C2:BC72H         LINE#         627
 C2:BC79H         LINE#         628
 C2:BC79H         LINE#         629
 C2:BC7BH         LINE#         630
 C2:BC88H         LINE#         631
 C2:BC8BH         LINE#         632
 C2:BC8BH         LINE#         633
 C2:BC92H         LINE#         634
 C2:BC92H         LINE#         635
 C2:BC94H         LINE#         636
 C2:BCA1H         LINE#         637
 C2:BCA4H         LINE#         638
 C2:BCA4H         LINE#         639
 C2:BCABH         LINE#         640
 C2:BCABH         LINE#         641
 C2:BCADH         LINE#         642
 C2:BCBCH         LINE#         643
 C2:BCBFH         LINE#         644
 C2:BCBFH         LINE#         645
 C2:BCDBH         LINE#         646
 C2:BCE4H         LINE#         647
 C2:BCF3H         LINE#         648
 C2:BCF3H         LINE#         650
  -------         ENDPROC       CHECK_RFC2217_SIGNAL
  -------         ENDMOD        NET_UART

  -------         MODULE        GPIO
  C:0000H         SYMBOL        _ICE_DUMMY_
  -------         ENDMOD        GPIO

  -------         MODULE        DNS
  C:0000H         SYMBOL        _ICE_DUMMY_
BL51 BANKED LINKER/LOCATER V6.00                                                      12/23/2015  16:04:37  PAGE 219


  D:0080H         PUBLIC        P0
  D:0090H         PUBLIC        P1
  D:00A0H         PUBLIC        P2
  D:00B0H         PUBLIC        P3
  D:00E8H         PUBLIC        P4
  D:00A8H         PUBLIC        IE
 C2:B4C3H         PUBLIC        DNS_UDP_RECEIVE
  D:00B8H         PUBLIC        IP
 C2:CBF1H         PUBLIC        _DNS_Result
  D:0098H         PUBLIC        SCON
  D:0088H         PUBLIC        TCON
 C2:8C3DH         PUBLIC        _DNS_Query
  C:3C3BH         SYMBOL        _?ix1000
  C:3C47H         SYMBOL        _?ix1001
  D:00D8H         PUBLIC        WDTCON
  D:00C8H         PUBLIC        T2CON
  X:3560H         PUBLIC        DNSInfo
  D:00D0H         PUBLIC        PSW

  -------         PROC BANK=2   _DNS_QUERY
  X:32CCH         SYMBOL        name
  X:32CFH         SYMBOL        TimeOut
  -------         DO            
  X:32D1H         SYMBOL        pData
  X:32D4H         SYMBOL        i
  X:32D5H         SYMBOL        j
  X:32D6H         SYMBOL        IsIPAddrStr
  X:32D7H         SYMBOL        cnt
  X:32D8H         SYMBOL        pLastLen
  X:32DBH         SYMBOL        Len
  X:32DCH         SYMBOL        buf
  X:32E0H         SYMBOL        DNS_QUERY_TEMP
  X:32ECH         SYMBOL        DNS_QUERY_TEMP2
  -------         ENDDO         
 C2:8C3DH         LINE#         43
 C2:8C4EH         LINE#         44
 C2:8C4EH         LINE#         45
 C2:8C69H         LINE#         46
 C2:8C6FH         LINE#         49
 C2:8C81H         LINE#         57
 C2:8C94H         LINE#         62
 C2:8CB6H         LINE#         63
 C2:8CB6H         LINE#         64
 C2:8CDDH         LINE#         65
 C2:8CDDH         LINE#         66
 C2:8CE7H         LINE#         67
 C2:8CE7H         LINE#         68
 C2:8CEFH         LINE#         70
 C2:8CF2H         LINE#         75
 C2:8D07H         LINE#         76
 C2:8D0FH         LINE#         77
 C2:8D1EH         LINE#         79
 C2:8D27H         LINE#         80
 C2:8D27H         LINE#         81
 C2:8D2DH         LINE#         82
 C2:8D32H         LINE#         83
 C2:8D32H         LINE#         84
BL51 BANKED LINKER/LOCATER V6.00                                                      12/23/2015  16:04:37  PAGE 220


 C2:8D37H         LINE#         85
 C2:8D37H         LINE#         86
 C2:8D56H         LINE#         87
 C2:8D56H         LINE#         88
 C2:8D75H         LINE#         89
 C2:8D75H         LINE#         90
 C2:8D84H         LINE#         91
 C2:8D86H         LINE#         92
 C2:8D86H         LINE#         94
 C2:8D86H         LINE#         95
 C2:8DB1H         LINE#         96
 C2:8DB1H         LINE#         97
 C2:8DB9H         LINE#         98
 C2:8DD5H         LINE#         99
 C2:8DE4H         LINE#         101
 C2:8DE7H         LINE#         106
 C2:8DE7H         LINE#         108
 C2:8DE7H         LINE#         109
 C2:8E03H         LINE#         110
 C2:8E0DH         LINE#         112
 C2:8E27H         LINE#         113
 C2:8E2AH         LINE#         114
 C2:8E55H         LINE#         115
 C2:8E55H         LINE#         116
 C2:8E74H         LINE#         117
 C2:8E74H         LINE#         118
 C2:8E88H         LINE#         119
 C2:8E9DH         LINE#         120
 C2:8EA0H         LINE#         121
 C2:8EA2H         LINE#         123
 C2:8EA2H         LINE#         124
 C2:8EA8H         LINE#         125
 C2:8ECFH         LINE#         126
 C2:8ECFH         LINE#         127
 C2:8ED9H         LINE#         128
 C2:8EE2H         LINE#         129
 C2:8EF4H         LINE#         130
 C2:8F10H         LINE#         132
 C2:8F13H         LINE#         138
 C2:8F22H         LINE#         139
 C2:8F31H         LINE#         140
 C2:8F40H         LINE#         141
 C2:8F4FH         LINE#         142
 C2:8F58H         LINE#         143
 C2:8F60H         LINE#         144
 C2:8F78H         LINE#         145
 C2:8F78H         LINE#         146
  -------         ENDPROC       _DNS_QUERY

  -------         PROC BANK=2   DNS_UDP_RECEIVE
  -------         DO            
  X:34D3H         SYMBOL        i
  X:34D5H         SYMBOL        pDNSPacket
  X:34D8H         SYMBOL        pAnswers
  X:34DBH         SYMBOL        pAnswerFormat
  -------         ENDDO         
 C2:B4C3H         LINE#         159
BL51 BANKED LINKER/LOCATER V6.00                                                      12/23/2015  16:04:37  PAGE 221


 C2:B4C3H         LINE#         160
 C2:B4C3H         LINE#         162
 C2:B4DEH         LINE#         163
 C2:B4EDH         LINE#         165
 C2:B505H         LINE#         167
 C2:B52CH         LINE#         168
 C2:B52CH         LINE#         170
 C2:B52FH         LINE#         175
 C2:B54BH         LINE#         176
 C2:B555H         LINE#         177
 C2:B565H         LINE#         178
 C2:B58CH         LINE#         179
 C2:B58CH         LINE#         181
 C2:B58FH         LINE#         186
 C2:B5A3H         LINE#         187
 C2:B5AFH         LINE#         188
 C2:B5AFH         LINE#         189
 C2:B5C6H         LINE#         190
 C2:B5C6H         LINE#         191
 C2:B5E5H         LINE#         192
 C2:B5F6H         LINE#         193
  -------         ENDPROC       DNS_UDP_RECEIVE

  -------         PROC BANK=2   _DNS_RESULT
  D:0001H         SYMBOL        Name
  -------         DO            
  X:3733H         SYMBOL        result
  -------         ENDDO         
 C2:CBF1H         LINE#         206
 C2:CBF1H         LINE#         207
 C2:CBF1H         LINE#         208
 C2:CBFBH         LINE#         209
 C2:CC1FH         LINE#         210
 C2:CC1FH         LINE#         211
 C2:CC33H         LINE#         212
 C2:CC3DH         LINE#         213
 C2:CC3DH         LINE#         214
 C2:CC5CH         LINE#         215
 C2:CC6AH         LINE#         216
  -------         ENDPROC       _DNS_RESULT
  -------         ENDMOD        DNS

  -------         MODULE        WDG
  C:0000H         SYMBOL        _ICE_DUMMY_
  D:0090H         PUBLIC        P1
  D:00B0H         PUBLIC        P3
  B:00D8H.1       PUBLIC        WDTEN
  X:37C3H         PUBLIC        wdtwcyc
  D:00A8H         PUBLIC        IE
  X:37C4H         PUBLIC        wdt_Setting
  D:00B8H         PUBLIC        IP
 C2:D77BH         PUBLIC        WatchDogTimerReset
  D:00EFH         PUBLIC        WDTWCYC
 C2:D782H         PUBLIC        WatchDogTimerInit
  D:0098H         PUBLIC        SCON
  D:0088H         PUBLIC        TCON
  D:00D8H         PUBLIC        WDTCON
BL51 BANKED LINKER/LOCATER V6.00                                                      12/23/2015  16:04:37  PAGE 222


  B:00D8H.2       PUBLIC        WDTCLR
 C2:D795H         PUBLIC        WatchDogTimerDisable
 C2:D753H         PUBLIC        WatchDogTimerEnable
  D:00C8H         PUBLIC        T2CON
  B:00D8H.0       PUBLIC        WDTRST
  D:008EH         PUBLIC        CKCON
  D:00D0H         PUBLIC        PSW

  -------         PROC BANK=2   WATCHDOGTIMERENABLE
 C2:D753H         LINE#         18
 C2:D753H         LINE#         19
 C2:D753H         LINE#         20
 C2:D75AH         LINE#         21
 C2:D75AH         LINE#         22
 C2:D75CH         LINE#         23
 C2:D75DH         LINE#         25
 C2:D75DH         LINE#         26
 C2:D75FH         LINE#         27
 C2:D75FH         LINE#         28
  -------         ENDPROC       WATCHDOGTIMERENABLE

  -------         PROC BANK=2   WATCHDOGTIMERDISABLE
 C2:D795H         LINE#         41
 C2:D795H         LINE#         42
 C2:D795H         LINE#         43
 C2:D797H         LINE#         44
  -------         ENDPROC       WATCHDOGTIMERDISABLE

  -------         PROC BANK=2   WATCHDOGTIMERRESET
 C2:D77BH         LINE#         56
 C2:D77BH         LINE#         57
 C2:D77BH         LINE#         58
 C2:D77DH         LINE#         59
 C2:D781H         LINE#         60
  -------         ENDPROC       WATCHDOGTIMERRESET

  -------         PROC BANK=2   WATCHDOGTIMERINIT
 C2:D782H         LINE#         72
 C2:D782H         LINE#         73
 C2:D782H         LINE#         75
 C2:D785H         LINE#         77
 C2:D788H         LINE#         78
  -------         ENDPROC       WATCHDOGTIMERINIT
  -------         ENDMOD        WDG

  -------         MODULE        UDP_TEL
  C:0000H         SYMBOL        _ICE_DUMMY_
  X:3029H         PUBLIC        udp_dns_count
  D:0080H         PUBLIC        P0
  D:0090H         PUBLIC        P1
  D:00A0H         PUBLIC        P2
  D:00B0H         PUBLIC        P3
  D:00E8H         PUBLIC        P4
  X:302AH         PUBLIC        udp_send_pkt
 C2:9B3FH         PUBLIC        udp_tel_init
  D:00A8H         PUBLIC        IE
 C2:9DE6H         PUBLIC        udp_get_dns
BL51 BANKED LINKER/LOCATER V6.00                                                      12/23/2015  16:04:37  PAGE 223


 C2:D442H         PUBLIC        UDP_TEL_Timer
 C2:B93EH         PUBLIC        udp_tel_updata_ip_aval
 C2:A922H         PUBLIC        udp_tel_chk_send
  D:00B8H         PUBLIC        IP
  X:302BH         PUBLIC        udp_nor_brcst_port
  D:0098H         PUBLIC        SCON
  D:0088H         PUBLIC        TCON
  X:302DH         PUBLIC        port_learn
 C2:A515H         PUBLIC        udp_tel_rx
 C2:D71CH         PUBLIC        _get_bit
  C:3C84H         SYMBOL        _?ix1000
 C2:AE61H         PUBLIC        _udp_tel_getip
 C2:C6EBH         PUBLIC        _set_bit
 C2:C022H         PUBLIC        new_block_init
  D:00D8H         PUBLIC        WDTCON
 C2:88F6H         PUBLIC        udp_tel_send_one_pkt
  X:3041H         PUBLIC        udp_check_ip
  D:00C8H         PUBLIC        T2CON
  X:3069H         PUBLIC        udp_tel_data
  X:3081H         PUBLIC        udp_dns
 C2:C2FBH         PUBLIC        udp_learn_ip
  D:00D0H         PUBLIC        PSW
  X:3082H         PUBLIC        udp_nor_brcst

  -------         PROC BANK=2   _GET_BIT
  D:0001H         SYMBOL        value
  X:37D5H         SYMBOL        offset
 C2:D71CH         LINE#         63
 C2:D721H         LINE#         64
 C2:D721H         LINE#         65
 C2:D731H         LINE#         66
  -------         ENDPROC       _GET_BIT
  -------         PROC          L?0163
  -------         ENDPROC       L?0163

  -------         PROC BANK=2   _SET_BIT
  X:3569H         SYMBOL        value
  D:0005H         SYMBOL        offset
  X:356DH         SYMBOL        set_value
  -------         DO            
  X:356EH         SYMBOL        tmp
  -------         ENDDO         
 C2:C6EBH         LINE#         68
 C2:C6F6H         LINE#         69
 C2:C6F6H         LINE#         70
 C2:C715H         LINE#         71
 C2:C71EH         LINE#         72
 C2:C71EH         LINE#         73
 C2:C749H         LINE#         74
 C2:C74BH         LINE#         76
 C2:C74BH         LINE#         77
 C2:C782H         LINE#         78
 C2:C782H         LINE#         79
  -------         ENDPROC       _SET_BIT

  -------         PROC BANK=2   UDP_TEL_UPDATA_IP_AVAL
  -------         DO            
BL51 BANKED LINKER/LOCATER V6.00                                                      12/23/2015  16:04:37  PAGE 224


  X:36AFH         SYMBOL        i
  X:36B0H         SYMBOL        valid
  X:36B1H         SYMBOL        tmp
  -------         ENDDO         
 C2:B93EH         LINE#         81
 C2:B93EH         LINE#         82
 C2:B93EH         LINE#         83
 C2:B943H         LINE#         84
 C2:B94BH         LINE#         85
 C2:B955H         LINE#         86
 C2:B95AH         LINE#         87
 C2:B95AH         LINE#         89
 C2:B95DH         LINE#         95
 C2:B987H         LINE#         99
 C2:B987H         LINE#         100
 C2:B9B5H         LINE#         102
 C2:B9CCH         LINE#         103
 C2:B9CCH         LINE#         105
 C2:B9F4H         LINE#         109
 C2:B9F4H         LINE#         110
 C2:BA12H         LINE#         111
 C2:BA18H         LINE#         112
 C2:BA18H         LINE#         113
 C2:BA18H         LINE#         115
 C2:BA18H         LINE#         116
 C2:BA31H         LINE#         117
 C2:BA40H         LINE#         118
  -------         ENDPROC       UDP_TEL_UPDATA_IP_AVAL

  -------         PROC BANK=2   UDP_TEL_INIT
  -------         DO            
  X:37D6H         SYMBOL        i
  -------         ENDDO         
 C2:9B3FH         LINE#         120
 C2:9B3FH         LINE#         121
 C2:9B3FH         LINE#         125
 C2:9B4DH         LINE#         126
 C2:9B68H         LINE#         127
 C2:9B81H         LINE#         129
 C2:9B86H         LINE#         131
 C2:9B8AH         LINE#         132
 C2:9B8CH         LINE#         133
 C2:9B8EH         LINE#         135
 C2:9B91H         LINE#         136
 C2:9BB7H         LINE#         137
 C2:9BCBH         LINE#         138
 C2:9BDFH         LINE#         139
 C2:9BE9H         LINE#         140
 C2:9BEEH         LINE#         141
 C2:9C00H         LINE#         142
 C2:9C0DH         LINE#         143
 C2:9C14H         LINE#         144
 C2:9C1DH         LINE#         145
 C2:9C27H         LINE#         146
 C2:9C52H         LINE#         147
 C2:9C81H         LINE#         149
 C2:9CA1H         LINE#         150
BL51 BANKED LINKER/LOCATER V6.00                                                      12/23/2015  16:04:37  PAGE 225


 C2:9CA1H         LINE#         151
 C2:9CB3H         LINE#         152
 C2:9CB3H         LINE#         153
 C2:9CD2H         LINE#         154
 C2:9CE9H         LINE#         155
 C2:9CFCH         LINE#         156
 C2:9D0FH         LINE#         157
 C2:9D17H         LINE#         158
 C2:9D17H         LINE#         160
 C2:9D17H         LINE#         161
 C2:9D29H         LINE#         162
 C2:9D29H         LINE#         163
 C2:9D3EH         LINE#         164
 C2:9D3EH         LINE#         165
 C2:9D6AH         LINE#         166
 C2:9D96H         LINE#         167
 C2:9DDCH         LINE#         168
 C2:9DDCH         LINE#         169
 C2:9DE5H         LINE#         170
 C2:9DE5H         LINE#         180
  -------         ENDPROC       UDP_TEL_INIT

  -------         PROC BANK=2   _UDP_TEL_GETIP
  X:3646H         SYMBOL        ip
  X:3649H         SYMBOL        port
  -------         DO            
  X:364CH         SYMBOL        result
  -------         ENDDO         
 C2:AE61H         LINE#         196
 C2:AE6CH         LINE#         197
 C2:AE6CH         LINE#         198
 C2:AE71H         LINE#         200
 C2:AE7DH         LINE#         201
 C2:AE7DH         LINE#         203
 C2:AE80H         LINE#         209
 C2:AEB2H         LINE#         210
 C2:AEE0H         LINE#         215
 C2:AF01H         LINE#         216
 C2:AF01H         LINE#         217
 C2:AF18H         LINE#         218
 C2:AF36H         LINE#         220
 C2:AF44H         LINE#         221
 C2:AF46H         LINE#         223
 C2:AF76H         LINE#         225
 C2:AF88H         LINE#         226
 C2:AF88H         LINE#         227
 C2:AF88H         LINE#         228
 C2:AF8AH         LINE#         229
 C2:AF8AH         LINE#         230
 C2:AF9BH         LINE#         231
 C2:AF9BH         LINE#         232
 C2:AFA1H         LINE#         233
 C2:AFA4H         LINE#         234
 C2:AFA4H         LINE#         235
 C2:AFAAH         LINE#         236
 C2:AFAAH         LINE#         237
 C2:AFAAH         LINE#         238
BL51 BANKED LINKER/LOCATER V6.00                                                      12/23/2015  16:04:37  PAGE 226


 C2:AFAFH         LINE#         239
  -------         ENDPROC       _UDP_TEL_GETIP

  -------         PROC BANK=2   UDP_TEL_SEND_ONE_PKT
  -------         DO            
  X:36F8H         SYMBOL        j
  X:36F9H         SYMBOL        i
  X:36FAH         SYMBOL        old_buf
  -------         ENDDO         
 C2:88F6H         LINE#         247
 C2:88F6H         LINE#         248
 C2:88F6H         LINE#         249
 C2:88FDH         LINE#         252
 C2:8900H         LINE#         258
 C2:8909H         LINE#         259
 C2:8909H         LINE#         261
 C2:8918H         LINE#         262
 C2:8927H         LINE#         263
 C2:892FH         LINE#         264
 C2:8933H         LINE#         266
 C2:893DH         LINE#         267
 C2:8955H         LINE#         268
 C2:8964H         LINE#         269
 C2:897CH         LINE#         271
 C2:898AH         LINE#         273
 C2:899EH         LINE#         277
 C2:89B4H         LINE#         279
 C2:89BDH         LINE#         283
 C2:89C7H         LINE#         284
 C2:89C7H         LINE#         285
 C2:89CAH         LINE#         287
 C2:89D0H         LINE#         288
 C2:89D0H         LINE#         289
 C2:89D9H         LINE#         290
 C2:89EBH         LINE#         291
 C2:89F1H         LINE#         292
 C2:89F3H         LINE#         294
 C2:8A04H         LINE#         298
 C2:8A0BH         LINE#         299
 C2:8A0BH         LINE#         300
 C2:8A0EH         LINE#         301
 C2:8A1CH         LINE#         302
 C2:8A6AH         LINE#         303
 C2:8A72H         LINE#         305
 C2:8A72H         LINE#         307
 C2:8A8FH         LINE#         308
 C2:8A8FH         LINE#         310
 C2:8AE6H         LINE#         312
 C2:8AE6H         LINE#         313
 C2:8AEAH         LINE#         314
 C2:8AEAH         LINE#         316
 C2:8AEDH         LINE#         321
 C2:8B2FH         LINE#         322
 C2:8B2FH         LINE#         323
 C2:8B3BH         LINE#         324
 C2:8B3BH         LINE#         327
 C2:8B4AH         LINE#         328
BL51 BANKED LINKER/LOCATER V6.00                                                      12/23/2015  16:04:37  PAGE 227


 C2:8B59H         LINE#         330
 C2:8B68H         LINE#         331
 C2:8B80H         LINE#         333
 C2:8B83H         LINE#         339
 C2:8B83H         LINE#         342
 C2:8B97H         LINE#         346
 C2:8BADH         LINE#         348
 C2:8BB6H         LINE#         352
 C2:8BC0H         LINE#         353
 C2:8BC0H         LINE#         354
 C2:8BC3H         LINE#         356
 C2:8BC6H         LINE#         362
 C2:8BCCH         LINE#         363
 C2:8BCCH         LINE#         364
 C2:8BD5H         LINE#         365
 C2:8BE7H         LINE#         366
 C2:8BEDH         LINE#         367
 C2:8BEFH         LINE#         369
 C2:8C00H         LINE#         374
 C2:8C03H         LINE#         379
 C2:8C0BH         LINE#         380
 C2:8C0BH         LINE#         381
 C2:8C18H         LINE#         382
 C2:8C18H         LINE#         383
 C2:8C1EH         LINE#         384
 C2:8C25H         LINE#         385
 C2:8C25H         LINE#         386
 C2:8C28H         LINE#         387
 C2:8C36H         LINE#         392
 C2:8C39H         LINE#         397
 C2:8C39H         LINE#         399
 C2:8C3CH         LINE#         404
  -------         ENDPROC       UDP_TEL_SEND_ONE_PKT

  -------         PROC BANK=2   NEW_BLOCK_INIT
  -------         DO            
  X:3795H         SYMBOL        old_buf
  -------         ENDDO         
 C2:C022H         LINE#         406
 C2:C022H         LINE#         407
 C2:C022H         LINE#         410
 C2:C025H         LINE#         415
 C2:C02AH         LINE#         417
 C2:C037H         LINE#         420
 C2:C041H         LINE#         421
 C2:C046H         LINE#         422
 C2:C04BH         LINE#         424
 C2:C05EH         LINE#         429
 C2:C061H         LINE#         434
 C2:C07CH         LINE#         435
 C2:C07FH         LINE#         436
 C2:C08DH         LINE#         437
 C2:C0A8H         LINE#         439
 C2:C0CEH         LINE#         440
 C2:C0E2H         LINE#         441
  -------         ENDPROC       NEW_BLOCK_INIT

BL51 BANKED LINKER/LOCATER V6.00                                                      12/23/2015  16:04:37  PAGE 228


  -------         PROC BANK=2   UDP_TEL_CHK_SEND
 C2:A922H         LINE#         443
 C2:A922H         LINE#         444
 C2:A922H         LINE#         445
 C2:A929H         LINE#         447
 C2:A936H         LINE#         448
 C2:A936H         LINE#         450
 C2:A939H         LINE#         456
 C2:A93FH         LINE#         457
 C2:A93FH         LINE#         458
 C2:A947H         LINE#         459
 C2:A947H         LINE#         460
 C2:A955H         LINE#         461
 C2:A95BH         LINE#         462
 C2:A95BH         LINE#         463
 C2:A95BH         LINE#         466
 C2:A972H         LINE#         467
 C2:A972H         LINE#         469
 C2:A99EH         LINE#         473
 C2:A99EH         LINE#         475
 C2:A9A1H         LINE#         478
 C2:A9A1H         LINE#         479
 C2:A9A1H         LINE#         482
 C2:A9A4H         LINE#         487
 C2:A9AAH         LINE#         488
 C2:A9ADH         LINE#         490
 C2:A9B0H         LINE#         492
 C2:A9C7H         LINE#         493
 C2:A9C7H         LINE#         494
 C2:A9CDH         LINE#         495
 C2:A9CDH         LINE#         496
 C2:A9D0H         LINE#         498
 C2:A9D5H         LINE#         499
 C2:A9D8H         LINE#         502
 C2:A9D8H         LINE#         503
 C2:A9D8H         LINE#         505
 C2:A9FBH         LINE#         506
 C2:A9FBH         LINE#         507
 C2:AA07H         LINE#         508
 C2:AA07H         LINE#         509
 C2:AA49H         LINE#         510
 C2:AA49H         LINE#         511
 C2:AA97H         LINE#         512
 C2:AA97H         LINE#         513
 C2:AA97H         LINE#         514
 C2:AA99H         LINE#         516
 C2:AA99H         LINE#         517
 C2:AA9EH         LINE#         518
 C2:AA9EH         LINE#         519
 C2:AA9EH         LINE#         520
 C2:AAA0H         LINE#         522
 C2:AAA0H         LINE#         524
 C2:AAA3H         LINE#         529
 C2:AAA6H         LINE#         530
 C2:AAA6H         LINE#         531
 C2:AAA8H         LINE#         533
 C2:AAA8H         LINE#         534
BL51 BANKED LINKER/LOCATER V6.00                                                      12/23/2015  16:04:37  PAGE 229


 C2:AAF6H         LINE#         535
 C2:AAFDH         LINE#         536
 C2:AB01H         LINE#         538
 C2:AB01H         LINE#         540
 C2:AB06H         LINE#         541
 C2:AB0AH         LINE#         543
 C2:AB0AH         LINE#         544
  -------         ENDPROC       UDP_TEL_CHK_SEND

  -------         PROC BANK=2   UDP_TEL_RX
  -------         DO            
  X:36B5H         SYMBOL        i
  X:36B6H         SYMBOL        valid
  X:36B7H         SYMBOL        ip
  -------         ENDDO         
 C2:A515H         LINE#         547
 C2:A515H         LINE#         548
 C2:A515H         LINE#         549
 C2:A51AH         LINE#         551
 C2:A52CH         LINE#         554
 C2:A52FH         LINE#         559
 C2:A55CH         LINE#         560
 C2:A55CH         LINE#         562
 C2:A55CH         LINE#         564
 C2:A573H         LINE#         565
 C2:A579H         LINE#         566
 C2:A594H         LINE#         567
 C2:A594H         LINE#         568
 C2:A59AH         LINE#         569
 C2:A59AH         LINE#         570
 C2:A5C5H         LINE#         571
 C2:A5C5H         LINE#         573
 C2:A5C8H         LINE#         575
 C2:A5CBH         LINE#         580
 C2:A5CEH         LINE#         582
 C2:A5CEH         LINE#         583
 C2:A5D3H         LINE#         584
 C2:A5D3H         LINE#         586
 C2:A5D6H         LINE#         592
 C2:A5EDH         LINE#         593
 C2:A5EDH         LINE#         594
 C2:A613H         LINE#         595
 C2:A62EH         LINE#         596
 C2:A630H         LINE#         598
 C2:A630H         LINE#         599
 C2:A659H         LINE#         600
 C2:A669H         LINE#         601
 C2:A669H         LINE#         602
 C2:A687H         LINE#         603
 C2:A687H         LINE#         604
 C2:A69AH         LINE#         605
 C2:A6A2H         LINE#         606
 C2:A6A2H         LINE#         614
 C2:A6B1H         LINE#         615
 C2:A6B7H         LINE#         616
 C2:A6B7H         LINE#         617
 C2:A6E5H         LINE#         618
BL51 BANKED LINKER/LOCATER V6.00                                                      12/23/2015  16:04:37  PAGE 230


 C2:A6F9H         LINE#         619
 C2:A6F9H         LINE#         621
 C2:A6F9H         LINE#         622
 C2:A6F9H         LINE#         623
 C2:A6F9H         LINE#         665
 C2:A6F9H         LINE#         666
 C2:A708H         LINE#         668
 C2:A70BH         LINE#         678
 C2:A712H         LINE#         679
 C2:A712H         LINE#         681
 C2:A71BH         LINE#         683
 C2:A722H         LINE#         684
 C2:A722H         LINE#         685
 C2:A725H         LINE#         686
 C2:A728H         LINE#         690
 C2:A72AH         LINE#         691
 C2:A72AH         LINE#         692
 C2:A731H         LINE#         693
  -------         ENDPROC       UDP_TEL_RX

  -------         PROC BANK=2   UDP_LEARN_IP
 C2:C2FBH         LINE#         695
 C2:C2FBH         LINE#         696
 C2:C2FBH         LINE#         698
 C2:C2FEH         LINE#         704
 C2:C31BH         LINE#         705
 C2:C334H         LINE#         706
 C2:C375H         LINE#         711
 C2:C37DH         LINE#         712
 C2:C37DH         LINE#         713
 C2:C39DH         LINE#         714
 C2:C3A5H         LINE#         715
 C2:C3A5H         LINE#         717
  -------         ENDPROC       UDP_LEARN_IP

  -------         PROC BANK=2   UDP_TEL_TIMER
 C2:D442H         LINE#         724
 C2:D442H         LINE#         726
 C2:D45FH         LINE#         731
 C2:D45FH         LINE#         733
 C2:D463H         LINE#         734
 C2:D469H         LINE#         735
 C2:D471H         LINE#         736
 C2:D471H         LINE#         737
 C2:D474H         LINE#         738
 C2:D477H         LINE#         739
 C2:D477H         LINE#         742
 C2:D477H         LINE#         744
 C2:D47AH         LINE#         749
 C2:D47DH         LINE#         750
 C2:D480H         LINE#         752
 C2:D483H         LINE#         757
 C2:D483H         LINE#         758
 C2:D483H         LINE#         759
  -------         ENDPROC       UDP_TEL_TIMER

  -------         PROC BANK=2   UDP_GET_DNS
BL51 BANKED LINKER/LOCATER V6.00                                                      12/23/2015  16:04:37  PAGE 231


  -------         DO            
  X:36FDH         SYMBOL        result
  X:36FEH         SYMBOL        get_ip
  -------         ENDDO         
 C2:9DE6H         LINE#         766
 C2:9DE6H         LINE#         767
 C2:9DE6H         LINE#         768
 C2:9DECH         LINE#         769
 C2:9DF4H         LINE#         772
 C2:9E0FH         LINE#         776
 C2:9E0FH         LINE#         777
 C2:9E1CH         LINE#         778
 C2:9E1CH         LINE#         779
 C2:9E33H         LINE#         780
 C2:9E33H         LINE#         781
 C2:9E56H         LINE#         782
 C2:9E56H         LINE#         783
 C2:9E71H         LINE#         784
 C2:9E8BH         LINE#         785
 C2:9E8BH         LINE#         786
 C2:9E9BH         LINE#         787
 C2:9E9BH         LINE#         788
 C2:9E9DH         LINE#         789
 C2:9EA7H         LINE#         790
 C2:9EA7H         LINE#         791
 C2:9EC0H         LINE#         792
 C2:9EC2H         LINE#         793
 C2:9EC2H         LINE#         795
 C2:9EC2H         LINE#         796
 C2:9EC7H         LINE#         797
 C2:9EC7H         LINE#         798
 C2:9EC9H         LINE#         799
 C2:9EC9H         LINE#         800
 C2:9EC9H         LINE#         801
 C2:9EC9H         LINE#         802
 C2:9EE5H         LINE#         803
 C2:9EE5H         LINE#         804
 C2:9F07H         LINE#         805
 C2:9F0CH         LINE#         807
 C2:9F12H         LINE#         808
 C2:9F14H         LINE#         809
 C2:9F14H         LINE#         810
 C2:9F14H         LINE#         812
 C2:9F14H         LINE#         813
 C2:9F16H         LINE#         815
 C2:9F1CH         LINE#         816
 C2:9F1FH         LINE#         817
 C2:9F26H         LINE#         818
 C2:9F36H         LINE#         819
 C2:9F39H         LINE#         820
 C2:9F3CH         LINE#         822
 C2:9F3CH         LINE#         824
 C2:9F42H         LINE#         825
 C2:9F58H         LINE#         828
 C2:9F58H         LINE#         829
 C2:9F6BH         LINE#         830
 C2:9F77H         LINE#         832
BL51 BANKED LINKER/LOCATER V6.00                                                      12/23/2015  16:04:37  PAGE 232


 C2:9F77H         LINE#         833
 C2:9F94H         LINE#         834
 C2:9FADH         LINE#         835
 C2:9FEEH         LINE#         836
 C2:9FEEH         LINE#         837
 C2:9FEEH         LINE#         838
 C2:A008H         LINE#         839
 C2:A008H         LINE#         841
 C2:A011H         LINE#         842
 C2:A01CH         LINE#         845
 C2:A030H         LINE#         846
 C2:A032H         LINE#         847
 C2:A04BH         LINE#         848
 C2:A04BH         LINE#         849
 C2:A05FH         LINE#         851
 C2:A064H         LINE#         852
 C2:A064H         LINE#         853
 C2:A064H         LINE#         854
 C2:A069H         LINE#         855
  -------         ENDPROC       UDP_GET_DNS
  -------         ENDMOD        UDP_TEL

  -------         MODULE        NETUART_CTRL
  C:0000H         SYMBOL        _ICE_DUMMY_
  D:0080H         PUBLIC        P0
  D:0090H         PUBLIC        P1
  D:00A0H         PUBLIC        P2
  D:00B0H         PUBLIC        P3
  D:00E8H         PUBLIC        P4
  D:00A8H         PUBLIC        IE
  B:0090H.2       PUBLIC        P1_2
  B:0090H.3       PUBLIC        P1_3
  B:0090H.5       PUBLIC        P1_5
  B:0090H.6       PUBLIC        P1_6
  D:00B8H         PUBLIC        IP
  X:3572H         PUBLIC        netuart_ctrl
 C2:BDC5H         PUBLIC        nuc_on_loop
 C2:CAF6H         PUBLIC        nuc_process
 C2:CA6CH         PUBLIC        check_signal_change
  D:0098H         PUBLIC        SCON
  D:0088H         PUBLIC        TCON
  C:0006H         SYMBOL        _?ix1000
  D:00D8H         PUBLIC        WDTCON
 C2:D2C0H         PUBLIC        nuc_send
 C2:CFE3H         PUBLIC        nuc_init
  D:00C8H         PUBLIC        T2CON
  X:3576H         PUBLIC        Send_signal
 C2:BB3EH         PUBLIC        nuc_on_tcp_rx
  D:00D0H         PUBLIC        PSW

  -------         PROC BANK=2   NUC_INIT
 C2:CFE3H         LINE#         21
 C2:CFE3H         LINE#         22
 C2:CFE3H         LINE#         23
 C2:CFFDH         LINE#         24
 C2:D014H         LINE#         25
 C2:D01CH         LINE#         27
BL51 BANKED LINKER/LOCATER V6.00                                                      12/23/2015  16:04:37  PAGE 233


 C2:D021H         LINE#         28
 C2:D023H         LINE#         29
 C2:D029H         LINE#         31
 C2:D02FH         LINE#         32
 C2:D034H         LINE#         33
 C2:D038H         LINE#         35
 C2:D03CH         LINE#         36
 C2:D03EH         LINE#         37
 C2:D040H         LINE#         38
 C2:D042H         LINE#         39
  -------         ENDPROC       NUC_INIT

  -------         PROC BANK=2   NUC_SEND
  -------         DO            
  D:0001H         SYMBOL        NUC_signal
  -------         ENDDO         
 C2:D2C0H         LINE#         41
 C2:D2C0H         LINE#         42
 C2:D2C0H         LINE#         43
 C2:D2CBH         LINE#         45
 C2:D2D0H         LINE#         46
 C2:D2D3H         LINE#         48
 C2:D2D8H         LINE#         49
 C2:D2E2H         LINE#         50
 C2:D2ECH         LINE#         51
 C2:D2F6H         LINE#         53
 C2:D2FFH         LINE#         54
 C2:D30EH         LINE#         65
  -------         ENDPROC       NUC_SEND

  -------         PROC BANK=2   NUC_PROCESS
  -------         DO            
  D:0007H         SYMBOL        tmpvalue
  X:3798H         SYMBOL        Rcv_signal
  -------         ENDDO         
 C2:CAF6H         LINE#         67
 C2:CAF6H         LINE#         68
 C2:CAFBH         LINE#         69
 C2:CB11H         LINE#         71
 C2:CB15H         LINE#         72
 C2:CB1DH         LINE#         73
 C2:CB21H         LINE#         74
 C2:CB34H         LINE#         75
 C2:CB38H         LINE#         76
 C2:CB3DH         LINE#         86
 C2:CB50H         LINE#         87
 C2:CB61H         LINE#         88
 C2:CB65H         LINE#         90
 C2:CB67H         LINE#         92
 C2:CB70H         LINE#         93
 C2:CB73H         LINE#         95
 C2:CB75H         LINE#         100
 C2:CB75H         LINE#         101
  -------         ENDPROC       NUC_PROCESS

  -------         PROC BANK=2   CHECK_SIGNAL_CHANGE
  -------         DO            
BL51 BANKED LINKER/LOCATER V6.00                                                      12/23/2015  16:04:37  PAGE 234


  D:0007H         SYMBOL        tmpvalue
  -------         ENDDO         
 C2:CA6CH         LINE#         103
 C2:CA6CH         LINE#         104
 C2:CA6CH         LINE#         105
 C2:CA71H         LINE#         107
 C2:CA79H         LINE#         109
 C2:CA7EH         LINE#         110
 C2:CA85H         LINE#         111
 C2:CA87H         LINE#         112
 C2:CA8DH         LINE#         114
 C2:CA91H         LINE#         115
 C2:CA99H         LINE#         117
 C2:CA9EH         LINE#         119
 C2:CAA2H         LINE#         120
 C2:CAAAH         LINE#         122
 C2:CAAFH         LINE#         123
 C2:CAAFH         LINE#         124
 C2:CAC4H         LINE#         125
 C2:CAC6H         LINE#         126
 C2:CAD1H         LINE#         127
 C2:CAD6H         LINE#         128
 C2:CADCH         LINE#         129
 C2:CADCH         LINE#         131
 C2:CADEH         LINE#         132
 C2:CAEAH         LINE#         133
 C2:CAEFH         LINE#         134
 C2:CAF5H         LINE#         135
 C2:CAF5H         LINE#         136
 C2:CAF5H         LINE#         137
  -------         ENDPROC       CHECK_SIGNAL_CHANGE

  -------         PROC BANK=2   NUC_ON_TCP_RX
 C2:BB3EH         LINE#         139
 C2:BB3EH         LINE#         140
 C2:BB3EH         LINE#         142
 C2:BB46H         LINE#         143
 C2:BB49H         LINE#         145
 C2:BB4CH         LINE#         146
 C2:BB79H         LINE#         147
 C2:BB7CH         LINE#         148
 C2:BB7CH         LINE#         149
 C2:BB7CH         LINE#         150
 C2:BBA9H         LINE#         151
 C2:BBACH         LINE#         152
 C2:BBACH         LINE#         153
 C2:BBACH         LINE#         155
 C2:BBB3H         LINE#         156
 C2:BBB3H         LINE#         160
 C2:BBB9H         LINE#         161
 C2:BBBEH         LINE#         162
 C2:BBC2H         LINE#         163
 C2:BBC2H         LINE#         164
 C2:BBC9H         LINE#         165
 C2:BBC9H         LINE#         166
 C2:BBD0H         LINE#         167
 C2:BBD2H         LINE#         168
BL51 BANKED LINKER/LOCATER V6.00                                                      12/23/2015  16:04:37  PAGE 235


 C2:BBD2H         LINE#         169
 C2:BBD9H         LINE#         170
 C2:BBD9H         LINE#         171
 C2:BBDCH         LINE#         172
 C2:BBDCH         LINE#         173
 C2:BBE3H         LINE#         174
 C2:BBE3H         LINE#         175
 C2:BBE6H         LINE#         176
 C2:BBE6H         LINE#         177
 C2:BBEDH         LINE#         178
 C2:BBEDH         LINE#         179
 C2:BBF0H         LINE#         180
 C2:BBF7H         LINE#         181
 C2:BBFAH         LINE#         182
 C2:BBFAH         LINE#         183
 C2:BC01H         LINE#         184
 C2:BC01H         LINE#         185
 C2:BC04H         LINE#         186
 C2:BC04H         LINE#         187
 C2:BC0FH         LINE#         191
 C2:BC15H         LINE#         192
 C2:BC1AH         LINE#         193
 C2:BC1EH         LINE#         194
 C2:BC1EH         LINE#         195
 C2:BC20H         LINE#         196
  -------         ENDPROC       NUC_ON_TCP_RX

  -------         PROC BANK=2   NUC_ON_LOOP
  -------         DO            
  X:3737H         SYMBOL        ip
  -------         ENDDO         
 C2:BDC5H         LINE#         198
 C2:BDC5H         LINE#         199
 C2:BDC5H         LINE#         200
 C2:BDD8H         LINE#         202
 C2:BDEEH         LINE#         203
 C2:BDF8H         LINE#         204
 C2:BDF8H         LINE#         205
 C2:BE00H         LINE#         206
 C2:BE17H         LINE#         207
 C2:BE1DH         LINE#         211
 C2:BE1DH         LINE#         212
 C2:BE1EH         LINE#         213
 C2:BE1EH         LINE#         214
 C2:BE26H         LINE#         215
 C2:BE3FH         LINE#         216
 C2:BE5AH         LINE#         217
 C2:BE6CH         LINE#         218
 C2:BE89H         LINE#         222
 C2:BE8FH         LINE#         223
 C2:BE8FH         LINE#         224
 C2:BE8FH         LINE#         225
 C2:BE8FH         LINE#         226
 C2:BE8FH         LINE#         227
 C2:BE8FH         LINE#         228
 C2:BE8FH         LINE#         229
 C2:BE8FH         LINE#         230
BL51 BANKED LINKER/LOCATER V6.00                                                      12/23/2015  16:04:37  PAGE 236


  -------         ENDPROC       NUC_ON_LOOP
  -------         ENDMOD        NETUART_CTRL

  -------         MODULE        DIDO
  C:0000H         SYMBOL        _ICE_DUMMY_
  -------         ENDMOD        DIDO

  -------         MODULE        NET_CMD
  C:0000H         SYMBOL        _ICE_DUMMY_
 C5:7967H         PUBLIC        CheckConnID
  D:0080H         PUBLIC        P0
  D:0090H         PUBLIC        P1
 C5:65A7H         PUBLIC        MPProcess
  D:00A0H         PUBLIC        P2
  D:00B0H         PUBLIC        P3
  D:00E8H         PUBLIC        P4
 C5:7B2DH         PUBLIC        LocalCmd
 C5:7767H         PUBLIC        en_loopback
 C5:6E2CH         PUBLIC        udp_net_cmd
  X:2AE6H         PUBLIC        SearchAckOP
 C5:7BEDH         PUBLIC        OnchannelRequest
 C5:67C3H         PUBLIC        OnLoginAccount
  D:00A8H         PUBLIC        IE
 C5:738AH         PUBLIC        CRC_operation
  B:00B0H.2       PUBLIC        P3_2
  B:00B0H.3       PUBLIC        P3_3
 C5:7298H         PUBLIC        _crc
  D:00B8H         PUBLIC        IP
  X:2AE9H         PUBLIC        MP_flag
 C5:76DDH         PUBLIC        AgingNetCmdConnTable
 C5:7C9CH         PUBLIC        reset_device_req
 C5:7ECAH         PUBLIC        SendAccessGPIOAck
 C5:6CE6H         PUBLIC        OnLoginRequest
 C5:7CF1H         PUBLIC        NetCmdOnTCPRx
  D:0098H         PUBLIC        SCON
  D:0088H         PUBLIC        TCON
 C5:7649H         PUBLIC        GenConnID
  X:2AEAH         PUBLIC        NetCmdData
 C5:500FH         PUBLIC        NetCmd
  C:39B0H         SYMBOL        _?ix1000
 C5:7EC7H         PUBLIC        NetCmdTimer
  C:39B4H         SYMBOL        _?ix1001
 C5:7514H         PUBLIC        LocalCmdTxPrefix
  C:39B8H         SYMBOL        _?ix1002
  C:39D7H         SYMBOL        _?ix1003
 C5:77EAH         PUBLIC        NetCmdSend
 C5:7E3DH         PUBLIC        _OngpioRequestAck
  D:00D8H         PUBLIC        WDTCON
 C5:7E12H         PUBLIC        NetCmdInit
  X:2BACH         PUBLIC        crc_buf
 C5:7B92H         PUBLIC        _SendLoginMD5Key
 C5:75B3H         PUBLIC        OngpioRequest
 C5:6F60H         PUBLIC        eep_read_req
 C5:78EAH         PUBLIC        CRC_info
  D:00C8H         PUBLIC        T2CON
 C5:7EACH         PUBLIC        SearchEmptyConnTable
 C5:7AC3H         PUBLIC        _SendLoginResult
BL51 BANKED LINKER/LOCATER V6.00                                                      12/23/2015  16:04:37  PAGE 237


  X:2BBCH         PUBLIC        borcast_flag
 C5:7ECBH         PUBLIC        OnAccessGPIOReq
 C5:786AH         PUBLIC        dis_loopback
 C5:707FH         PUBLIC        eep_write_req
 C5:7C47H         PUBLIC        _FindSA
  D:00D0H         PUBLIC        PSW
 C5:7DDAH         PUBLIC        _OnchannelRequestAck

  -------         PROC BANK=5   NETCMDINIT
  -------         DO            
  D:0003H         SYMBOL        i
  -------         ENDDO         
 C5:7E12H         LINE#         103
 C5:7E12H         LINE#         104
 C5:7E12H         LINE#         106
 C5:7E14H         LINE#         107
 C5:7E14H         LINE#         108
 C5:7E29H         LINE#         109
 C5:7E2EH         LINE#         110
 C5:7E37H         LINE#         111
  -------         ENDPROC       NETCMDINIT

  -------         PROC BANK=5   _FINDSA
  X:379BH         SYMBOL        SA
  D:0005H         SYMBOL        StartIdx
  -------         DO            
  D:0007H         SYMBOL        i
  D:0006H         SYMBOL        j
  -------         ENDDO         
 C5:7C47H         LINE#         128
 C5:7C52H         LINE#         129
 C5:7C52H         LINE#         131
 C5:7C5AH         LINE#         132
 C5:7C5AH         LINE#         133
 C5:7C5CH         LINE#         134
 C5:7C5CH         LINE#         135
 C5:7C8CH         LINE#         136
 C5:7C91H         LINE#         137
 C5:7C96H         LINE#         138
 C5:7C99H         LINE#         139
 C5:7C9BH         LINE#         140
  -------         ENDPROC       _FINDSA

  -------         PROC BANK=5   CHECKCONNID
  -------         DO            
  X:37D7H         SYMBOL        ConnIdx
  -------         ENDDO         
 C5:7967H         LINE#         153
 C5:7967H         LINE#         154
 C5:7967H         LINE#         155
 C5:796CH         LINE#         156
 C5:797FH         LINE#         157
 C5:7986H         LINE#         158
 C5:7986H         LINE#         159
 C5:79B9H         LINE#         160
 C5:79B9H         LINE#         161
 C5:79BFH         LINE#         162
BL51 BANKED LINKER/LOCATER V6.00                                                      12/23/2015  16:04:37  PAGE 238


 C5:79BFH         LINE#         163
 C5:79DDH         LINE#         164
 C5:79DFH         LINE#         165
 C5:79E1H         LINE#         166
  -------         ENDPROC       CHECKCONNID

  -------         PROC BANK=5   LOCALCMDTXPREFIX
  -------         DO            
  X:37D8H         SYMBOL        i
  -------         ENDDO         
 C5:7514H         LINE#         179
 C5:7514H         LINE#         180
 C5:7514H         LINE#         182
 C5:7523H         LINE#         183
 C5:7523H         LINE#         184
 C5:7556H         LINE#         185
 C5:7573H         LINE#         186
 C5:757BH         LINE#         187
 C5:7591H         LINE#         188
 C5:759CH         LINE#         189
 C5:75A6H         LINE#         191
 C5:75A9H         LINE#         196
 C5:75B2H         LINE#         197
  -------         ENDPROC       LOCALCMDTXPREFIX

  -------         PROC BANK=5   LOCALCMD
  -------         DO            
  X:37C5H         SYMBOL        pkt_len
  -------         ENDDO         
 C5:7B2DH         LINE#         210
 C5:7B2DH         LINE#         211
 C5:7B2DH         LINE#         212
 C5:7B3CH         LINE#         213
 C5:7B43H         LINE#         214
 C5:7B5DH         LINE#         215
 C5:7B6BH         LINE#         216
 C5:7B77H         LINE#         218
 C5:7B7CH         LINE#         219
 C5:7B8EH         LINE#         220
 C5:7B91H         LINE#         221
  -------         ENDPROC       LOCALCMD

  -------         PROC BANK=5   NETCMDONTCPRX
 C5:7CF1H         LINE#         235
 C5:7CF1H         LINE#         236
 C5:7CF1H         LINE#         237
 C5:7D10H         LINE#         238
 C5:7D10H         LINE#         239
 C5:7D15H         LINE#         240
 C5:7D2AH         LINE#         251
 C5:7D31H         LINE#         252
 C5:7D3AH         LINE#         253
 C5:7D3DH         LINE#         254
 C5:7D3DH         LINE#         275
 C5:7D40H         LINE#         276
 C5:7D40H         LINE#         277
 C5:7D42H         LINE#         278
BL51 BANKED LINKER/LOCATER V6.00                                                      12/23/2015  16:04:37  PAGE 239


  -------         ENDPROC       NETCMDONTCPRX

  -------         PROC BANK=5   NETCMDSEND
 C5:77EAH         LINE#         291
 C5:77EAH         LINE#         292
 C5:77EAH         LINE#         293
 C5:77F0H         LINE#         294
 C5:77F0H         LINE#         295
 C5:77FAH         LINE#         296
 C5:77FAH         LINE#         297
 C5:7809H         LINE#         298
 C5:7818H         LINE#         299
 C5:7818H         LINE#         300
 C5:7818H         LINE#         301
 C5:7834H         LINE#         302
 C5:7846H         LINE#         303
 C5:785AH         LINE#         304
 C5:7869H         LINE#         305
  -------         ENDPROC       NETCMDSEND

  -------         PROC BANK=5   CRC_OPERATION
  -------         DO            
  X:3477H         SYMBOL        i
  X:3478H         SYMBOL        key
  X:347CH         SYMBOL        vendor
  X:3480H         SYMBOL        CRCcheck
  -------         ENDDO         
 C5:738AH         LINE#         323
 C5:738AH         LINE#         324
 C5:738AH         LINE#         325
 C5:738FH         LINE#         326
 C5:7397H         LINE#         327
 C5:73AAH         LINE#         337
 C5:73C5H         LINE#         339
 C5:73D2H         LINE#         340
 C5:73D2H         LINE#         341
 C5:73D6H         LINE#         342
 C5:73D6H         LINE#         343
 C5:742DH         LINE#         344
 C5:7437H         LINE#         345
 C5:743AH         LINE#         347
 C5:744DH         LINE#         349
 C5:7464H         LINE#         350
 C5:7464H         LINE#         351
 C5:7469H         LINE#         352
  -------         ENDPROC       CRC_OPERATION

  -------         PROC BANK=5   _CRC
  X:3446H         SYMBOL        ip
  X:3449H         SYMBOL        AuthenticKey
  -------         DO            
  X:344DH         SYMBOL        i
  X:344EH         SYMBOL        j
  X:344FH         SYMBOL        remainder
  -------         ENDDO         
 C5:7298H         LINE#         354
 C5:72A7H         LINE#         355
BL51 BANKED LINKER/LOCATER V6.00                                                      12/23/2015  16:04:37  PAGE 240


 C5:72A7H         LINE#         357
 C5:72BBH         LINE#         359
 C5:72C0H         LINE#         360
 C5:72C0H         LINE#         361
 C5:7311H         LINE#         362
 C5:7317H         LINE#         363
 C5:7317H         LINE#         364
 C5:7324H         LINE#         365
 C5:734EH         LINE#         367
 C5:7364H         LINE#         368
 C5:736DH         LINE#         369
 C5:737BH         LINE#         370
 C5:7389H         LINE#         371
  -------         ENDPROC       _CRC

  -------         PROC BANK=5   CRC_INFO
  -------         DO            
  D:0007H         SYMBOL        i
  -------         ENDDO         
 C5:78EAH         LINE#         383
 C5:78EAH         LINE#         384
 C5:78EAH         LINE#         387
 C5:78ECH         LINE#         388
 C5:7909H         LINE#         390
 C5:790BH         LINE#         391
 C5:7928H         LINE#         393
 C5:792AH         LINE#         394
 C5:7947H         LINE#         396
 C5:7949H         LINE#         397
 C5:7966H         LINE#         398
  -------         ENDPROC       CRC_INFO

  -------         PROC BANK=5   NETCMD
  -------         DO            
  X:3167H         SYMBOL        i
  D:0007H         SYMBOL        ConnIndex
  X:3168H         SYMBOL        j
  X:3169H         SYMBOL        count
  X:316AH         SYMBOL        index
  X:316BH         SYMBOL        offset
  X:316CH         SYMBOL        ptr
  X:316FH         SYMBOL        re_ip
  X:3173H         SYMBOL        v_info
  X:3176H         SYMBOL        v_len
  X:3177H         SYMBOL        name_buff
  X:3196H         SYMBOL        ee_value
  X:3197H         SYMBOL        result
  -------         DO            
  X:319BH         SYMBOL        ProjectName
  X:319EH         SYMBOL        option
  X:31A1H         SYMBOL        SearchDevAck
  -------         ENDDO         
  -------         ENDDO         
 C5:500FH         LINE#         417
 C5:500FH         LINE#         418
 C5:500FH         LINE#         419
 C5:501AH         LINE#         420
BL51 BANKED LINKER/LOCATER V6.00                                                      12/23/2015  16:04:37  PAGE 241


 C5:5025H         LINE#         421
 C5:5038H         LINE#         422
 C5:5046H         LINE#         423
 C5:5049H         LINE#         425
 C5:505BH         LINE#         428
 C5:5065H         LINE#         431
 C5:506EH         LINE#         433
 C5:5088H         LINE#         434
 C5:5088H         LINE#         435
 C5:508BH         LINE#         436
 C5:508FH         LINE#         437
 C5:508FH         LINE#         439
 C5:50A3H         LINE#         440
 C5:50ACH         LINE#         441
 C5:50AFH         LINE#         443
 C5:50AFH         LINE#         444
 C5:50AFH         LINE#         446
 C5:50B2H         LINE#         451
 C5:50FAH         LINE#         452
 C5:50FAH         LINE#         453
 C5:50FAH         LINE#         454
 C5:5103H         LINE#         455
 C5:510BH         LINE#         456
 C5:510EH         LINE#         457
 C5:510EH         LINE#         459
 C5:5129H         LINE#         460
 C5:513CH         LINE#         461
 C5:5141H         LINE#         462
 C5:5153H         LINE#         463
 C5:5167H         LINE#         464
 C5:51A2H         LINE#         466
 C5:51A5H         LINE#         471
 C5:51C1H         LINE#         472
 C5:51D1H         LINE#         473
 C5:51E1H         LINE#         474
 C5:51F1H         LINE#         475
 C5:5201H         LINE#         476
 C5:5211H         LINE#         477
 C5:521FH         LINE#         478
 C5:523CH         LINE#         479
 C5:5262H         LINE#         480
 C5:5296H         LINE#         481
 C5:52AEH         LINE#         482
 C5:52CFH         LINE#         483
 C5:52FCH         LINE#         485
 C5:5311H         LINE#         487
 C5:5314H         LINE#         492
 C5:5327H         LINE#         493
 C5:532FH         LINE#         494
 C5:5350H         LINE#         496
 C5:5358H         LINE#         497
 C5:5360H         LINE#         498
 C5:538DH         LINE#         501
 C5:5395H         LINE#         502
 C5:539DH         LINE#         503
 C5:53A7H         LINE#         504
 C5:53B1H         LINE#         505
BL51 BANKED LINKER/LOCATER V6.00                                                      12/23/2015  16:04:37  PAGE 242


 C5:53BBH         LINE#         507
 C5:53C3H         LINE#         508
 C5:53CBH         LINE#         509
 C5:53DBH         LINE#         511
 C5:53E3H         LINE#         512
 C5:53EBH         LINE#         513
 C5:5418H         LINE#         515
 C5:5420H         LINE#         516
 C5:5430H         LINE#         518
 C5:5437H         LINE#         519
 C5:543CH         LINE#         520
 C5:543CH         LINE#         522
 C5:543FH         LINE#         527
 C5:5457H         LINE#         528
 C5:5457H         LINE#         529
 C5:545BH         LINE#         530
 C5:545FH         LINE#         531
 C5:545FH         LINE#         533
 C5:5462H         LINE#         538
 C5:5480H         LINE#         539
 C5:54AFH         LINE#         540
 C5:54B8H         LINE#         541
 C5:54C4H         LINE#         542
 C5:54E9H         LINE#         543
 C5:5503H         LINE#         544
 C5:5529H         LINE#         545
 C5:5543H         LINE#         546
 C5:5569H         LINE#         547
 C5:5574H         LINE#         548
 C5:5574H         LINE#         549
 C5:5587H         LINE#         550
 C5:558DH         LINE#         551
 C5:558DH         LINE#         552
 C5:5590H         LINE#         554
 C5:5590H         LINE#         555
 C5:559FH         LINE#         556
 C5:55A4H         LINE#         557
 C5:55A4H         LINE#         559
 C5:55A7H         LINE#         564
 C5:55D2H         LINE#         565
 C5:55DEH         LINE#         566
 C5:55F5H         LINE#         567
 C5:55F5H         LINE#         568
 C5:561BH         LINE#         569
 C5:5651H         LINE#         570
 C5:5681H         LINE#         571
 C5:56A0H         LINE#         572
 C5:56BAH         LINE#         573
 C5:56E4H         LINE#         574
 C5:56FEH         LINE#         575
 C5:5724H         LINE#         576
 C5:5737H         LINE#         577
 C5:573DH         LINE#         578
 C5:573DH         LINE#         580
 C5:5740H         LINE#         585
 C5:5740H         LINE#         586
 C5:574FH         LINE#         587
BL51 BANKED LINKER/LOCATER V6.00                                                      12/23/2015  16:04:37  PAGE 243


 C5:5768H         LINE#         623
 C5:5783H         LINE#         624
 C5:5796H         LINE#         625
 C5:57B9H         LINE#         626
 C5:57CCH         LINE#         627
 C5:5816H         LINE#         628
 C5:5844H         LINE#         629
 C5:584BH         LINE#         632
 C5:584EH         LINE#         638
 C5:586AH         LINE#         639
 C5:586AH         LINE#         640
 C5:587AH         LINE#         641
 C5:58AAH         LINE#         642
 C5:58D2H         LINE#         643
 C5:58D7H         LINE#         644
 C5:5938H         LINE#         646
 C5:594BH         LINE#         647
 C5:594BH         LINE#         648
 C5:594DH         LINE#         650
 C5:594DH         LINE#         651
 C5:595DH         LINE#         653
 C5:5984H         LINE#         654
 C5:598CH         LINE#         655
 C5:598CH         LINE#         658
 C5:599CH         LINE#         660
 C5:59B8H         LINE#         662
 C5:59C0H         LINE#         663
 C5:59D5H         LINE#         664
 C5:59D5H         LINE#         666
 C5:59D8H         LINE#         671
 C5:59E0H         LINE#         672
 C5:59E3H         LINE#         673
 C5:59E3H         LINE#         674
 C5:59E3H         LINE#         675
 C5:59E6H         LINE#         676
 C5:59E6H         LINE#         677
 C5:59E6H         LINE#         678
 C5:59E9H         LINE#         679
 C5:59E9H         LINE#         680
 C5:59E9H         LINE#         681
 C5:59ECH         LINE#         682
 C5:59ECH         LINE#         683
 C5:59ECH         LINE#         684
 C5:59EFH         LINE#         685
 C5:59EFH         LINE#         692
 C5:59EFH         LINE#         693
 C5:59F2H         LINE#         694
 C5:59F2H         LINE#         695
 C5:59F2H         LINE#         696
 C5:59F5H         LINE#         697
 C5:59F5H         LINE#         700
 C5:59F5H         LINE#         701
 C5:59F8H         LINE#         702
 C5:59F8H         LINE#         703
 C5:59F8H         LINE#         704
 C5:59FBH         LINE#         705
 C5:59FBH         LINE#         707
BL51 BANKED LINKER/LOCATER V6.00                                                      12/23/2015  16:04:37  PAGE 244


 C5:59FBH         LINE#         708
 C5:59FEH         LINE#         709
 C5:59FEH         LINE#         712
 C5:59FEH         LINE#         713
 C5:5A01H         LINE#         714
 C5:5A01H         LINE#         715
 C5:5A01H         LINE#         716
 C5:5A04H         LINE#         717
 C5:5A04H         LINE#         719
 C5:5A04H         LINE#         720
  -------         ENDPROC       NETCMD

  -------         PROC BANK=5   SEARCHEMPTYCONNTABLE
  -------         DO            
  X:36BBH         SYMBOL        SA
  -------         ENDDO         
 C5:7EACH         LINE#         734
 C5:7EACH         LINE#         735
 C5:7EACH         LINE#         737
 C5:7EBBH         LINE#         738
 C5:7EC6H         LINE#         739
  -------         ENDPROC       SEARCHEMPTYCONNTABLE

  -------         PROC BANK=5   ONLOGINREQUEST
  -------         DO            
  X:37C7H         SYMBOL        ConnIdx
  X:37C8H         SYMBOL        Result
  -------         ENDDO         
 C5:6CE6H         LINE#         752
 C5:6CE6H         LINE#         753
 C5:6CE6H         LINE#         754
 C5:6CEBH         LINE#         755
 C5:6CEDH         LINE#         757
 C5:6D00H         LINE#         758
 C5:6D07H         LINE#         759
 C5:6D07H         LINE#         760
 C5:6D3AH         LINE#         761
 C5:6D58H         LINE#         762
 C5:6D5AH         LINE#         763
 C5:6D61H         LINE#         764
 C5:6D61H         LINE#         766
 C5:6D69H         LINE#         767
 C5:6D80H         LINE#         768
 C5:6D80H         LINE#         769
 C5:6D85H         LINE#         770
 C5:6D88H         LINE#         772
 C5:6D88H         LINE#         774
 C5:6DB7H         LINE#         776
 C5:6DB7H         LINE#         778
 C5:6DB7H         LINE#         779
 C5:6DB7H         LINE#         780
 C5:6DB7H         LINE#         781
 C5:6DB9H         LINE#         783
 C5:6DB9H         LINE#         786
 C5:6DDFH         LINE#         788
 C5:6E05H         LINE#         789
 C5:6E24H         LINE#         790
BL51 BANKED LINKER/LOCATER V6.00                                                      12/23/2015  16:04:37  PAGE 245


 C5:6E24H         LINE#         792
  -------         ENDPROC       ONLOGINREQUEST

  -------         PROC BANK=5   _SENDLOGINMD5KEY
  D:0007H         SYMBOL        Result
  -------         DO            
  X:379EH         SYMBOL        MD5Pkt
  -------         ENDDO         
 C5:7B92H         LINE#         806
 C5:7B92H         LINE#         807
 C5:7B92H         LINE#         815
 C5:7BADH         LINE#         816
 C5:7BC0H         LINE#         817
 C5:7BD2H         LINE#         818
 C5:7BD9H         LINE#         819
 C5:7BEAH         LINE#         820
  -------         ENDPROC       _SENDLOGINMD5KEY

  -------         PROC BANK=5   GENCONNID
  -------         DO            
  X:35E5H         SYMBOL        ConnID
  X:35E9H         SYMBOL        p16ConnID
  X:35ECH         SYMBOL        i
  -------         ENDDO         
 C5:7649H         LINE#         834
 C5:7649H         LINE#         835
 C5:7649H         LINE#         837
 C5:7657H         LINE#         839
 C5:7657H         LINE#         840
 C5:7657H         LINE#         841
 C5:766BH         LINE#         842
 C5:7682H         LINE#         843
 C5:7691H         LINE#         844
 C5:7691H         LINE#         845
 C5:76BEH         LINE#         846
 C5:76C6H         LINE#         847
 C5:76DCH         LINE#         848
 C5:76DCH         LINE#         849
  -------         ENDPROC       GENCONNID

  -------         PROC BANK=5   _SENDLOGINRESULT
  X:35EDH         SYMBOL        result
  X:35EEH         SYMBOL        ConnID
  -------         DO            
  X:35F2H         SYMBOL        LoginResult
  -------         ENDDO         
 C5:7AC3H         LINE#         862
 C5:7AC8H         LINE#         863
 C5:7AC8H         LINE#         869
 C5:7AE3H         LINE#         870
 C5:7B00H         LINE#         871
 C5:7B0AH         LINE#         872
 C5:7B21H         LINE#         873
 C5:7B2AH         LINE#         874
  -------         ENDPROC       _SENDLOGINRESULT

  -------         PROC BANK=5   ONLOGINACCOUNT
BL51 BANKED LINKER/LOCATER V6.00                                                      12/23/2015  16:04:37  PAGE 246


  -------         DO            
  X:3342H         SYMBOL        buf
  X:3357H         SYMBOL        result
  X:3358H         SYMBOL        ConnIdx
  X:3359H         SYMBOL        Account
  -------         ENDDO         
 C5:67C3H         LINE#         888
 C5:67C3H         LINE#         889
 C5:67C3H         LINE#         898
 C5:67C8H         LINE#         899
 C5:67CAH         LINE#         901
 C5:67E5H         LINE#         902
 C5:680CH         LINE#         903
 C5:6828H         LINE#         904
 C5:6840H         LINE#         906
 C5:6878H         LINE#         907
 C5:6894H         LINE#         908
 C5:68ACH         LINE#         910
 C5:68B5H         LINE#         911
 C5:68B5H         LINE#         912
 C5:68B7H         LINE#         914
 C5:68CAH         LINE#         915
 C5:68D1H         LINE#         916
 C5:68D1H         LINE#         917
 C5:68FFH         LINE#         918
 C5:691DH         LINE#         919
 C5:691FH         LINE#         921
 C5:6926H         LINE#         922
 C5:6926H         LINE#         924
 C5:693EH         LINE#         926
 C5:6964H         LINE#         927
 C5:6983H         LINE#         928
 C5:6985H         LINE#         930
 C5:6985H         LINE#         931
 C5:698BH         LINE#         932
 C5:698BH         LINE#         933
 C5:698BH         LINE#         935
  -------         ENDPROC       ONLOGINACCOUNT

  -------         PROC BANK=5   AGINGNETCMDCONNTABLE
  -------         DO            
  X:37D9H         SYMBOL        i
  -------         ENDDO         
 C5:76DDH         LINE#         937
 C5:76DDH         LINE#         938
 C5:76DDH         LINE#         940
 C5:76ECH         LINE#         941
 C5:773AH         LINE#         942
 C5:7766H         LINE#         943
  -------         ENDPROC       AGINGNETCMDCONNTABLE

  -------         PROC BANK=5   NETCMDTIMER
 C5:7EC7H         LINE#         944
 C5:7EC7H         LINE#         945
 C5:7EC7H         LINE#         946
  -------         ENDPROC       NETCMDTIMER

BL51 BANKED LINKER/LOCATER V6.00                                                      12/23/2015  16:04:37  PAGE 247


  -------         PROC BANK=5   SENDACCESSGPIOACK
 C5:7ECAH         LINE#         963
 C5:7ECAH         LINE#         964
 C5:7ECAH         LINE#         965
  -------         ENDPROC       SENDACCESSGPIOACK

  -------         PROC BANK=5   ONACCESSGPIOREQ
 C5:7ECBH         LINE#         978
 C5:7ECBH         LINE#         979
 C5:7ECBH         LINE#         1036
  -------         ENDPROC       ONACCESSGPIOREQ

  -------         PROC BANK=5   MPPROCESS
  -------         DO            
  X:3483H         SYMBOL        i
  X:3485H         SYMBOL        TargetMACID
  X:348BH         SYMBOL        update_status
  X:348CH         SYMBOL        NetCMD_Frame
  D:0001H         SYMBOL        pMACIDentry
  -------         ENDDO         
 C5:65A7H         LINE#         1052
 C5:65A7H         LINE#         1053
 C5:65A7H         LINE#         1056
 C5:65ACH         LINE#         1057
 C5:65C1H         LINE#         1064
 C5:65CDH         LINE#         1065
 C5:65CDH         LINE#         1066
 C5:65D5H         LINE#         1071
 C5:65D5H         LINE#         1072
 C5:6601H         LINE#         1073
 C5:6622H         LINE#         1075
 C5:6632H         LINE#         1077
 C5:663BH         LINE#         1078
 C5:6652H         LINE#         1079
 C5:666EH         LINE#         1088
 C5:667EH         LINE#         1089
 C5:667EH         LINE#         1090
 C5:6686H         LINE#         1091
 C5:6689H         LINE#         1095
 C5:6689H         LINE#         1099
 C5:6696H         LINE#         1100
 C5:6696H         LINE#         1101
 C5:66ABH         LINE#         1102
 C5:66B2H         LINE#         1104
 C5:66B2H         LINE#         1105
 C5:66B7H         LINE#         1107
 C5:66D4H         LINE#         1110
 C5:66D7H         LINE#         1112
 C5:66DEH         LINE#         1113
 C5:66DEH         LINE#         1114
 C5:66FEH         LINE#         1115
 C5:66FEH         LINE#         1116
 C5:66FEH         LINE#         1117
 C5:66FEH         LINE#         1118
 C5:671BH         LINE#         1119
 C5:6727H         LINE#         1120
 C5:6727H         LINE#         1121
BL51 BANKED LINKER/LOCATER V6.00                                                      12/23/2015  16:04:37  PAGE 248


 C5:672DH         LINE#         1122
 C5:672DH         LINE#         1125
 C5:6734H         LINE#         1126
 C5:6734H         LINE#         1127
 C5:674FH         LINE#         1128
 C5:677EH         LINE#         1129
 C5:677EH         LINE#         1130
 C5:6784H         LINE#         1131
 C5:6786H         LINE#         1132
 C5:6786H         LINE#         1133
 C5:67A3H         LINE#         1136
 C5:67B8H         LINE#         1137
 C5:67C2H         LINE#         1142
  -------         ENDPROC       MPPROCESS

  -------         PROC BANK=5   ONGPIOREQUEST
  -------         DO            
  D:0006H         SYMBOL        value
  D:0007H         SYMBOL        gping
  X:37C9H         SYMBOL        common
  X:37CAH         SYMBOL        result
  -------         ENDDO         
 C5:75B3H         LINE#         1159
 C5:75B3H         LINE#         1160
 C5:75B3H         LINE#         1161
 C5:75BAH         LINE#         1163
 C5:75D6H         LINE#         1164
 C5:75DDH         LINE#         1165
 C5:75E6H         LINE#         1166
 C5:75F1H         LINE#         1168
 C5:75F8H         LINE#         1169
 C5:75F8H         LINE#         1170
 C5:75FEH         LINE#         1171
 C5:7601H         LINE#         1172
 C5:7605H         LINE#         1173
 C5:7609H         LINE#         1175
 C5:760EH         LINE#         1176
 C5:7610H         LINE#         1178
 C5:7610H         LINE#         1179
 C5:7616H         LINE#         1180
 C5:761EH         LINE#         1181
 C5:7622H         LINE#         1182
 C5:7629H         LINE#         1184
 C5:762EH         LINE#         1185
 C5:762EH         LINE#         1186
 C5:763FH         LINE#         1187
  -------         ENDPROC       ONGPIOREQUEST

  -------         PROC BANK=5   _ONGPIOREQUESTACK
  D:0007H         SYMBOL        gpioresult
  D:0005H         SYMBOL        gpiovalue
  -------         DO            
  D:0001H         SYMBOL        USERGPIO
  -------         ENDDO         
 C5:7E3DH         LINE#         1202
 C5:7E3DH         LINE#         1203
 C5:7E3DH         LINE#         1210
BL51 BANKED LINKER/LOCATER V6.00                                                      12/23/2015  16:04:37  PAGE 249


 C5:7E4DH         LINE#         1211
 C5:7E51H         LINE#         1212
 C5:7E58H         LINE#         1213
 C5:7E61H         LINE#         1214
  -------         ENDPROC       _ONGPIOREQUESTACK

  -------         PROC BANK=5   ONCHANNELREQUEST
  -------         DO            
  X:373BH         SYMBOL        result
  X:373CH         SYMBOL        value
  X:373DH         SYMBOL        chan_value
  -------         ENDDO         
 C5:7BEDH         LINE#         1229
 C5:7BEDH         LINE#         1230
 C5:7BEDH         LINE#         1231
 C5:7BF4H         LINE#         1232
 C5:7BF8H         LINE#         1233
 C5:7C0EH         LINE#         1234
 C5:7C18H         LINE#         1235
 C5:7C21H         LINE#         1236
 C5:7C27H         LINE#         1237
 C5:7C2FH         LINE#         1238
 C5:7C3CH         LINE#         1239
  -------         ENDPROC       ONCHANNELREQUEST

  -------         PROC BANK=5   _ONCHANNELREQUESTACK
  D:0007H         SYMBOL        channel_result
  D:0006H         SYMBOL        old_value
  D:0004H         SYMBOL        channel_value
  -------         DO            
  D:0001H         SYMBOL        USERADC
  -------         ENDDO         
 C5:7DDAH         LINE#         1254
 C5:7DE0H         LINE#         1255
 C5:7DE0H         LINE#         1263
 C5:7DF0H         LINE#         1264
 C5:7DF4H         LINE#         1265
 C5:7DFBH         LINE#         1266
 C5:7E06H         LINE#         1267
 C5:7E0FH         LINE#         1268
  -------         ENDPROC       _ONCHANNELREQUESTACK

  -------         PROC BANK=5   EEP_READ_REQ
  -------         DO            
  X:36C1H         SYMBOL        result
  X:36C2H         SYMBOL        i
  X:36C4H         SYMBOL        EEPREAD
  -------         ENDDO         
 C5:6F60H         LINE#         1286
 C5:6F60H         LINE#         1287
 C5:6F60H         LINE#         1298
 C5:6F7BH         LINE#         1300
 C5:6F8FH         LINE#         1301
 C5:6FACH         LINE#         1302
 C5:6FACH         LINE#         1303
 C5:6FE3H         LINE#         1304
 C5:6FE3H         LINE#         1305
BL51 BANKED LINKER/LOCATER V6.00                                                      12/23/2015  16:04:37  PAGE 250


 C5:6FE6H         LINE#         1306
 C5:702BH         LINE#         1307
 C5:702BH         LINE#         1309
 C5:7031H         LINE#         1310
 C5:7042H         LINE#         1311
 C5:7048H         LINE#         1312
 C5:7048H         LINE#         1313
 C5:704AH         LINE#         1315
 C5:705EH         LINE#         1317
 C5:707CH         LINE#         1318
  -------         ENDPROC       EEP_READ_REQ

  -------         PROC BANK=5   EEP_WRITE_REQ
  -------         DO            
  X:36C7H         SYMBOL        an
  X:36C8H         SYMBOL        i
  X:36CAH         SYMBOL        EEPWRITE
  -------         ENDDO         
 C5:707FH         LINE#         1334
 C5:707FH         LINE#         1335
 C5:707FH         LINE#         1336
 C5:7085H         LINE#         1346
 C5:70A0H         LINE#         1348
 C5:70B4H         LINE#         1349
 C5:70F6H         LINE#         1350
 C5:70F6H         LINE#         1351
 C5:70F9H         LINE#         1352
 C5:7142H         LINE#         1353
 C5:7142H         LINE#         1355
 C5:715CH         LINE#         1356
 C5:7170H         LINE#         1357
 C5:7177H         LINE#         1358
 C5:7188H         LINE#         1360
 C5:7191H         LINE#         1361
  -------         ENDPROC       EEP_WRITE_REQ

  -------         PROC BANK=5   RESET_DEVICE_REQ
 C5:7C9CH         LINE#         1376
 C5:7C9CH         LINE#         1377
 C5:7C9CH         LINE#         1378
 C5:7CB2H         LINE#         1379
 C5:7CBEH         LINE#         1380
 C5:7CBEH         LINE#         1381
 C5:7CCDH         LINE#         1382
 C5:7CD3H         LINE#         1383
 C5:7CD5H         LINE#         1385
 C5:7CE5H         LINE#         1386
 C5:7CEEH         LINE#         1387
  -------         ENDPROC       RESET_DEVICE_REQ

  -------         PROC BANK=5   EN_LOOPBACK
 C5:7767H         LINE#         1401
 C5:7767H         LINE#         1402
 C5:7767H         LINE#         1403
 C5:777DH         LINE#         1405
 C5:7783H         LINE#         1406
 C5:77B9H         LINE#         1408
BL51 BANKED LINKER/LOCATER V6.00                                                      12/23/2015  16:04:37  PAGE 251


 C5:77C0H         LINE#         1409
 C5:77CEH         LINE#         1411
 C5:77DEH         LINE#         1413
 C5:77E7H         LINE#         1414
  -------         ENDPROC       EN_LOOPBACK

  -------         PROC BANK=5   DIS_LOOPBACK
 C5:786AH         LINE#         1428
 C5:786AH         LINE#         1429
 C5:786AH         LINE#         1430
 C5:7880H         LINE#         1432
 C5:7885H         LINE#         1433
 C5:78BAH         LINE#         1435
 C5:78C0H         LINE#         1436
 C5:78CFH         LINE#         1438
 C5:78DEH         LINE#         1440
 C5:78E7H         LINE#         1441
  -------         ENDPROC       DIS_LOOPBACK

  -------         PROC BANK=5   UDP_NET_CMD
  -------         DO            
  X:36CDH         SYMBOL        borcast
  D:0007H         SYMBOL        i
  -------         ENDDO         
 C5:6E2CH         LINE#         1456
 C5:6E2CH         LINE#         1457
 C5:6E2CH         LINE#         1458
 C5:6E3FH         LINE#         1459
 C5:6E3FH         LINE#         1462
 C5:6E69H         LINE#         1467
 C5:6E6BH         LINE#         1468
 C5:6E92H         LINE#         1470
 C5:6EADH         LINE#         1471
 C5:6EBDH         LINE#         1485
 C5:6EC1H         LINE#         1486
 C5:6EC7H         LINE#         1488
 C5:6EE2H         LINE#         1489
 C5:6EF2H         LINE#         1490
 C5:6EF8H         LINE#         1491
 C5:6F0FH         LINE#         1493
 C5:6F27H         LINE#         1494
 C5:6F29H         LINE#         1495
 C5:6F5CH         LINE#         1499
 C5:6F5FH         LINE#         1504
  -------         ENDPROC       UDP_NET_CMD
  -------         ENDMOD        NET_CMD

  -------         MODULE        SMTP
  C:0000H         SYMBOL        _ICE_DUMMY_
 C2:D1B7H         PUBLIC        smtp_send_cmd_auth
  D:0080H         PUBLIC        P0
  D:0090H         PUBLIC        P1
  D:00A0H         PUBLIC        P2
  D:00B0H         PUBLIC        P3
  D:00E8H         PUBLIC        P4
 C2:C9E0H         PUBLIC        smtp_send_cmd_rcpt
 C2:81ABH         PUBLIC        smtp_send_mailbody
BL51 BANKED LINKER/LOCATER V6.00                                                      12/23/2015  16:04:37  PAGE 252


  D:00A8H         PUBLIC        IE
 C2:D15AH         PUBLIC        smtp_send_cmd_quit
 C2:C0E3H         PUBLIC        smtp_chk_MailToTotal
  B:00B0H.2       PUBLIC        P3_2
 C2:D6B3H         PUBLIC        smtp_connect
  B:00B0H.3       PUBLIC        P3_3
  D:00B8H         PUBLIC        IP
 C2:CC6BH         PUBLIC        smtp_send_mailbody_end
  X:2891H         PUBLIC        ehlo_flag
 C2:D3ACH         PUBLIC        smtp_check_mail
 C2:CD57H         PUBLIC        smtp_send_packet
  D:0098H         PUBLIC        SCON
  D:0088H         PUBLIC        TCON
  X:2892H         PUBLIC        ehlo_count
 C2:D544H         PUBLIC        SMTPOnTCPRx
 C2:D5A8H         PUBLIC        _smtp_send_mail
 C2:D0A0H         PUBLIC        smtp_send_starttls
 C2:C451H         PUBLIC        _smtp_send_auth_id_pw
 C2:C4FAH         PUBLIC        _strcat_mail_to
  X:2893H         PUBLIC        last_status
  X:2894H         PUBLIC        SMTPData
  C:2FD2H         SYMBOL        _?ix1000
 C2:A2C5H         PUBLIC        smtp
 C2:BF59H         PUBLIC        smtp_timer
  D:00D8H         PUBLIC        WDTCON
 C2:D043H         PUBLIC        _ModifyMail
  X:29E4H         PUBLIC        gpio_cnt
 C2:CCE4H         PUBLIC        smtp_init
 C2:D0FDH         PUBLIC        smtp_send_cmd_data
  D:00C8H         PUBLIC        T2CON
 C2:C5A1H         PUBLIC        smtp_send_cmd_mail
 C2:C783H         PUBLIC        smtp_send_cmd_helo
  D:00D0H         PUBLIC        PSW

  -------         PROC BANK=2   SMTP_CHK_MAILTOTOTAL
  -------         DO            
  X:37CBH         SYMBOL        i
  D:0007H         SYMBOL        fount_at_symble
  -------         ENDDO         
 C2:C0E3H         LINE#         43
 C2:C0E3H         LINE#         44
 C2:C0E3H         LINE#         46
 C2:C0E5H         LINE#         47
 C2:C0E9H         LINE#         48
 C2:C0EBH         LINE#         49
 C2:C104H         LINE#         50
 C2:C104H         LINE#         51
 C2:C127H         LINE#         52
 C2:C127H         LINE#         53
 C2:C127H         LINE#         54
 C2:C129H         LINE#         55
 C2:C12BH         LINE#         56
 C2:C12BH         LINE#         57
 C2:C12EH         LINE#         58
 C2:C146H         LINE#         59
 C2:C14CH         LINE#         60
 C2:C14CH         LINE#         61
BL51 BANKED LINKER/LOCATER V6.00                                                      12/23/2015  16:04:37  PAGE 253


 C2:C152H         LINE#         63
 C2:C161H         LINE#         64
 C2:C161H         LINE#         65
 C2:C163H         LINE#         66
 C2:C165H         LINE#         67
 C2:C165H         LINE#         68
 C2:C168H         LINE#         69
 C2:C17DH         LINE#         70
 C2:C184H         LINE#         73
 C2:C184H         LINE#         74
 C2:C198H         LINE#         75
  -------         ENDPROC       SMTP_CHK_MAILTOTOTAL

  -------         PROC BANK=2   _STRCAT_MAIL_TO
  X:35F5H         SYMBOL        dest
  X:35F8H         SYMBOL        index
  -------         DO            
  D:0007H         SYMBOL        i
  X:35F9H         SYMBOL        j
  X:35FAH         SYMBOL        dest2
  -------         ENDDO         
 C2:C4FAH         LINE#         77
 C2:C50AH         LINE#         78
 C2:C50AH         LINE#         79
 C2:C50FH         LINE#         80
 C2:C52CH         LINE#         81
 C2:C54FH         LINE#         82
 C2:C54FH         LINE#         83
 C2:C586H         LINE#         84
 C2:C589H         LINE#         85
  -------         ENDPROC       _STRCAT_MAIL_TO

  -------         PROC BANK=2   _MODIFYMAIL
  D:0001H         SYMBOL        sub
  X:3650H         SYMBOL        msg
  X:3653H         SYMBOL        MailNo
 C2:D043H         LINE#         99
 C2:D043H         LINE#         100
 C2:D043H         LINE#         101
 C2:D04FH         LINE#         102
 C2:D062H         LINE#         103
 C2:D07DH         LINE#         104
 C2:D09FH         LINE#         105
 C2:D09FH         LINE#         106
  -------         ENDPROC       _MODIFYMAIL

  -------         PROC BANK=2   SMTP_INIT
 C2:CCE4H         LINE#         119
 C2:CCE4H         LINE#         120
 C2:CCE4H         LINE#         121
 C2:CCF2H         LINE#         122
 C2:CD0DH         LINE#         123
 C2:CD28H         LINE#         124
 C2:CD43H         LINE#         125
 C2:CD48H         LINE#         126
 C2:CD4CH         LINE#         127
 C2:CD50H         LINE#         128
BL51 BANKED LINKER/LOCATER V6.00                                                      12/23/2015  16:04:37  PAGE 254


 C2:CD56H         LINE#         129
  -------         ENDPROC       SMTP_INIT

  -------         PROC BANK=2   SMTP_CONNECT
 C2:D6B3H         LINE#         142
 C2:D6B3H         LINE#         143
 C2:D6B3H         LINE#         144
  -------         ENDPROC       SMTP_CONNECT

  -------         PROC BANK=2   _SMTP_SEND_MAIL
  D:0007H         SYMBOL        MailNo
 C2:D5A8H         LINE#         158
 C2:D5A8H         LINE#         159
 C2:D5A8H         LINE#         160
 C2:D5BAH         LINE#         161
 C2:D5C0H         LINE#         162
 C2:D5C0H         LINE#         163
 C2:D5C2H         LINE#         164
 C2:D5C4H         LINE#         165
 C2:D5C7H         LINE#         167
 C2:D5CCH         LINE#         168
 C2:D5D1H         LINE#         169
 C2:D5D3H         LINE#         170
 C2:D5D5H         LINE#         171
  -------         ENDPROC       _SMTP_SEND_MAIL

  -------         PROC BANK=2   SMTP_TIMER
 C2:BF59H         LINE#         184
 C2:BF59H         LINE#         185
 C2:BF59H         LINE#         186
 C2:BF71H         LINE#         187
 C2:BF71H         LINE#         188
 C2:BF71H         LINE#         189
 C2:BF8AH         LINE#         190
 C2:BFA4H         LINE#         191
 C2:BFA4H         LINE#         192
 C2:BFB1H         LINE#         193
 C2:BFB1H         LINE#         194
 C2:BFB3H         LINE#         195
 C2:BFBFH         LINE#         196
 C2:BFBFH         LINE#         197
 C2:BFD6H         LINE#         198
 C2:BFD6H         LINE#         205
 C2:BFEFH         LINE#         206
 C2:BFEFH         LINE#         207
 C2:BFF5H         LINE#         208
 C2:BFF5H         LINE#         209
 C2:BFF6H         LINE#         210
 C2:BFF6H         LINE#         211
 C2:BFFCH         LINE#         212
 C2:BFFCH         LINE#         213
 C2:BFFEH         LINE#         214
 C2:BFFEH         LINE#         215
 C2:C00BH         LINE#         216
 C2:C00BH         LINE#         217
 C2:C00DH         LINE#         218
 C2:C019H         LINE#         219
BL51 BANKED LINKER/LOCATER V6.00                                                      12/23/2015  16:04:37  PAGE 255


 C2:C019H         LINE#         220
 C2:C01CH         LINE#         221
 C2:C01CH         LINE#         223
 C2:C01CH         LINE#         224
 C2:C021H         LINE#         225
 C2:C021H         LINE#         226
 C2:C021H         LINE#         227
 C2:C021H         LINE#         228
 C2:C021H         LINE#         229
  -------         ENDPROC       SMTP_TIMER

  -------         PROC BANK=2   SMTP_SEND_CMD_HELO
 C2:C783H         LINE#         242
 C2:C783H         LINE#         243
 C2:C783H         LINE#         245
 C2:C786H         LINE#         250
 C2:C78DH         LINE#         251
 C2:C7A4H         LINE#         252
 C2:C7ABH         LINE#         253
 C2:C7C3H         LINE#         254
 C2:C7DFH         LINE#         255
 C2:C7FBH         LINE#         256
 C2:C811H         LINE#         257
 C2:C820H         LINE#         258
  -------         ENDPROC       SMTP_SEND_CMD_HELO

  -------         PROC BANK=2   SMTP_SEND_STARTTLS
 C2:D0A0H         LINE#         260
 C2:D0A0H         LINE#         261
 C2:D0A0H         LINE#         263
 C2:D0A3H         LINE#         268
 C2:D0BBH         LINE#         269
 C2:D0D7H         LINE#         270
 C2:D0EDH         LINE#         271
 C2:D0FCH         LINE#         272
  -------         ENDPROC       SMTP_SEND_STARTTLS

  -------         PROC BANK=2   SMTP_SEND_CMD_MAIL
 C2:C5A1H         LINE#         285
 C2:C5A1H         LINE#         286
 C2:C5A1H         LINE#         288
 C2:C5A4H         LINE#         293
 C2:C5BCH         LINE#         294
 C2:C5E6H         LINE#         295
 C2:C602H         LINE#         296
 C2:C61EH         LINE#         297
 C2:C634H         LINE#         298
 C2:C643H         LINE#         299
  -------         ENDPROC       SMTP_SEND_CMD_MAIL

  -------         PROC BANK=2   SMTP_SEND_CMD_RCPT
 C2:C9E0H         LINE#         312
 C2:C9E0H         LINE#         313
 C2:C9E0H         LINE#         315
 C2:C9E3H         LINE#         320
 C2:C9FBH         LINE#         322
 C2:CA0EH         LINE#         323
BL51 BANKED LINKER/LOCATER V6.00                                                      12/23/2015  16:04:37  PAGE 256


 C2:CA2AH         LINE#         324
 C2:CA46H         LINE#         325
 C2:CA5CH         LINE#         326
 C2:CA6BH         LINE#         327
  -------         ENDPROC       SMTP_SEND_CMD_RCPT

  -------         PROC BANK=2   SMTP_SEND_CMD_DATA
 C2:D0FDH         LINE#         340
 C2:D0FDH         LINE#         341
 C2:D0FDH         LINE#         343
 C2:D100H         LINE#         348
 C2:D118H         LINE#         349
 C2:D134H         LINE#         350
 C2:D14AH         LINE#         351
 C2:D159H         LINE#         352
  -------         ENDPROC       SMTP_SEND_CMD_DATA

  -------         PROC BANK=2   SMTP_SEND_CMD_QUIT
 C2:D15AH         LINE#         365
 C2:D15AH         LINE#         366
 C2:D15AH         LINE#         368
 C2:D15DH         LINE#         373
 C2:D175H         LINE#         374
 C2:D191H         LINE#         375
 C2:D1A7H         LINE#         376
 C2:D1B6H         LINE#         377
  -------         ENDPROC       SMTP_SEND_CMD_QUIT

  -------         PROC BANK=2   SMTP_SEND_MAILBODY
  -------         DO            
  X:2FCDH         SYMBOL        i
  X:2FCFH         SYMBOL        buf
  X:2FD9H         SYMBOL        message_body
  -------         ENDDO         
 C2:81ABH         LINE#         390
 C2:81ABH         LINE#         391
 C2:81ABH         LINE#         392
 C2:81B2H         LINE#         394
 C2:81C4H         LINE#         396
 C2:81DCH         LINE#         397
 C2:81E3H         LINE#         398
 C2:81E3H         LINE#         399
 C2:81F8H         LINE#         400
 C2:8214H         LINE#         401
 C2:8231H         LINE#         403
 C2:8234H         LINE#         408
 C2:825EH         LINE#         409
 C2:827AH         LINE#         410
 C2:8296H         LINE#         411
 C2:82B2H         LINE#         412
 C2:82DCH         LINE#         413
 C2:82F8H         LINE#         415
 C2:8312H         LINE#         416
 C2:8312H         LINE#         418
 C2:8315H         LINE#         423
 C2:8331H         LINE#         425
 C2:8345H         LINE#         426
BL51 BANKED LINKER/LOCATER V6.00                                                      12/23/2015  16:04:37  PAGE 257


 C2:8361H         LINE#         427
 C2:8371H         LINE#         428
 C2:8380H         LINE#         429
 C2:83ABH         LINE#         430
 C2:83C7H         LINE#         431
 C2:83E3H         LINE#         432
 C2:83FFH         LINE#         433
 C2:841BH         LINE#         434
 C2:8437H         LINE#         435
 C2:8453H         LINE#         436
 C2:846FH         LINE#         437
 C2:848BH         LINE#         438
 C2:84A7H         LINE#         439
 C2:84C3H         LINE#         441
 C2:84C6H         LINE#         446
 C2:84D5H         LINE#         447
 C2:8500H         LINE#         448
 C2:851CH         LINE#         449
 C2:8538H         LINE#         451
 C2:853BH         LINE#         462
 C2:8551H         LINE#         463
 C2:8560H         LINE#         464
  -------         ENDPROC       SMTP_SEND_MAILBODY

  -------         PROC BANK=2   SMTP_SEND_MAILBODY_END
 C2:CC6BH         LINE#         477
 C2:CC6BH         LINE#         478
 C2:CC6BH         LINE#         480
 C2:CC6EH         LINE#         486
 C2:CC86H         LINE#         487
 C2:CCA2H         LINE#         488
 C2:CCBEH         LINE#         489
 C2:CCD4H         LINE#         490
 C2:CCE3H         LINE#         491
  -------         ENDPROC       SMTP_SEND_MAILBODY_END

  -------         PROC BANK=2   SMTP_SEND_CMD_AUTH
 C2:D1B7H         LINE#         504
 C2:D1B7H         LINE#         505
 C2:D1B7H         LINE#         511
 C2:D1BAH         LINE#         516
 C2:D1D2H         LINE#         518
 C2:D1EEH         LINE#         519
 C2:D204H         LINE#         520
 C2:D213H         LINE#         521
  -------         ENDPROC       SMTP_SEND_CMD_AUTH

  -------         PROC BANK=2   _SMTP_SEND_AUTH_ID_PW
  D:0007H         SYMBOL        is_id
  -------         DO            
  X:2F66H         SYMBOL        encoded
  X:2FCAH         SYMBOL        ori
  -------         ENDDO         
 C2:C451H         LINE#         534
 C2:C451H         LINE#         535
 C2:C451H         LINE#         537
 C2:C455H         LINE#         538
BL51 BANKED LINKER/LOCATER V6.00                                                      12/23/2015  16:04:37  PAGE 258


 C2:C463H         LINE#         539
 C2:C466H         LINE#         540
 C2:C481H         LINE#         542
 C2:C484H         LINE#         547
 C2:C4A0H         LINE#         548
 C2:C4B8H         LINE#         549
 C2:C4D4H         LINE#         550
 C2:C4EAH         LINE#         551
 C2:C4F9H         LINE#         552
  -------         ENDPROC       _SMTP_SEND_AUTH_ID_PW

  -------         PROC BANK=2   SMTP_SEND_PACKET
 C2:CD57H         LINE#         565
 C2:CD57H         LINE#         566
 C2:CD57H         LINE#         568
 C2:CD5AH         LINE#         573
 C2:CD9AH         LINE#         574
 C2:CD9AH         LINE#         575
 C2:CD9AH         LINE#         576
 C2:CD9AH         LINE#         577
 C2:CD9DH         LINE#         578
 C2:CD9DH         LINE#         581
 C2:CDA0H         LINE#         582
 C2:CDA4H         LINE#         583
 C2:CDA9H         LINE#         586
 C2:CDACH         LINE#         587
 C2:CDACH         LINE#         588
 C2:CDB2H         LINE#         589
 C2:CDB5H         LINE#         590
 C2:CDBBH         LINE#         591
 C2:CDBCH         LINE#         592
 C2:CDBFH         LINE#         593
 C2:CDC2H         LINE#         594
 C2:CDC5H         LINE#         595
 C2:CDC8H         LINE#         599
 C2:CDC8H         LINE#         600
  -------         ENDPROC       SMTP_SEND_PACKET

  -------         PROC BANK=2   SMTP
  -------         DO            
  X:373FH         SYMBOL        buf
  -------         ENDDO         
 C2:A2C5H         LINE#         615
 C2:A2C5H         LINE#         616
 C2:A2C5H         LINE#         617
 C2:A2CCH         LINE#         619
 C2:A2CFH         LINE#         624
 C2:A2D5H         LINE#         625
 C2:A2D5H         LINE#         626
 C2:A2DCH         LINE#         628
 C2:A2DFH         LINE#         633
 C2:A2DFH         LINE#         635
 C2:A2E9H         LINE#         637
 C2:A301H         LINE#         638
 C2:A306H         LINE#         640
 C2:A309H         LINE#         645
 C2:A33CH         LINE#         646
BL51 BANKED LINKER/LOCATER V6.00                                                      12/23/2015  16:04:37  PAGE 259


 C2:A33CH         LINE#         647
 C2:A33CH         LINE#         648
 C2:A342H         LINE#         649
 C2:A345H         LINE#         650
 C2:A345H         LINE#         651
 C2:A34AH         LINE#         652
 C2:A34DH         LINE#         654
 C2:A34DH         LINE#         655
 C2:A350H         LINE#         656
 C2:A353H         LINE#         658
 C2:A353H         LINE#         659
 C2:A359H         LINE#         660
 C2:A35CH         LINE#         662
 C2:A35CH         LINE#         663
 C2:A35FH         LINE#         664
 C2:A362H         LINE#         666
 C2:A362H         LINE#         667
 C2:A38CH         LINE#         668
 C2:A38CH         LINE#         669
 C2:A38CH         LINE#         670
 C2:A38CH         LINE#         671
 C2:A3AFH         LINE#         672
 C2:A3AFH         LINE#         673
 C2:A3CAH         LINE#         674
 C2:A3CAH         LINE#         675
 C2:A3CEH         LINE#         676
 C2:A3D1H         LINE#         677
 C2:A3E7H         LINE#         678
 C2:A3E9H         LINE#         680
 C2:A3E9H         LINE#         681
 C2:A3E9H         LINE#         682
 C2:A3EBH         LINE#         684
 C2:A3EBH         LINE#         685
 C2:A3F1H         LINE#         686
 C2:A3F7H         LINE#         687
 C2:A40FH         LINE#         688
 C2:A40FH         LINE#         689
 C2:A411H         LINE#         690
 C2:A411H         LINE#         692
 C2:A427H         LINE#         693
 C2:A42CH         LINE#         695
 C2:A42FH         LINE#         699
 C2:A431H         LINE#         700
 C2:A431H         LINE#         701
 C2:A437H         LINE#         702
 C2:A43CH         LINE#         703
 C2:A43FH         LINE#         704
 C2:A445H         LINE#         705
 C2:A447H         LINE#         706
 C2:A447H         LINE#         707
 C2:A45EH         LINE#         708
 C2:A460H         LINE#         709
 C2:A460H         LINE#         710
 C2:A466H         LINE#         711
 C2:A468H         LINE#         712
 C2:A468H         LINE#         713
 C2:A468H         LINE#         715
BL51 BANKED LINKER/LOCATER V6.00                                                      12/23/2015  16:04:37  PAGE 260


 C2:A468H         LINE#         716
 C2:A472H         LINE#         717
 C2:A47CH         LINE#         718
 C2:A47EH         LINE#         720
 C2:A47EH         LINE#         721
 C2:A484H         LINE#         722
 C2:A484H         LINE#         723
 C2:A484H         LINE#         724
 C2:A484H         LINE#         725
 C2:A48FH         LINE#         727
 C2:A492H         LINE#         732
 C2:A492H         LINE#         733
 C2:A49BH         LINE#         734
 C2:A4A2H         LINE#         735
 C2:A4A2H         LINE#         736
 C2:A4A5H         LINE#         737
 C2:A4A8H         LINE#         738
 C2:A4A8H         LINE#         739
 C2:A4A8H         LINE#         740
 C2:A4AFH         LINE#         742
 C2:A4B2H         LINE#         747
 C2:A4BFH         LINE#         748
 C2:A4BFH         LINE#         749
 C2:A4C4H         LINE#         750
 C2:A4C4H         LINE#         751
 C2:A4CAH         LINE#         752
 C2:A4CAH         LINE#         753
 C2:A4CEH         LINE#         754
 C2:A4D4H         LINE#         755
 C2:A4D4H         LINE#         756
 C2:A4D9H         LINE#         757
 C2:A4DCH         LINE#         758
 C2:A4F2H         LINE#         759
 C2:A4F7H         LINE#         761
 C2:A4FAH         LINE#         762
 C2:A4FDH         LINE#         763
 C2:A4FDH         LINE#         764
 C2:A4FDH         LINE#         765
 C2:A4FFH         LINE#         767
 C2:A4FFH         LINE#         768
 C2:A504H         LINE#         769
 C2:A504H         LINE#         770
 C2:A50FH         LINE#         771
 C2:A50FH         LINE#         772
 C2:A514H         LINE#         773
 C2:A514H         LINE#         775
  -------         ENDPROC       SMTP

  -------         PROC BANK=2   SMTPONTCPRX
 C2:D544H         LINE#         788
 C2:D544H         LINE#         789
 C2:D544H         LINE#         790
 C2:D571H         LINE#         791
 C2:D571H         LINE#         792
 C2:D574H         LINE#         793
 C2:D577H         LINE#         794
 C2:D577H         LINE#         795
BL51 BANKED LINKER/LOCATER V6.00                                                      12/23/2015  16:04:37  PAGE 261


 C2:D579H         LINE#         796
  -------         ENDPROC       SMTPONTCPRX

  -------         PROC BANK=2   SMTP_CHECK_MAIL
  -------         DO            
  D:0006H         SYMBOL        j
  -------         ENDDO         
 C2:D3ACH         LINE#         798
 C2:D3ACH         LINE#         799
 C2:D3AEH         LINE#         802
 C2:D3B1H         LINE#         807
 C2:D3B5H         LINE#         808
 C2:D3B8H         LINE#         809
 C2:D3BEH         LINE#         810
 C2:D3D3H         LINE#         811
 C2:D3D3H         LINE#         812
 C2:D3D6H         LINE#         813
 C2:D3DBH         LINE#         814
 C2:D3DBH         LINE#         815
 C2:D3DBH         LINE#         816
 C2:D3DDH         LINE#         818
 C2:D3DDH         LINE#         820
 C2:D3E0H         LINE#         821
 C2:D3E0H         LINE#         822
 C2:D3E7H         LINE#         823
 C2:D3E7H         LINE#         824
 C2:D3EDH         LINE#         825
 C2:D3F4H         LINE#         826
 C2:D3F4H         LINE#         827
 C2:D3F4H         LINE#         828
 C2:D3F4H         LINE#         829
 C2:D3F9H         LINE#         830
  -------         ENDPROC       SMTP_CHECK_MAIL
  -------         ENDMOD        SMTP

  -------         MODULE        BASE64
  C:0000H         SYMBOL        _ICE_DUMMY_
 C2:D30FH         PUBLIC        _b64decode_alloc
 C2:CF1AH         PUBLIC        _b64encode_alloc
 C2:CEAAH         PUBLIC        _b64decode
 C2:CE3AH         PUBLIC        _b64encode
  X:2709H         SYMBOL        b64d
  X:2789H         SYMBOL        b64e
 C2:D6EDH         PUBLIC        _b64decode_len
 C2:D6D0H         PUBLIC        _b64encode_len
 C2:B5F7H         SYMBOL        _b64dec
 C2:AFB0H         SYMBOL        _b64enc
  X:27C9H         PUBLIC        buf_de
  X:282DH         PUBLIC        buf_en

  -------         PROC BANK=2   _B64ENC
  D:0001H         SYMBOL        in
  X:34FFH         SYMBOL        inlen
  X:3501H         SYMBOL        out
  -------         DO            
  D:0007H         SYMBOL        t0
  X:3504H         SYMBOL        t1
BL51 BANKED LINKER/LOCATER V6.00                                                      12/23/2015  16:04:37  PAGE 262


  X:3505H         SYMBOL        t2
  -------         ENDDO         
 C2:AFB0H         LINE#         41
 C2:AFB8H         LINE#         42
 C2:AFB8H         LINE#         43
 C2:AFCAH         LINE#         44
 C2:AFEBH         LINE#         45
 C2:B00CH         LINE#         47
 C2:B020H         LINE#         48
 C2:B043H         LINE#         49
 C2:B073H         LINE#         51
 C2:B084H         LINE#         52
 C2:B08CH         LINE#         53
 C2:B08EH         LINE#         55
 C2:B08EH         LINE#         56
 C2:B0B5H         LINE#         58
 C2:B0C6H         LINE#         59
 C2:B0D8H         LINE#         61
 C2:B0D8H         LINE#         62
 C2:B0FBH         LINE#         63
  -------         ENDPROC       _B64ENC

  -------         PROC BANK=2   _B64DEC
  D:0001H         SYMBOL        in
  D:0004H         SYMBOL        inlen
  X:3494H         SYMBOL        out
  -------         DO            
  X:3497H         SYMBOL        t0
  X:3498H         SYMBOL        t1
  X:3499H         SYMBOL        t2
  X:349AH         SYMBOL        t3
  -------         ENDDO         
 C2:B5F7H         LINE#         65
 C2:B5F7H         LINE#         66
 C2:B5F7H         LINE#         67
 C2:B61BH         LINE#         68
 C2:B642H         LINE#         69
 C2:B669H         LINE#         70
 C2:B690H         LINE#         72
 C2:B69EH         LINE#         73
 C2:B6BDH         LINE#         74
 C2:B6C8H         LINE#         75
 C2:B6D8H         LINE#         77
 C2:B6D8H         LINE#         78
 C2:B6FEH         LINE#         79
 C2:B709H         LINE#         80
 C2:B70FH         LINE#         82
 C2:B70FH         LINE#         83
 C2:B722H         LINE#         84
  -------         ENDPROC       _B64DEC

  -------         PROC BANK=2   _B64ENCODE_LEN
  D:0001H         SYMBOL        in
  -------         DO            
  D:0006H         SYMBOL        l
  -------         ENDDO         
 C2:D6D0H         LINE#         86
BL51 BANKED LINKER/LOCATER V6.00                                                      12/23/2015  16:04:37  PAGE 263


 C2:D6D0H         LINE#         87
 C2:D6D0H         LINE#         88
 C2:D6D3H         LINE#         89
 C2:D6ECH         LINE#         90
  -------         ENDPROC       _B64ENCODE_LEN

  -------         PROC BANK=2   _B64DECODE_LEN
  D:0001H         SYMBOL        in
  -------         DO            
  D:0006H         SYMBOL        l
  -------         ENDDO         
 C2:D6EDH         LINE#         92
 C2:D6EDH         LINE#         93
 C2:D6EDH         LINE#         94
 C2:D6F0H         LINE#         95
 C2:D705H         LINE#         96
  -------         ENDPROC       _B64DECODE_LEN

  -------         PROC BANK=2   _B64ENCODE_ALLOC
  D:0001H         SYMBOL        in
  -------         DO            
  D:0006H         SYMBOL        l
  X:37A1H         SYMBOL        n
  -------         ENDDO         
 C2:CF1AH         LINE#         98
 C2:CF1AH         LINE#         99
 C2:CF1AH         LINE#         100
 C2:CF1DH         LINE#         101
 C2:CF2BH         LINE#         102
 C2:CF39H         LINE#         103
 C2:CF4EH         LINE#         104
 C2:CF56H         LINE#         105
 C2:CF71H         LINE#         106
 C2:CF73H         LINE#         107
 C2:CF73H         LINE#         108
 C2:CF7EH         LINE#         109
  -------         ENDPROC       _B64ENCODE_ALLOC

  -------         PROC BANK=2   _B64ENCODE
  X:35FDH         SYMBOL        in
  X:3600H         SYMBOL        out
  -------         DO            
  X:3603H         SYMBOL        inlen
  -------         ENDDO         
 C2:CE3AH         LINE#         111
 C2:CE45H         LINE#         112
 C2:CE45H         LINE#         113
 C2:CE50H         LINE#         114
 C2:CE62H         LINE#         115
 C2:CE85H         LINE#         116
 C2:CE93H         LINE#         117
 C2:CE9DH         LINE#         118
 C2:CEA7H         LINE#         119
 C2:CEA9H         LINE#         120
  -------         ENDPROC       _B64ENCODE

  -------         PROC BANK=2   _B64DECODE_ALLOC
BL51 BANKED LINKER/LOCATER V6.00                                                      12/23/2015  16:04:37  PAGE 264


  D:0001H         SYMBOL        in
  -------         DO            
  D:0006H         SYMBOL        l
  X:37A4H         SYMBOL        n
  -------         ENDDO         
 C2:D30FH         LINE#         122
 C2:D30FH         LINE#         123
 C2:D30FH         LINE#         124
 C2:D312H         LINE#         125
 C2:D320H         LINE#         126
 C2:D32EH         LINE#         127
 C2:D336H         LINE#         128
 C2:D350H         LINE#         129
 C2:D352H         LINE#         130
 C2:D352H         LINE#         131
 C2:D35DH         LINE#         132
  -------         ENDPROC       _B64DECODE_ALLOC

  -------         PROC BANK=2   _B64DECODE
  X:3605H         SYMBOL        in
  X:3608H         SYMBOL        out
  -------         DO            
  X:360BH         SYMBOL        inlen
  -------         ENDDO         
 C2:CEAAH         LINE#         134
 C2:CEB5H         LINE#         135
 C2:CEC0H         LINE#         136
 C2:CED2H         LINE#         137
 C2:CEF5H         LINE#         138
 C2:CF03H         LINE#         139
 C2:CF0DH         LINE#         140
 C2:CF17H         LINE#         141
 C2:CF19H         LINE#         142
  -------         ENDPROC       _B64DECODE
  -------         ENDMOD        BASE64

  -------         MODULE        CRAM_MD5
  C:0000H         SYMBOL        _ICE_DUMMY_
  X:2E8CH         PUBLIC        buf_md5
 C2:D26BH         PUBLIC        _cram_md5_decode
 C2:D506H         PUBLIC        _cram_md5_encode
  X:2EF0H         PUBLIC        _cram_md5_param
 C2:B72EH         PUBLIC        _cram_md5
  -------         PROC          L?0004
  -------         ENDPROC       L?0004

  -------         PROC BANK=2   _CRAM_MD5
  X:349BH         SYMBOL        cram_md5_param
  -------         DO            
  X:349EH         SYMBOL        challenge
  X:34A1H         SYMBOL        decoded
  X:34A4H         SYMBOL        encoded
  -------         ENDDO         
 C2:B72EH         LINE#         20
 C2:B739H         LINE#         21
 C2:B739H         LINE#         26
 C2:B74DH         LINE#         27
BL51 BANKED LINKER/LOCATER V6.00                                                      12/23/2015  16:04:37  PAGE 265


 C2:B77EH         LINE#         29
 C2:B7A0H         LINE#         31
 C2:B7AEH         LINE#         33
 C2:B7D6H         LINE#         35
 C2:B7EFH         LINE#         36
 C2:B812H         LINE#         37
 C2:B834H         LINE#         38
  -------         ENDPROC       _CRAM_MD5

  -------         PROC BANK=2   _CRAM_MD5_ENCODE
  D:0001H         SYMBOL        in
  X:36D6H         SYMBOL        out
 C2:D506H         LINE#         39
 C2:D506H         LINE#         40
 C2:D506H         LINE#         41
 C2:D511H         LINE#         42
 C2:D51DH         LINE#         43
 C2:D524H         LINE#         44
 C2:D527H         LINE#         45
  -------         ENDPROC       _CRAM_MD5_ENCODE

  -------         PROC BANK=2   _CRAM_MD5_DECODE
  X:36D9H         SYMBOL        in
  X:36DCH         SYMBOL        out
 C2:D26BH         LINE#         48
 C2:D276H         LINE#         49
 C2:D276H         LINE#         50
 C2:D284H         LINE#         51
 C2:D290H         LINE#         52
 C2:D2A0H         LINE#         53
 C2:D2A3H         LINE#         54
  -------         ENDPROC       _CRAM_MD5_DECODE
  -------         ENDMOD        CRAM_MD5

  -------         MODULE        SNMP_TRAP
  C:0000H         SYMBOL        _ICE_DUMMY_
  -------         ENDMOD        SNMP_TRAP

  -------         MODULE        ?C?COPY
  C:0185H         PUBLIC        ?C?COPY
  -------         ENDMOD        ?C?COPY

  -------         MODULE        ?C?CLDPTR
  C:01ABH         PUBLIC        ?C?CLDPTR
  -------         ENDMOD        ?C?CLDPTR

  -------         MODULE        ?C?CLDOPTR
  C:01C4H         PUBLIC        ?C?CLDOPTR
  -------         ENDMOD        ?C?CLDOPTR

  -------         MODULE        ?C?CLDIOPTR
  C:01F1H         PUBLIC        ?C?CLDIOPTR
  -------         ENDMOD        ?C?CLDIOPTR

  -------         MODULE        ?C?CILDPTR
  C:0228H         PUBLIC        ?C?CILDPTR
  -------         ENDMOD        ?C?CILDPTR
BL51 BANKED LINKER/LOCATER V6.00                                                      12/23/2015  16:04:37  PAGE 266



  -------         MODULE        ?C?CILDOPTR
  C:024AH         PUBLIC        ?C?CILDOPTR
  -------         ENDMOD        ?C?CILDOPTR

  -------         MODULE        ?C?CSTPTR
  C:027DH         PUBLIC        ?C?CSTPTR
  -------         ENDMOD        ?C?CSTPTR

  -------         MODULE        ?C?CSTOPTR
  C:028FH         PUBLIC        ?C?CSTOPTR
  -------         ENDMOD        ?C?CSTOPTR

  -------         MODULE        ?C?IMUL
  C:02B1H         PUBLIC        ?C?IMUL
  -------         ENDMOD        ?C?IMUL

  -------         MODULE        ?C?UIDIV
  C:02C3H         PUBLIC        ?C?UIDIV
  -------         ENDMOD        ?C?UIDIV

  -------         MODULE        ?C?SIDIV
  C:0318H         PUBLIC        ?C?SIDIV
  -------         ENDMOD        ?C?SIDIV

  -------         MODULE        ?C?IILDX
  C:034EH         PUBLIC        ?C?IILDX
  -------         ENDMOD        ?C?IILDX

  -------         MODULE        ?C?ILDIX
  C:0364H         PUBLIC        ?C?ILDIX
  -------         ENDMOD        ?C?ILDIX

  -------         MODULE        ?C?ILDPTR
  C:037AH         PUBLIC        ?C?ILDPTR
  -------         ENDMOD        ?C?ILDPTR

  -------         MODULE        ?C?ILDOPTR
  C:03A5H         PUBLIC        ?C?ILDOPTR
  -------         ENDMOD        ?C?ILDOPTR

  -------         MODULE        ?C?IILDPTR
  C:03DDH         PUBLIC        ?C?IILDPTR
  -------         ENDMOD        ?C?IILDPTR

  -------         MODULE        ?C?IILDOPTR
  C:0415H         PUBLIC        ?C?IILDOPTR
  -------         ENDMOD        ?C?IILDOPTR

  -------         MODULE        ?C?ISTPTR
  C:0462H         PUBLIC        ?C?ISTPTR
  -------         ENDMOD        ?C?ISTPTR

  -------         MODULE        ?C?ISTOPTR
  C:0481H         PUBLIC        ?C?ISTOPTR
  -------         ENDMOD        ?C?ISTOPTR

BL51 BANKED LINKER/LOCATER V6.00                                                      12/23/2015  16:04:37  PAGE 267


  -------         MODULE        ?C?LMUL
  C:04AEH         PUBLIC        ?C?LMUL
  -------         ENDMOD        ?C?LMUL

  -------         MODULE        ?C?ULDIV
  C:0539H         PUBLIC        ?C?ULDIV
  -------         ENDMOD        ?C?ULDIV

  -------         MODULE        ?C?LNOT
  C:05CBH         PUBLIC        ?C?LNOT
  -------         ENDMOD        ?C?LNOT

  -------         MODULE        ?C?SLCMP
  C:05D8H         PUBLIC        ?C?SLCMP
  -------         ENDMOD        ?C?SLCMP

  -------         MODULE        ?C?ULCMP
  C:05EEH         PUBLIC        ?C?ULCMP
  -------         ENDMOD        ?C?ULCMP

  -------         MODULE        ?C?ULSHR
  C:05FFH         PUBLIC        ?C?ULSHR
  -------         ENDMOD        ?C?ULSHR

  -------         MODULE        ?C?LSHL
  C:0612H         PUBLIC        ?C?LSHL
  -------         ENDMOD        ?C?LSHL

  -------         MODULE        ?C?LLDPTR
  C:0625H         PUBLIC        ?C?LLDPTR
  -------         ENDMOD        ?C?LLDPTR

  -------         MODULE        ?C?LLDOPTR
  C:0645H         PUBLIC        ?C?LLDOPTR
  -------         ENDMOD        ?C?LLDOPTR

  -------         MODULE        ?C?LSTPTR
  C:0675H         PUBLIC        ?C?LSTPTR
  -------         ENDMOD        ?C?LSTPTR

  -------         MODULE        ?C?LSTOPTR
  C:068FH         PUBLIC        ?C?LSTOPTR
  -------         ENDMOD        ?C?LSTOPTR

  -------         MODULE        ?C?LLDPTR0
  C:06B3H         PUBLIC        ?C?LLDPTR0
  -------         ENDMOD        ?C?LLDPTR0

  -------         MODULE        ?C?LLDIXDATA
  C:06DCH         PUBLIC        ?C?LLDIXDATA
  C:06D3H         PUBLIC        ?C?LLDIXDATA1
  C:06D5H         PUBLIC        ?C?LLDIXDATA8
  -------         ENDMOD        ?C?LLDIXDATA

  -------         MODULE        ?C?LSTXDATA
  C:0708H         PUBLIC        ?C?LSTXDATA
  -------         ENDMOD        ?C?LSTXDATA
BL51 BANKED LINKER/LOCATER V6.00                                                      12/23/2015  16:04:37  PAGE 268



  -------         MODULE        ?C?LSTKXDATA
  C:0714H         PUBLIC        ?C?LSTKXDATA
  -------         ENDMOD        ?C?LSTKXDATA

  -------         MODULE        ?C?LSTKOPTR
  C:0745H         PUBLIC        ?C?LSTKOPTR
  -------         ENDMOD        ?C?LSTKOPTR

  -------         MODULE        ?C?OFFXADD
  C:0769H         PUBLIC        ?C?OFFXADD
  -------         ENDMOD        ?C?OFFXADD

  -------         MODULE        ?C?PLDPTR
  C:0775H         PUBLIC        ?C?PLDPTR
  -------         ENDMOD        ?C?PLDPTR

  -------         MODULE        ?C?PSTPTR
  C:0795H         PUBLIC        ?C?PSTPTR
  -------         ENDMOD        ?C?PSTPTR

  -------         MODULE        ?C?PLDOPTR
  C:07E4H         PUBLIC        ?C?PLDOPTR
  -------         ENDMOD        ?C?PLDOPTR

  -------         MODULE        ?C?PSTOPTR
  C:0814H         PUBLIC        ?C?PSTOPTR
  -------         ENDMOD        ?C?PSTOPTR

  -------         MODULE        ?C?CCASE
  C:086DH         PUBLIC        ?C?CCASE
  -------         ENDMOD        ?C?CCASE

  -------         MODULE        ?C?ICASE
  C:0893H         PUBLIC        ?C?ICASE
  -------         ENDMOD        ?C?ICASE

  -------         MODULE        ?C?ICALL
  C:08C0H         PUBLIC        ?C?ICALL
  C:08C4H         PUBLIC        ?C?ICALL2
  -------         ENDMOD        ?C?ICALL

  -------         MODULE        PRINTF
  X:3280H         PUBLIC        ?_PRINTF517?BYTE
  X:3280H         PUBLIC        ?_PRINTF?BYTE
  X:3280H         PUBLIC        ?_SPRINTF517?BYTE
  X:3280H         PUBLIC        ?_SPRINTF?BYTE
  C:265EH         PUBLIC        _PRINTF
  C:265EH         PUBLIC        _PRINTF517
  C:2658H         PUBLIC        _SPRINTF
  C:2658H         PUBLIC        _SPRINTF517
  -------         ENDMOD        PRINTF

  -------         MODULE        RAND
  X:3743H         PUBLIC        ?SRAND?BYTE
  C:3946H         PUBLIC        RAND
  C:3984H         PUBLIC        _SRAND
BL51 BANKED LINKER/LOCATER V6.00                                                      12/23/2015  16:04:37  PAGE 269


  -------         ENDMOD        RAND

  -------         MODULE        SCANF
  X:31D7H         PUBLIC        ?_SCANF517?BYTE
  X:31D7H         PUBLIC        ?_SCANF?BYTE
  X:31D7H         PUBLIC        ?_SSCANF517?BYTE
  X:31D7H         PUBLIC        ?_SSCANF?BYTE
  C:29E5H         PUBLIC        _SCANF
  C:29E5H         PUBLIC        _SCANF517
  C:29E1H         PUBLIC        _SSCANF
  C:29E1H         PUBLIC        _SSCANF517
  -------         ENDMOD        SCANF

  -------         MODULE        STRCAT
  X:357BH         PUBLIC        ?_strcat?BYTE
  C:38DBH         PUBLIC        _strcat
  -------         ENDMOD        STRCAT

  -------         MODULE        ?C?STRCMP
  C:0A4EH         PUBLIC        ?C?STRCMP
  -------         ENDMOD        ?C?STRCMP

  -------         MODULE        STRNCMP
  X:360DH         PUBLIC        ?_strncmp?BYTE
  C:37F7H         PUBLIC        _strncmp
  -------         ENDMOD        STRNCMP

  -------         MODULE        ?C?STRCPY
  C:0B37H         PUBLIC        ?C?STRCPY
  -------         ENDMOD        ?C?STRCPY

  -------         MODULE        STRLEN
  C:3BC7H         PUBLIC        _STRLEN
  -------         ENDMOD        STRLEN

  -------         MODULE        STRCHR
  C:3B7AH         PUBLIC        _STRCHR
  -------         ENDMOD        STRCHR

  -------         MODULE        STRCSPN
  X:3584H         PUBLIC        ?_strcspn?BYTE
  C:3776H         PUBLIC        _strcspn
  -------         ENDMOD        STRCSPN

  -------         MODULE        ATOL
  C:3135H         PUBLIC        _atol
  -------         ENDMOD        ATOL

  -------         MODULE        ATOI
  C:3323H         PUBLIC        _atoi
  -------         ENDMOD        ATOI

  -------         MODULE        ?C?MEMCMP
  C:0CDAH         PUBLIC        ?C?MEMCMP
  -------         ENDMOD        ?C?MEMCMP

  -------         MODULE        ?C?MEMSET
BL51 BANKED LINKER/LOCATER V6.00                                                      12/23/2015  16:04:37  PAGE 270


  C:0CFEH         PUBLIC        ?C?MEMSET
  -------         ENDMOD        ?C?MEMSET

  -------         MODULE        ?C?LNEG
  C:0D2AH         PUBLIC        ?C?LNEG
  -------         ENDMOD        ?C?LNEG

  -------         MODULE        ?C?LLDIDATA
  C:0D38H         PUBLIC        ?C?LLDIDATA
  -------         ENDMOD        ?C?LLDIDATA

  -------         MODULE        ?C?LLDXDATA
  C:0D44H         PUBLIC        ?C?LLDXDATA
  -------         ENDMOD        ?C?LLDXDATA

  -------         MODULE        ?C?LLDPDATA
  C:0D50H         PUBLIC        ?C?LLDPDATA
  -------         ENDMOD        ?C?LLDPDATA

  -------         MODULE        ?C?LLDCODE
  C:0D5CH         PUBLIC        ?C?LLDCODE
  -------         ENDMOD        ?C?LLDCODE

  -------         MODULE        ?C?LLDIDATA0
  C:0D6CH         PUBLIC        ?C?LLDIDATA0
  -------         ENDMOD        ?C?LLDIDATA0

  -------         MODULE        ?C?LLDXDATA0
  C:0D79H         PUBLIC        ?C?LLDXDATA0
  -------         ENDMOD        ?C?LLDXDATA0

  -------         MODULE        ?C?LLDPDATA0
  C:0D85H         PUBLIC        ?C?LLDPDATA0
  -------         ENDMOD        ?C?LLDPDATA0

  -------         MODULE        ?C?LLDCODE0
  C:0D92H         PUBLIC        ?C?LLDCODE0
  -------         ENDMOD        ?C?LLDCODE0

  -------         MODULE        ?C?LSTIDATA
  C:0DA2H         PUBLIC        ?C?LSTIDATA
  -------         ENDMOD        ?C?LSTIDATA

  -------         MODULE        ?C?LSTPDATA
  C:0DAEH         PUBLIC        ?C?LSTPDATA
  -------         ENDMOD        ?C?LSTPDATA

  -------         MODULE        ?C?LSTKIDATA
  C:0DBAH         PUBLIC        ?C?LSTKIDATA
  -------         ENDMOD        ?C?LSTKIDATA

  -------         MODULE        ?C?LSTKPDATA
  C:0DD3H         PUBLIC        ?C?LSTKPDATA
  -------         ENDMOD        ?C?LSTKPDATA

  -------         MODULE        ?C?PLDIDATA
  C:0DECH         PUBLIC        ?C?PLDIDATA
BL51 BANKED LINKER/LOCATER V6.00                                                      12/23/2015  16:04:37  PAGE 271


  -------         ENDMOD        ?C?PLDIDATA

  -------         MODULE        ?C?PSTIDATA
  C:0DF5H         PUBLIC        ?C?PSTIDATA
  -------         ENDMOD        ?C?PSTIDATA

  -------         MODULE        ?C?PLDXDATA
  C:0DFEH         PUBLIC        ?C?PLDXDATA
  -------         ENDMOD        ?C?PLDXDATA

  -------         MODULE        ?C?PLDIXDATA
  C:0E07H         PUBLIC        ?C?PLDIXDATA
  -------         ENDMOD        ?C?PLDIXDATA

  -------         MODULE        ?C?PILDXDATA
  C:0E1EH         PUBLIC        ?C?PILDXDATA
  -------         ENDMOD        ?C?PILDXDATA

  -------         MODULE        ?C?PSTXDATA
  C:0E35H         PUBLIC        ?C?PSTXDATA
  -------         ENDMOD        ?C?PSTXDATA

  -------         MODULE        ?C?PLDPDATA
  C:0E3EH         PUBLIC        ?C?PLDPDATA
  -------         ENDMOD        ?C?PLDPDATA

  -------         MODULE        ?C?PSTPDATA
  C:0E47H         PUBLIC        ?C?PSTPDATA
  -------         ENDMOD        ?C?PSTPDATA

  -------         MODULE        ?C?PLDCODE
  C:0E50H         PUBLIC        ?C?PLDCODE
  -------         ENDMOD        ?C?PLDCODE

  -------         MODULE        PUTCHAR
  C:3AE1H         PUBLIC        _PUTCHAR
  -------         ENDMOD        PUTCHAR

  -------         MODULE        GETCHAR
  B:0027H.1       PUBLIC        ?C?CHARLOADED
  X:37DAH         PUBLIC        ?_UNGETCHAR?BYTE
  C:3BF0H         PUBLIC        GETCHAR
  -------         ENDMOD        GETCHAR

  -------         MODULE        UNGETC
  C:3C88H         PUBLIC        _UNGETCHAR
  -------         ENDMOD        UNGETC

  -------         MODULE        ISDIGIT
  C:3C5AH         PUBLIC        _isdigit
  -------         ENDMOD        ISDIGIT

  -------         MODULE        ISSPACE
  C:3C04H         PUBLIC        _isspace
  -------         ENDMOD        ISSPACE

  -------         MODULE        _GETKEY
BL51 BANKED LINKER/LOCATER V6.00                                                      12/23/2015  16:04:37  PAGE 272


  C:3C76H         PUBLIC        _GETKEY
  -------         ENDMOD        _GETKEY

Program Size: data=99.2 xdata=14299 code=181854
LINK/LOCATE RUN COMPLETE.  0 WARNING(S),  0 ERROR(S)
