BL51 BANKED LINKER/LOCATER V5.03                                                        08/07/2012  16:42:10  PAGE 1


BL51 BANKED LINKER/LOCATER V5.03, INVOKED BY:
C:\KEIL\C51\BIN\BL51.EXE .\obj\main.obj, .\obj\bootmain.obj, .\obj\STARTUP.obj, .\obj\eedefault.obj, .\obj\ee_process.ob
>> j, .\obj\kernelsetting.obj, .\obj\fw_os_cbk.obj, .\obj\tftpd.obj, .\obj\uip_arp.obj, .\obj\udp.obj, .\obj\dma.obj, .\
>> obj\flash.obj, .\obj\MACdriver.obj, .\obj\eeprom.obj, .\obj\serial.obj, .\obj\delay.obj, .\obj\flashsum.obj, .\obj\ti
>> mer.obj, .\obj\uip.obj, .\obj\httpd.obj, .\obj\httpd_app.obj, .\obj\cgi.obj, .\obj\cgiutil.obj, .\obj\htmfiles.obj, .
>> \obj\updateCbk.obj TO .\obj\firmwareUpdate PRINT (.\obj\firmwareUpdate.m51) NOOVERLAY, CODE (0X6000-0XFFFF, ?CO?EEDEF
>> AULT (0X8000), ?CO?FLASH (0X8092), ?PR?*?FLASH (0X8180), ?PR?PRINTF?PRINTF (0X8E8F), ?PR?PUTCHAR?PUTCHAR (0X91FF), ?P
>> R?MAIN?MAIN (0X9226), ?FLASHSUM (0X92C0), ?DELAY (0X9300), ?C?LIB_CODE (0X931A), ?PR?WATCHDOGTIMERRESET?MAIN (0X9E84)
>> ) XDATA (0X2800-0X4FFF)


MEMORY MODEL: LARGE


INPUT MODULES INCLUDED:
  .\obj\main.obj (MAIN)
  .\obj\bootmain.obj (BOOTMAIN)
  .\obj\STARTUP.obj (?C_STARTUP)
  .\obj\eedefault.obj (EEDEFAULT)
  .\obj\ee_process.obj (EE_PROCESS)
  .\obj\kernelsetting.obj (KERNELSETTING)
  .\obj\fw_os_cbk.obj (FW_OS_CBK)
  .\obj\tftpd.obj (TFTPD)
  .\obj\uip_arp.obj (UIP_ARP)
  .\obj\udp.obj (UDP)
  .\obj\dma.obj (DMA)
  .\obj\flash.obj (FLASH)
  .\obj\MACdriver.obj (MACDRIVER)
  .\obj\eeprom.obj (EEPROM)
  .\obj\serial.obj (SERIAL)
  .\obj\delay.obj (?DELAY_MS)
  .\obj\flashsum.obj (?FLASHSUM)
  .\obj\timer.obj (TIMER)
  .\obj\uip.obj (UIP)
  .\obj\httpd.obj (HTTPD)
  .\obj\httpd_app.obj (HTTPD_APP)
  .\obj\cgi.obj (CGI)
  .\obj\cgiutil.obj (CGIUTIL)
  .\obj\htmfiles.obj (HTMFILES)
  .\obj\updateCbk.obj (UPDATECBK)
  C:\KEIL\C51\LIB\C51L.LIB (?C_INIT)
  C:\KEIL\C51\LIB\C51L.LIB (?C?COPY)
  C:\KEIL\C51\LIB\C51L.LIB (?C?CLDPTR)
  C:\KEIL\C51\LIB\C51L.LIB (?C?CLDOPTR)
  C:\KEIL\C51\LIB\C51L.LIB (?C?CLDIOPTR)
  C:\KEIL\C51\LIB\C51L.LIB (?C?CILDOPTR)
  C:\KEIL\C51\LIB\C51L.LIB (?C?CSTPTR)
  C:\KEIL\C51\LIB\C51L.LIB (?C?CSTOPTR)
  C:\KEIL\C51\LIB\C51L.LIB (?C?IMUL)
  C:\KEIL\C51\LIB\C51L.LIB (?C?UIDIV)
  C:\KEIL\C51\LIB\C51L.LIB (?C?SIDIV)
  C:\KEIL\C51\LIB\C51L.LIB (?C?IILDX)
  C:\KEIL\C51\LIB\C51L.LIB (?C?ILDPTR)
  C:\KEIL\C51\LIB\C51L.LIB (?C?ILDOPTR)
  C:\KEIL\C51\LIB\C51L.LIB (?C?IILDOPTR)
  C:\KEIL\C51\LIB\C51L.LIB (?C?ISTPTR)
  C:\KEIL\C51\LIB\C51L.LIB (?C?ISTOPTR)
  C:\KEIL\C51\LIB\C51L.LIB (?C?LADD)
BL51 BANKED LINKER/LOCATER V5.03                                                      08/07/2012  16:42:10  PAGE 2


  C:\KEIL\C51\LIB\C51L.LIB (?C?LMUL)
  C:\KEIL\C51\LIB\C51L.LIB (?C?ULDIV)
  C:\KEIL\C51\LIB\C51L.LIB (?C?LNOT)
  C:\KEIL\C51\LIB\C51L.LIB (?C?SLCMP)
  C:\KEIL\C51\LIB\C51L.LIB (?C?ULCMP)
  C:\KEIL\C51\LIB\C51L.LIB (?C?ULSHR)
  C:\KEIL\C51\LIB\C51L.LIB (?C?LLDXDATA)
  C:\KEIL\C51\LIB\C51L.LIB (?C?LLDXDATA0)
  C:\KEIL\C51\LIB\C51L.LIB (?C?LSTXDATA)
  C:\KEIL\C51\LIB\C51L.LIB (?C?LSTKXDATA)
  C:\KEIL\C51\LIB\C51L.LIB (?C?OFFXADD)
  C:\KEIL\C51\LIB\C51L.LIB (?C?PLDXDATA)
  C:\KEIL\C51\LIB\C51L.LIB (?C?PSTXDATA)
  C:\KEIL\C51\LIB\C51L.LIB (?C?PLDPTR)
  C:\KEIL\C51\LIB\C51L.LIB (?C?PSTPTR)
  C:\KEIL\C51\LIB\C51L.LIB (?C?PLDOPTR)
  C:\KEIL\C51\LIB\C51L.LIB (?C?PSTOPTR)
  C:\KEIL\C51\LIB\C51L.LIB (?C?CCASE)
  C:\KEIL\C51\LIB\C51L.LIB (?C?ICASE)
  C:\KEIL\C51\LIB\C51L.LIB (?C?ICALL)
  C:\KEIL\C51\LIB\C51L.LIB (PRINTF)
  C:\KEIL\C51\LIB\C51L.LIB (?C?STRCMP)
  C:\KEIL\C51\LIB\C51L.LIB (STRNCMP)
  C:\KEIL\C51\LIB\C51L.LIB (?C?STRCPY)
  C:\KEIL\C51\LIB\C51L.LIB (STRLEN)
  C:\KEIL\C51\LIB\C51L.LIB (STRCHR)
  C:\KEIL\C51\LIB\C51L.LIB (STRCSPN)
  C:\KEIL\C51\LIB\C51L.LIB (?C?MEMCMP)
  C:\KEIL\C51\LIB\C51L.LIB (?C?MEMSET)
  C:\KEIL\C51\LIB\C51L.LIB (?C?PLDIDATA)
  C:\KEIL\C51\LIB\C51L.LIB (?C?PSTIDATA)
  C:\KEIL\C51\LIB\C51L.LIB (?C?PLDIXDATA)
  C:\KEIL\C51\LIB\C51L.LIB (?C?PLDPDATA)
  C:\KEIL\C51\LIB\C51L.LIB (?C?PSTPDATA)
  C:\KEIL\C51\LIB\C51L.LIB (?C?PLDCODE)
  C:\KEIL\C51\LIB\C51L.LIB (PUTCHAR)


LINK MAP OF MODULE:  .\obj\firmwareUpdate (MAIN)


            TYPE    BASE      LENGTH    RELOCATION   SEGMENT NAME
            -----------------------------------------------------

            * * * * * * *   D A T A   M E M O R Y   * * * * * * *
            REG     0000H     0008H     ABSOLUTE     "REG BANK 0"
            DATA    0008H     0018H     ABSOLUTE     
            BIT     0020H.0   000AH.0   ABSOLUTE     
            BIT     002AH.0   0001H.1   UNIT         ?BI?PRINTF?PRINTF
                    002BH.1   0000H.7                *** GAP ***
            DATA    002CH     0003H     UNIT         ?DT?FLASHIDENTIFICATION?FLASH
                    002FH     0001H                  *** GAP ***
            DATA    0030H     0030H     ABSOLUTE     
            DATA    0060H     0005H     UNIT         ?DT?PRINTF?PRINTF
            DATA    0065H     0002H     UNIT         ?DT?_FLASH_READ_BYTE?FLASH
            DATA    0067H     0002H     UNIT         ?DT?_FLASH_WRITE_BYTE?FLASH
            DATA    0069H     0002H     UNIT         ?DT?_FLASH_ERASE_SECTOR_MX29LV004CB_BOTTOMSECTOR_WHILE?FLASH
BL51 BANKED LINKER/LOCATER V5.03                                                      08/07/2012  16:42:10  PAGE 3


            DATA    006BH     0002H     UNIT         ?DT?_FLASH_ERASE_SECTOR_MX29LV800CB_BOTTOMSECTOR_WHILE?FLASH
            DATA    006DH     0002H     UNIT         ?DT?_FLASH_ERASE_SECTOR_SST39VF1681?FLASH
            DATA    006FH     0002H     UNIT         ?DT?FLASH_ERASE_BANK_SST39VF1681?FLASH
            DATA    0071H     0002H     UNIT         ?DT?_FLASH_ERASE_SECTOR_SST39VLF040?FLASH
            IDATA   0073H     0001H     UNIT         ?STACK

            * * * * * * *  X D A T A   M E M O R Y  * * * * * * *
                    0000H     2800H                  *** GAP ***
            XDATA   2800H     0FA1H     UNIT         ?XD?UPDATECBK
            XDATA   37A1H     0A89H     UNIT         ?XD?UIP
            XDATA   422AH     0858H     UNIT         ?XD?EE_PROCESS
            XDATA   4A82H     00B7H     UNIT         ?XD?UIP_ARP
            XDATA   4B39H     0095H     UNIT         ?XD?HTMFILES
            XDATA   4BCEH     0048H     UNIT         ?XD?HTTPD
            XDATA   4C16H     002DH     UNIT         ?XD?BOOTMAIN
            XDATA   4C43H     0028H     UNIT         ?XD?PRINTF?PRINTF
            XDATA   4C6BH     001AH     UNIT         ?XD?_CGI_FIRMWAREUPDATE?UPDATECBK
            XDATA   4C85H     0019H     UNIT         ?XD?FLASH
            XDATA   4C9EH     0013H     UNIT         ?XD?_SSI_MAIN?UPDATECBK
            XDATA   4CB1H     0012H     UNIT         ?XD?HTTPD?HTTPD
            XDATA   4CC3H     000DH     UNIT         ?XD?_ETHERNETRECEIVE?MACDRIVER
            XDATA   4CD0H     000DH     UNIT         ?XD?_STRFIND?HTTPD_APP
            XDATA   4CDDH     000BH     UNIT         ?XD?_FIRMWAREUPDATEFLASHBANKCHECK?FLASH
            XDATA   4CE8H     000BH     UNIT         ?XD?_UIP_CONNECT?UIP
            XDATA   4CF3H     000AH     UNIT         ?XD?WITH_TAG_PAGE?CGIUTIL
            XDATA   4CFDH     0009H     UNIT         ?XD?_IP210_DMA?DMA
            XDATA   4D06H     0009H     UNIT         ?XD?MACDRIVER
            XDATA   4D0FH     0009H     UNIT         ?XD?_STOUI?CGIUTIL
            XDATA   4D18H     0009H     UNIT         ?XD?_STRCSPN?STRCSPN
            XDATA   4D21H     0008H     UNIT         ?XD?FIRMWAREUPDATEFLASHCHECK?FLASH
            XDATA   4D29H     0008H     UNIT         ?XD?TIMER
            XDATA   4D31H     0008H     UNIT         ?XD?_UITOS?CGIUTIL
            XDATA   4D39H     0008H     UNIT         ?XD?_STRNCMP?STRNCMP
            XDATA   4D41H     0007H     UNIT         ?XD?MAIN
            XDATA   4D48H     0007H     UNIT         ?XD?_FIRMWAREUPDATEWRITEDATA?FLASH
            XDATA   4D4FH     0006H     UNIT         ?XD?KERNELSETTING
            XDATA   4D55H     0006H     UNIT         ?XD?_UIP_ARP_UPDATE?UIP_ARP
            XDATA   4D5BH     0006H     UNIT         ?XD?_ETHERNETSEND?MACDRIVER
            XDATA   4D61H     0006H     UNIT         ?XD?CGIUTIL
            XDATA   4D67H     0006H     UNIT         ?XD?_FS_OPEN03?HTMFILES
            XDATA   4D6DH     0005H     UNIT         ?XD?_FLASH_WRITE_BYTE?FLASH
            XDATA   4D72H     0004H     UNIT         ?XD?LOADEEPROM2MEMORY?EE_PROCESS
            XDATA   4D76H     0004H     UNIT         ?XD?_FLASH_ERASE_SECTOR_SST39VLF040?FLASH
            XDATA   4D7AH     0004H     UNIT         ?XD?_UIP_PROCESS?UIP
            XDATA   4D7EH     0004H     UNIT         ?XD?_CGI_CALLERASE?UPDATECBK
            XDATA   4D82H     0004H     UNIT         ?XD?_SSI_WARN?UPDATECBK
            XDATA   4D86H     0003H     UNIT         ?XD?BOOTMAIN?BOOTMAIN
            XDATA   4D89H     0003H     UNIT         ?XD?EEPROMINIT?EE_PROCESS
            XDATA   4D8CH     0003H     UNIT         ?XD?UIP_ARP_OUT?UIP_ARP
            XDATA   4D8FH     0003H     UNIT         ?XD?_CRC_CALCULATION?DMA
            XDATA   4D92H     0003H     UNIT         ?XD?_EEPROM_READ_BYTE?EEPROM
            XDATA   4D95H     0003H     UNIT         ?XD?_UIP_LOG?UIP
            XDATA   4D98H     0003H     UNIT         ?XD?_HTTPD_INIT_FILE?HTTPD_APP
            XDATA   4D9BH     0003H     UNIT         ?XD?_DATACPY03?HTMFILES
            XDATA   4D9EH     0003H     UNIT         ?XD?_SSI_FIRMWAREUPDATE?UPDATECBK
            XDATA   4DA1H     0003H     UNIT         ?XD?_SSI_ERASEFLASH?UPDATECBK
            XDATA   4DA4H     0003H     UNIT         ?XD?_SSI_UPDATECOMPLETE?UPDATECBK
BL51 BANKED LINKER/LOCATER V5.03                                                      08/07/2012  16:42:10  PAGE 4


            XDATA   4DA7H     0002H     UNIT         ?XD?MAIN?MAIN
            XDATA   4DA9H     0002H     UNIT         ?XD?RXFILTER?BOOTMAIN
            XDATA   4DABH     0002H     UNIT         ?XD?EEPROMCHECKDATAAVAILABLE?EE_PROCESS
            XDATA   4DADH     0002H     UNIT         ?XD?_UDP_SEND?UDP
            XDATA   4DAFH     0002H     UNIT         ?XD?_FILL_DMA_SETTING?DMA
            XDATA   4DB1H     0002H     UNIT         ?XD?_FIRMWAREUPDATMIRRORMODE?FLASH
            XDATA   4DB3H     0002H     UNIT         ?XD?_FLASH_ERASE_SECTOR_AT49BV040B_WHILE?FLASH
            XDATA   4DB5H     0002H     UNIT         ?XD?_FLASH_ERASE_SECTOR_MX29LV004CB_WHILE?FLASH
            XDATA   4DB7H     0002H     UNIT         ?XD?_FLASH_ERASE_SECTOR_SST39VF1681?FLASH
            XDATA   4DB9H     0002H     UNIT         ?XD?FLASH_ERASE_BANK_SST39VF1681?FLASH
            XDATA   4DBBH     0002H     UNIT         ?XD?FIRMWAREUPDATEERASEFLASH_SST39VLF040_WHILE?FLASH
            XDATA   4DBDH     0002H     UNIT         ?XD?_UIP_ADD32?MACDRIVER
            XDATA   4DBFH     0002H     UNIT         ?XD?QUERYSTR_FUNC?HTTPD_APP
            XDATA   4DC1H     0002H     UNIT         ?XD?_HTTPD_COPY_DATA?HTTPD_APP
            XDATA   4DC3H     0001H     UNIT         ?XD?CHECK_MAC?MAIN
            XDATA   4DC4H     0001H     UNIT         ?XD?BOOT_INIT?BOOTMAIN
            XDATA   4DC5H     0001H     UNIT         ?XD?_FLASH_ERASE_SECTOR_AT49BV040B_BOTTOMSECTOR_WHILE?FLASH
            XDATA   4DC6H     0001H     UNIT         ?XD?_FLASH_ERASE_SECTOR_MX29LV800CB_WHILE?FLASH
            XDATA   4DC7H     0001H     UNIT         ?XD?_FLASH_ERASE_SECTOR_MX29LV004CB_BOTTOMSECTOR_WHILE?FLASH
            XDATA   4DC8H     0001H     UNIT         ?XD?_FLASH_ERASE_SECTOR_MX29LV800CB_BOTTOMSECTOR_WHILE?FLASH
            XDATA   4DC9H     0001H     UNIT         ?XD?FLASHIDENTIFICATION?FLASH
            XDATA   4DCAH     0001H     UNIT         ?XD?IP_ADDRESS_FILL?MACDRIVER

            * * * * * * *   C O D E   M E M O R Y   * * * * * * *
                    0000H     6000H                  *** GAP ***
            CODE    6000H     1761H     UNIT         ?PR?_UIP_PROCESS?UIP
            CODE    7761H     072DH     UNIT         ?PR?HTTPD?HTTPD
            CODE    7E8EH     014BH     UNIT         ?PR?HTTPD_DATA_PROCESSING?CGI
            CODE    7FD9H     0024H     UNIT         ?PR?BOOT_PROC?MAIN
            CODE    7FFDH     0002H     UNIT         ?CO?CGIUTIL
            CODE    7FFFH     0001H     UNIT         ?PR?UDP_XMIT?UIP
            CODE    8000H     0047H     UNIT         ?CO?EEDEFAULT
            CODE    8047H     0040H     UNIT         ?PR?_UIP_LISTEN?UIP
            CODE    8087H     0006H     ABSOLUTE     
            CODE    808DH     0002H     ABSOLUTE     
            CODE    808FH     0003H     ABSOLUTE     
            CODE    8092H     006CH     UNIT         ?CO?FLASH
            CODE    80FEH     0081H     UNIT         ?PR?_STRCSPN?STRCSPN
                    817FH     0001H                  *** GAP ***
            CODE    8180H     0001H     UNIT         ?PR?NOP?FLASH
            CODE    8181H     0043H     UNIT         ?PR?_DELAY_10MS?FLASH
            CODE    81C4H     000EH     UNIT         ?PR?_START_MIRROR_MODE?FLASH
            CODE    81D2H     0012H     UNIT         ?PR?STOP_MIRROR_MODE?FLASH
            CODE    81E4H     0006H     UNIT         ?PR?FLASH_ACCESS_ENABLE?FLASH
            CODE    81EAH     0022H     UNIT         ?PR?FLASH_ACCESS_DISABLE?FLASH
            CODE    820CH     0013H     UNIT         ?PR?_FLASH_READ_BYTE?FLASH
            CODE    821FH     0026H     UNIT         ?PR?_FIRMWAREUPDATMIRRORMODE?FLASH
            CODE    8245H     0089H     UNIT         ?PR?_FIRMWAREUPDATEFLASHBANKCHECK?FLASH
            CODE    82CEH     0116H     UNIT         ?PR?FIRMWAREUPDATEFLASHCHECK?FLASH
            CODE    83E4H     0033H     UNIT         ?PR?_FLASH_SWITCH_BANK?FLASH
            CODE    8417H     0058H     UNIT         ?PR?MX_TOGGLE?FLASH
            CODE    846FH     0117H     UNIT         ?PR?_FLASH_WRITE_BYTE?FLASH
            CODE    8586H     0014H     UNIT         ?PR?_FLASH_ERASE_SECTOR_AT49BV040B_WHILE?FLASH
            CODE    859AH     0041H     UNIT         ?PR?_FLASH_ERASE_SECTOR_AT49BV040B_BOTTOMSECTOR_WHILE?FLASH
            CODE    85DBH     0014H     UNIT         ?PR?_FLASH_ERASE_SECTOR_MX29LV004CB_WHILE?FLASH
            CODE    85EFH     0031H     UNIT         ?PR?_FLASH_ERASE_SECTOR_MX29LV800CB_WHILE?FLASH
            CODE    8620H     0041H     UNIT         ?PR?_FLASH_ERASE_SECTOR_MX29LV004CB_BOTTOMSECTOR_WHILE?FLASH
BL51 BANKED LINKER/LOCATER V5.03                                                      08/07/2012  16:42:10  PAGE 5


            CODE    8661H     0041H     UNIT         ?PR?_FLASH_ERASE_SECTOR_MX29LV800CB_BOTTOMSECTOR_WHILE?FLASH
            CODE    86A2H     003DH     UNIT         ?PR?_FLASH_ERASE_SECTOR_SST39VF1681?FLASH
            CODE    86DFH     0039H     UNIT         ?PR?FLASH_ERASE_BANK_SST39VF1681?FLASH
            CODE    8718H     0057H     UNIT         ?PR?_FLASH_ERASE_SECTOR_SST39VLF040?FLASH
            CODE    876FH     00D5H     UNIT         ?PR?FIRMWAREUPDATEERASEFLASH_MX29LV004CB_WHILE?FLASH
            CODE    8844H     00D3H     UNIT         ?PR?FIRMWAREUPDATEERASEFLASH_AT49BV040B_WHILE?FLASH
            CODE    8917H     00C0H     UNIT         ?PR?FIRMWAREUPDATEERASEFLASH_MX29LV800CB_WHILE?FLASH
            CODE    89D7H     012EH     UNIT         ?PR?FIRMWAREUPDATEERASEFLASH_SST39VLF040_WHILE?FLASH
            CODE    8B05H     0034H     UNIT         ?PR?FLASH_CHECK_SIZE?FLASH
            CODE    8B39H     01A0H     UNIT         ?PR?FLASHIDENTIFICATION?FLASH
            CODE    8CD9H     00D8H     UNIT         ?PR?FIRMWAREUPDATEERASEFLASH_WHILE?FLASH
            CODE    8DB1H     00BFH     UNIT         ?PR?_FIRMWAREUPDATEWRITEDATA?FLASH
            CODE    8E70H     000CH     UNIT         ?PR?CBK_FLASH_SIZE_CHECK?FLASH
            CODE    8E7CH     0013H     UNIT         ?PR?EEMEMORYINIT?EE_PROCESS
            CODE    8E8FH     0365H     UNIT         ?PR?PRINTF?PRINTF
            CODE    91F4H     000BH     UNIT         ?PR?TFD_INDEX?MACDRIVER
            CODE    91FFH     0027H     UNIT         ?PR?PUTCHAR?PUTCHAR
            CODE    9226H     0098H     UNIT         ?PR?MAIN?MAIN
                    92BEH     0002H                  *** GAP ***
            CODE    92C0H     0040H     UNIT         ?FLASHSUM
            CODE    9300H     001AH     UNIT         ?DELAY
            CODE    931AH     0B69H     UNIT         ?C?LIB_CODE
                    9E83H     0001H                  *** GAP ***
            CODE    9E84H     0007H     UNIT         ?PR?WATCHDOGTIMERRESET?MAIN
            CODE    9E8BH     0BFEH     UNIT         ?CO?HTMFILES
            CODE    AA89H     060CH     UNIT         ?PR?WITH_TAG_PAGE?CGIUTIL
            CODE    B095H     0435H     UNIT         ?PR?_CGI_FIRMWAREUPDATE?UPDATECBK
            CODE    B4CAH     02E6H     UNIT         ?PR?RXFILTER?BOOTMAIN
            CODE    B7B0H     029EH     UNIT         ?PR?BOOTMAIN?BOOTMAIN
            CODE    BA4EH     0250H     UNIT         ?PR?TFTP_PROCESS?TFTPD
            CODE    BC9EH     0244H     UNIT         ?PR?BOOT_INIT?BOOTMAIN
            CODE    BEE2H     0230H     UNIT         ?PR?UIP_ARP_OUT?UIP_ARP
            CODE    C112H     021CH     UNIT         ?PR?_UIP_ARP_UPDATE?UIP_ARP
            CODE    C32EH     01FFH     UNIT         ?PR?_ETHERNETRECEIVE?MACDRIVER
            CODE    C52DH     01DBH     UNIT         ?PR?_UIP_CONNECT?UIP
            CODE    C708H     01C3H     UNIT         ?PR?UIP_ARP_ARPIN?UIP_ARP
            CODE    C8CBH     01BAH     UNIT         ?PR?_UDP_SEND?UDP
            CODE    CA85H     0185H     UNIT         ?PR?EEPROMINIT?EE_PROCESS
            CODE    CC0AH     0140H     UNIT         ?PR?_FS_OPEN03?HTMFILES
            CODE    CD4AH     0134H     UNIT         ?PR?QUERYSTR_FUNC?HTTPD_APP
            CODE    CE7EH     012DH     UNIT         ?PR?LAST_TAG_PAGE?CGIUTIL
            CODE    CFABH     0122H     UNIT         ?C_INITSEG
            CODE    D0CDH     0112H     UNIT         ?PR?HTTPD_HEADER_INIT?HTTPD_APP
            CODE    D1DFH     010DH     UNIT         ?PR?_HTTPD_INIT_FILE?HTTPD_APP
            CODE    D2ECH     00F2H     UNIT         ?PR?_UITOS?CGIUTIL
            CODE    D3DEH     00EEH     UNIT         ?PR?UIP_ARP_IPIN?UIP_ARP
            CODE    D4CCH     00DBH     UNIT         ?PR?ARP_PACKET_INIT?UIP_ARP
            CODE    D5A7H     00D1H     UNIT         ?PR?_STRFIND?HTTPD_APP
            CODE    D678H     00C9H     UNIT         ?CO?BOOTMAIN
            CODE    D741H     00C7H     UNIT         ?PR?_ETHERNETSEND?MACDRIVER
            CODE    D808H     00BEH     UNIT         ?C_C51STARTUP
            CODE    D8C6H     00B9H     UNIT         ?PR?_IP210_DMA?DMA
            CODE    D97FH     00B0H     UNIT         ?CO?UPDATECBK
            CODE    DA2FH     00A8H     UNIT         ?PR?UIP_ARP_TIMER?UIP_ARP
            CODE    DAD7H     00A6H     UNIT         ?PR?TAG_ADDRESS_BIGGER_MSS?CGIUTIL
            CODE    DB7DH     0099H     UNIT         ?PR?CHECK_MAC?MAIN
            CODE    DC16H     008BH     UNIT         ?PR?_CRC_CALCULATION?DMA
BL51 BANKED LINKER/LOCATER V5.03                                                      08/07/2012  16:42:10  PAGE 6


            CODE    DCA1H     0083H     UNIT         ?PR?_UIP_ADD32?MACDRIVER
            CODE    DD24H     007CH     UNIT         ?PR?_SSI_MAIN?UPDATECBK
            CODE    DDA0H     007BH     UNIT         ?PR?_STOUI?CGIUTIL
            CODE    DE1BH     0076H     UNIT         ?PR?_STRNCMP?STRNCMP
            CODE    DE91H     0075H     UNIT         ?CO?MAIN
            CODE    DF06H     0072H     UNIT         ?PR?_SSI_ERASEFLASH?UPDATECBK
            CODE    DF78H     0070H     UNIT         ?PR?EEPROMCHECKDATAAVAILABLE?EE_PROCESS
            CODE    DFE8H     006CH     UNIT         ?PR?UIP_ARP_INIT?UIP_ARP
            CODE    E054H     0069H     UNIT         ?CO?TFTPD
            CODE    E0BDH     0054H     UNIT         ?PR?_EEPROM_READ_BYTE?EEPROM
            CODE    E111H     0054H     UNIT         ?PR?UIP_INIT?UIP
            CODE    E165H     0053H     UNIT         ?PR?_UIP_ADD_RCV_NXT?UIP
            CODE    E1B8H     0051H     UNIT         ?PR?_HTTPD_COPY_DATA?HTTPD_APP
            CODE    E209H     004FH     UNIT         ?PR?_CHECK_PACKET_TYPE?MACDRIVER
            CODE    E258H     004FH     UNIT         ?PR?_SSI_FIRMWAREUPDATE?UPDATECBK
            CODE    E2A7H     004EH     UNIT         ?PR?MAC_INIT?MACDRIVER
            CODE    E2F5H     004EH     UNIT         ?CO?HTTPD_APP
            CODE    E343H     0043H     UNIT         ?PR?LOADEEPROM2MEMORY?EE_PROCESS
            CODE    E386H     0043H     UNIT         ?PR?_UIP_UNLISTEN?UIP
            CODE    E3C9H     003EH     UNIT         ?PR?IP_ADDRESS_FILL?MACDRIVER
            CODE    E407H     003CH     UNIT         ?PR?IP210_WRITE_TIMER_COUNTER?TIMER
            CODE    E443H     003CH     UNIT         ?PR?_SSI_UPDATECOMPLETE?UPDATECBK
            CODE    E47FH     0039H     UNIT         ?PR?_DATACPY03?HTMFILES
            CODE    E4B8H     002DH     UNIT         ?PR?_FILL_DMA_SETTING?DMA
            CODE    E4E5H     002CH     UNIT         ?PR?MONITOR_TX_MAC?MACDRIVER
            CODE    E511H     002BH     UNIT         ?PR?CHECKPKTSEND?BOOTMAIN
            CODE    E53CH     0024H     UNIT         ?PR?MAC_ADDRESS_FILL?MACDRIVER
            CODE    E560H     0021H     UNIT         ?PR?SEND_ARP_REQ?UIP_ARP
            CODE    E581H     0021H     UNIT         ?CO?HTTPD
            CODE    E5A2H     0020H     UNIT         ?PR?SERIAL_INIT?SERIAL
            CODE    E5C2H     001FH     UNIT         ?PR?_GET_TAG03?HTMFILES
            CODE    E5E1H     001DH     UNIT         ?PR?_RESIZE_RX_BUF?MACDRIVER
            CODE    E5FEH     001DH     UNIT         ?PR?_CGI_CALLERASE?UPDATECBK
            CODE    E61BH     001CH     UNIT         ?PR?RESET_TX?MACDRIVER
            CODE    E637H     001CH     UNIT         ?PR?_IP210_CHECKSUM?MACDRIVER
            CODE    E653H     001CH     UNIT         ?PR?_STRCHR?STRCHR
            CODE    E66FH     001AH     UNIT         ?PR?TIMERCOUNTER_INIT?TIMER
            CODE    E689H     0019H     UNIT         ?PR?_UIP_IPCHECKSUM?MACDRIVER
            CODE    E6A2H     0019H     UNIT         ?PR?TIMER_COUNTER_OVERFLOW?TIMER
            CODE    E6BBH     0018H     UNIT         ?PR?IP210_DMA_SET_IDLE?DMA
            CODE    E6D3H     0015H     UNIT         ?PR?_STRLEN?STRLEN
            CODE    E6E8H     0013H     UNIT         ?PR?KERNELSETTINGINIT?KERNELSETTING
            CODE    E6FBH     0012H     UNIT         ?PR?IP210_DMA_IDLE_RESTORE?DMA
            CODE    E70DH     0012H     UNIT         ?PR?_SERIAL_CHECK_RX?SERIAL
            CODE    E71FH     000FH     UNIT         ?PR?IP210_SWRESET?MAIN
            CODE    E72EH     000FH     UNIT         ?CO?EE_PROCESS
            CODE    E73DH     000EH     UNIT         ?PR?TIMER2_INIT?TIMER
            CODE    E74BH     000CH     UNIT         ?PR?OS_CBK_FU_SWITCH_INIT?FW_OS_CBK
            CODE    E757H     000CH     UNIT         ?PR?_SSI_WARN?UPDATECBK
            CODE    E763H     000BH     UNIT         ?PR?SERIAL_POLLING_RX?SERIAL
            CODE    E76EH     000AH     UNIT         ?PR?IP210_WAIT_DMA_COMPLETE?DMA
            CODE    E778H     0008H     UNIT         ?PR?OS_CBK_ARP_TIMEOUT?FW_OS_CBK
            CODE    E780H     0008H     UNIT         ?PR?EEPROM_ENABLE?EEPROM
            CODE    E788H     0008H     UNIT         ?PR?EEPROM_DISABLE?EEPROM
            CODE    E790H     0007H     UNIT         ?PR?WATCHDOGTIMERINIT?MAIN
            CODE    E797H     0007H     UNIT         ?PR?HTTPD_INIT?HTTPD
            CODE    E79EH     0006H     UNIT         ?PR?_UIP_LOG?UIP
BL51 BANKED LINKER/LOCATER V5.03                                                      08/07/2012  16:42:10  PAGE 7


                    E7A4H     1852H                  *** GAP ***
            CODE    FFF6H     0007H     ABSOLUTE     
            CODE    FFFDH     0003H     ABSOLUTE     



SYMBOL TABLE OF MODULE:  .\obj\firmwareUpdate (MAIN)

  VALUE           TYPE          NAME
  ----------------------------------

  -------         MODULE        MAIN
  C:0000H         SYMBOL        _ICE_DUMMY_
  D:0090H         PUBLIC        P1
  D:00B0H         PUBLIC        P3
  B:00D8H.1       PUBLIC        WDTEN
  D:00E8H         PUBLIC        P4
  D:00DAH         PUBLIC        OUTPUTEN
  D:00A8H         PUBLIC        IE
  C:DB7DH         PUBLIC        Check_MAC
  D:00B8H         PUBLIC        IP
  C:9E84H         PUBLIC        WatchDogTimerReset
  C:9226H         PUBLIC        main
  D:00EFH         PUBLIC        WDTWCYC
  C:E790H         PUBLIC        WatchDogTimerInit
  D:0098H         PUBLIC        SCON
  D:0088H         PUBLIC        TCON
  C:E71FH         PUBLIC        IP210_SWReset
  C:7FD9H         PUBLIC        boot_proc
  D:00D8H         PUBLIC        WDTCON
  B:00D8H.2       PUBLIC        WDTCLR
  X:4D41H         PUBLIC        Flash_check_error_flag
  D:00C8H         PUBLIC        T2CON
  X:4D42H         PUBLIC        All0_buf
  B:00D8H.0       PUBLIC        WDTRST
  D:008EH         PUBLIC        CKCON
  D:00D0H         PUBLIC        PSW
  -------         PROC          WATCHDOGTIMERINIT
  C:E790H         LINE#         26
  C:E790H         LINE#         27
  C:E790H         LINE#         29
  C:E793H         LINE#         32
  C:E796H         LINE#         33
  -------         ENDPROC       WATCHDOGTIMERINIT
  -------         PROC          WATCHDOGTIMERRESET
  C:9E84H         LINE#         34
  C:9E84H         LINE#         35
  C:9E84H         LINE#         36
  C:9E86H         LINE#         37
  C:9E8AH         LINE#         38
  -------         ENDPROC       WATCHDOGTIMERRESET
  -------         PROC          CHECK_MAC
  -------         DO            
  X:4DC3H         SYMBOL        valid_flag
  -------         ENDDO         
  C:DB7DH         LINE#         51
  C:DB7DH         LINE#         52
BL51 BANKED LINKER/LOCATER V5.03                                                      08/07/2012  16:42:10  PAGE 8


  C:DB7DH         LINE#         55
  C:DB83H         LINE#         56
  C:DB91H         LINE#         57
  C:DBADH         LINE#         58
  C:DBADH         LINE#         59
  C:DBB1H         LINE#         60
  C:DBB1H         LINE#         61
  C:DBC0H         LINE#         62
  C:DBDCH         LINE#         63
  C:DBDCH         LINE#         64
  C:DBE0H         LINE#         65
  C:DBE0H         LINE#         66
  C:DBECH         LINE#         67
  C:DBECH         LINE#         68
  C:DBF1H         LINE#         69
  C:DBF1H         LINE#         70
  C:DBF7H         LINE#         71
  C:DBF7H         LINE#         72
  C:DC10H         LINE#         73
  C:DC10H         LINE#         74
  C:DC15H         LINE#         75
  -------         ENDPROC       CHECK_MAC
  -------         PROC          BOOT_PROC
  C:7FD9H         LINE#         88
  C:7FD9H         LINE#         89
  C:7FD9H         LINE#         94
  C:7FDCH         LINE#         95
  C:7FDFH         LINE#         97
  C:7FE5H         LINE#         98
  C:7FE5H         LINE#         100
  C:7FEEH         LINE#         101
  C:7FEEH         LINE#         104
  C:7FF1H         LINE#         106
  C:7FF7H         LINE#         107
  C:7FFAH         LINE#         111
  -------         ENDPROC       BOOT_PROC
  -------         PROC          IP210_SWRESET
  -------         DO            
  D:0007H         SYMBOL        i
  -------         ENDDO         
  C:E71FH         LINE#         125
  C:E71FH         LINE#         126
  C:E71FH         LINE#         129
  C:E725H         LINE#         131
  C:E727H         LINE#         132
  C:E72DH         LINE#         134
  -------         ENDPROC       IP210_SWRESET
  -------         PROC          MAIN
  -------         DO            
  X:4DA7H         SYMBOL        chk_tmp
  X:4DA8H         SYMBOL        count
  -------         ENDDO         
  C:9226H         LINE#         146
  C:9226H         LINE#         147
  C:9226H         LINE#         150
  C:9229H         LINE#         152
  C:922CH         LINE#         156
BL51 BANKED LINKER/LOCATER V5.03                                                      08/07/2012  16:42:10  PAGE 9


  C:922FH         LINE#         158
  C:9232H         LINE#         160
  C:9234H         LINE#         162
  C:9237H         LINE#         164
  C:924AH         LINE#         168
  C:924DH         LINE#         170
  C:9253H         LINE#         171
  C:9256H         LINE#         173
  C:925DH         LINE#         177
  C:926AH         LINE#         178
  C:926DH         LINE#         179
  C:9270H         LINE#         183
  C:9277H         LINE#         184
  C:9277H         LINE#         185
  C:9277H         LINE#         186
  C:9279H         LINE#         188
  C:9279H         LINE#         189
  C:927EH         LINE#         190
  C:927EH         LINE#         193
  C:9281H         LINE#         194
  C:9287H         LINE#         195
  C:9287H         LINE#         196
  C:928DH         LINE#         197
  C:928DH         LINE#         198
  C:9293H         LINE#         199
  C:929CH         LINE#         200
  C:929CH         LINE#         201
  C:92A5H         LINE#         202
  C:92ABH         LINE#         203
  C:92AEH         LINE#         204
  C:92AEH         LINE#         206
  C:92AEH         LINE#         207
  C:92B1H         LINE#         208
  C:92BAH         LINE#         213
  C:92BDH         LINE#         214
  C:92BDH         LINE#         215
  C:92BDH         LINE#         216
  -------         ENDPROC       MAIN
  -------         ENDMOD        MAIN

  -------         MODULE        BOOTMAIN
  C:0000H         SYMBOL        _ICE_DUMMY_
  D:0090H         PUBLIC        P1
  D:00B0H         PUBLIC        P3
  D:00E8H         PUBLIC        P4
  X:4C16H         SYMBOL        current
  D:00A8H         PUBLIC        IE
  X:4C1AH         PUBLIC        icp_netinfo
  D:00B8H         PUBLIC        IP
  C:E511H         PUBLIC        CheckPktSend
  X:4C2CH         PUBLIC        tftp_counter
  X:4C30H         PUBLIC        ipid
  X:4C32H         PUBLIC        uip_fw_buf
  X:4C35H         SYMBOL        start
  X:4C39H         PUBLIC        last_tagged_ethertype_offset
  D:0098H         PUBLIC        SCON
  C:B4CAH         PUBLIC        RxFilter
BL51 BANKED LINKER/LOCATER V5.03                                                      08/07/2012  16:42:10  PAGE 10


  D:0088H         PUBLIC        TCON
  X:4C3AH         PUBLIC        Global_flag_restart
  X:4C3BH         PUBLIC        Global_suspend_count
  C:BC9EH         PUBLIC        boot_init
  X:4C3CH         PUBLIC        tftp_start_flag
  X:4C3DH         PUBLIC        Global_flag_firmwareupdate_inprogress
  D:00D8H         PUBLIC        WDTCON
  X:4C3EH         PUBLIC        tftp_last_flag
  X:4C3FH         PUBLIC        blok_num
  C:B7B0H         PUBLIC        bootmain
  D:00C8H         PUBLIC        T2CON
  X:4C41H         PUBLIC        Rx_data_len
  D:00D0H         PUBLIC        PSW
  -------         PROC          CHECKPKTSEND
  C:E511H         LINE#         49
  C:E511H         LINE#         50
  C:E511H         LINE#         51
  C:E520H         LINE#         52
  C:E520H         LINE#         53
  C:E523H         LINE#         54
  C:E534H         LINE#         55
  C:E53BH         LINE#         56
  C:E53BH         LINE#         57
  -------         ENDPROC       CHECKPKTSEND
  -------         PROC          BOOT_INIT
  -------         DO            
  X:4DC4H         SYMBOL        i
  -------         ENDDO         
  C:BC9EH         LINE#         73
  C:BC9EH         LINE#         74
  C:BC9EH         LINE#         76
  C:BCA7H         LINE#         77
  C:BCB6H         LINE#         78
  C:BCB6H         LINE#         79
  C:BCD0H         LINE#         82
  C:BCF0H         LINE#         83
  C:BD10H         LINE#         85
  C:BD18H         LINE#         86
  C:BD35H         LINE#         89
  C:BD55H         LINE#         90
  C:BD79H         LINE#         92
  C:BD82H         LINE#         93
  C:BD87H         LINE#         94
  C:BD87H         LINE#         95
  C:BDA7H         LINE#         97
  C:BDCFH         LINE#         98
  C:BDDBH         LINE#         99
  C:BDFBH         LINE#         101
  C:BE23H         LINE#         102
  C:BE2CH         LINE#         104
  C:BE4AH         LINE#         105
  C:BE62H         LINE#         107
  C:BE7AH         LINE#         108
  C:BE92H         LINE#         109
  C:BEAAH         LINE#         110
  C:BEC2H         LINE#         112
  C:BEC9H         LINE#         114
BL51 BANKED LINKER/LOCATER V5.03                                                      08/07/2012  16:42:10  PAGE 11


  C:BECDH         LINE#         116
  C:BED1H         LINE#         118
  C:BED7H         LINE#         120
  C:BEE1H         LINE#         121
  -------         ENDPROC       BOOT_INIT
  -------         PROC          RXFILTER
  -------         DO            
  X:4DA9H         SYMBOL        i
  X:4DAAH         SYMBOL        j
  -------         ENDDO         
  C:B4CAH         LINE#         124
  C:B4CAH         LINE#         125
  C:B4CAH         LINE#         129
  C:B4DBH         LINE#         130
  C:B4DBH         LINE#         132
  C:B4E7H         LINE#         133
  C:B4EAH         LINE#         134
  C:B4ECH         LINE#         136
  C:B4ECH         LINE#         140
  C:B50FH         LINE#         147
  C:B50FH         LINE#         149
  C:B51BH         LINE#         150
  C:B51BH         LINE#         152
  C:B51BH         LINE#         155
  C:B54DH         LINE#         156
  C:B54DH         LINE#         158
  C:B553H         LINE#         159
  C:B583H         LINE#         160
  C:B583H         LINE#         161
  C:B583H         LINE#         162
  C:B586H         LINE#         164
  C:B586H         LINE#         166
  C:B5E2H         LINE#         185
  C:B5E2H         LINE#         187
  C:B5E8H         LINE#         188
  C:B618H         LINE#         189
  C:B62FH         LINE#         190
  C:B63DH         LINE#         191
  C:B64CH         LINE#         193
  C:B64CH         LINE#         196
  C:B65FH         LINE#         197
  C:B65FH         LINE#         199
  C:B68DH         LINE#         200
  C:B68DH         LINE#         202
  C:B693H         LINE#         203
  C:B6C3H         LINE#         204
  C:B6C3H         LINE#         205
  C:B6C3H         LINE#         206
  C:B6C3H         LINE#         207
  C:B6C3H         LINE#         208
  C:B6C6H         LINE#         209
  C:B6C6H         LINE#         211
  C:B725H         LINE#         233
  C:B725H         LINE#         235
  C:B72BH         LINE#         236
  C:B75BH         LINE#         237
  C:B772H         LINE#         238
BL51 BANKED LINKER/LOCATER V5.03                                                      08/07/2012  16:42:10  PAGE 12


  C:B780H         LINE#         239
  C:B78EH         LINE#         240
  C:B796H         LINE#         241
  C:B798H         LINE#         242
  C:B798H         LINE#         243
  C:B7A1H         LINE#         244
  C:B7A8H         LINE#         245
  C:B7AFH         LINE#         246
  C:B7AFH         LINE#         247
  C:B7AFH         LINE#         248
  -------         ENDPROC       RXFILTER
  -------         PROC          BOOTMAIN
  -------         DO            
  X:4D86H         SYMBOL        i
  X:4D87H         SYMBOL        uip_len_tmp
  -------         ENDDO         
  C:B7B0H         LINE#         262
  C:B7B0H         LINE#         263
  C:B7B0H         LINE#         270
  C:B7B3H         LINE#         271
  C:B7B6H         LINE#         272
  C:B7B9H         LINE#         273
  C:B7BCH         LINE#         274
  C:B7BFH         LINE#         275
  C:B7C8H         LINE#         276
  C:B7C8H         LINE#         277
  C:B7C8H         LINE#         278
  C:B7CBH         LINE#         279
  C:B7D4H         LINE#         280
  C:B7D4H         LINE#         281
  C:B7D7H         LINE#         282
  C:B7D7H         LINE#         283
  C:B7DDH         LINE#         284
  C:B7DDH         LINE#         285
  C:B7E0H         LINE#         286
  C:B7E0H         LINE#         288
  C:B7F1H         LINE#         298
  C:B800H         LINE#         299
  C:B800H         LINE#         301
  C:B803H         LINE#         305
  C:B803H         LINE#         306
  C:B812H         LINE#         307
  C:B824H         LINE#         308
  C:B824H         LINE#         309
  C:B827H         LINE#         310
  C:B836H         LINE#         312
  C:B84BH         LINE#         313
  C:B84BH         LINE#         329
  C:B84EH         LINE#         330
  C:B860H         LINE#         331
  C:B860H         LINE#         332
  C:B871H         LINE#         333
  C:B878H         LINE#         335
  C:B878H         LINE#         336
  C:B87BH         LINE#         337
  C:B87BH         LINE#         338
  C:B88FH         LINE#         339
BL51 BANKED LINKER/LOCATER V5.03                                                      08/07/2012  16:42:10  PAGE 13


  C:B88FH         LINE#         340
  C:B8A0H         LINE#         341
  C:B8A0H         LINE#         343
  C:B8A3H         LINE#         344
  C:B8B5H         LINE#         345
  C:B8B5H         LINE#         348
  C:B8CCH         LINE#         349
  C:B8CCH         LINE#         350
  C:B8D3H         LINE#         351
  C:B8DCH         LINE#         352
  C:B8DCH         LINE#         354
  C:B8E3H         LINE#         355
  C:B8E8H         LINE#         356
  C:B8ECH         LINE#         361
  C:B8EFH         LINE#         364
  C:B8EFH         LINE#         365
  C:B8EFH         LINE#         366
  C:B8EFH         LINE#         367
  C:B8F2H         LINE#         368
  C:B8F2H         LINE#         384
  C:B8F2H         LINE#         385
  C:B8F7H         LINE#         386
  C:B8FAH         LINE#         387
  C:B8FAH         LINE#         388
  C:B8FAH         LINE#         389
  C:B8FAH         LINE#         391
  C:B920H         LINE#         392
  C:B94EH         LINE#         393
  C:B94EH         LINE#         395
  C:B951H         LINE#         397
  C:B959H         LINE#         398
  C:B959H         LINE#         399
  C:B96BH         LINE#         400
  C:B96BH         LINE#         401
  C:B971H         LINE#         403
  C:B973H         LINE#         404
  C:B985H         LINE#         405
  C:B985H         LINE#         407
  C:B991H         LINE#         408
  C:B996H         LINE#         409
  C:B998H         LINE#         411
  C:B998H         LINE#         412
  C:B9A1H         LINE#         413
  C:B9A1H         LINE#         414
  C:B9AAH         LINE#         415
  C:B9AAH         LINE#         416
  C:B9B0H         LINE#         417
  C:B9B5H         LINE#         418
  C:B9BEH         LINE#         419
  C:B9BEH         LINE#         420
  C:B9BEH         LINE#         422
  C:B9C4H         LINE#         423
  C:B9C6H         LINE#         424
  C:B9D5H         LINE#         425
  C:B9D5H         LINE#         426
  C:B9EAH         LINE#         427
  C:B9EFH         LINE#         428
BL51 BANKED LINKER/LOCATER V5.03                                                      08/07/2012  16:42:10  PAGE 14


  C:B9F2H         LINE#         429
  C:B9FAH         LINE#         430
  C:BA06H         LINE#         431
  C:BA06H         LINE#         433
  C:BA0FH         LINE#         434
  C:BA0FH         LINE#         435
  C:BA28H         LINE#         436
  C:BA3FH         LINE#         437
  C:BA3FH         LINE#         439
  C:BA48H         LINE#         440
  C:BA4BH         LINE#         441
  C:BA4BH         LINE#         442
  C:BA4BH         LINE#         443
  -------         ENDPROC       BOOTMAIN
  -------         ENDMOD        BOOTMAIN

  -------         MODULE        ?C_STARTUP
  C:D808H         SEGMENT       ?C_C51STARTUP
  I:0073H         SEGMENT       ?STACK
  C:808FH         PUBLIC        ?C_STARTUP
  C:D836H         PUBLIC        CPU_GOTO_0000H
  C:D843H         PUBLIC        CPU_GOTO_FFFDH
  B:00D0H.6       SYMBOL        AC
  D:00E0H         SYMBOL        ACC
  D:00F0H         SYMBOL        B
  B:0020H.0       SYMBOL        BITADDR
  B:00C8H.0       SYMBOL        CP_RL2
  B:00D0H.7       SYMBOL        CY
  B:00C8H.1       SYMBOL        C_T2
  D:0083H         SYMBOL        DPH
  D:0082H         SYMBOL        DPL
  B:00A8H.7       SYMBOL        EA
  C:D808H         SYMBOL        END_POINT
  B:00A8H.4       SYMBOL        ES
  B:00A8H.1       SYMBOL        ET0
  B:00A8H.3       SYMBOL        ET1
  B:00A8H.5       SYMBOL        ET2
  B:00A8H.0       SYMBOL        EX0
  B:00A8H.2       SYMBOL        EX1
  B:00C8H.3       SYMBOL        EXEN2
  B:00C8H.6       SYMBOL        EXF2
  B:00D0H.5       SYMBOL        F0
  N:0000H         SYMBOL        IBPSTACK
  N:0100H         SYMBOL        IBPSTACKTOP
  N:0080H         SYMBOL        IDATALEN
  C:D80DH         SYMBOL        IDATALOOP
  D:00A8H         SYMBOL        IE
  B:0088H.1       SYMBOL        IE0
  B:0088H.3       SYMBOL        IE1
  B:00B0H.2       SYMBOL        INT0
  B:00B0H.3       SYMBOL        INT1
  D:00B8H         SYMBOL        IP
  B:0088H.0       SYMBOL        IT0
  B:0088H.2       SYMBOL        IT1
  B:00D0H.2       SYMBOL        OV
  B:00D0H.0       SYMBOL        P
  D:0080H         SYMBOL        P0
BL51 BANKED LINKER/LOCATER V5.03                                                      08/07/2012  16:42:10  PAGE 15


  D:0090H         SYMBOL        P1
  D:00A0H         SYMBOL        P2
  D:00B0H         SYMBOL        P3
  D:00E8H         SYMBOL        P4
  D:00DAH         SYMBOL        P4ENON
  N:0000H         SYMBOL        PBPSTACK
  N:0000H         SYMBOL        PBPSTACKTOP
  D:0087H         SYMBOL        PCON
  N:0000H         SYMBOL        PDATALEN
  N:0000H         SYMBOL        PDATASTART
  N:0000H         SYMBOL        PPAGE
  N:0000H         SYMBOL        PPAGEENABLE
  D:00A0H         SYMBOL        PPAGE_SFR
  B:00B8H.4       SYMBOL        PS
  D:00D0H         SYMBOL        PSW
  B:00B8H.1       SYMBOL        PT0
  B:00B8H.3       SYMBOL        PT1
  B:00B8H.5       SYMBOL        PT2
  B:00B8H.0       SYMBOL        PX0
  B:00B8H.2       SYMBOL        PX1
  B:0098H.2       SYMBOL        RB8
  D:00CBH         SYMBOL        RCAP2H
  D:00CAH         SYMBOL        RCAP2L
  B:00C8H.5       SYMBOL        RCLK
  B:00B0H.7       SYMBOL        RD
  B:0098H.4       SYMBOL        REN
  D:0030H         SYMBOL        RESERVED_DATA
  B:0098H.0       SYMBOL        RI
  B:00D0H.3       SYMBOL        RS0
  B:00D0H.4       SYMBOL        RS1
  B:00B0H.0       SYMBOL        RXD
  D:0099H         SYMBOL        SBUF
  D:0098H         SYMBOL        SCON
  B:0098H.7       SYMBOL        SM0
  B:0098H.6       SYMBOL        SM1
  B:0098H.5       SYMBOL        SM2
  D:0081H         SYMBOL        SP
  I:0073H         SYMBOL        STACK_LABEL
  C:D80AH         SYMBOL        STARTUP1
  C:D810H         SYMBOL        STARTUPF7
  B:00B0H.4       SYMBOL        T0
  B:00B0H.5       SYMBOL        T1
  B:0090H.0       SYMBOL        T2
  D:00C8H         SYMBOL        T2CON
  B:0090H.1       SYMBOL        T2EX
  B:0098H.3       SYMBOL        TB8
  B:00C8H.4       SYMBOL        TCLK
  D:0088H         SYMBOL        TCON
  B:0088H.5       SYMBOL        TF0
  B:0088H.7       SYMBOL        TF1
  B:00C8H.7       SYMBOL        TF2
  D:008CH         SYMBOL        TH0
  D:008DH         SYMBOL        TH1
  D:00CDH         SYMBOL        TH2
  B:0098H.1       SYMBOL        TI
  D:008AH         SYMBOL        TL0
  D:008BH         SYMBOL        TL1
BL51 BANKED LINKER/LOCATER V5.03                                                      08/07/2012  16:42:10  PAGE 16


  D:00CCH         SYMBOL        TL2
  D:0089H         SYMBOL        TMOD
  B:0088H.4       SYMBOL        TR0
  B:0088H.6       SYMBOL        TR1
  B:00C8H.2       SYMBOL        TR2
  B:00B0H.1       SYMBOL        TXD
  B:00B0H.6       SYMBOL        WR
  N:0000H         SYMBOL        XBPSTACK
  N:0000H         SYMBOL        XBPSTACKTOP
  N:8000H         SYMBOL        XDATALEN
  C:D818H         SYMBOL        XDATALOOP
  N:0000H         SYMBOL        XDATASTART
  C:8087H         LINE#         96
  C:808AH         LINE#         97
  C:808DH         LINE#         100
  C:808FH         LINE#         107
  C:D808H         LINE#         112
  C:D80AH         LINE#         116
  C:D80CH         LINE#         117
  C:D80DH         LINE#         118
  C:D80EH         LINE#         119
  C:D810H         LINE#         126
  C:D813H         LINE#         127
  C:D815H         LINE#         131
  C:D817H         LINE#         133
  C:D818H         LINE#         134
  C:D819H         LINE#         135
  C:D81AH         LINE#         136
  C:D81CH         LINE#         137
  C:D81EH         LINE#         173
  C:D821H         LINE#         175
  C:D823H         LINE#         176
  C:D825H         LINE#         177
  C:D827H         LINE#         178
  C:D829H         LINE#         179
  C:D82BH         LINE#         181
  C:D82DH         LINE#         182
  C:D82FH         LINE#         183
  C:D831H         LINE#         188
  C:D834H         LINE#         189
  C:D836H         LINE#         194
  C:D838H         LINE#         195
  C:D83AH         LINE#         196
  C:D83CH         LINE#         197
  C:D83EH         LINE#         198
  C:D840H         LINE#         199
  C:D843H         LINE#         203
  C:FFFDH         LINE#         205
  -------         ENDMOD        ?C_STARTUP

  -------         MODULE        EEDEFAULT
  C:0000H         SYMBOL        _ICE_DUMMY_
  D:0090H         PUBLIC        P1
  D:00B0H         PUBLIC        P3
  D:00E8H         PUBLIC        P4
  D:00A8H         PUBLIC        IE
  D:00B8H         PUBLIC        IP
BL51 BANKED LINKER/LOCATER V5.03                                                      08/07/2012  16:42:10  PAGE 17


  C:8000H         PUBLIC        EE_Default
  D:0098H         PUBLIC        SCON
  D:0088H         PUBLIC        TCON
  D:00D8H         PUBLIC        WDTCON
  D:00C8H         PUBLIC        T2CON
  D:00D0H         PUBLIC        PSW
  -------         ENDMOD        EEDEFAULT

  -------         MODULE        EE_PROCESS
  C:0000H         SYMBOL        _ICE_DUMMY_
  D:0090H         PUBLIC        P1
  D:00B0H         PUBLIC        P3
  D:00E8H         PUBLIC        P4
  X:422AH         PUBLIC        EE_result
  D:00A8H         PUBLIC        IE
  D:00B8H         PUBLIC        IP
  C:8E7CH         PUBLIC        EEMemoryInit
  X:422BH         PUBLIC        EE_membuffer
  C:DF78H         PUBLIC        EEPROMCheckDataAvailable
  D:0098H         PUBLIC        SCON
  D:0088H         PUBLIC        TCON
  X:4A2BH         PUBLIC        EE_Reserved_0
  D:00D8H         PUBLIC        WDTCON
  C:E343H         SYMBOL        LoadEEPROM2MEMORY
  C:CA85H         PUBLIC        EEPROMInit
  D:00C8H         PUBLIC        T2CON
  X:4A3BH         PUBLIC        EEConfigInfo
  D:00D0H         PUBLIC        PSW
  -------         PROC          LOADEEPROM2MEMORY
  -------         DO            
  X:4D72H         SYMBOL        i
  X:4D73H         SYMBOL        p
  -------         ENDDO         
  C:E343H         LINE#         73
  C:E343H         LINE#         74
  C:E343H         LINE#         78
  C:E34FH         LINE#         80
  C:E354H         LINE#         81
  C:E354H         LINE#         83
  C:E357H         LINE#         84
  C:E375H         LINE#         85
  C:E375H         LINE#         88
  C:E377H         LINE#         89
  C:E377H         LINE#         91
  C:E383H         LINE#         92
  C:E385H         LINE#         93
  -------         ENDPROC       LOADEEPROM2MEMORY
  -------         PROC          EEPROMCHECKDATAAVAILABLE
  -------         DO            
  X:4DABH         SYMBOL        eebyte
  X:4DACH         SYMBOL        i
  -------         ENDDO         
  C:DF78H         LINE#         117
  C:DF78H         LINE#         118
  C:DF78H         LINE#         122
  C:DF87H         LINE#         123
  C:DF87H         LINE#         124
BL51 BANKED LINKER/LOCATER V5.03                                                      08/07/2012  16:42:10  PAGE 18


  C:DF9BH         LINE#         125
  C:DF9BH         LINE#         126
  C:DFA9H         LINE#         127
  C:DFA9H         LINE#         129
  C:DFADH         LINE#         130
  C:DFAFH         LINE#         131
  C:DFAFH         LINE#         133
  C:DFCFH         LINE#         134
  C:DFCFH         LINE#         135
  C:DFD5H         LINE#         136
  C:DFD8H         LINE#         137
  C:DFD8H         LINE#         138
  C:DFE0H         LINE#         139
  C:DFE6H         LINE#         141
  C:DFE7H         LINE#         143
  -------         ENDPROC       EEPROMCHECKDATAAVAILABLE
  -------         PROC          EEMEMORYINIT
  C:8E7CH         LINE#         156
  C:8E7CH         LINE#         157
  C:8E7CH         LINE#         158
  -------         ENDPROC       EEMEMORYINIT
  -------         PROC          EEPROMINIT
  -------         DO            
  X:4D89H         SYMBOL        i
  X:4D8BH         SYMBOL        eebyte
  -------         ENDDO         
  C:CA85H         LINE#         179
  C:CA85H         LINE#         180
  C:CA85H         LINE#         181
  C:CA8CH         LINE#         182
  C:CA8EH         LINE#         185
  C:CA91H         LINE#         187
  C:CA94H         LINE#         189
  C:CA9DH         LINE#         190
  C:CA9DH         LINE#         192
  C:CAB4H         LINE#         193
  C:CAB4H         LINE#         194
  C:CAC4H         LINE#         195
  C:CAD8H         LINE#         196
  C:CAE4H         LINE#         198
  C:CAFBH         LINE#         199
  C:CAFBH         LINE#         200
  C:CB0BH         LINE#         201
  C:CB1FH         LINE#         202
  C:CB2BH         LINE#         204
  C:CB42H         LINE#         205
  C:CB42H         LINE#         206
  C:CB52H         LINE#         207
  C:CB66H         LINE#         208
  C:CB72H         LINE#         210
  C:CB89H         LINE#         211
  C:CB89H         LINE#         212
  C:CB99H         LINE#         213
  C:CBADH         LINE#         214
  C:CBB9H         LINE#         216
  C:CBD0H         LINE#         217
  C:CBD0H         LINE#         218
BL51 BANKED LINKER/LOCATER V5.03                                                      08/07/2012  16:42:10  PAGE 19


  C:CBE0H         LINE#         219
  C:CBF4H         LINE#         220
  C:CC00H         LINE#         221
  C:CC00H         LINE#         222
  C:CC09H         LINE#         223
  C:CC09H         LINE#         224
  -------         ENDPROC       EEPROMINIT
  -------         ENDMOD        EE_PROCESS

  -------         MODULE        KERNELSETTING
  C:0000H         SYMBOL        _ICE_DUMMY_
  D:0090H         PUBLIC        P1
  D:00B0H         PUBLIC        P3
  D:00E8H         PUBLIC        P4
  D:00A8H         PUBLIC        IE
  D:00B8H         PUBLIC        IP
  X:4D4FH         PUBLIC        KSetting_Info
  D:0098H         PUBLIC        SCON
  D:0088H         PUBLIC        TCON
  D:00D8H         PUBLIC        WDTCON
  C:E6E8H         PUBLIC        KernelSettingInit
  D:00C8H         PUBLIC        T2CON
  D:00D0H         PUBLIC        PSW
  -------         PROC          KERNELSETTINGINIT
  C:E6E8H         LINE#         17
  C:E6E8H         LINE#         18
  C:E6E8H         LINE#         19
  C:E6EEH         LINE#         20
  C:E6F0H         LINE#         21
  C:E6F2H         LINE#         23
  -------         ENDPROC       KERNELSETTINGINIT
  -------         ENDMOD        KERNELSETTING

  -------         MODULE        FW_OS_CBK
  C:0000H         SYMBOL        _ICE_DUMMY_
  D:0090H         PUBLIC        P1
  D:00B0H         PUBLIC        P3
  D:00E8H         PUBLIC        P4
  C:E778H         PUBLIC        os_cbk_arp_timeout
  D:00A8H         PUBLIC        IE
  D:00B8H         PUBLIC        IP
  D:0098H         PUBLIC        SCON
  D:0088H         PUBLIC        TCON
  C:E74BH         PUBLIC        os_cbk_fu_switch_init
  D:00D8H         PUBLIC        WDTCON
  D:00C8H         PUBLIC        T2CON
  D:00D0H         PUBLIC        PSW
  -------         PROC          OS_CBK_FU_SWITCH_INIT
  C:E74BH         LINE#         15
  C:E74BH         LINE#         16
  C:E74BH         LINE#         18
  C:E752H         LINE#         19
  C:E756H         LINE#         21
  -------         ENDPROC       OS_CBK_FU_SWITCH_INIT
  -------         PROC          OS_CBK_ARP_TIMEOUT
  C:E778H         LINE#         22
  C:E778H         LINE#         23
BL51 BANKED LINKER/LOCATER V5.03                                                      08/07/2012  16:42:10  PAGE 20


  C:E778H         LINE#         24
  C:E77FH         LINE#         26
  -------         ENDPROC       OS_CBK_ARP_TIMEOUT
  -------         ENDMOD        FW_OS_CBK

  -------         MODULE        TFTPD
  C:0000H         SYMBOL        _ICE_DUMMY_
  D:0090H         PUBLIC        P1
  D:00B0H         PUBLIC        P3
  C:BA4EH         PUBLIC        TFTP_Process
  D:00E8H         PUBLIC        P4
  D:00A8H         PUBLIC        IE
  D:00B8H         PUBLIC        IP
  D:0098H         PUBLIC        SCON
  D:0088H         PUBLIC        TCON
  D:00D8H         PUBLIC        WDTCON
  D:00C8H         PUBLIC        T2CON
  D:00D0H         PUBLIC        PSW
  -------         PROC          TFTP_PROCESS
  C:BA4EH         LINE#         32
  C:BA4EH         LINE#         33
  C:BA4EH         LINE#         34
  C:BA5DH         LINE#         35
  C:BA5DH         LINE#         36
  C:BA61H         LINE#         38
  C:BA61H         LINE#         39
  C:BA68H         LINE#         40
  C:BA84H         LINE#         41
  C:BA84H         LINE#         42
  C:BAB8H         LINE#         43
  C:BAB8H         LINE#         44
  C:BAB8H         LINE#         46
  C:BABCH         LINE#         47
  C:BABFH         LINE#         48
  C:BABFH         LINE#         50
  C:BAC5H         LINE#         51
  C:BAC5H         LINE#         52
  C:BAC8H         LINE#         53
  C:BAD1H         LINE#         54
  C:BAD4H         LINE#         55
  C:BAD4H         LINE#         56
  C:BAE4H         LINE#         57
  C:BAEBH         LINE#         58
  C:BAFBH         LINE#         60
  C:BB02H         LINE#         61
  C:BB02H         LINE#         62
  C:BB08H         LINE#         63
  C:BB0AH         LINE#         64
  C:BB0AH         LINE#         65
  C:BB10H         LINE#         67
  C:BB15H         LINE#         68
  C:BB1CH         LINE#         69
  C:BB25H         LINE#         70
  C:BB25H         LINE#         71
  C:BB25H         LINE#         73
  C:BB2EH         LINE#         74
  C:BB2EH         LINE#         75
BL51 BANKED LINKER/LOCATER V5.03                                                      08/07/2012  16:42:10  PAGE 21


  C:BB38H         LINE#         76
  C:BB42H         LINE#         79
  C:BB66H         LINE#         80
  C:BB66H         LINE#         82
  C:BB8AH         LINE#         84
  C:BBA8H         LINE#         86
  C:BBC2H         LINE#         87
  C:BBC2H         LINE#         89
  C:BBD2H         LINE#         90
  C:BBEAH         LINE#         91
  C:BBF1H         LINE#         94
  C:BC09H         LINE#         95
  C:BC15H         LINE#         96
  C:BC15H         LINE#         97
  C:BC1EH         LINE#         99
  C:BC24H         LINE#         100
  C:BC24H         LINE#         101
  C:BC25H         LINE#         103
  C:BC25H         LINE#         104
  C:BC2CH         LINE#         105
  C:BC35H         LINE#         106
  C:BC38H         LINE#         107
  C:BC41H         LINE#         108
  C:BC44H         LINE#         109
  C:BC44H         LINE#         110
  C:BC44H         LINE#         112
  C:BC44H         LINE#         113
  C:BC66H         LINE#         114
  C:BC66H         LINE#         115
  C:BC76H         LINE#         117
  C:BC7DH         LINE#         118
  C:BC7FH         LINE#         120
  C:BC7FH         LINE#         121
  C:BC86H         LINE#         122
  C:BC86H         LINE#         123
  C:BC90H         LINE#         124
  C:BC90H         LINE#         125
  C:BC90H         LINE#         127
  C:BC90H         LINE#         128
  C:BC94H         LINE#         129
  C:BC94H         LINE#         130
  C:BC96H         LINE#         131
  C:BC96H         LINE#         132
  C:BC9AH         LINE#         134
  C:BC9AH         LINE#         135
  C:BC9DH         LINE#         138
  C:BC9DH         LINE#         139
  C:BC9DH         LINE#         140
  C:BC9DH         LINE#         141
  C:BC9DH         LINE#         142
  C:BC9DH         LINE#         143
  -------         ENDPROC       TFTP_PROCESS
  -------         ENDMOD        TFTPD

  -------         MODULE        UIP_ARP
  C:0000H         SYMBOL        _ICE_DUMMY_
  D:0090H         PUBLIC        P1
BL51 BANKED LINKER/LOCATER V5.03                                                      08/07/2012  16:42:10  PAGE 22


  X:4A82H         SYMBOL        tmpage
  D:00B0H         PUBLIC        P3
  D:00E8H         PUBLIC        P4
  X:4A83H         PUBLIC        arpbuf
  C:D3DEH         PUBLIC        uip_arp_ipin
  C:DFE8H         PUBLIC        uip_arp_init
  D:00A8H         PUBLIC        IE
  X:4ABFH         PUBLIC        uip_ethaddr
  D:00B8H         PUBLIC        IP
  C:BEE2H         PUBLIC        uip_arp_out
  X:4AC5H         SYMBOL        arp_table
  D:0098H         PUBLIC        SCON
  D:0088H         PUBLIC        TCON
  C:D4CCH         PUBLIC        arp_packet_init
  C:C112H         SYMBOL        _uip_arp_update
  D:00D8H         PUBLIC        WDTCON
  X:4B1DH         SYMBOL        c
  X:4B1EH         PUBLIC        arp_len
  D:00C8H         PUBLIC        T2CON
  X:4B20H         SYMBOL        i
  C:C708H         PUBLIC        uip_arp_arpin
  X:4B21H         PUBLIC        m_gatewayinfo
  X:4B34H         SYMBOL        arptime
  X:4B35H         SYMBOL        ipaddr
  C:DA2FH         PUBLIC        uip_arp_timer
  D:00D0H         PUBLIC        PSW
  C:E560H         PUBLIC        send_arp_req
  -------         PROC          UIP_ARP_INIT
  C:DFE8H         LINE#         164
  C:DFE8H         LINE#         165
  C:DFE8H         LINE#         169
  C:DFF7H         LINE#         170
  C:E016H         LINE#         171
  C:E01EH         LINE#         173
  C:E02DH         LINE#         174
  C:E03CH         LINE#         175
  C:E04BH         LINE#         179
  -------         ENDPROC       UIP_ARP_INIT
  -------         PROC          UIP_ARP_TIMER
  -------         DO            
  D:0001H         SYMBOL        tabptr
  -------         ENDDO         
  C:DA2FH         LINE#         194
  C:DA2FH         LINE#         195
  C:DA2FH         LINE#         198
  C:DA35H         LINE#         199
  C:DA4EH         LINE#         200
  C:DA54H         LINE#         201
  C:DA54H         LINE#         204
  C:DA57H         LINE#         205
  C:DA5DH         LINE#         206
  C:DA5FH         LINE#         208
  C:DA5FH         LINE#         209
  C:DA71H         LINE#         210
  C:DA71H         LINE#         211
  C:DA7BH         LINE#         213
  C:DA7EH         LINE#         214
BL51 BANKED LINKER/LOCATER V5.03                                                      08/07/2012  16:42:10  PAGE 23


  C:DA7EH         LINE#         215
  C:DA7EH         LINE#         216
  C:DA8DH         LINE#         217
  C:DA8DH         LINE#         218
  C:DA9CH         LINE#         236
  C:DAC5H         LINE#         239
  C:DAC5H         LINE#         247
  C:DACEH         LINE#         248
  C:DACEH         LINE#         249
  C:DAD6H         LINE#         251
  -------         ENDPROC       UIP_ARP_TIMER
  -------         PROC          _UIP_ARP_UPDATE
  X:4D55H         SYMBOL        in_ipaddr
  X:4D58H         SYMBOL        ethaddr
  C:C112H         LINE#         254
  C:C118H         LINE#         255
  C:C118H         LINE#         257
  C:C143H         LINE#         259
  C:C143H         LINE#         260
  C:C162H         LINE#         261
  C:C162H         LINE#         263
  C:C175H         LINE#         271
  C:C175H         LINE#         273
  C:C175H         LINE#         278
  C:C187H         LINE#         282
  C:C1B4H         LINE#         283
  C:C1B4H         LINE#         287
  C:C1FEH         LINE#         288
  C:C1FEH         LINE#         291
  C:C1FEH         LINE#         292
  C:C201H         LINE#         298
  C:C201H         LINE#         299
  C:C201H         LINE#         300
  C:C20AH         LINE#         306
  C:C219H         LINE#         308
  C:C246H         LINE#         309
  C:C246H         LINE#         310
  C:C246H         LINE#         311
  C:C246H         LINE#         312
  C:C24EH         LINE#         316
  C:C256H         LINE#         317
  C:C256H         LINE#         319
  C:C25AH         LINE#         320
  C:C25EH         LINE#         321
  C:C26CH         LINE#         322
  C:C26CH         LINE#         325
  C:C290H         LINE#         326
  C:C290H         LINE#         327
  C:C29BH         LINE#         328
  C:C2A0H         LINE#         329
  C:C2A0H         LINE#         330
  C:C2A8H         LINE#         331
  C:C2B0H         LINE#         332
  C:C2B0H         LINE#         337
  C:C2D3H         LINE#         338
  C:C2F4H         LINE#         339
  C:C315H         LINE#         340
BL51 BANKED LINKER/LOCATER V5.03                                                      08/07/2012  16:42:10  PAGE 24


  C:C32DH         LINE#         341
  -------         ENDPROC       _UIP_ARP_UPDATE
  -------         PROC          UIP_ARP_IPIN
  C:D3DEH         LINE#         357
  C:D3DEH         LINE#         358
  C:D3DEH         LINE#         359
  C:D3E9H         LINE#         364
  C:D41DH         LINE#         366
  C:D41DH         LINE#         368
  C:D41DH         LINE#         369
  C:D446H         LINE#         370
  C:D446H         LINE#         372
  C:D446H         LINE#         373
  C:D472H         LINE#         374
  C:D472H         LINE#         376
  C:D472H         LINE#         379
  C:D4A2H         LINE#         381
  C:D4A2H         LINE#         383
  C:D4A2H         LINE#         386
  C:D4CBH         LINE#         389
  -------         ENDPROC       UIP_ARP_IPIN
  -------         PROC          UIP_ARP_ARPIN
  C:C708H         LINE#         414
  C:C708H         LINE#         415
  C:C708H         LINE#         417
  C:C717H         LINE#         418
  C:C71CH         LINE#         420
  C:C71CH         LINE#         422
  C:C723H         LINE#         424
  C:C747H         LINE#         425
  C:C747H         LINE#         429
  C:C775H         LINE#         431
  C:C785H         LINE#         433
  C:C7B0H         LINE#         434
  C:C7CEH         LINE#         435
  C:C7ECH         LINE#         436
  C:C818H         LINE#         438
  C:C82FH         LINE#         439
  C:C840H         LINE#         440
  C:C850H         LINE#         441
  C:C860H         LINE#         443
  C:C86BH         LINE#         444
  C:C874H         LINE#         445
  C:C874H         LINE#         446
  C:C875H         LINE#         447
  C:C875H         LINE#         459
  C:C8A1H         LINE#         460
  C:C8A1H         LINE#         462
  C:C8CAH         LINE#         463
  C:C8CAH         LINE#         465
  C:C8CAH         LINE#         466
  C:C8CAH         LINE#         469
  -------         ENDPROC       UIP_ARP_ARPIN
  -------         PROC          ARP_PACKET_INIT
  C:D4CCH         LINE#         470
  C:D4CCH         LINE#         471
  C:D4CCH         LINE#         474
BL51 BANKED LINKER/LOCATER V5.03                                                      08/07/2012  16:42:10  PAGE 25


  C:D4DBH         LINE#         475
  C:D4E2H         LINE#         476
  C:D4F0H         LINE#         477
  C:D4FFH         LINE#         478
  C:D512H         LINE#         479
  C:D525H         LINE#         481
  C:D534H         LINE#         482
  C:D543H         LINE#         483
  C:D552H         LINE#         484
  C:D561H         LINE#         485
  C:D569H         LINE#         486
  C:D571H         LINE#         487
  C:D578H         LINE#         488
  C:D57CH         LINE#         489
  C:D580H         LINE#         490
  C:D58AH         LINE#         494
  C:D593H         LINE#         495
  C:D59FH         LINE#         496
  C:D5A6H         LINE#         497
  -------         ENDPROC       ARP_PACKET_INIT
  -------         PROC          UIP_ARP_OUT
  -------         DO            
  X:4D8CH         SYMBOL        tabptr
  -------         ENDDO         
  C:BEE2H         LINE#         526
  C:BEE2H         LINE#         527
  C:BEE2H         LINE#         541
  C:BF3AH         LINE#         542
  C:BF3AH         LINE#         546
  C:BF49H         LINE#         547
  C:BF54H         LINE#         548
  C:BF56H         LINE#         550
  C:BF6CH         LINE#         551
  C:BF7CH         LINE#         552
  C:BF7CH         LINE#         553
  C:BF92H         LINE#         554
  C:BF92H         LINE#         562
  C:BFB6H         LINE#         563
  C:BFB6H         LINE#         565
  C:BFB6H         LINE#         566
  C:BFB9H         LINE#         568
  C:BFB9H         LINE#         569
  C:BFCFH         LINE#         570
  C:BFCFH         LINE#         572
  C:BFD2H         LINE#         574
  C:BFD5H         LINE#         575
  C:BFD5H         LINE#         577
  C:BFD5H         LINE#         578
  C:BFE7H         LINE#         579
  C:BFE7H         LINE#         580
  C:BFE7H         LINE#         581
  C:BFEAH         LINE#         583
  C:BFEAH         LINE#         584
  C:BFF9H         LINE#         585
  C:BFF9H         LINE#         586
  C:C00EH         LINE#         587
  C:C037H         LINE#         589
BL51 BANKED LINKER/LOCATER V5.03                                                      08/07/2012  16:42:10  PAGE 26


  C:C037H         LINE#         592
  C:C041H         LINE#         598
  C:C043H         LINE#         599
  C:C043H         LINE#         600
  C:C04BH         LINE#         601
  C:C06EH         LINE#         602
  C:C06EH         LINE#         603
  C:C075H         LINE#         604
  C:C075H         LINE#         605
  C:C078H         LINE#         629
  C:C07BH         LINE#         630
  C:C07BH         LINE#         631
  C:C07BH         LINE#         633
  C:C09FH         LINE#         634
  C:C09FH         LINE#         635
  C:C0A8H         LINE#         636
  C:C0AAH         LINE#         638
  C:C0AAH         LINE#         639
  C:C0D6H         LINE#         640
  C:C0D6H         LINE#         641
  C:C0D6H         LINE#         642
  C:C0F4H         LINE#         643
  C:C105H         LINE#         644
  C:C10FH         LINE#         645
  C:C111H         LINE#         647
  -------         ENDPROC       UIP_ARP_OUT
  -------         PROC          SEND_ARP_REQ
  C:E560H         LINE#         649
  C:E560H         LINE#         650
  C:E560H         LINE#         651
  C:E56FH         LINE#         652
  C:E57EH         LINE#         655
  -------         ENDPROC       SEND_ARP_REQ
  -------         ENDMOD        UIP_ARP

  -------         MODULE        UDP
  C:0000H         SYMBOL        _ICE_DUMMY_
  D:0090H         PUBLIC        P1
  D:00B0H         PUBLIC        P3
  D:00E8H         PUBLIC        P4
  D:00A8H         PUBLIC        IE
  D:00B8H         PUBLIC        IP
  D:0098H         PUBLIC        SCON
  D:0088H         PUBLIC        TCON
  C:C8CBH         PUBLIC        _udp_send
  D:00D8H         PUBLIC        WDTCON
  D:00C8H         PUBLIC        T2CON
  D:00D0H         PUBLIC        PSW
  -------         PROC          _UDP_SEND
  X:4DADH         SYMBOL        length
  C:C8CBH         LINE#         65
  C:C8D3H         LINE#         66
  C:C8D3H         LINE#         67
  C:C8D6H         LINE#         68
  C:C8D6H         LINE#         69
  C:C8DDH         LINE#         71
  C:C8DDH         LINE#         74
BL51 BANKED LINKER/LOCATER V5.03                                                      08/07/2012  16:42:10  PAGE 27


  C:C909H         LINE#         76
  C:C927H         LINE#         82
  C:C966H         LINE#         84
  C:C984H         LINE#         85
  C:C994H         LINE#         87
  C:C99EH         LINE#         88
  C:C9A8H         LINE#         89
  C:C9B2H         LINE#         91
  C:C9C7H         LINE#         93
  C:C9D0H         LINE#         96
  C:C9EEH         LINE#         98
  C:C9FDH         LINE#         99
  C:CA0DH         LINE#         101
  C:CA1DH         LINE#         103
  C:CA3AH         LINE#         104
  C:CA43H         LINE#         107
  C:CA4DH         LINE#         108
  C:CA64H         LINE#         109
  C:CA64H         LINE#         110
  C:CA84H         LINE#         112
  -------         ENDPROC       _UDP_SEND
  -------         ENDMOD        UDP

  -------         MODULE        DMA
  C:0000H         SYMBOL        _ICE_DUMMY_
  D:0090H         PUBLIC        P1
  D:00B0H         PUBLIC        P3
  D:00E8H         PUBLIC        P4
  B:00A8H.7       PUBLIC        EA
  C:E6FBH         PUBLIC        IP210_DMA_Idle_Restore
  D:00A8H         PUBLIC        IE
  C:DC16H         PUBLIC        _CRC_Calculation
  D:00B8H         PUBLIC        IP
  D:0087H         PUBLIC        PCON
  D:0098H         PUBLIC        SCON
  D:0088H         PUBLIC        TCON
  C:D8C6H         PUBLIC        _IP210_DMA
  B:00A8H.0       PUBLIC        EX0
  C:E6BBH         PUBLIC        IP210_DMA_Set_Idle
  D:00D8H         PUBLIC        WDTCON
  C:E4B8H         PUBLIC        _Fill_DMA_Setting
  D:00C8H         PUBLIC        T2CON
  D:00E1H         PUBLIC        PDCON
  C:E76EH         PUBLIC        IP210_Wait_DMA_Complete
  D:00D0H         PUBLIC        PSW
  -------         PROC          IP210_DMA_SET_IDLE
  -------         DO            
  D:0007H         SYMBOL        temp_ier
  -------         ENDDO         
  C:E6BBH         LINE#         24
  C:E6BBH         LINE#         25
  C:E6BBH         LINE#         29
  C:E6BFH         LINE#         30
  C:E6C3H         LINE#         31
  C:E6C5H         LINE#         32
  C:E6C8H         LINE#         33
  C:E6CBH         LINE#         34
BL51 BANKED LINKER/LOCATER V5.03                                                      08/07/2012  16:42:10  PAGE 28


  C:E6CDH         LINE#         35
  C:E6CFH         LINE#         36
  C:E6D2H         LINE#         37
  -------         ENDPROC       IP210_DMA_SET_IDLE
  -------         PROC          IP210_DMA_IDLE_RESTORE
  -------         DO            
  D:0007H         SYMBOL        temp_ier
  -------         ENDDO         
  C:E6FBH         LINE#         49
  C:E6FBH         LINE#         50
  C:E6FBH         LINE#         53
  C:E700H         LINE#         54
  C:E704H         LINE#         55
  C:E706H         LINE#         56
  C:E709H         LINE#         57
  C:E70CH         LINE#         58
  -------         ENDPROC       IP210_DMA_IDLE_RESTORE
  -------         PROC          _FILL_DMA_SETTING
  X:4DAFH         SYMBOL        src_addr
  D:0004H         SYMBOL        des_addr
  D:0002H         SYMBOL        length
  C:E4B8H         LINE#         74
  C:E4C0H         LINE#         75
  C:E4C0H         LINE#         77
  C:E4C8H         LINE#         78
  C:E4D0H         LINE#         80
  C:E4D5H         LINE#         81
  C:E4DAH         LINE#         83
  C:E4DFH         LINE#         84
  C:E4E4H         LINE#         85
  -------         ENDPROC       _FILL_DMA_SETTING
  -------         PROC          IP210_WAIT_DMA_COMPLETE
  -------         DO            
  D:0007H         SYMBOL        b
  -------         ENDDO         
  C:E76EH         LINE#         98
  C:E76EH         LINE#         99
  C:E76EH         LINE#         103
  C:E76EH         LINE#         104
  C:E773H         LINE#         105
  C:E777H         LINE#         107
  -------         ENDPROC       IP210_WAIT_DMA_COMPLETE
  -------         PROC          _IP210_DMA
  X:4CFDH         SYMBOL        src_addr
  X:4CFFH         SYMBOL        des_addr
  X:4D01H         SYMBOL        length
  X:4D03H         SYMBOL        cmd
  -------         DO            
  D:0001H         SYMBOL        i
  X:4D04H         SYMBOL        loop_count
  X:4D05H         SYMBOL        mode
  -------         ENDDO         
  C:D8C6H         LINE#         123
  C:D8DAH         LINE#         124
  C:D8DAH         LINE#         129
  C:D8E2H         LINE#         130
  C:D8EAH         LINE#         131
BL51 BANKED LINKER/LOCATER V5.03                                                      08/07/2012  16:42:10  PAGE 29


  C:D8EAH         LINE#         133
  C:D8EDH         LINE#         134
  C:D8EDH         LINE#         135
  C:D8FBH         LINE#         136
  C:D907H         LINE#         137
  C:D907H         LINE#         138
  C:D912H         LINE#         139
  C:D912H         LINE#         140
  C:D91AH         LINE#         141
  C:D927H         LINE#         143
  C:D939H         LINE#         144
  C:D941H         LINE#         145
  C:D948H         LINE#         146
  C:D948H         LINE#         147
  C:D94BH         LINE#         149
  C:D94BH         LINE#         150
  C:D94EH         LINE#         151
  C:D955H         LINE#         152
  C:D958H         LINE#         153
  C:D963H         LINE#         154
  C:D96EH         LINE#         155
  C:D979H         LINE#         156
  C:D97CH         LINE#         158
  C:D97EH         LINE#         159
  -------         ENDPROC       _IP210_DMA
  -------         PROC          _CRC_CALCULATION
  X:4D8FH         SYMBOL        src_addr
  D:0004H         SYMBOL        length
  D:0001H         SYMBOL        p_crc
  -------         DO            
  D:0007H         SYMBOL        b
  X:4D91H         SYMBOL        ii
  D:0001H         SYMBOL        p
  -------         ENDDO         
  C:DC16H         LINE#         176
  C:DC1EH         LINE#         177
  C:DC1EH         LINE#         182
  C:DC26H         LINE#         183
  C:DC2EH         LINE#         185
  C:DC33H         LINE#         186
  C:DC38H         LINE#         188
  C:DC3EH         LINE#         190
  C:DC43H         LINE#         191
  C:DC43H         LINE#         192
  C:DC48H         LINE#         193
  C:DC4EH         LINE#         194
  C:DC5CH         LINE#         195
  C:DC68H         LINE#         196
  C:DC68H         LINE#         198
  C:DC6BH         LINE#         199
  C:DC6BH         LINE#         200
  C:DC6BH         LINE#         201
  C:DC7AH         LINE#         202
  C:DC7AH         LINE#         203
  C:DC98H         LINE#         204
  C:DCA0H         LINE#         206
  -------         ENDPROC       _CRC_CALCULATION
BL51 BANKED LINKER/LOCATER V5.03                                                      08/07/2012  16:42:10  PAGE 30


  -------         ENDMOD        DMA

  -------         MODULE        FLASH
  C:0000H         SYMBOL        _ICE_DUMMY_
  D:0090H         PUBLIC        P1
  X:4C85H         PUBLIC        Flash_Erase_Bankno
  D:00B0H         PUBLIC        P3
  D:00E8H         PUBLIC        P4
  C:83E9H         PUBLIC        _Flash_Switch_Bank
  C:843DH         PUBLIC        MX_toggle
  D:00A8H         PUBLIC        IE
  C:8DB1H         PUBLIC        _FirmwareUpdateWriteData
  C:859AH         PUBLIC        _Flash_Erase_Sector_AT49BV040B_BottomSector_while
  X:4C87H         PUBLIC        Phase_Flash_Erase
  D:00B8H         PUBLIC        IP
  X:4C89H         PUBLIC        Global_cal_chechsum
  C:85DBH         PUBLIC        _Flash_Erase_Sector_MX29LV004CB_while
  C:8B39H         PUBLIC        FlashIdentification
  C:820CH         PUBLIC        _Flash_Read_Byte
  C:85EFH         PUBLIC        _Flash_Erase_Sector_MX29LV800CB_while
  X:4C8AH         PUBLIC        next_erase_sector
  C:8229H         PUBLIC        _FirmwareUpdatMirrorMode
  X:4C8CH         PUBLIC        Flash_Bankno
  B:00E8H.6       PUBLIC        FLASH_ADDR_20
  C:86A2H         PUBLIC        _Flash_Erase_Sector_SST39VF1681
  X:4C8EH         PUBLIC        next_erase_bank
  X:4C90H         PUBLIC        Global_flash_ID
  B:00B0H.5       PUBLIC        FLASH_ADDR_16
  D:0098H         PUBLIC        SCON
  B:00B0H.4       PUBLIC        FLASH_ADDR_17
  D:0088H         PUBLIC        TCON
  C:846FH         PUBLIC        _Flash_Write_Byte
  B:0090H.7       PUBLIC        FLASH_ADDR_18
  B:00E8H.1       PUBLIC        FLASH_ADDR_19
  C:81C4H         PUBLIC        _Start_Mirror_Mode
  C:876FH         PUBLIC        FirmwareUpdateEraseFlash_MX29LV004CB_while
  C:8718H         PUBLIC        _Flash_Erase_Sector_SST39VLF040
  C:8206H         PUBLIC        Flash_Access_Disable
  C:8917H         PUBLIC        FirmwareUpdateEraseFlash_MX29LV800CB_while
  X:4C92H         PUBLIC        last_timercounter
  C:80FAH         SYMBOL        _?ix1000
  X:4C96H         PUBLIC        Global_flash_addr
  C:8586H         PUBLIC        _Flash_Erase_Sector_AT49BV040B_while
  C:8B05H         PUBLIC        Flash_CHECK_SIZE
  X:4C98H         PUBLIC        Global_bank_index
  D:00D8H         PUBLIC        WDTCON
  C:81E4H         PUBLIC        Flash_Access_Enable
  X:4C99H         PUBLIC        Global_flash_count
  C:89D7H         PUBLIC        FirmwareUpdateEraseFlash_SST39VLF040_while
  C:8245H         PUBLIC        _FirmwareUpdateFlashBankCheck
  C:8E70H         PUBLIC        CBK_Flash_Size_Check
  C:8844H         PUBLIC        FirmwareUpdateEraseFlash_AT49BV040B_while
  X:4C9DH         PUBLIC        Global_erase_flash_wait_time
  D:00C8H         PUBLIC        T2CON
  C:8CD9H         PUBLIC        FirmwareUpdateEraseFlash_While
  C:8180H         PUBLIC        NOP
  C:81D7H         PUBLIC        Stop_Mirror_Mode
BL51 BANKED LINKER/LOCATER V5.03                                                      08/07/2012  16:42:10  PAGE 31


  D:008EH         PUBLIC        CKCON
  C:8620H         PUBLIC        _Flash_Erase_Sector_MX29LV004CB_BottomSector_while
  C:81A1H         PUBLIC        _Delay_10ms
  C:8661H         PUBLIC        _Flash_Erase_Sector_MX29LV800CB_BottomSector_while
  B:00D8H.4       PUBLIC        FLASH_ACCESS_EN
  C:86DFH         PUBLIC        Flash_Erase_bank_SST39VF1681
  D:00D0H         PUBLIC        PSW
  C:82CEH         PUBLIC        FirmwareUpdateFlashCheck
  -------         PROC          NOP
  C:8180H         LINE#         37
  -------         ENDPROC       NOP
  C:819AH         SYMBOL        L?0219
  -------         PROC          L?0218
  -------         ENDPROC       L?0218
  C:819AH         SYMBOL        L?0219
  -------         PROC          _DELAY_10MS
  D:0006H         SYMBOL        count
  -------         DO            
  D:0002H         SYMBOL        i
  D:0004H         SYMBOL        j
  -------         ENDDO         
  C:81A1H         LINE#         39
  C:81A1H         LINE#         40
  C:81A1H         LINE#         43
  C:81ABH         LINE#         44
  C:81ABH         LINE#         45
  C:81AEH         LINE#         46
  C:81BCH         LINE#         47
  C:81C3H         LINE#         48
  -------         ENDPROC       _DELAY_10MS
  -------         PROC          _START_MIRROR_MODE
  D:0006H         SYMBOL        mirror_addr
  -------         DO            
  D:0007H         SYMBOL        reg_byte
  -------         ENDDO         
  C:81C4H         LINE#         61
  C:81C4H         LINE#         62
  C:81C4H         LINE#         67
  C:81C9H         LINE#         68
  C:81CAH         LINE#         71
  C:81CEH         LINE#         72
  C:81D0H         LINE#         73
  C:81D1H         LINE#         74
  -------         ENDPROC       _START_MIRROR_MODE
  C:81D2H         SYMBOL        L?0225
  -------         PROC          L?0224
  -------         ENDPROC       L?0224
  C:81D2H         SYMBOL        L?0225
  -------         PROC          STOP_MIRROR_MODE
  -------         DO            
  D:0007H         SYMBOL        reg_byte
  -------         ENDDO         
  C:81D7H         LINE#         86
  C:81D7H         LINE#         87
  C:81D7H         LINE#         91
  C:81DCH         LINE#         92
  C:81E0H         LINE#         93
BL51 BANKED LINKER/LOCATER V5.03                                                      08/07/2012  16:42:10  PAGE 32


  C:81E2H         LINE#         94
  C:81E3H         LINE#         95
  -------         ENDPROC       STOP_MIRROR_MODE
  -------         PROC          FLASH_ACCESS_ENABLE
  C:81E4H         LINE#         107
  C:81E4H         LINE#         108
  C:81E4H         LINE#         109
  C:81E7H         LINE#         110
  C:81E9H         LINE#         111
  -------         ENDPROC       FLASH_ACCESS_ENABLE
  C:8200H         SYMBOL        L?0221
  -------         PROC          L?0220
  -------         ENDPROC       L?0220
  C:8200H         SYMBOL        L?0221
  -------         PROC          FLASH_ACCESS_DISABLE
  C:8206H         LINE#         124
  C:8206H         LINE#         125
  C:8206H         LINE#         126
  C:8208H         LINE#         127
  C:820BH         LINE#         128
  -------         ENDPROC       FLASH_ACCESS_DISABLE
  -------         PROC          _FLASH_READ_BYTE
  D:0006H         SYMBOL        flash_addr
  -------         DO            
  D:0007H         SYMBOL        byte_data
  D:0065H         SYMBOL        flash_read_addr
  -------         ENDDO         
  C:820CH         LINE#         143
  C:820CH         LINE#         144
  C:820CH         LINE#         148
  C:8210H         LINE#         149
  C:8213H         LINE#         150
  C:821BH         LINE#         151
  C:821EH         LINE#         152
  C:821EH         LINE#         153
  -------         ENDPROC       _FLASH_READ_BYTE
  C:821FH         SYMBOL        L?0214
  C:8221H         SYMBOL        L?0215
  -------         PROC          L?0213
  -------         ENDPROC       L?0213
  C:821FH         SYMBOL        L?0214
  C:8221H         SYMBOL        L?0215
  -------         PROC          _FIRMWAREUPDATMIRRORMODE
  X:4DB1H         SYMBOL        src_addr
  D:0004H         SYMBOL        des_addr
  D:0002H         SYMBOL        length
  C:8229H         LINE#         168
  C:8231H         LINE#         169
  C:8231H         LINE#         170
  C:823AH         LINE#         171
  -------         ENDPROC       _FIRMWAREUPDATMIRRORMODE
  -------         PROC          _FIRMWAREUPDATEFLASHBANKCHECK
  X:4CDDH         SYMBOL        bank_index
  -------         DO            
  X:4CDEH         SYMBOL        ii
  X:4CE2H         SYMBOL        addr_limit
  X:4CE6H         SYMBOL        byte_data
BL51 BANKED LINKER/LOCATER V5.03                                                      08/07/2012  16:42:10  PAGE 33


  -------         ENDDO         
  C:8245H         LINE#         185
  C:824BH         LINE#         186
  C:824BH         LINE#         187
  C:8255H         LINE#         190
  C:8262H         LINE#         191
  C:8288H         LINE#         193
  C:828DH         LINE#         194
  C:82A2H         LINE#         195
  C:82BEH         LINE#         196
  C:82C9H         LINE#         197
  -------         ENDPROC       _FIRMWAREUPDATEFLASHBANKCHECK
  -------         PROC          FIRMWAREUPDATEFLASHCHECK
  -------         DO            
  X:4D21H         SYMBOL        i
  X:4D23H         SYMBOL        byte_data
  X:4D24H         SYMBOL        flash_checksum
  X:4D25H         SYMBOL        magic
  -------         ENDDO         
  C:82CEH         LINE#         212
  C:82CEH         LINE#         213
  C:82CEH         LINE#         214
  C:82D5H         LINE#         216
  C:82E7H         LINE#         219
  C:82EAH         LINE#         220
  C:82F1H         LINE#         221
  C:82F1H         LINE#         222
  C:82FAH         LINE#         223
  C:8310H         LINE#         224
  C:8313H         LINE#         226
  C:8329H         LINE#         227
  C:8329H         LINE#         228
  C:832EH         LINE#         229
  C:8347H         LINE#         230
  C:8353H         LINE#         231
  C:8353H         LINE#         232
  C:8356H         LINE#         233
  C:8359H         LINE#         234
  C:8359H         LINE#         236
  C:8362H         LINE#         237
  C:8367H         LINE#         238
  C:8382H         LINE#         239
  C:8382H         LINE#         240
  C:8388H         LINE#         241
  C:838BH         LINE#         242
  C:8397H         LINE#         244
  C:83A0H         LINE#         245
  C:83ACH         LINE#         246
  C:83ACH         LINE#         247
  C:83AFH         LINE#         248
  C:83D2H         LINE#         249
  C:83DEH         LINE#         250
  C:83E1H         LINE#         251
  C:83E1H         LINE#         252
  C:83E3H         LINE#         253
  -------         ENDPROC       FIRMWAREUPDATEFLASHCHECK
  C:83E4H         SYMBOL        L?0223
BL51 BANKED LINKER/LOCATER V5.03                                                      08/07/2012  16:42:10  PAGE 34


  -------         PROC          L?0222
  -------         ENDPROC       L?0222
  C:83E4H         SYMBOL        L?0223
  -------         PROC          _FLASH_SWITCH_BANK
  D:0007H         SYMBOL        index
  C:83E9H         LINE#         14
  C:83E9H         LINE#         15
  C:83E9H         LINE#         16
  C:83EDH         LINE#         17
  C:83F3H         LINE#         18
  C:83FBH         LINE#         21
  C:83FBH         LINE#         22
  C:8404H         LINE#         23
  C:8404H         LINE#         24
  C:8406H         LINE#         25
  C:8408H         LINE#         27
  C:8408H         LINE#         28
  C:840AH         LINE#         29
  C:840AH         LINE#         30
  C:840AH         LINE#         32
  C:840AH         LINE#         33
  C:8411H         LINE#         34
  C:8411H         LINE#         35
  C:8413H         LINE#         36
  C:8414H         LINE#         38
  C:8414H         LINE#         39
  C:8416H         LINE#         40
  C:8416H         LINE#         41
  C:8416H         LINE#         43
  -------         ENDPROC       _FLASH_SWITCH_BANK
  C:8434H         SYMBOL        L?0217
  -------         PROC          L?0216
  -------         ENDPROC       L?0216
  C:8434H         SYMBOL        L?0217
  -------         PROC          MX_TOGGLE
  -------         DO            
  D:0007H         SYMBOL        toggle_a
  D:0006H         SYMBOL        toggle_b
  D:0005H         SYMBOL        tog_a_bit
  D:0004H         SYMBOL        tog_b_bit
  -------         ENDDO         
  C:843DH         LINE#         44
  C:843DH         LINE#         45
  C:843DH         LINE#         49
  C:843DH         LINE#         50
  C:8440H         LINE#         51
  C:8445H         LINE#         52
  C:8447H         LINE#         53
  C:844BH         LINE#         54
  C:844FH         LINE#         55
  C:8452H         LINE#         56
  C:8452H         LINE#         59
  C:8456H         LINE#         60
  C:8456H         LINE#         61
  C:845BH         LINE#         62
  C:845DH         LINE#         63
  C:8461H         LINE#         64
BL51 BANKED LINKER/LOCATER V5.03                                                      08/07/2012  16:42:10  PAGE 35


  C:8466H         LINE#         65
  C:8469H         LINE#         66
  C:8469H         LINE#         68
  C:8469H         LINE#         70
  C:846CH         LINE#         71
  C:846CH         LINE#         72
  C:846CH         LINE#         74
  C:846CH         LINE#         75
  C:846EH         LINE#         76
  -------         ENDPROC       MX_TOGGLE
  -------         PROC          _FLASH_WRITE_BYTE
  X:4D6DH         SYMBOL        flash_addr
  X:4D6FH         SYMBOL        byte_data
  -------         DO            
  D:0007H         SYMBOL        read_data
  X:4D70H         SYMBOL        ii
  D:0067H         SYMBOL        flash_write_addr
  -------         ENDDO         
  C:846FH         LINE#         105
  C:847AH         LINE#         106
  C:847AH         LINE#         111
  C:8485H         LINE#         113
  C:8488H         LINE#         114
  C:848BH         LINE#         115
  C:848FH         LINE#         119
  C:84C7H         LINE#         120
  C:84C7H         LINE#         121
  C:84C7H         LINE#         122
  C:84CAH         LINE#         123
  C:84D0H         LINE#         124
  C:84D6H         LINE#         125
  C:84D9H         LINE#         126
  C:84D9H         LINE#         127
  C:84DBH         LINE#         128
  C:84DBH         LINE#         129
  C:84DEH         LINE#         130
  C:84E4H         LINE#         131
  C:84EAH         LINE#         132
  C:84EDH         LINE#         133
  C:84EDH         LINE#         134
  C:84EFH         LINE#         135
  C:84EFH         LINE#         136
  C:84F2H         LINE#         137
  C:84F8H         LINE#         138
  C:84FEH         LINE#         139
  C:8501H         LINE#         140
  C:8501H         LINE#         141
  C:8503H         LINE#         142
  C:8503H         LINE#         143
  C:8503H         LINE#         144
  C:8503H         LINE#         145
  C:8503H         LINE#         146
  C:8503H         LINE#         147
  C:8503H         LINE#         148
  C:8503H         LINE#         149
  C:8503H         LINE#         150
  C:8503H         LINE#         151
BL51 BANKED LINKER/LOCATER V5.03                                                      08/07/2012  16:42:10  PAGE 36


  C:8503H         LINE#         152
  C:8503H         LINE#         153
  C:8503H         LINE#         154
  C:8506H         LINE#         155
  C:850CH         LINE#         156
  C:8512H         LINE#         157
  C:8518H         LINE#         158
  C:851BH         LINE#         159
  C:851BH         LINE#         160
  C:851BH         LINE#         162
  C:851BH         LINE#         163
  C:851BH         LINE#         164
  C:851EH         LINE#         165
  C:8528H         LINE#         168
  C:852BH         LINE#         170
  C:854AH         LINE#         171
  C:854AH         LINE#         172
  C:8555H         LINE#         173
  C:855CH         LINE#         174
  C:855CH         LINE#         175
  C:855CH         LINE#         176
  C:855CH         LINE#         177
  C:8568H         LINE#         178
  C:8585H         LINE#         180
  -------         ENDPROC       _FLASH_WRITE_BYTE
  -------         PROC          _FLASH_ERASE_SECTOR_AT49BV040B_WHILE
  X:4DB3H         SYMBOL        index
  -------         DO            
  X:4DB4H         SYMBOL        i
  -------         ENDDO         
  C:8586H         LINE#         195
  C:8589H         LINE#         196
  C:8589H         LINE#         200
  C:8589H         LINE#         201
  C:8589H         LINE#         202
  C:8589H         LINE#         203
  C:8589H         LINE#         204
  C:8589H         LINE#         205
  C:8589H         LINE#         207
  C:8589H         LINE#         208
  C:8594H         LINE#         209
  C:8597H         LINE#         212
  C:8599H         LINE#         213
  -------         ENDPROC       _FLASH_ERASE_SECTOR_AT49BV040B_WHILE
  -------         PROC          _FLASH_ERASE_SECTOR_AT49BV040B_BOTTOMSECTOR_WHILE
  D:0007H         SYMBOL        index
  -------         DO            
  X:4DC5H         SYMBOL        i
  -------         ENDDO         
  C:859AH         LINE#         214
  C:859AH         LINE#         215
  C:859AH         LINE#         219
  C:859DH         LINE#         220
  C:85A3H         LINE#         221
  C:85A9H         LINE#         222
  C:85AFH         LINE#         223
  C:85B2H         LINE#         224
BL51 BANKED LINKER/LOCATER V5.03                                                      08/07/2012  16:42:10  PAGE 37


  C:85B8H         LINE#         225
  C:85BFH         LINE#         226
  C:85BFH         LINE#         227
  C:85BFH         LINE#         228
  C:85C2H         LINE#         229
  C:85C4H         LINE#         230
  C:85C4H         LINE#         231
  C:85CAH         LINE#         232
  C:85CAH         LINE#         240
  C:85CAH         LINE#         241
  C:85D5H         LINE#         242
  C:85D8H         LINE#         244
  C:85DAH         LINE#         246
  -------         ENDPROC       _FLASH_ERASE_SECTOR_AT49BV040B_BOTTOMSECTOR_WHILE
  -------         PROC          _FLASH_ERASE_SECTOR_MX29LV004CB_WHILE
  X:4DB5H         SYMBOL        index
  -------         DO            
  X:4DB6H         SYMBOL        i
  -------         ENDDO         
  C:85DBH         LINE#         247
  C:85DEH         LINE#         248
  C:85DEH         LINE#         252
  C:85DEH         LINE#         253
  C:85DEH         LINE#         254
  C:85DEH         LINE#         255
  C:85DEH         LINE#         256
  C:85DEH         LINE#         257
  C:85DEH         LINE#         259
  C:85DEH         LINE#         260
  C:85E9H         LINE#         261
  C:85ECH         LINE#         263
  C:85EEH         LINE#         264
  -------         ENDPROC       _FLASH_ERASE_SECTOR_MX29LV004CB_WHILE
  -------         PROC          _FLASH_ERASE_SECTOR_MX29LV800CB_WHILE
  X:4DC6H         SYMBOL        index
  C:85EFH         LINE#         265
  C:85F4H         LINE#         266
  C:85F4H         LINE#         272
  C:85F7H         LINE#         273
  C:85FDH         LINE#         274
  C:8603H         LINE#         275
  C:8609H         LINE#         276
  C:860CH         LINE#         277
  C:860FH         LINE#         279
  C:860FH         LINE#         305
  C:861AH         LINE#         306
  C:861DH         LINE#         307
  C:861FH         LINE#         308
  -------         ENDPROC       _FLASH_ERASE_SECTOR_MX29LV800CB_WHILE
  -------         PROC          _FLASH_ERASE_SECTOR_MX29LV004CB_BOTTOMSECTOR_WHILE
  D:0007H         SYMBOL        index
  -------         DO            
  X:4DC7H         SYMBOL        i
  D:0069H         SYMBOL        byte_data1
  D:006AH         SYMBOL        byte_data2
  -------         ENDDO         
  C:8620H         LINE#         309
BL51 BANKED LINKER/LOCATER V5.03                                                      08/07/2012  16:42:10  PAGE 38


  C:8620H         LINE#         310
  C:8620H         LINE#         314
  C:8623H         LINE#         315
  C:8629H         LINE#         316
  C:862FH         LINE#         317
  C:8635H         LINE#         318
  C:8638H         LINE#         319
  C:863EH         LINE#         320
  C:8645H         LINE#         321
  C:8645H         LINE#         322
  C:8645H         LINE#         323
  C:8648H         LINE#         324
  C:864AH         LINE#         325
  C:864AH         LINE#         326
  C:8650H         LINE#         327
  C:8650H         LINE#         334
  C:8650H         LINE#         335
  C:865BH         LINE#         336
  C:865EH         LINE#         337
  C:8660H         LINE#         339
  -------         ENDPROC       _FLASH_ERASE_SECTOR_MX29LV004CB_BOTTOMSECTOR_WHILE
  -------         PROC          _FLASH_ERASE_SECTOR_MX29LV800CB_BOTTOMSECTOR_WHILE
  D:0007H         SYMBOL        index
  -------         DO            
  X:4DC8H         SYMBOL        i
  D:006BH         SYMBOL        byte_data1
  D:006CH         SYMBOL        byte_data2
  -------         ENDDO         
  C:8661H         LINE#         340
  C:8661H         LINE#         341
  C:8661H         LINE#         345
  C:8664H         LINE#         346
  C:866AH         LINE#         347
  C:8670H         LINE#         348
  C:8676H         LINE#         349
  C:8679H         LINE#         350
  C:867FH         LINE#         351
  C:8686H         LINE#         352
  C:8686H         LINE#         353
  C:8686H         LINE#         354
  C:8689H         LINE#         355
  C:868BH         LINE#         356
  C:868BH         LINE#         357
  C:8691H         LINE#         358
  C:8691H         LINE#         365
  C:8691H         LINE#         366
  C:869CH         LINE#         367
  C:869FH         LINE#         379
  C:86A1H         LINE#         381
  -------         ENDPROC       _FLASH_ERASE_SECTOR_MX29LV800CB_BOTTOMSECTOR_WHILE
  -------         PROC          _FLASH_ERASE_SECTOR_SST39VF1681
  D:0007H         SYMBOL        index
  -------         DO            
  D:006DH         SYMBOL        flash_addr
  X:4DB7H         SYMBOL        ii
  -------         ENDDO         
  C:86A2H         LINE#         382
BL51 BANKED LINKER/LOCATER V5.03                                                      08/07/2012  16:42:10  PAGE 39


  C:86A2H         LINE#         383
  C:86A2H         LINE#         390
  C:86ABH         LINE#         394
  C:86AEH         LINE#         395
  C:86B4H         LINE#         396
  C:86BAH         LINE#         397
  C:86C0H         LINE#         398
  C:86C3H         LINE#         399
  C:86C9H         LINE#         401
  C:86D2H         LINE#         403
  C:86D5H         LINE#         406
  C:86DCH         LINE#         411
  C:86DEH         LINE#         412
  -------         ENDPROC       _FLASH_ERASE_SECTOR_SST39VF1681
  -------         PROC          FLASH_ERASE_BANK_SST39VF1681
  -------         DO            
  D:006FH         SYMBOL        flash_addr
  X:4DB9H         SYMBOL        ii
  -------         ENDDO         
  C:86DFH         LINE#         413
  C:86DFH         LINE#         414
  C:86DFH         LINE#         421
  C:86E4H         LINE#         425
  C:86E7H         LINE#         426
  C:86EDH         LINE#         427
  C:86F3H         LINE#         428
  C:86F9H         LINE#         429
  C:86FCH         LINE#         430
  C:8702H         LINE#         432
  C:870BH         LINE#         434
  C:870EH         LINE#         437
  C:8715H         LINE#         442
  C:8717H         LINE#         443
  -------         ENDPROC       FLASH_ERASE_BANK_SST39VF1681
  -------         PROC          _FLASH_ERASE_SECTOR_SST39VLF040
  X:4D76H         SYMBOL        index
  -------         DO            
  D:0071H         SYMBOL        flash_addr
  X:4D77H         SYMBOL        ii
  X:4D79H         SYMBOL        times
  -------         ENDDO         
  C:8718H         LINE#         444
  C:871DH         LINE#         445
  C:871DH         LINE#         450
  C:8723H         LINE#         451
  C:8723H         LINE#         452
  C:872FH         LINE#         454
  C:8732H         LINE#         455
  C:8738H         LINE#         456
  C:873EH         LINE#         457
  C:8744H         LINE#         458
  C:8747H         LINE#         459
  C:874DH         LINE#         461
  C:8756H         LINE#         462
  C:8759H         LINE#         464
  C:8760H         LINE#         466
  C:8766H         LINE#         467
BL51 BANKED LINKER/LOCATER V5.03                                                      08/07/2012  16:42:10  PAGE 40


  C:876CH         LINE#         468
  C:876EH         LINE#         469
  -------         ENDPROC       _FLASH_ERASE_SECTOR_SST39VLF040
  -------         PROC          FIRMWAREUPDATEERASEFLASH_MX29LV004CB_WHILE
  C:876FH         LINE#         483
  C:876FH         LINE#         484
  C:876FH         LINE#         485
  C:8774H         LINE#         486
  C:8777H         LINE#         487
  C:8781H         LINE#         488
  C:8781H         LINE#         489
  C:878BH         LINE#         490
  C:878BH         LINE#         491
  C:878FH         LINE#         492
  C:8796H         LINE#         493
  C:879EH         LINE#         494
  C:87A0H         LINE#         496
  C:87ACH         LINE#         497
  C:87ACH         LINE#         498
  C:87B1H         LINE#         499
  C:87B9H         LINE#         500
  C:87C0H         LINE#         501
  C:87C0H         LINE#         509
  C:87E6H         LINE#         510
  C:87E9H         LINE#         512
  C:87E9H         LINE#         513
  C:87F1H         LINE#         514
  C:87FBH         LINE#         515
  C:8804H         LINE#         516
  C:881CH         LINE#         517
  C:881CH         LINE#         518
  C:881FH         LINE#         519
  C:8829H         LINE#         520
  C:8843H         LINE#         522
  -------         ENDPROC       FIRMWAREUPDATEERASEFLASH_MX29LV004CB_WHILE
  -------         PROC          FIRMWAREUPDATEERASEFLASH_AT49BV040B_WHILE
  C:8844H         LINE#         523
  C:8844H         LINE#         524
  C:8844H         LINE#         525
  C:8847H         LINE#         526
  C:884AH         LINE#         527
  C:8854H         LINE#         528
  C:8854H         LINE#         529
  C:885EH         LINE#         530
  C:885EH         LINE#         531
  C:8862H         LINE#         532
  C:8869H         LINE#         533
  C:8871H         LINE#         534
  C:8873H         LINE#         536
  C:887FH         LINE#         537
  C:887FH         LINE#         538
  C:8884H         LINE#         539
  C:888CH         LINE#         540
  C:8893H         LINE#         541
  C:8893H         LINE#         549
  C:88B9H         LINE#         550
  C:88BCH         LINE#         552
BL51 BANKED LINKER/LOCATER V5.03                                                      08/07/2012  16:42:10  PAGE 41


  C:88BCH         LINE#         553
  C:88C4H         LINE#         554
  C:88CEH         LINE#         555
  C:88D7H         LINE#         556
  C:88EFH         LINE#         557
  C:88EFH         LINE#         558
  C:88F2H         LINE#         559
  C:88FCH         LINE#         560
  C:8916H         LINE#         561
  -------         ENDPROC       FIRMWAREUPDATEERASEFLASH_AT49BV040B_WHILE
  -------         PROC          FIRMWAREUPDATEERASEFLASH_MX29LV800CB_WHILE
  C:8917H         LINE#         563
  C:8917H         LINE#         564
  C:8917H         LINE#         565
  C:891AH         LINE#         567
  C:891DH         LINE#         568
  C:8927H         LINE#         569
  C:8927H         LINE#         570
  C:8931H         LINE#         571
  C:8931H         LINE#         572
  C:8935H         LINE#         573
  C:893CH         LINE#         574
  C:8944H         LINE#         575
  C:8946H         LINE#         576
  C:8952H         LINE#         577
  C:8952H         LINE#         578
  C:8957H         LINE#         579
  C:895FH         LINE#         580
  C:8966H         LINE#         581
  C:8966H         LINE#         588
  C:898CH         LINE#         589
  C:898FH         LINE#         591
  C:898FH         LINE#         592
  C:8997H         LINE#         593
  C:89AFH         LINE#         594
  C:89AFH         LINE#         595
  C:89B2H         LINE#         596
  C:89BCH         LINE#         597
  C:89D6H         LINE#         598
  -------         ENDPROC       FIRMWAREUPDATEERASEFLASH_MX29LV800CB_WHILE
  -------         PROC          FIRMWAREUPDATEERASEFLASH_SST39VLF040_WHILE
  -------         DO            
  X:4DBBH         SYMBOL        i
  X:4DBCH         SYMBOL        j
  -------         ENDDO         
  C:89D7H         LINE#         599
  C:89D7H         LINE#         600
  C:89D7H         LINE#         601
  C:89DEH         LINE#         602
  C:89E8H         LINE#         603
  C:8A00H         LINE#         605
  C:8A1BH         LINE#         606
  C:8A20H         LINE#         607
  C:8A33H         LINE#         608
  C:8A33H         LINE#         609
  C:8A41H         LINE#         610
  C:8A4FH         LINE#         612
BL51 BANKED LINKER/LOCATER V5.03                                                      08/07/2012  16:42:10  PAGE 42


  C:8A4FH         LINE#         613
  C:8A52H         LINE#         614
  C:8A55H         LINE#         615
  C:8A6FH         LINE#         616
  C:8A6FH         LINE#         617
  C:8A6FH         LINE#         618
  C:8A77H         LINE#         619
  C:8A79H         LINE#         620
  C:8A79H         LINE#         621
  C:8A79H         LINE#         622
  C:8A83H         LINE#         623
  C:8A83H         LINE#         624
  C:8A8BH         LINE#         625
  C:8A8DH         LINE#         627
  C:8A8DH         LINE#         628
  C:8A90H         LINE#         629
  C:8A90H         LINE#         630
  C:8A90H         LINE#         631
  C:8A90H         LINE#         635
  C:8A90H         LINE#         636
  C:8A93H         LINE#         637
  C:8AABH         LINE#         638
  C:8AABH         LINE#         639
  C:8AB9H         LINE#         640
  C:8AC6H         LINE#         641
  C:8AC8H         LINE#         643
  C:8AC8H         LINE#         644
  C:8AD2H         LINE#         645
  C:8AD9H         LINE#         646
  C:8AD9H         LINE#         647
  C:8AF3H         LINE#         648
  C:8B04H         LINE#         649
  -------         ENDPROC       FIRMWAREUPDATEERASEFLASH_SST39VLF040_WHILE
  -------         PROC          FLASH_CHECK_SIZE
  -------         DO            
  D:0007H         SYMBOL        tmp_Bankno
  -------         ENDDO         
  C:8B05H         LINE#         650
  C:8B05H         LINE#         651
  C:8B05H         LINE#         652
  C:8B07H         LINE#         654
  C:8B0BH         LINE#         655
  C:8B12H         LINE#         656
  C:8B2DH         LINE#         657
  C:8B2DH         LINE#         658
  C:8B34H         LINE#         659
  C:8B34H         LINE#         660
  -------         ENDPROC       FLASH_CHECK_SIZE
  -------         PROC          FLASHIDENTIFICATION
  -------         DO            
  D:002CH         SYMBOL        manufacturer
  D:002DH         SYMBOL        chipID
  D:002EH         SYMBOL        chipID0
  X:4DC9H         SYMBOL        id_flag
  -------         ENDDO         
  C:8B39H         LINE#         662
  C:8B39H         LINE#         663
BL51 BANKED LINKER/LOCATER V5.03                                                      08/07/2012  16:42:10  PAGE 43


  C:8B39H         LINE#         664
  C:8B40H         LINE#         665
  C:8B45H         LINE#         668
  C:8B48H         LINE#         669
  C:8B4EH         LINE#         670
  C:8B54H         LINE#         671
  C:8B57H         LINE#         672
  C:8B5AH         LINE#         673
  C:8B60H         LINE#         674
  C:8B64H         LINE#         675
  C:8B6AH         LINE#         676
  C:8B70H         LINE#         677
  C:8B73H         LINE#         678
  C:8B73H         LINE#         679
  C:8B76H         LINE#         681
  C:8B84H         LINE#         682
  C:8BA9H         LINE#         683
  C:8BA9H         LINE#         684
  C:8BA9H         LINE#         685
  C:8BAEH         LINE#         686
  C:8BAEH         LINE#         688
  C:8BB0H         LINE#         689
  C:8BB0H         LINE#         694
  C:8BB0H         LINE#         695
  C:8BB6H         LINE#         696
  C:8BBFH         LINE#         698
  C:8BC1H         LINE#         699
  C:8BC1H         LINE#         700
  C:8BC1H         LINE#         701
  C:8BC1H         LINE#         702
  C:8BC1H         LINE#         703
  C:8BC7H         LINE#         704
  C:8BD0H         LINE#         706
  C:8BD2H         LINE#         715
  C:8BD2H         LINE#         716
  C:8BD7H         LINE#         718
  C:8BD7H         LINE#         719
  C:8BD7H         LINE#         721
  C:8BDDH         LINE#         722
  C:8BDDH         LINE#         723
  C:8BDDH         LINE#         724
  C:8BDDH         LINE#         725
  C:8BDDH         LINE#         726
  C:8BDDH         LINE#         727
  C:8BDDH         LINE#         728
  C:8BDDH         LINE#         729
  C:8BE0H         LINE#         730
  C:8BE6H         LINE#         731
  C:8BE7H         LINE#         732
  C:8BE7H         LINE#         733
  C:8BE7H         LINE#         734
  C:8BE7H         LINE#         735
  C:8BE7H         LINE#         736
  C:8BE7H         LINE#         737
  C:8BEAH         LINE#         739
  C:8BF8H         LINE#         740
  C:8C11H         LINE#         741
BL51 BANKED LINKER/LOCATER V5.03                                                      08/07/2012  16:42:10  PAGE 44


  C:8C11H         LINE#         742
  C:8C11H         LINE#         743
  C:8C11H         LINE#         744
  C:8C11H         LINE#         746
  C:8C13H         LINE#         747
  C:8C13H         LINE#         748
  C:8C13H         LINE#         749
  C:8C13H         LINE#         751
  C:8C15H         LINE#         752
  C:8C15H         LINE#         753
  C:8C1BH         LINE#         754
  C:8C24H         LINE#         756
  C:8C26H         LINE#         757
  C:8C26H         LINE#         758
  C:8C2CH         LINE#         759
  C:8C35H         LINE#         761
  C:8C37H         LINE#         770
  C:8C37H         LINE#         771
  C:8C3CH         LINE#         773
  C:8C3CH         LINE#         774
  C:8C3CH         LINE#         775
  C:8C3CH         LINE#         776
  C:8C42H         LINE#         777
  C:8C42H         LINE#         778
  C:8C44H         LINE#         779
  C:8C52H         LINE#         780
  C:8C63H         LINE#         781
  C:8C63H         LINE#         782
  C:8C63H         LINE#         783
  C:8C63H         LINE#         784
  C:8C69H         LINE#         785
  C:8C72H         LINE#         787
  C:8C74H         LINE#         788
  C:8C74H         LINE#         789
  C:8C79H         LINE#         791
  C:8C79H         LINE#         792
  C:8C79H         LINE#         793
  C:8C79H         LINE#         794
  C:8C7FH         LINE#         795
  C:8C7FH         LINE#         797
  C:8C7FH         LINE#         798
  C:8C7FH         LINE#         799
  C:8C7FH         LINE#         800
  C:8C7FH         LINE#         801
  C:8C7FH         LINE#         802
  C:8C82H         LINE#         803
  C:8C88H         LINE#         804
  C:8C8BH         LINE#         805
  C:8C8BH         LINE#         806
  C:8C8BH         LINE#         807
  C:8C8BH         LINE#         808
  C:8C8BH         LINE#         809
  C:8C8BH         LINE#         810
  C:8C8EH         LINE#         812
  C:8C9CH         LINE#         814
  C:8CA9H         LINE#         815
  C:8CA9H         LINE#         816
BL51 BANKED LINKER/LOCATER V5.03                                                      08/07/2012  16:42:10  PAGE 45


  C:8CAFH         LINE#         817
  C:8CB8H         LINE#         819
  C:8CBAH         LINE#         820
  C:8CBAH         LINE#         821
  C:8CBFH         LINE#         822
  C:8CBFH         LINE#         823
  C:8CBFH         LINE#         824
  C:8CBFH         LINE#         826
  C:8CC6H         LINE#         827
  C:8CC6H         LINE#         829
  C:8CD5H         LINE#         830
  C:8CD8H         LINE#         839
  C:8CD8H         LINE#         841
  -------         ENDPROC       FLASHIDENTIFICATION
  -------         PROC          FIRMWAREUPDATEERASEFLASH_WHILE
  C:8CD9H         LINE#         846
  C:8CD9H         LINE#         847
  C:8CD9H         LINE#         848
  C:8CF9H         LINE#         849
  C:8CFCH         LINE#         851
  C:8D22H         LINE#         852
  C:8D58H         LINE#         854
  C:8D64H         LINE#         857
  C:8D9CH         LINE#         858
  C:8D9CH         LINE#         859
  C:8D9CH         LINE#         869
  C:8D9CH         LINE#         870
  C:8D9FH         LINE#         871
  C:8DA1H         LINE#         872
  C:8DA1H         LINE#         873
  C:8DA4H         LINE#         874
  C:8DA6H         LINE#         875
  C:8DA6H         LINE#         876
  C:8DA6H         LINE#         877
  C:8DA6H         LINE#         878
  C:8DA6H         LINE#         879
  C:8DA6H         LINE#         880
  C:8DA6H         LINE#         881
  C:8DA6H         LINE#         882
  C:8DA6H         LINE#         883
  C:8DA6H         LINE#         884
  C:8DA6H         LINE#         885
  C:8DA9H         LINE#         886
  C:8DABH         LINE#         887
  C:8DABH         LINE#         888
  C:8DABH         LINE#         890
  C:8DAEH         LINE#         891
  C:8DAEH         LINE#         892
  C:8DAEH         LINE#         893
  C:8DAEH         LINE#         894
  C:8DAEH         LINE#         895
  C:8DB0H         LINE#         896
  -------         ENDPROC       FIRMWAREUPDATEERASEFLASH_WHILE
  -------         PROC          _FIRMWAREUPDATEWRITEDATA
  X:4D48H         SYMBOL        ptr_data
  X:4D4BH         SYMBOL        length
  -------         DO            
BL51 BANKED LINKER/LOCATER V5.03                                                      08/07/2012  16:42:10  PAGE 46


  X:4D4DH         SYMBOL        ii
  -------         ENDDO         
  C:8DB1H         LINE#         912
  C:8DBFH         LINE#         913
  C:8DBFH         LINE#         916
  C:8DC2H         LINE#         918
  C:8DDEH         LINE#         919
  C:8DDEH         LINE#         920
  C:8DEEH         LINE#         921
  C:8DEEH         LINE#         923
  C:8DEEH         LINE#         924
  C:8DF1H         LINE#         925
  C:8E14H         LINE#         926
  C:8E14H         LINE#         927
  C:8E14H         LINE#         928
  C:8E37H         LINE#         929
  C:8E47H         LINE#         930
  C:8E54H         LINE#         932
  C:8E57H         LINE#         933
  C:8E6FH         LINE#         935
  -------         ENDPROC       _FIRMWAREUPDATEWRITEDATA
  -------         PROC          CBK_FLASH_SIZE_CHECK
  C:8E70H         LINE#         936
  C:8E70H         LINE#         937
  C:8E70H         LINE#         938
  C:8E73H         LINE#         939
  C:8E76H         LINE#         940
  C:8E79H         LINE#         941
  C:8E7BH         LINE#         942
  -------         ENDPROC       CBK_FLASH_SIZE_CHECK
  -------         ENDMOD        FLASH

  -------         MODULE        MACDRIVER
  C:0000H         SYMBOL        _ICE_DUMMY_
  D:0090H         PUBLIC        P1
  D:00B0H         PUBLIC        P3
  D:00E8H         PUBLIC        P4
  C:E637H         PUBLIC        _IP210_CheckSum
  X:4D06H         PUBLIC        RWmismatch
  C:E53CH         PUBLIC        MAC_Address_fill
  D:00A8H         PUBLIC        IE
  X:4D07H         PUBLIC        Tx_Current
  D:00B8H         PUBLIC        IP
  C:DCA1H         PUBLIC        _uip_add32
  C:D741H         PUBLIC        _EthernetSend
  D:0098H         PUBLIC        SCON
  D:0088H         PUBLIC        TCON
  X:4D08H         PUBLIC        turn_around
  C:E689H         PUBLIC        _uip_ipchecksum
  C:E3C9H         PUBLIC        IP_Address_fill
  D:00D8H         PUBLIC        WDTCON
  C:91F4H         PUBLIC        TFD_index
  X:4D09H         PUBLIC        TxTime
  C:E5E1H         PUBLIC        _Resize_RX_Buf
  C:E209H         PUBLIC        _check_packet_type
  D:00C8H         PUBLIC        T2CON
  C:E2A7H         PUBLIC        MAC_init
BL51 BANKED LINKER/LOCATER V5.03                                                      08/07/2012  16:42:10  PAGE 47


  X:4D0DH         PUBLIC        Read_Point
  C:C32EH         PUBLIC        _EthernetReceive
  C:E4E5H         PUBLIC        monitor_Tx_MAC
  C:E61BH         PUBLIC        reset_tx
  D:00D0H         PUBLIC        PSW
  -------         PROC          MAC_ADDRESS_FILL
  -------         DO            
  D:0007H         SYMBOL        i
  -------         ENDDO         
  C:E53CH         LINE#         37
  C:E53CH         LINE#         38
  C:E53CH         LINE#         41
  C:E53EH         LINE#         42
  C:E55AH         LINE#         43
  C:E55FH         LINE#         44
  -------         ENDPROC       MAC_ADDRESS_FILL
  -------         PROC          IP_ADDRESS_FILL
  -------         DO            
  X:4DCAH         SYMBOL        i
  -------         ENDDO         
  C:E3C9H         LINE#         58
  C:E3C9H         LINE#         59
  C:E3C9H         LINE#         61
  C:E3D8H         LINE#         62
  C:E3FEH         LINE#         63
  C:E406H         LINE#         64
  -------         ENDPROC       IP_ADDRESS_FILL
  -------         PROC          _RESIZE_RX_BUF
  D:0007H         SYMBOL        rx_start
  -------         DO            
  D:0005H         SYMBOL        MAC_Setting
  -------         ENDDO         
  C:E5E1H         LINE#         78
  C:E5E1H         LINE#         79
  C:E5E1H         LINE#         80
  C:E5E6H         LINE#         82
  C:E5E9H         LINE#         83
  C:E5EEH         LINE#         84
  C:E5F6H         LINE#         85
  C:E5FDH         LINE#         86
  -------         ENDPROC       _RESIZE_RX_BUF
  -------         PROC          MAC_INIT
  -------         DO            
  D:0007H         SYMBOL        reg_value
  -------         ENDDO         
  C:E2A7H         LINE#         99
  C:E2A7H         LINE#         100
  C:E2A7H         LINE#         103
  C:E2ACH         LINE#         105
  C:E2BEH         LINE#         106
  C:E2C4H         LINE#         109
  C:E2CAH         LINE#         112
  C:E2D0H         LINE#         113
  C:E2D3H         LINE#         115
  C:E2DAH         LINE#         116
  C:E2DAH         LINE#         117
  C:E2DEH         LINE#         119
BL51 BANKED LINKER/LOCATER V5.03                                                      08/07/2012  16:42:10  PAGE 48


  C:E2E3H         LINE#         120
  C:E2E4H         LINE#         121
  C:E2E4H         LINE#         122
  C:E2EFH         LINE#         123
  C:E2F2H         LINE#         124
  -------         ENDPROC       MAC_INIT
  -------         PROC          TFD_INDEX
  C:91F4H         LINE#         141
  C:91F4H         LINE#         142
  C:91F4H         LINE#         143
  C:91FAH         LINE#         144
  C:91FEH         LINE#         145
  -------         ENDPROC       TFD_INDEX
  -------         PROC          _CHECK_PACKET_TYPE
  D:0001H         SYMBOL        tx_buf
  C:E209H         LINE#         168
  C:E209H         LINE#         169
  C:E209H         LINE#         170
  C:E20FH         LINE#         171
  C:E212H         LINE#         172
  C:E225H         LINE#         173
  C:E22FH         LINE#         174
  C:E232H         LINE#         175
  C:E232H         LINE#         176
  C:E236H         LINE#         177
  C:E239H         LINE#         178
  C:E239H         LINE#         179
  C:E242H         LINE#         180
  C:E245H         LINE#         181
  C:E245H         LINE#         182
  C:E245H         LINE#         183
  C:E252H         LINE#         184
  C:E255H         LINE#         185
  C:E255H         LINE#         186
  C:E257H         LINE#         187
  -------         ENDPROC       _CHECK_PACKET_TYPE
  -------         PROC          _ETHERNETSEND
  X:4D5BH         SYMBOL        tx_buf
  X:4D5EH         SYMBOL        plen
  -------         DO            
  X:4D60H         SYMBOL        ptype
  D:0007H         SYMBOL        chr
  -------         ENDDO         
  C:D741H         LINE#         203
  C:D74FH         LINE#         204
  C:D74FH         LINE#         206
  C:D766H         LINE#         207
  C:D769H         LINE#         208
  C:D769H         LINE#         209
  C:D77AH         LINE#         210
  C:D77DH         LINE#         211
  C:D77DH         LINE#         212
  C:D78BH         LINE#         213
  C:D7A8H         LINE#         214
  C:D7C4H         LINE#         215
  C:D7D6H         LINE#         216
  C:D7DEH         LINE#         217
BL51 BANKED LINKER/LOCATER V5.03                                                      08/07/2012  16:42:10  PAGE 49


  C:D7E2H         LINE#         218
  C:D7EDH         LINE#         219
  C:D7EFH         LINE#         220
  C:D802H         LINE#         221
  C:D805H         LINE#         222
  C:D807H         LINE#         223
  -------         ENDPROC       _ETHERNETSEND
  -------         PROC          RESET_TX
  C:E61BH         LINE#         237
  C:E61BH         LINE#         238
  C:E61BH         LINE#         239
  C:E622H         LINE#         240
  C:E62AH         LINE#         241
  C:E62FH         LINE#         242
  C:E636H         LINE#         243
  -------         ENDPROC       RESET_TX
  -------         PROC          MONITOR_TX_MAC
  -------         DO            
  D:0005H         SYMBOL        n
  D:0004H         SYMBOL        reset_mac
  -------         ENDDO         
  C:E4E5H         LINE#         256
  C:E4E5H         LINE#         257
  C:E4E5H         LINE#         258
  C:E4E8H         LINE#         260
  C:E4F1H         LINE#         261
  C:E4F1H         LINE#         262
  C:E505H         LINE#         263
  C:E505H         LINE#         264
  C:E507H         LINE#         265
  C:E507H         LINE#         266
  C:E508H         LINE#         267
  C:E50AH         LINE#         268
  C:E50DH         LINE#         269
  C:E510H         LINE#         270
  C:E510H         LINE#         271
  -------         ENDPROC       MONITOR_TX_MAC
  -------         PROC          _ETHERNETRECEIVE
  X:4CC3H         SYMBOL        rx_buf
  -------         DO            
  X:4CC6H         SYMBOL        packet_len
  X:4CC8H         SYMBOL        pkt_addr
  X:4CCAH         SYMBOL        p_type
  -------         DO            
  X:4CCBH         SYMBOL        fst_len
  X:4CCDH         SYMBOL        sec_len
  X:4CCFH         SYMBOL        offset
  -------         ENDDO         
  -------         ENDDO         
  C:C32EH         LINE#         285
  C:C334H         LINE#         286
  C:C334H         LINE#         290
  C:C343H         LINE#         291
  C:C347H         LINE#         292
  C:C347H         LINE#         293
  C:C34CH         LINE#         294
  C:C35BH         LINE#         295
BL51 BANKED LINKER/LOCATER V5.03                                                      08/07/2012  16:42:10  PAGE 50


  C:C371H         LINE#         296
  C:C38AH         LINE#         297
  C:C396H         LINE#         298
  C:C39FH         LINE#         299
  C:C3A8H         LINE#         300
  C:C3B9H         LINE#         301
  C:C3BBH         LINE#         302
  C:C3BBH         LINE#         303
  C:C3CFH         LINE#         304
  C:C3CFH         LINE#         306
  C:C3D9H         LINE#         308
  C:C3F8H         LINE#         309
  C:C406H         LINE#         311
  C:C40BH         LINE#         313
  C:C41AH         LINE#         314
  C:C435H         LINE#         315
  C:C439H         LINE#         316
  C:C45CH         LINE#         317
  C:C45EH         LINE#         318
  C:C45EH         LINE#         319
  C:C466H         LINE#         320
  C:C466H         LINE#         321
  C:C48CH         LINE#         322
  C:C48EH         LINE#         324
  C:C4B1H         LINE#         326
  C:C4C0H         LINE#         327
  C:C4D0H         LINE#         328
  C:C4EAH         LINE#         329
  C:C4F4H         LINE#         330
  C:C4F4H         LINE#         331
  C:C504H         LINE#         332
  C:C50AH         LINE#         333
  C:C514H         LINE#         334
  C:C514H         LINE#         335
  C:C524H         LINE#         336
  C:C52CH         LINE#         337
  -------         ENDPROC       _ETHERNETRECEIVE
  -------         PROC          _IP210_CHECKSUM
  D:0001H         SYMBOL        addr
  D:0004H         SYMBOL        len
  C:E637H         LINE#         350
  C:E637H         LINE#         351
  C:E637H         LINE#         352
  C:E640H         LINE#         353
  C:E646H         LINE#         354
  C:E64CH         LINE#         355
  C:E652H         LINE#         356
  -------         ENDPROC       _IP210_CHECKSUM
  -------         PROC          _UIP_IPCHECKSUM
  D:0006H         SYMBOL        len
  C:E689H         LINE#         373
  C:E689H         LINE#         374
  C:E689H         LINE#         375
  C:E68FH         LINE#         376
  C:E694H         LINE#         377
  C:E694H         LINE#         378
  C:E6A1H         LINE#         379
BL51 BANKED LINKER/LOCATER V5.03                                                      08/07/2012  16:42:10  PAGE 51


  -------         ENDPROC       _UIP_IPCHECKSUM
  -------         PROC          _UIP_ADD32
  D:0001H         SYMBOL        op32
  X:4DBDH         SYMBOL        op16
  C:DCA1H         LINE#         393
  C:DCA9H         LINE#         394
  C:DCA9H         LINE#         396
  C:DCB9H         LINE#         397
  C:DCC9H         LINE#         398
  C:DCD3H         LINE#         399
  C:DCDAH         LINE#         401
  C:DCEFH         LINE#         402
  C:DCF5H         LINE#         403
  C:DCF8H         LINE#         404
  C:DCFEH         LINE#         405
  C:DCFEH         LINE#         406
  C:DCFEH         LINE#         407
  C:DD0BH         LINE#         408
  C:DD11H         LINE#         409
  C:DD14H         LINE#         410
  C:DD1AH         LINE#         411
  C:DD1DH         LINE#         412
  C:DD23H         LINE#         413
  C:DD23H         LINE#         414
  C:DD23H         LINE#         415
  C:DD23H         LINE#         416
  -------         ENDPROC       _UIP_ADD32
  -------         ENDMOD        MACDRIVER

  -------         MODULE        EEPROM
  C:0000H         SYMBOL        _ICE_DUMMY_
  C:E0BDH         PUBLIC        _EEPROM_Read_Byte
  D:0090H         PUBLIC        P1
  D:00B0H         PUBLIC        P3
  D:00E8H         PUBLIC        P4
  D:00A8H         PUBLIC        IE
  D:00B8H         PUBLIC        IP
  D:0098H         PUBLIC        SCON
  D:0088H         PUBLIC        TCON
  D:00D8H         PUBLIC        WDTCON
  C:E788H         PUBLIC        EEPROM_Disable
  D:00C8H         PUBLIC        T2CON
  C:E780H         PUBLIC        EEPROM_Enable
  D:00D0H         PUBLIC        PSW
  -------         PROC          EEPROM_ENABLE
  -------         DO            
  D:0007H         SYMBOL        byte_data
  -------         ENDDO         
  C:E780H         LINE#         24
  C:E780H         LINE#         25
  C:E780H         LINE#         28
  C:E784H         LINE#         30
  C:E787H         LINE#         35
  -------         ENDPROC       EEPROM_ENABLE
  -------         PROC          EEPROM_DISABLE
  -------         DO            
  D:0007H         SYMBOL        byte_data
BL51 BANKED LINKER/LOCATER V5.03                                                      08/07/2012  16:42:10  PAGE 52


  -------         ENDDO         
  C:E788H         LINE#         49
  C:E788H         LINE#         50
  C:E788H         LINE#         53
  C:E78CH         LINE#         54
  C:E78EH         LINE#         55
  C:E78FH         LINE#         56
  -------         ENDPROC       EEPROM_DISABLE
  -------         PROC          _EEPROM_READ_BYTE
  D:0006H         SYMBOL        addr
  X:4D92H         SYMBOL        read_data
  -------         DO            
  D:0005H         SYMBOL        EE_addr
  D:0007H         SYMBOL        EE_id
  D:0006H         SYMBOL        byte_data
  D:0004H         SYMBOL        ii
  D:0007H         SYMBOL        i
  -------         ENDDO         
  C:E0BDH         LINE#         72
  C:E0C3H         LINE#         73
  C:E0C3H         LINE#         79
  C:E0C5H         LINE#         80
  C:E0C9H         LINE#         82
  C:E0CEH         LINE#         83
  C:E0D1H         LINE#         86
  C:E0D3H         LINE#         87
  C:E0D3H         LINE#         88
  C:E0D9H         LINE#         90
  C:E0DCH         LINE#         91
  C:E0DCH         LINE#         92
  C:E0E1H         LINE#         93
  C:E0E5H         LINE#         94
  C:E0E5H         LINE#         95
  C:E0E5H         LINE#         96
  C:E0E5H         LINE#         97
  C:E0EAH         LINE#         98
  C:E0F3H         LINE#         99
  C:E0F7H         LINE#         100
  C:E0F7H         LINE#         101
  C:E106H         LINE#         102
  C:E109H         LINE#         103
  C:E109H         LINE#         104
  C:E10EH         LINE#         105
  C:E110H         LINE#         106
  -------         ENDPROC       _EEPROM_READ_BYTE
  -------         ENDMOD        EEPROM

  -------         MODULE        SERIAL
  C:0000H         SYMBOL        _ICE_DUMMY_
  D:0090H         PUBLIC        P1
  D:00B0H         PUBLIC        P3
  D:00E8H         PUBLIC        P4
  D:00A8H         PUBLIC        IE
  D:00B8H         PUBLIC        IP
  B:0098H.0       PUBLIC        RI
  B:0098H.1       PUBLIC        TI
  C:E70DH         PUBLIC        _Serial_Check_Rx
BL51 BANKED LINKER/LOCATER V5.03                                                      08/07/2012  16:42:10  PAGE 53


  D:0099H         PUBLIC        SBUF
  D:0087H         PUBLIC        PCON
  D:0098H         PUBLIC        SCON
  D:0089H         PUBLIC        TMOD
  D:0088H         PUBLIC        TCON
  C:E763H         PUBLIC        Serial_Polling_Rx
  D:008DH         PUBLIC        TH1
  D:00D8H         PUBLIC        WDTCON
  B:0088H.6       PUBLIC        TR1
  C:E5A2H         PUBLIC        Serial_Init
  D:00C8H         PUBLIC        T2CON
  D:00D0H         PUBLIC        PSW
  -------         PROC          SERIAL_INIT
  C:E5A2H         LINE#         27
  C:E5A2H         LINE#         28
  C:E5A2H         LINE#         29
  C:E5A5H         LINE#         30
  C:E5A8H         LINE#         31
  C:E5ABH         LINE#         32
  C:E5AEH         LINE#         33
  C:E5B5H         LINE#         34
  C:E5BAH         LINE#         36
  C:E5BDH         LINE#         37
  C:E5BFH         LINE#         38
  C:E5C1H         LINE#         39
  -------         ENDPROC       SERIAL_INIT
  -------         PROC          _SERIAL_CHECK_RX
  D:0007H         SYMBOL        rx_byte
  C:E70DH         LINE#         53
  C:E70DH         LINE#         54
  C:E70DH         LINE#         55
  C:E710H         LINE#         56
  C:E710H         LINE#         57
  C:E712H         LINE#         58
  C:E71CH         LINE#         59
  C:E71CH         LINE#         60
  C:E71EH         LINE#         61
  -------         ENDPROC       _SERIAL_CHECK_RX
  -------         PROC          SERIAL_POLLING_RX
  C:E763H         LINE#         76
  C:E763H         LINE#         77
  C:E763H         LINE#         78
  C:E766H         LINE#         79
  C:E766H         LINE#         80
  C:E768H         LINE#         81
  C:E76BH         LINE#         82
  C:E76BH         LINE#         83
  C:E76DH         LINE#         84
  -------         ENDPROC       SERIAL_POLLING_RX
  -------         ENDMOD        SERIAL

  -------         MODULE        ?DELAY_MS
  C:9300H         SEGMENT       ?DELAY
  C:9300H         PUBLIC        _DELAY_MS
  N:0000H         SYMBOL        ?DELAY_MS
  B:00D0H.6       SYMBOL        AC
  D:00E0H         SYMBOL        ACC
BL51 BANKED LINKER/LOCATER V5.03                                                      08/07/2012  16:42:10  PAGE 54


  D:00F0H         SYMBOL        B
  B:00C8H.0       SYMBOL        CP_RL2
  B:00D0H.7       SYMBOL        CY
  B:00C8H.1       SYMBOL        C_T2
  C:9309H         SYMBOL        D1
  C:930BH         SYMBOL        D2
  D:0083H         SYMBOL        DPH
  D:0082H         SYMBOL        DPL
  B:00A8H.7       SYMBOL        EA
  B:00A8H.4       SYMBOL        ES
  B:00A8H.1       SYMBOL        ET0
  B:00A8H.3       SYMBOL        ET1
  B:00A8H.5       SYMBOL        ET2
  B:00A8H.0       SYMBOL        EX0
  B:00A8H.2       SYMBOL        EX1
  B:00C8H.3       SYMBOL        EXEN2
  B:00C8H.6       SYMBOL        EXF2
  B:00D0H.5       SYMBOL        F0
  D:00A8H         SYMBOL        IE
  B:0088H.1       SYMBOL        IE0
  B:0088H.3       SYMBOL        IE1
  B:00B0H.2       SYMBOL        INT0
  B:00B0H.3       SYMBOL        INT1
  D:00B8H         SYMBOL        IP
  B:0088H.0       SYMBOL        IT0
  B:0088H.2       SYMBOL        IT1
  C:9307H         SYMBOL        MS_LOOP
  B:00D0H.2       SYMBOL        OV
  B:00D0H.0       SYMBOL        P
  D:0080H         SYMBOL        P0
  D:0090H         SYMBOL        P1
  D:00A0H         SYMBOL        P2
  D:00B0H         SYMBOL        P3
  D:0087H         SYMBOL        PCON
  B:00B8H.4       SYMBOL        PS
  D:00D0H         SYMBOL        PSW
  B:00B8H.1       SYMBOL        PT0
  B:00B8H.3       SYMBOL        PT1
  B:00B8H.5       SYMBOL        PT2
  B:00B8H.0       SYMBOL        PX0
  B:00B8H.2       SYMBOL        PX1
  C:9313H         SYMBOL        R6EZ
  B:0098H.2       SYMBOL        RB8
  D:00CBH         SYMBOL        RCAP2H
  D:00CAH         SYMBOL        RCAP2L
  B:00C8H.5       SYMBOL        RCLK
  B:00B0H.7       SYMBOL        RD
  B:0098H.4       SYMBOL        REN
  B:0098H.0       SYMBOL        RI
  B:00D0H.3       SYMBOL        RS0
  B:00D0H.4       SYMBOL        RS1
  B:00B0H.0       SYMBOL        RXD
  D:0099H         SYMBOL        SBUF
  D:0098H         SYMBOL        SCON
  B:0098H.7       SYMBOL        SM0
  B:0098H.6       SYMBOL        SM1
  B:0098H.5       SYMBOL        SM2
BL51 BANKED LINKER/LOCATER V5.03                                                      08/07/2012  16:42:10  PAGE 55


  D:0081H         SYMBOL        SP
  B:00B0H.4       SYMBOL        T0
  B:00B0H.5       SYMBOL        T1
  B:0090H.0       SYMBOL        T2
  D:00C8H         SYMBOL        T2CON
  B:0090H.1       SYMBOL        T2EX
  B:0098H.3       SYMBOL        TB8
  B:00C8H.4       SYMBOL        TCLK
  D:0088H         SYMBOL        TCON
  B:0088H.5       SYMBOL        TF0
  B:0088H.7       SYMBOL        TF1
  B:00C8H.7       SYMBOL        TF2
  D:008CH         SYMBOL        TH0
  D:008DH         SYMBOL        TH1
  D:00CDH         SYMBOL        TH2
  B:0098H.1       SYMBOL        TI
  D:008AH         SYMBOL        TL0
  D:008BH         SYMBOL        TL1
  D:00CCH         SYMBOL        TL2
  D:0089H         SYMBOL        TMOD
  B:0088H.4       SYMBOL        TR0
  B:0088H.6       SYMBOL        TR1
  B:00C8H.2       SYMBOL        TR2
  B:00B0H.1       SYMBOL        TXD
  B:00B0H.6       SYMBOL        WR
  C:9300H         LINE#         13
  C:9301H         LINE#         14
  C:9303H         LINE#         15
  C:9304H         LINE#         16
  C:9306H         LINE#         18
  C:9307H         LINE#         22
  C:9309H         LINE#         27
  C:930BH         LINE#         28
  C:930DH         LINE#         29
  C:930FH         LINE#         31
  C:9311H         LINE#         32
  C:9313H         LINE#         34
  C:9315H         LINE#         35
  C:9316H         LINE#         36
  C:9318H         LINE#         37
  C:9319H         LINE#         38
  -------         ENDMOD        ?DELAY_MS

  -------         MODULE        ?FLASHSUM
  C:92C0H         SEGMENT       ?FLASHSUM
  C:92C0H         PUBLIC        _FLASHBANKSUM
  C:92DCH         PUBLIC        _FLASHBLANKCHECK
  B:00D0H.6       SYMBOL        AC
  D:00E0H         SYMBOL        ACC
  D:00F0H         SYMBOL        B
  B:00C8H.0       SYMBOL        CP_RL2
  B:00D0H.7       SYMBOL        CY
  B:00C8H.1       SYMBOL        C_T2
  D:0083H         SYMBOL        DPH
  D:0082H         SYMBOL        DPL
  B:00A8H.7       SYMBOL        EA
  B:00A8H.4       SYMBOL        ES
BL51 BANKED LINKER/LOCATER V5.03                                                      08/07/2012  16:42:10  PAGE 56


  B:00A8H.1       SYMBOL        ET0
  B:00A8H.3       SYMBOL        ET1
  B:00A8H.5       SYMBOL        ET2
  B:00A8H.0       SYMBOL        EX0
  B:00A8H.2       SYMBOL        EX1
  B:00C8H.3       SYMBOL        EXEN2
  B:00C8H.6       SYMBOL        EXF2
  B:00D0H.5       SYMBOL        F0
  C:92E6H         SYMBOL        FLASHBLANKCHECK_LOOP
  D:00A8H         SYMBOL        IE
  B:0088H.1       SYMBOL        IE0
  B:0088H.3       SYMBOL        IE1
  B:00B0H.2       SYMBOL        INT0
  B:00B0H.3       SYMBOL        INT1
  D:00B8H         SYMBOL        IP
  B:0088H.0       SYMBOL        IT0
  B:0088H.2       SYMBOL        IT1
  C:92F8H         SYMBOL        NOT_BLANK
  B:00D0H.2       SYMBOL        OV
  B:00D0H.0       SYMBOL        P
  D:0080H         SYMBOL        P0
  D:0090H         SYMBOL        P1
  D:00A0H         SYMBOL        P2
  D:00B0H         SYMBOL        P3
  D:0087H         SYMBOL        PCON
  B:00B8H.4       SYMBOL        PS
  D:00D0H         SYMBOL        PSW
  B:00B8H.1       SYMBOL        PT0
  B:00B8H.3       SYMBOL        PT1
  B:00B8H.5       SYMBOL        PT2
  B:00B8H.0       SYMBOL        PX0
  B:00B8H.2       SYMBOL        PX1
  B:0098H.2       SYMBOL        RB8
  D:00CBH         SYMBOL        RCAP2H
  D:00CAH         SYMBOL        RCAP2L
  B:00C8H.5       SYMBOL        RCLK
  B:00B0H.7       SYMBOL        RD
  B:0098H.4       SYMBOL        REN
  B:0098H.0       SYMBOL        RI
  B:00D0H.3       SYMBOL        RS0
  B:00D0H.4       SYMBOL        RS1
  B:00B0H.0       SYMBOL        RXD
  D:0099H         SYMBOL        SBUF
  D:0098H         SYMBOL        SCON
  B:0098H.7       SYMBOL        SM0
  B:0098H.6       SYMBOL        SM1
  B:0098H.5       SYMBOL        SM2
  D:0081H         SYMBOL        SP
  C:92CCH         SYMBOL        SUM_LOOP
  B:00B0H.4       SYMBOL        T0
  B:00B0H.5       SYMBOL        T1
  B:0090H.0       SYMBOL        T2
  D:00C8H         SYMBOL        T2CON
  B:0090H.1       SYMBOL        T2EX
  B:0098H.3       SYMBOL        TB8
  B:00C8H.4       SYMBOL        TCLK
  D:0088H         SYMBOL        TCON
BL51 BANKED LINKER/LOCATER V5.03                                                      08/07/2012  16:42:10  PAGE 57


  B:0088H.5       SYMBOL        TF0
  B:0088H.7       SYMBOL        TF1
  B:00C8H.7       SYMBOL        TF2
  D:008CH         SYMBOL        TH0
  D:008DH         SYMBOL        TH1
  D:00CDH         SYMBOL        TH2
  B:0098H.1       SYMBOL        TI
  D:008AH         SYMBOL        TL0
  D:008BH         SYMBOL        TL1
  D:00CCH         SYMBOL        TL2
  D:0089H         SYMBOL        TMOD
  B:0088H.4       SYMBOL        TR0
  B:0088H.6       SYMBOL        TR1
  B:00C8H.2       SYMBOL        TR2
  B:00B0H.1       SYMBOL        TXD
  D:00D8H         SYMBOL        WDTCON
  B:00B0H.6       SYMBOL        WR
  C:92C0H         LINE#         42
  C:92C2H         LINE#         43
  C:92C5H         LINE#         44
  C:92C6H         LINE#         45
  C:92C7H         LINE#         48
  C:92CAH         LINE#         49
  C:92CCH         LINE#         52
  C:92CDH         LINE#         53
  C:92CEH         LINE#         54
  C:92CFH         LINE#         55
  C:92D0H         LINE#         57
  C:92D2H         LINE#         58
  C:92D4H         LINE#         60
  C:92D5H         LINE#         61
  C:92D6H         LINE#         64
  C:92D8H         LINE#         65
  C:92DBH         LINE#         66
  C:92DCH         LINE#         73
  C:92DFH         LINE#         74
  C:92E0H         LINE#         75
  C:92E1H         LINE#         78
  C:92E4H         LINE#         79
  C:92E6H         LINE#         82
  C:92E7H         LINE#         83
  C:92E9H         LINE#         84
  C:92EBH         LINE#         85
  C:92ECH         LINE#         87
  C:92EEH         LINE#         88
  C:92F0H         LINE#         91
  C:92F2H         LINE#         93
  C:92F4H         LINE#         94
  C:92F7H         LINE#         95
  C:92F8H         LINE#         97
  C:92FAH         LINE#         99
  C:92FCH         LINE#         100
  C:92FFH         LINE#         101
  -------         ENDMOD        ?FLASHSUM

  -------         MODULE        TIMER
  C:0000H         SYMBOL        _ICE_DUMMY_
BL51 BANKED LINKER/LOCATER V5.03                                                      08/07/2012  16:42:10  PAGE 58


  C:E66FH         PUBLIC        Timercounter_Init
  D:0090H         PUBLIC        P1
  D:00B0H         PUBLIC        P3
  C:E6A2H         PUBLIC        Timer_Counter_Overflow
  D:00E8H         PUBLIC        P4
  D:00A8H         PUBLIC        IE
  D:00B8H         PUBLIC        IP
  D:00CBH         PUBLIC        RCAP2H
  D:00CAH         PUBLIC        RCAP2L
  X:4D29H         PUBLIC        timercounter
  C:E73DH         PUBLIC        Timer2_Init
  X:4D2DH         PUBLIC        high_timercounter
  D:0098H         PUBLIC        SCON
  D:0088H         PUBLIC        TCON
  C:E407H         PUBLIC        IP210_Write_Timer_Counter
  D:00CDH         PUBLIC        TH2
  D:00D8H         PUBLIC        WDTCON
  D:00CCH         PUBLIC        TL2
  B:00C8H.2       PUBLIC        TR2
  D:00C8H         PUBLIC        T2CON
  D:00D0H         PUBLIC        PSW
  -------         PROC          TIMER2_INIT
  C:E73DH         LINE#         26
  C:E73DH         LINE#         27
  C:E73DH         LINE#         28
  C:E740H         LINE#         29
  C:E743H         LINE#         30
  C:E746H         LINE#         31
  C:E748H         LINE#         32
  C:E74AH         LINE#         33
  -------         ENDPROC       TIMER2_INIT
  -------         PROC          IP210_WRITE_TIMER_COUNTER
  C:E407H         LINE#         46
  C:E407H         LINE#         47
  C:E407H         LINE#         48
  C:E412H         LINE#         49
  C:E422H         LINE#         50
  C:E432H         LINE#         51
  C:E442H         LINE#         52
  -------         ENDPROC       IP210_WRITE_TIMER_COUNTER
  -------         PROC          TIMERCOUNTER_INIT
  C:E66FH         LINE#         65
  C:E66FH         LINE#         66
  C:E66FH         LINE#         69
  C:E672H         LINE#         71
  C:E67CH         LINE#         72
  C:E686H         LINE#         73
  -------         ENDPROC       TIMERCOUNTER_INIT
  -------         PROC          TIMER_COUNTER_OVERFLOW
  C:E6A2H         LINE#         89
  C:E6A2H         LINE#         90
  C:E6A2H         LINE#         91
  -------         ENDPROC       TIMER_COUNTER_OVERFLOW
  -------         ENDMOD        TIMER

  -------         MODULE        UIP
  C:0000H         SYMBOL        _ICE_DUMMY_
BL51 BANKED LINKER/LOCATER V5.03                                                      08/07/2012  16:42:10  PAGE 59


  X:37A1H         SYMBOL        lastport
  C:C52DH         PUBLIC        _uip_connect
  X:37A3H         PUBLIC        uip_listenports
  X:37A7H         PUBLIC        uip_sappdata
  C:E386H         PUBLIC        _uip_unlisten
  X:37AAH         PUBLIC        uip_hostaddr
  X:37AEH         PUBLIC        uip_appdata
  C:6000H         PUBLIC        _uip_process
  X:37B1H         PUBLIC        uip_dnsaddr
  X:37B5H         PUBLIC        uip_buf_real_mem
  X:3DADH         PUBLIC        uip_urgdata
  C:8047H         PUBLIC        _uip_listen
  C:E174H         SYMBOL        _uip_add_rcv_nxt
  X:3DB0H         SYMBOL        ipid
  X:3DB2H         PUBLIC        uip_surglen
  X:3DB3H         SYMBOL        tmp16
  X:3DB5H         PUBLIC        uip_acc32
  X:3DB9H         PUBLIC        uip_flags
  X:3DBAH         PUBLIC        uip_urglen
  X:3DBBH         PUBLIC        uip_arp_draddr
  X:3DBFH         PUBLIC        uip_arp_netmask
  X:3DC3H         SYMBOL        iss
  C:E79EH         PUBLIC        _uip_log
  X:3DC7H         SYMBOL        opt
  X:3DC8H         PUBLIC        uip_conns
  X:41E2H         PUBLIC        uip_conn
  X:41E5H         SYMBOL        c
  X:41E6H         PUBLIC        uip_slen
  C:E111H         PUBLIC        uip_init
  X:41E8H         PUBLIC        uip_stat
  C:7FFFH         PUBLIC        udp_xmit
  X:4214H         PUBLIC        uip_len
  X:4216H         PUBLIC        UIP_LLH_LEN
  X:4217H         PUBLIC        uip_tag_real
  X:4227H         PUBLIC        uip_buf_real
  -------         PROC          _UIP_LOG
  D:0001H         SYMBOL        msg
  -------         DO            
  X:4D95H         SYMBOL        x
  -------         ENDDO         
  C:E79EH         LINE#         58
  -------         ENDPROC       _UIP_LOG
  -------         PROC          UDP_XMIT
  C:7FFFH         LINE#         59
  -------         ENDPROC       UDP_XMIT
  -------         PROC          UIP_INIT
  C:E111H         LINE#         199
  C:E111H         LINE#         200
  C:E111H         LINE#         214
  C:E120H         LINE#         215
  C:E130H         LINE#         216
  C:E138H         LINE#         217
  C:E147H         LINE#         218
  C:E153H         LINE#         219
  C:E15BH         LINE#         221
  C:E164H         LINE#         236
  -------         ENDPROC       UIP_INIT
BL51 BANKED LINKER/LOCATER V5.03                                                      08/07/2012  16:42:10  PAGE 60


  -------         PROC          _UIP_CONNECT
  X:4CE8H         SYMBOL        ripaddr
  X:4CEBH         SYMBOL        rport
  -------         DO            
  X:4CEDH         SYMBOL        conn
  X:4CF0H         SYMBOL        cconn
  C:C53BH         SYMBOL        again
  -------         ENDDO         
  C:C52DH         LINE#         251
  C:C53BH         LINE#         252
  C:C53BH         LINE#         256
  C:C53BH         LINE#         257
  C:C545H         LINE#         259
  C:C54EH         LINE#         260
  C:C554H         LINE#         261
  C:C554H         LINE#         265
  C:C563H         LINE#         266
  C:C578H         LINE#         267
  C:C59AH         LINE#         268
  C:C59AH         LINE#         269
  C:C59AH         LINE#         270
  C:C59AH         LINE#         271
  C:C5A2H         LINE#         274
  C:C5AEH         LINE#         275
  C:C5BDH         LINE#         276
  C:C5D2H         LINE#         277
  C:C5DBH         LINE#         278
  C:C5E7H         LINE#         279
  C:C5E9H         LINE#         280
  C:C5E9H         LINE#         281
  C:C5EEH         LINE#         282
  C:C615H         LINE#         283
  C:C615H         LINE#         284
  C:C621H         LINE#         285
  C:C621H         LINE#         286
  C:C621H         LINE#         287
  C:C629H         LINE#         289
  C:C633H         LINE#         290
  C:C637H         LINE#         291
  C:C637H         LINE#         293
  C:C645H         LINE#         295
  C:C64FH         LINE#         296
  C:C659H         LINE#         297
  C:C663H         LINE#         298
  C:C66DH         LINE#         300
  C:C683H         LINE#         302
  C:C68DH         LINE#         303
  C:C694H         LINE#         304
  C:C69CH         LINE#         305
  C:C6A4H         LINE#         306
  C:C6ABH         LINE#         307
  C:C6B3H         LINE#         308
  C:C6C3H         LINE#         309
  C:C6D3H         LINE#         310
  C:C6EAH         LINE#         311
  C:C707H         LINE#         313
  C:C707H         LINE#         314
BL51 BANKED LINKER/LOCATER V5.03                                                      08/07/2012  16:42:10  PAGE 61


  -------         ENDPROC       _UIP_CONNECT
  -------         PROC          _UIP_UNLISTEN
  D:0006H         SYMBOL        port
  C:E386H         LINE#         382
  C:E386H         LINE#         383
  C:E386H         LINE#         384
  C:E395H         LINE#         385
  C:E3ACH         LINE#         386
  C:E3C0H         LINE#         388
  C:E3C0H         LINE#         389
  C:E3C8H         LINE#         390
  -------         ENDPROC       _UIP_UNLISTEN
  -------         PROC          _UIP_LISTEN
  D:0006H         SYMBOL        port
  C:8047H         LINE#         404
  C:8047H         LINE#         405
  C:8047H         LINE#         406
  C:8056H         LINE#         407
  C:8069H         LINE#         408
  C:807EH         LINE#         410
  C:807EH         LINE#         411
  C:8086H         LINE#         412
  -------         ENDPROC       _UIP_LISTEN
  C:E16FH         SYMBOL        L?0232
  -------         PROC          L?0231
  -------         ENDPROC       L?0231
  C:E16FH         SYMBOL        L?0232
  -------         PROC          _UIP_ADD_RCV_NXT
  D:0006H         SYMBOL        n
  C:E174H         LINE#         574
  C:E174H         LINE#         575
  C:E174H         LINE#         576
  C:E188H         LINE#         577
  C:E19AH         LINE#         578
  C:E1A4H         LINE#         579
  C:E1AEH         LINE#         580
  -------         ENDPROC       _UIP_ADD_RCV_NXT
  -------         PROC          _UIP_PROCESS
  D:0007H         SYMBOL        flag
  -------         DO            
  X:4D7AH         SYMBOL        uip_connr
  C:7483H         SYMBOL        tcp_send_nodata
  C:6A72H         SYMBOL        tcp_send_synack
  C:6A8BH         SYMBOL        tcp_send_syn
  C:72A0H         SYMBOL        apprexmit
  C:70A7H         SYMBOL        tcp_send_finack
  C:718CH         SYMBOL        appsend
  C:7759H         SYMBOL        drop
  C:62F5H         SYMBOL        icmp_input
  C:63E5H         SYMBOL        tcp_input
  C:774FH         SYMBOL        send
  C:6AE9H         SYMBOL        found
  C:6556H         SYMBOL        reset
  C:66D8H         SYMBOL        found_listen
  C:76A7H         SYMBOL        tcp_send_noconn
  C:74A5H         SYMBOL        tcp_send
  C:746AH         SYMBOL        tcp_send_ack
BL51 BANKED LINKER/LOCATER V5.03                                                      08/07/2012  16:42:10  PAGE 62


  C:748CH         SYMBOL        tcp_send_noopts
  -------         DO            
  X:4D7DH         SYMBOL        m
  -------         ENDDO         
  -------         ENDDO         
  C:6000H         LINE#         595
  C:6000H         LINE#         596
  C:6000H         LINE#         597
  C:600CH         LINE#         598
  C:6028H         LINE#         600
  C:6030H         LINE#         607
  C:6038H         LINE#         608
  C:6040H         LINE#         609
  C:6048H         LINE#         610
  C:604EH         LINE#         611
  C:604EH         LINE#         612
  C:604EH         LINE#         613
  C:604EH         LINE#         614
  C:6055H         LINE#         615
  C:606AH         LINE#         616
  C:606AH         LINE#         617
  C:6072H         LINE#         618
  C:6083H         LINE#         619
  C:608CH         LINE#         620
  C:608CH         LINE#         621
  C:60A0H         LINE#         625
  C:60ADH         LINE#         626
  C:60BAH         LINE#         627
  C:60D8H         LINE#         630
  C:60D8H         LINE#         631
  C:60DFH         LINE#         636
  C:60E5H         LINE#         637
  C:60E8H         LINE#         640
  C:60E8H         LINE#         641
  C:60EBH         LINE#         642
  C:60EBH         LINE#         645
  C:6114H         LINE#         648
  C:611CH         LINE#         656
  C:6126H         LINE#         657
  C:6153H         LINE#         658
  C:6153H         LINE#         661
  C:6153H         LINE#         664
  C:6153H         LINE#         666
  C:6168H         LINE#         667
  C:616BH         LINE#         670
  C:616BH         LINE#         675
  C:6172H         LINE#         676
  C:6178H         LINE#         677
  C:617EH         LINE#         678
  C:6181H         LINE#         679
  C:6184H         LINE#         681
  C:6184H         LINE#         682
  C:6184H         LINE#         683
  C:6184H         LINE#         685
  C:6184H         LINE#         687
  C:6184H         LINE#         688
  C:6184H         LINE#         689
BL51 BANKED LINKER/LOCATER V5.03                                                      08/07/2012  16:42:10  PAGE 63


  C:6199H         LINE#         692
  C:619FH         LINE#         693
  C:61A5H         LINE#         694
  C:61ABH         LINE#         695
  C:61ABH         LINE#         696
  C:61AEH         LINE#         697
  C:61AEH         LINE#         698
  C:61AEH         LINE#         699
  C:61AEH         LINE#         700
  C:61AEH         LINE#         716
  C:61B8H         LINE#         728
  C:61CFH         LINE#         729
  C:61D9H         LINE#         730
  C:61DCH         LINE#         732
  C:61DFH         LINE#         733
  C:61DFH         LINE#         739
  C:61FEH         LINE#         740
  C:620DH         LINE#         741
  C:620DH         LINE#         742
  C:622FH         LINE#         743
  C:623CH         LINE#         744
  C:623CH         LINE#         748
  C:625FH         LINE#         755
  C:6269H         LINE#         756
  C:626CH         LINE#         758
  C:626FH         LINE#         760
  C:626FH         LINE#         766
  C:6287H         LINE#         767
  C:6294H         LINE#         769
  C:6296H         LINE#         770
  C:6296H         LINE#         772
  C:6296H         LINE#         773
  C:6296H         LINE#         774
  C:6296H         LINE#         778
  C:62A4H         LINE#         779
  C:62A7H         LINE#         781
  C:62A9H         LINE#         782
  C:62A9H         LINE#         784
  C:62BDH         LINE#         785
  C:62C0H         LINE#         787
  C:62C2H         LINE#         788
  C:62C2H         LINE#         800
  C:62E1H         LINE#         802
  C:62E1H         LINE#         809
  C:62E6H         LINE#         811
  C:62F0H         LINE#         812
  C:62F3H         LINE#         814
  C:62F5H         LINE#         815
  C:62F5H         LINE#         817
  C:62F5H         LINE#         818
  C:62FFH         LINE#         823
  C:631AH         LINE#         824
  C:6324H         LINE#         825
  C:6328H         LINE#         827
  C:632BH         LINE#         828
  C:632BH         LINE#         834
  C:633FH         LINE#         835
BL51 BANKED LINKER/LOCATER V5.03                                                      08/07/2012  16:42:10  PAGE 64


  C:634FH         LINE#         836
  C:635FH         LINE#         837
  C:635FH         LINE#         840
  C:6377H         LINE#         843
  C:6380H         LINE#         844
  C:6389H         LINE#         855
  C:639AH         LINE#         856
  C:63ABH         LINE#         857
  C:63B4H         LINE#         858
  C:63C5H         LINE#         859
  C:63D6H         LINE#         860
  C:63DFH         LINE#         862
  C:63E2H         LINE#         863
  C:63E5H         LINE#         949
  C:63E5H         LINE#         950
  C:63EFH         LINE#         965
  C:6410H         LINE#         970
  C:64DBH         LINE#         971
  C:64DBH         LINE#         972
  C:64DBH         LINE#         973
  C:64E8H         LINE#         979
  C:6505H         LINE#         980
  C:6505H         LINE#         982
  C:6515H         LINE#         984
  C:6524H         LINE#         985
  C:6544H         LINE#         986
  C:6544H         LINE#         987
  C:654CH         LINE#         990
  C:6556H         LINE#         991
  C:6556H         LINE#         994
  C:6573H         LINE#         995
  C:6573H         LINE#         997
  C:657DH         LINE#         999
  C:6585H         LINE#         1000
  C:658EH         LINE#         1001
  C:6596H         LINE#         1004
  C:65A1H         LINE#         1005
  C:65ADH         LINE#         1006
  C:65B4H         LINE#         1008
  C:65BFH         LINE#         1009
  C:65CBH         LINE#         1010
  C:65D2H         LINE#         1012
  C:65DDH         LINE#         1013
  C:65E9H         LINE#         1014
  C:65F0H         LINE#         1016
  C:65FBH         LINE#         1017
  C:6607H         LINE#         1018
  C:660EH         LINE#         1023
  C:6618H         LINE#         1024
  C:6633H         LINE#         1025
  C:663CH         LINE#         1026
  C:6643H         LINE#         1027
  C:6643H         LINE#         1028
  C:6643H         LINE#         1029
  C:6643H         LINE#         1032
  C:6665H         LINE#         1033
  C:6676H         LINE#         1034
BL51 BANKED LINKER/LOCATER V5.03                                                      08/07/2012  16:42:10  PAGE 65


  C:667FH         LINE#         1037
  C:6690H         LINE#         1038
  C:66A1H         LINE#         1039
  C:66AAH         LINE#         1040
  C:66BBH         LINE#         1041
  C:66CCH         LINE#         1042
  C:66D5H         LINE#         1046
  C:66D8H         LINE#         1051
  C:66D8H         LINE#         1058
  C:66E4H         LINE#         1059
  C:66F3H         LINE#         1060
  C:6700H         LINE#         1061
  C:6718H         LINE#         1062
  C:671AH         LINE#         1063
  C:671AH         LINE#         1064
  C:672DH         LINE#         1065
  C:674DH         LINE#         1066
  C:674DH         LINE#         1067
  C:6765H         LINE#         1068
  C:6765H         LINE#         1069
  C:6765H         LINE#         1070
  C:676EH         LINE#         1072
  C:6778H         LINE#         1076
  C:6781H         LINE#         1078
  C:6784H         LINE#         1079
  C:6784H         LINE#         1080
  C:6790H         LINE#         1083
  C:67A6H         LINE#         1084
  C:67ADH         LINE#         1085
  C:67B5H         LINE#         1086
  C:67BCH         LINE#         1087
  C:67E5H         LINE#         1088
  C:6808H         LINE#         1089
  C:682BH         LINE#         1090
  C:6852H         LINE#         1091
  C:685AH         LINE#         1093
  C:6864H         LINE#         1094
  C:686EH         LINE#         1095
  C:6878H         LINE#         1096
  C:6882H         LINE#         1097
  C:688CH         LINE#         1100
  C:68ACH         LINE#         1101
  C:68D0H         LINE#         1102
  C:68F0H         LINE#         1103
  C:6913H         LINE#         1104
  C:6918H         LINE#         1107
  C:6939H         LINE#         1108
  C:6970H         LINE#         1109
  C:698FH         LINE#         1110
  C:6994H         LINE#         1112
  C:6994H         LINE#         1113
  C:699CH         LINE#         1114
  C:69A2H         LINE#         1116
  C:69CBH         LINE#         1117
  C:69CBH         LINE#         1120
  C:6A14H         LINE#         1121
  C:6A42H         LINE#         1125
BL51 BANKED LINKER/LOCATER V5.03                                                      08/07/2012  16:42:10  PAGE 66


  C:6A44H         LINE#         1126
  C:6A44H         LINE#         1129
  C:6A69H         LINE#         1132
  C:6A69H         LINE#         1133
  C:6A69H         LINE#         1134
  C:6A6FH         LINE#         1135
  C:6A6FH         LINE#         1136
  C:6A72H         LINE#         1137
  C:6A72H         LINE#         1141
  C:6A72H         LINE#         1142
  C:6A8BH         LINE#         1144
  C:6A8BH         LINE#         1145
  C:6AACH         LINE#         1153
  C:6AC0H         LINE#         1154
  C:6AC8H         LINE#         1155
  C:6AD0H         LINE#         1156
  C:6AD8H         LINE#         1157
  C:6AE1H         LINE#         1158
  C:6AE6H         LINE#         1159
  C:6AE9H         LINE#         1162
  C:6AE9H         LINE#         1164
  C:6AF5H         LINE#         1165
  C:6AFAH         LINE#         1171
  C:6B14H         LINE#         1172
  C:6B21H         LINE#         1174
  C:6B26H         LINE#         1175
  C:6B26H         LINE#         1176
  C:6B29H         LINE#         1177
  C:6B29H         LINE#         1180
  C:6B4CH         LINE#         1184
  C:6B62H         LINE#         1193
  C:6C03H         LINE#         1194
  C:6C03H         LINE#         1195
  C:6C03H         LINE#         1201
  C:6C35H         LINE#         1202
  C:6C3FH         LINE#         1206
  C:6C94H         LINE#         1208
  C:6CA6H         LINE#         1209
  C:6CB0H         LINE#         1210
  C:6CBAH         LINE#         1211
  C:6CC4H         LINE#         1215
  C:6CCFH         LINE#         1217
  C:6CE9H         LINE#         1219
  C:6CFCH         LINE#         1220
  C:6D04H         LINE#         1221
  C:6D0CH         LINE#         1222
  C:6D13H         LINE#         1223
  C:6D13H         LINE#         1224
  C:6D30H         LINE#         1225
  C:6D36H         LINE#         1226
  C:6D4FH         LINE#         1228
  C:6D4FH         LINE#         1230
  C:6D55H         LINE#         1232
  C:6D67H         LINE#         1233
  C:6D67H         LINE#         1235
  C:6D67H         LINE#         1237
  C:6D94H         LINE#         1242
BL51 BANKED LINKER/LOCATER V5.03                                                      08/07/2012  16:42:10  PAGE 67


  C:6D94H         LINE#         1247
  C:6D9EH         LINE#         1248
  C:6DA6H         LINE#         1249
  C:6DACH         LINE#         1250
  C:6DB5H         LINE#         1251
  C:6DC4H         LINE#         1252
  C:6DC4H         LINE#         1253
  C:6DC7H         LINE#         1254
  C:6DC7H         LINE#         1255
  C:6DCEH         LINE#         1256
  C:6DCEH         LINE#         1257
  C:6DD1H         LINE#         1258
  C:6DD1H         LINE#         1259
  C:6DD1H         LINE#         1261
  C:6DD1H         LINE#         1267
  C:6DF9H         LINE#         1270
  C:6E09H         LINE#         1271
  C:6E40H         LINE#         1272
  C:6E5FH         LINE#         1273
  C:6E64H         LINE#         1275
  C:6E64H         LINE#         1276
  C:6E6CH         LINE#         1277
  C:6E72H         LINE#         1279
  C:6E9BH         LINE#         1280
  C:6E9BH         LINE#         1282
  C:6EE4H         LINE#         1284
  C:6F12H         LINE#         1288
  C:6F14H         LINE#         1289
  C:6F14H         LINE#         1292
  C:6F39H         LINE#         1295
  C:6F39H         LINE#         1296
  C:6F39H         LINE#         1297
  C:6F3FH         LINE#         1298
  C:6F3FH         LINE#         1299
  C:6F42H         LINE#         1300
  C:6F42H         LINE#         1301
  C:6F50H         LINE#         1302
  C:6F76H         LINE#         1303
  C:6F96H         LINE#         1304
  C:6FBAH         LINE#         1305
  C:6FDAH         LINE#         1306
  C:6FDFH         LINE#         1307
  C:6FE5H         LINE#         1308
  C:6FF4H         LINE#         1309
  C:6FFBH         LINE#         1310
  C:7001H         LINE#         1311
  C:7001H         LINE#         1312
  C:7004H         LINE#         1313
  C:7004H         LINE#         1314
  C:7004H         LINE#         1317
  C:7004H         LINE#         1329
  C:7021H         LINE#         1332
  C:7024H         LINE#         1335
  C:7037H         LINE#         1336
  C:7037H         LINE#         1337
  C:7037H         LINE#         1338
  C:7048H         LINE#         1339
BL51 BANKED LINKER/LOCATER V5.03                                                      08/07/2012  16:42:10  PAGE 68


  C:704EH         LINE#         1340
  C:705DH         LINE#         1341
  C:7064H         LINE#         1342
  C:7064H         LINE#         1345
  C:707EH         LINE#         1346
  C:707EH         LINE#         1347
  C:7085H         LINE#         1348
  C:7085H         LINE#         1351
  C:7088H         LINE#         1352
  C:7098H         LINE#         1353
  C:70A0H         LINE#         1354
  C:70A7H         LINE#         1355
  C:70A7H         LINE#         1356
  C:70A7H         LINE#         1357
  C:70AAH         LINE#         1358
  C:70AAH         LINE#         1362
  C:70C4H         LINE#         1376
  C:70DDH         LINE#         1377
  C:70EAH         LINE#         1378
  C:70EAH         LINE#         1386
  C:7108H         LINE#         1387
  C:7108H         LINE#         1388
  C:710BH         LINE#         1389
  C:710BH         LINE#         1403
  C:7138H         LINE#         1404
  C:7158H         LINE#         1405
  C:7158H         LINE#         1406
  C:7160H         LINE#         1407
  C:7160H         LINE#         1408
  C:7177H         LINE#         1426
  C:7182H         LINE#         1427
  C:7189H         LINE#         1428
  C:718CH         LINE#         1430
  C:718CH         LINE#         1431
  C:7193H         LINE#         1432
  C:719AH         LINE#         1433
  C:71A7H         LINE#         1434
  C:71BDH         LINE#         1435
  C:71C0H         LINE#         1436
  C:71C0H         LINE#         1437
  C:71C7H         LINE#         1438
  C:71CEH         LINE#         1439
  C:71DEH         LINE#         1440
  C:71E6H         LINE#         1441
  C:71EDH         LINE#         1442
  C:7203H         LINE#         1443
  C:7206H         LINE#         1444
  C:7206H         LINE#         1446
  C:7215H         LINE#         1449
  C:721CH         LINE#         1450
  C:722BH         LINE#         1451
  C:722BH         LINE#         1455
  C:723BH         LINE#         1460
  C:7251H         LINE#         1461
  C:7256H         LINE#         1462
  C:7256H         LINE#         1466
  C:7263H         LINE#         1467
BL51 BANKED LINKER/LOCATER V5.03                                                      08/07/2012  16:42:10  PAGE 69


  C:7265H         LINE#         1472
  C:727BH         LINE#         1473
  C:727BH         LINE#         1474
  C:727DH         LINE#         1476
  C:7293H         LINE#         1480
  C:7293H         LINE#         1481
  C:72A0H         LINE#         1482
  C:72A0H         LINE#         1483
  C:72ACH         LINE#         1487
  C:72D2H         LINE#         1489
  C:72DFH         LINE#         1491
  C:72F5H         LINE#         1493
  C:72F7H         LINE#         1495
  C:72F7H         LINE#         1498
  C:7301H         LINE#         1499
  C:730AH         LINE#         1500
  C:7323H         LINE#         1501
  C:7326H         LINE#         1502
  C:7326H         LINE#         1503
  C:7326H         LINE#         1504
  C:7326H         LINE#         1505
  C:7326H         LINE#         1508
  C:7330H         LINE#         1509
  C:733DH         LINE#         1510
  C:7343H         LINE#         1511
  C:7346H         LINE#         1512
  C:7346H         LINE#         1513
  C:7349H         LINE#         1515
  C:7349H         LINE#         1519
  C:7358H         LINE#         1520
  C:735BH         LINE#         1521
  C:735BH         LINE#         1522
  C:7375H         LINE#         1523
  C:737FH         LINE#         1524
  C:738AH         LINE#         1525
  C:7391H         LINE#         1526
  C:739AH         LINE#         1527
  C:739CH         LINE#         1528
  C:73A7H         LINE#         1529
  C:73A7H         LINE#         1530
  C:73ABH         LINE#         1531
  C:73ABH         LINE#         1532
  C:73ABH         LINE#         1533
  C:73ADH         LINE#         1534
  C:73B4H         LINE#         1535
  C:73C2H         LINE#         1536
  C:73CBH         LINE#         1537
  C:73CEH         LINE#         1538
  C:73CEH         LINE#         1539
  C:73E0H         LINE#         1540
  C:73E3H         LINE#         1541
  C:73E3H         LINE#         1542
  C:73E3H         LINE#         1544
  C:73E3H         LINE#         1545
  C:73F2H         LINE#         1546
  C:73F5H         LINE#         1547
  C:73F5H         LINE#         1548
BL51 BANKED LINKER/LOCATER V5.03                                                      08/07/2012  16:42:10  PAGE 70


  C:740FH         LINE#         1549
  C:741DH         LINE#         1550
  C:7424H         LINE#         1551
  C:7429H         LINE#         1552
  C:742FH         LINE#         1553
  C:7432H         LINE#         1554
  C:7434H         LINE#         1555
  C:7434H         LINE#         1556
  C:7446H         LINE#         1557
  C:7448H         LINE#         1558
  C:7448H         LINE#         1559
  C:7448H         LINE#         1561
  C:7448H         LINE#         1562
  C:7448H         LINE#         1564
  C:7448H         LINE#         1565
  C:7452H         LINE#         1566
  C:7460H         LINE#         1567
  C:7467H         LINE#         1568
  C:7467H         LINE#         1569
  C:7467H         LINE#         1570
  C:746AH         LINE#         1575
  C:746AH         LINE#         1576
  C:7483H         LINE#         1577
  C:7483H         LINE#         1578
  C:748CH         LINE#         1579
  C:748CH         LINE#         1580
  C:74A5H         LINE#         1581
  C:74A5H         LINE#         1586
  C:74CBH         LINE#         1587
  C:74EBH         LINE#         1588
  C:750BH         LINE#         1589
  C:752BH         LINE#         1591
  C:754BH         LINE#         1592
  C:756BH         LINE#         1593
  C:758BH         LINE#         1594
  C:75ABH         LINE#         1596
  C:75B3H         LINE#         1598
  C:75D6H         LINE#         1599
  C:75F9H         LINE#         1601
  C:7609H         LINE#         1602
  C:7619H         LINE#         1603
  C:7639H         LINE#         1604
  C:765CH         LINE#         1607
  C:766EH         LINE#         1610
  C:7687H         LINE#         1611
  C:7689H         LINE#         1612
  C:769FH         LINE#         1613
  C:76A7H         LINE#         1614
  C:76A7H         LINE#         1616
  C:76A7H         LINE#         1618
  C:76C6H         LINE#         1619
  C:76D0H         LINE#         1622
  C:76D9H         LINE#         1624
  C:76E2H         LINE#         1632
  C:76F2H         LINE#         1633
  C:76FFH         LINE#         1634
  C:770DH         LINE#         1635
BL51 BANKED LINKER/LOCATER V5.03                                                      08/07/2012  16:42:10  PAGE 71


  C:7715H         LINE#         1636
  C:771FH         LINE#         1637
  C:7729H         LINE#         1638
  C:7733H         LINE#         1641
  C:773CH         LINE#         1643
  C:7745H         LINE#         1647
  C:774FH         LINE#         1648
  C:774FH         LINE#         1649
  C:7759H         LINE#         1652
  C:7759H         LINE#         1653
  C:7760H         LINE#         1655
  -------         ENDPROC       _UIP_PROCESS
  -------         ENDMOD        UIP

  -------         MODULE        HTTPD
  C:0000H         SYMBOL        _ICE_DUMMY_
  X:4BCEH         PUBLIC        page_flag
  X:4BCFH         PUBLIC        inspect_img512k
  C:7761H         PUBLIC        httpd
  C:E797H         PUBLIC        httpd_init
  X:4BD3H         PUBLIC        img512k
  X:4BD7H         PUBLIC        hs
  X:4BDAH         PUBLIC        reqdata
  -------         PROC          HTTPD_INIT
  C:E797H         LINE#         58
  C:E797H         LINE#         59
  C:E797H         LINE#         61
  -------         ENDPROC       HTTPD_INIT
  -------         PROC          HTTPD
  -------         DO            
  X:4CB1H         SYMBOL        hfile_ptr
  X:4CB4H         SYMBOL        p_reqfile
  X:4CB7H         SYMBOL        CR_ptr
  X:4CBAH         SYMBOL        str_ptr
  X:4CBDH         SYMBOL        requestname_ptr
  X:4CBEH         SYMBOL        count
  X:4CBFH         SYMBOL        i_httpd
  -------         DO            
  X:4CC1H         SYMBOL        acklen
  -------         ENDDO         
  -------         ENDDO         
  C:7761H         LINE#         80
  C:7761H         LINE#         81
  C:7761H         LINE#         84
  C:7768H         LINE#         89
  C:777BH         LINE#         98
  C:7782H         LINE#         99
  C:7782H         LINE#         107
  C:778FH         LINE#         108
  C:7798H         LINE#         109
  C:779FH         LINE#         110
  C:77A8H         LINE#         113
  C:77A8H         LINE#         114
  C:77AFH         LINE#         115
  C:77AFH         LINE#         119
  C:77C1H         LINE#         120
  C:77C1H         LINE#         121
BL51 BANKED LINKER/LOCATER V5.03                                                      08/07/2012  16:42:10  PAGE 72


  C:77D7H         LINE#         122
  C:77D7H         LINE#         123
  C:77D7H         LINE#         124
  C:77D7H         LINE#         125
  C:77D9H         LINE#         127
  C:77D9H         LINE#         128
  C:77E4H         LINE#         129
  C:77E4H         LINE#         132
  C:77E4H         LINE#         133
  C:77EEH         LINE#         134
  C:77EEH         LINE#         136
  C:77FFH         LINE#         137
  C:77FFH         LINE#         138
  C:7805H         LINE#         143
  C:7826H         LINE#         144
  C:7826H         LINE#         146
  C:7847H         LINE#         147
  C:7847H         LINE#         149
  C:784EH         LINE#         151
  C:784EH         LINE#         153
  C:784EH         LINE#         155
  C:7854H         LINE#         156
  C:785FH         LINE#         157
  C:785FH         LINE#         158
  C:7861H         LINE#         160
  C:7861H         LINE#         162
  C:7867H         LINE#         163
  C:7875H         LINE#         164
  C:7875H         LINE#         166
  C:788AH         LINE#         168
  C:78B9H         LINE#         169
  C:78B9H         LINE#         170
  C:78EDH         LINE#         173
  C:78EDH         LINE#         174
  C:7902H         LINE#         175
  C:7904H         LINE#         176
  C:7904H         LINE#         178
  C:7910H         LINE#         179
  C:7928H         LINE#         181
  C:793BH         LINE#         182
  C:793BH         LINE#         183
  C:795EH         LINE#         184
  C:7981H         LINE#         185
  C:7992H         LINE#         186
  C:7992H         LINE#         187
  C:79A2H         LINE#         188
  C:79B3H         LINE#         190
  C:79BBH         LINE#         191
  C:79BBH         LINE#         193
  C:79BBH         LINE#         196
  C:79CAH         LINE#         197
  C:79CAH         LINE#         198
  C:79F6H         LINE#         211
  C:79F6H         LINE#         214
  C:7A0DH         LINE#         216
  C:7A19H         LINE#         217
  C:7A28H         LINE#         218
BL51 BANKED LINKER/LOCATER V5.03                                                      08/07/2012  16:42:10  PAGE 73


  C:7A33H         LINE#         219
  C:7A33H         LINE#         220
  C:7A40H         LINE#         221
  C:7A40H         LINE#         222
  C:7A4BH         LINE#         223
  C:7A4BH         LINE#         228
  C:7A6BH         LINE#         229
  C:7A6BH         LINE#         232
  C:7A71H         LINE#         233
  C:7A71H         LINE#         235
  C:7A92H         LINE#         236
  C:7A92H         LINE#         237
  C:7A97H         LINE#         239
  C:7A99H         LINE#         241
  C:7A99H         LINE#         242
  C:7A9FH         LINE#         244
  C:7A9FH         LINE#         245
  C:7AA1H         LINE#         247
  C:7AA1H         LINE#         248
  C:7AA7H         LINE#         249
  C:7AA7H         LINE#         250
  C:7AB6H         LINE#         251
  C:7AB6H         LINE#         252
  C:7AB6H         LINE#         253
  C:7AC4H         LINE#         254
  C:7AC4H         LINE#         255
  C:7ADFH         LINE#         256
  C:7AE8H         LINE#         257
  C:7B0CH         LINE#         258
  C:7B0CH         LINE#         262
  C:7B3AH         LINE#         264
  C:7B3AH         LINE#         266
  C:7B3AH         LINE#         267
  C:7B3CH         LINE#         269
  C:7B3CH         LINE#         271
  C:7B51H         LINE#         272
  C:7B56H         LINE#         274
  C:7B62H         LINE#         288
  C:7B7AH         LINE#         289
  C:7B86H         LINE#         291
  C:7BB4H         LINE#         292
  C:7BB4H         LINE#         293
  C:7BB4H         LINE#         295
  C:7BBEH         LINE#         296
  C:7BBEH         LINE#         297
  C:7BCBH         LINE#         298
  C:7BD2H         LINE#         299
  C:7BEBH         LINE#         300
  C:7BEBH         LINE#         302
  C:7C02H         LINE#         303
  C:7C12H         LINE#         304
  C:7C12H         LINE#         306
  C:7C20H         LINE#         307
  C:7C2DH         LINE#         308
  C:7C2DH         LINE#         309
  C:7C6EH         LINE#         310
  C:7C8EH         LINE#         312
BL51 BANKED LINKER/LOCATER V5.03                                                      08/07/2012  16:42:10  PAGE 74


  C:7C90H         LINE#         314
  C:7C90H         LINE#         315
  C:7CB2H         LINE#         316
  C:7CC2H         LINE#         317
  C:7CC2H         LINE#         318
  C:7CC4H         LINE#         320
  C:7CC4H         LINE#         321
  C:7CD3H         LINE#         322
  C:7CD3H         LINE#         323
  C:7CD5H         LINE#         325
  C:7CD5H         LINE#         326
  C:7CE3H         LINE#         327
  C:7CF4H         LINE#         328
  C:7D00H         LINE#         329
  C:7D0CH         LINE#         330
  C:7D18H         LINE#         331
  C:7D18H         LINE#         332
  C:7D2FH         LINE#         333
  C:7D38H         LINE#         334
  C:7D38H         LINE#         335
  C:7D46H         LINE#         336
  C:7D46H         LINE#         337
  C:7D56H         LINE#         338
  C:7D56H         LINE#         339
  C:7D5DH         LINE#         341
  C:7D5DH         LINE#         342
  C:7D5DH         LINE#         343
  C:7D64H         LINE#         345
  C:7D6EH         LINE#         346
  C:7D6EH         LINE#         347
  C:7D7BH         LINE#         348
  C:7D85H         LINE#         349
  C:7D85H         LINE#         350
  C:7D8DH         LINE#         351
  C:7D98H         LINE#         352
  C:7D98H         LINE#         353
  C:7D9EH         LINE#         354
  C:7DA1H         LINE#         356
  C:7DA1H         LINE#         359
  C:7DB3H         LINE#         360
  C:7DD9H         LINE#         361
  C:7DE5H         LINE#         362
  C:7DF1H         LINE#         364
  C:7E0CH         LINE#         365
  C:7E24H         LINE#         366
  C:7E3BH         LINE#         367
  C:7E3BH         LINE#         368
  C:7E3BH         LINE#         370
  C:7E4BH         LINE#         371
  C:7E4BH         LINE#         372
  C:7E53H         LINE#         373
  C:7E53H         LINE#         374
  C:7E61H         LINE#         375
  C:7E61H         LINE#         377
  C:7E64H         LINE#         378
  C:7E64H         LINE#         381
  C:7E67H         LINE#         382
BL51 BANKED LINKER/LOCATER V5.03                                                      08/07/2012  16:42:10  PAGE 75


  C:7E76H         LINE#         383
  C:7E8DH         LINE#         384
  C:7E8DH         LINE#         385
  C:7E8DH         LINE#         386
  C:7E8DH         LINE#         389
  -------         ENDPROC       HTTPD
  -------         ENDMOD        HTTPD

  -------         MODULE        HTTPD_APP
  C:0000H         SYMBOL        _ICE_DUMMY_
  C:D0CDH         PUBLIC        httpd_header_init
  C:D1DFH         PUBLIC        _httpd_init_file
  C:E1C2H         PUBLIC        _httpd_copy_data
  C:CD4AH         PUBLIC        querystr_func
  C:D5A7H         PUBLIC        _strfind
  -------         PROC          QUERYSTR_FUNC
  -------         DO            
  X:4DBFH         SYMBOL        count
  D:0006H         SYMBOL        index
  -------         ENDDO         
  C:CD4AH         LINE#         23
  C:CD4AH         LINE#         24
  C:CD4AH         LINE#         26
  C:CD51H         LINE#         27
  C:CD65H         LINE#         28
  C:CD65H         LINE#         29
  C:CD8DH         LINE#         30
  C:CDB0H         LINE#         31
  C:CDC4H         LINE#         32
  C:CDC4H         LINE#         33
  C:CDD4H         LINE#         34
  C:CDE5H         LINE#         35
  C:CE0DH         LINE#         36
  C:CE34H         LINE#         37
  C:CE44H         LINE#         38
  C:CE56H         LINE#         39
  C:CE56H         LINE#         40
  C:CE5AH         LINE#         41
  C:CE6BH         LINE#         42
  C:CE6BH         LINE#         43
  C:CE75H         LINE#         45
  C:CE78H         LINE#         46
  C:CE7DH         LINE#         47
  -------         ENDPROC       QUERYSTR_FUNC
  -------         PROC          _STRFIND
  X:4CD0H         SYMBOL        srcstr
  X:4CD3H         SYMBOL        findstr
  -------         DO            
  X:4CD6H         SYMBOL        ptr
  X:4CD9H         SYMBOL        srcstr_end
  X:4CDCH         SYMBOL        len
  D:0006H         SYMBOL        i
  D:0007H         SYMBOL        check_count
  -------         ENDDO         
  C:D5A7H         LINE#         60
  C:D5ADH         LINE#         61
  C:D5ADH         LINE#         64
BL51 BANKED LINKER/LOCATER V5.03                                                      08/07/2012  16:42:10  PAGE 76


  C:D5C2H         LINE#         66
  C:D5D0H         LINE#         67
  C:D5F4H         LINE#         68
  C:D5F4H         LINE#         69
  C:D60DH         LINE#         70
  C:D612H         LINE#         71
  C:D612H         LINE#         72
  C:D614H         LINE#         73
  C:D620H         LINE#         74
  C:D620H         LINE#         75
  C:D640H         LINE#         76
  C:D640H         LINE#         77
  C:D641H         LINE#         78
  C:D641H         LINE#         79
  C:D644H         LINE#         80
  C:D64CH         LINE#         81
  C:D64CH         LINE#         82
  C:D65BH         LINE#         83
  C:D65BH         LINE#         84
  C:D65BH         LINE#         88
  C:D65BH         LINE#         89
  C:D66EH         LINE#         90
  C:D671H         LINE#         91
  C:D677H         LINE#         92
  -------         ENDPROC       _STRFIND
  C:E1B8H         SYMBOL        L?0025
  C:E1BEH         SYMBOL        L?0026
  -------         PROC          L?0024
  -------         ENDPROC       L?0024
  C:E1B8H         SYMBOL        L?0025
  C:E1BEH         SYMBOL        L?0026
  -------         PROC          _HTTPD_COPY_DATA
  D:0001H         SYMBOL        indata
  X:4DC1H         SYMBOL        length
  C:E1C2H         LINE#         104
  C:E1CAH         LINE#         105
  C:E1CAH         LINE#         106
  C:E1D2H         LINE#         107
  C:E1D2H         LINE#         108
  C:E1F7H         LINE#         109
  C:E208H         LINE#         110
  C:E208H         LINE#         111
  -------         ENDPROC       _HTTPD_COPY_DATA
  -------         PROC          HTTPD_HEADER_INIT
  C:D0CDH         LINE#         123
  C:D0CDH         LINE#         124
  C:D0CDH         LINE#         125
  C:D0D4H         LINE#         126
  C:D0E0H         LINE#         127
  C:D102H         LINE#         128
  C:D105H         LINE#         129
  C:D10EH         LINE#         130
  C:D11FH         LINE#         131
  C:D11FH         LINE#         132
  C:D12CH         LINE#         133
  C:D14EH         LINE#         134
  C:D151H         LINE#         135
BL51 BANKED LINKER/LOCATER V5.03                                                      08/07/2012  16:42:10  PAGE 77


  C:D151H         LINE#         137
  C:D169H         LINE#         138
  C:D169H         LINE#         139
  C:D1ACH         LINE#         140
  C:D1CAH         LINE#         141
  C:D1CAH         LINE#         147
  C:D1CDH         LINE#         148
  -------         ENDPROC       HTTPD_HEADER_INIT
  -------         PROC          _HTTPD_INIT_FILE
  X:4D98H         SYMBOL        infile
  C:D1DFH         LINE#         162
  C:D1E5H         LINE#         163
  C:D1E5H         LINE#         164
  C:D1F2H         LINE#         165
  C:D1F9H         LINE#         166
  C:D216H         LINE#         168
  C:D22BH         LINE#         169
  C:D249H         LINE#         170
  C:D257H         LINE#         172
  C:D25EH         LINE#         173
  C:D265H         LINE#         174
  C:D26EH         LINE#         175
  C:D277H         LINE#         176
  C:D280H         LINE#         177
  C:D287H         LINE#         178
  C:D28EH         LINE#         179
  C:D295H         LINE#         180
  C:D29CH         LINE#         181
  C:D2A3H         LINE#         182
  C:D2AAH         LINE#         183
  C:D2B1H         LINE#         184
  C:D2BAH         LINE#         185
  C:D2D2H         LINE#         186
  C:D2EAH         LINE#         188
  C:D2EBH         LINE#         189
  -------         ENDPROC       _HTTPD_INIT_FILE
  -------         ENDMOD        HTTPD_APP

  -------         MODULE        CGI
  C:0000H         SYMBOL        _ICE_DUMMY_
  C:7E8EH         PUBLIC        Httpd_Data_Processing
  -------         PROC          HTTPD_DATA_PROCESSING
  C:7E8EH         LINE#         39
  C:7E8EH         LINE#         40
  C:7E8EH         LINE#         42
  C:7E9FH         LINE#         43
  C:7E9FH         LINE#         44
  C:7EB1H         LINE#         45
  C:7EC9H         LINE#         46
  C:7EDFH         LINE#         47
  C:7EDFH         LINE#         49
  C:7EE1H         LINE#         50
  C:7EE1H         LINE#         52
  C:7EE1H         LINE#         54
  C:7F5AH         LINE#         55
  C:7F5AH         LINE#         56
  C:7F5DH         LINE#         57
BL51 BANKED LINKER/LOCATER V5.03                                                      08/07/2012  16:42:10  PAGE 78


  C:7F5FH         LINE#         58
  C:7F5FH         LINE#         60
  C:7F5FH         LINE#         61
  C:7FCDH         LINE#         62
  C:7FCDH         LINE#         63
  C:7FD0H         LINE#         64
  C:7FD2H         LINE#         65
  C:7FD2H         LINE#         67
  C:7FD2H         LINE#         68
  C:7FD5H         LINE#         69
  C:7FD7H         LINE#         70
  C:7FD7H         LINE#         71
  C:7FD7H         LINE#         72
  C:7FD7H         LINE#         73
  C:7FD7H         LINE#         74
  C:7FD8H         LINE#         75
  -------         ENDPROC       HTTPD_DATA_PROCESSING
  -------         ENDMOD        CGI

  -------         MODULE        CGIUTIL
  C:0000H         SYMBOL        _ICE_DUMMY_
  C:DAD7H         PUBLIC        tag_address_bigger_mss
  C:DDA0H         PUBLIC        _stoui
  C:D2ECH         PUBLIC        _uitos
  C:CE7EH         PUBLIC        last_tag_page
  C:AA89H         PUBLIC        with_tag_page
  -------         PROC          _UITOS
  X:4D31H         SYMBOL        int_value
  -------         DO            
  D:0002H         SYMBOL        i
  X:4D61H         SYMBOL        str
  X:4D33H         SYMBOL        base
  X:4D35H         SYMBOL        last_div
  X:4D37H         SYMBOL        div
  -------         ENDDO         
  C:D2ECH         LINE#         71
  C:D2F4H         LINE#         72
  C:D2F4H         LINE#         73
  C:D2F7H         LINE#         75
  C:D308H         LINE#         76
  C:D319H         LINE#         77
  C:D319H         LINE#         78
  C:D32DH         LINE#         79
  C:D344H         LINE#         80
  C:D346H         LINE#         81
  C:D35AH         LINE#         82
  C:D35AH         LINE#         83
  C:D372H         LINE#         84
  C:D390H         LINE#         85
  C:D398H         LINE#         86
  C:D3AFH         LINE#         87
  C:D3B6H         LINE#         88
  C:D3C8H         LINE#         89
  C:D3D7H         LINE#         90
  C:D3DDH         LINE#         91
  -------         ENDPROC       _UITOS
  -------         PROC          _STOUI
BL51 BANKED LINKER/LOCATER V5.03                                                      08/07/2012  16:42:10  PAGE 79


  X:4D0FH         SYMBOL        str_value
  -------         DO            
  X:4D12H         SYMBOL        value
  X:4D14H         SYMBOL        i
  X:4D16H         SYMBOL        len
  -------         ENDDO         
  C:DDA0H         LINE#         92
  C:DDA6H         LINE#         93
  C:DDA6H         LINE#         94
  C:DDADH         LINE#         96
  C:DDB8H         LINE#         97
  C:DDDBH         LINE#         98
  C:DDDBH         LINE#         99
  C:DE08H         LINE#         100
  C:DE12H         LINE#         101
  C:DE1AH         LINE#         102
  -------         ENDPROC       _STOUI
  -------         PROC          LAST_TAG_PAGE
  C:CE7EH         LINE#         146
  C:CE7EH         LINE#         147
  C:CE7EH         LINE#         148
  C:CEC6H         LINE#         149
  C:CEC6H         LINE#         150
  C:CEEAH         LINE#         151
  C:CF00H         LINE#         152
  C:CF14H         LINE#         153
  C:CF16H         LINE#         155
  C:CF16H         LINE#         156
  C:CF44H         LINE#         157
  C:CF4DH         LINE#         158
  C:CF56H         LINE#         160
  C:CF56H         LINE#         161
  C:CF87H         LINE#         162
  C:CF9EH         LINE#         163
  C:CFA8H         LINE#         164
  C:CFAAH         LINE#         165
  -------         ENDPROC       LAST_TAG_PAGE
  -------         PROC          TAG_ADDRESS_BIGGER_MSS
  C:DAD7H         LINE#         179
  C:DAD7H         LINE#         180
  C:DAD7H         LINE#         181
  C:DAFBH         LINE#         182
  C:DB11H         LINE#         183
  C:DB42H         LINE#         184
  C:DB59H         LINE#         185
  C:DB63H         LINE#         186
  C:DB7AH         LINE#         187
  C:DB7CH         LINE#         188
  -------         ENDPROC       TAG_ADDRESS_BIGGER_MSS
  -------         PROC          WITH_TAG_PAGE
  -------         DO            
  X:4CF3H         SYMBOL        tag_value
  X:4CF7H         SYMBOL        tag_mss_flag
  D:0007H         SYMBOL        switch_varid
  X:4CF8H         SYMBOL        tag_value_len
  X:4CFAH         SYMBOL        tag_asc_value
  -------         ENDDO         
BL51 BANKED LINKER/LOCATER V5.03                                                      08/07/2012  16:42:10  PAGE 80


  C:AA89H         LINE#         200
  C:AA89H         LINE#         201
  C:AA89H         LINE#         203
  C:AA8EH         LINE#         208
  C:AA8EH         LINE#         209
  C:AB07H         LINE#         210
  C:AB07H         LINE#         211
  C:AB07H         LINE#         212
  C:AB0AH         LINE#         214
  C:AB0AH         LINE#         215
  C:AB7BH         LINE#         216
  C:AB7BH         LINE#         217
  C:ABCFH         LINE#         218
  C:AC1EH         LINE#         219
  C:AC4FH         LINE#         220
  C:AC66H         LINE#         221
  C:AC70H         LINE#         222
  C:AC77H         LINE#         223
  C:ACB5H         LINE#         224
  C:ACCFH         LINE#         225
  C:ACCFH         LINE#         226
  C:ACCFH         LINE#         227
  C:ACDDH         LINE#         228
  C:ACEBH         LINE#         229
  C:ACEBH         LINE#         230
  C:ACF1H         LINE#         231
  C:ACF1H         LINE#         232
  C:ACF4H         LINE#         233
  C:ACF4H         LINE#         234
  C:AD02H         LINE#         235
  C:AD0AH         LINE#         236
  C:AD12H         LINE#         237
  C:AD1BH         LINE#         238
  C:AD1EH         LINE#         239
  C:AD1EH         LINE#         240
  C:AD2CH         LINE#         241
  C:AD37H         LINE#         242
  C:AD37H         LINE#         243
  C:AD44H         LINE#         244
  C:AD4CH         LINE#         245
  C:AD80H         LINE#         246
  C:AD80H         LINE#         247
  C:AD8AH         LINE#         248
  C:AD8DH         LINE#         249
  C:AD90H         LINE#         251
  C:AD90H         LINE#         252
  C:AD9FH         LINE#         253
  C:ADA4H         LINE#         254
  C:ADA4H         LINE#         255
  C:ADA4H         LINE#         256
  C:ADA7H         LINE#         257
  C:ADA7H         LINE#         258
  C:ADB8H         LINE#         259
  C:ADB8H         LINE#         260
  C:ADC0H         LINE#         261
  C:ADC8H         LINE#         262
  C:ADD1H         LINE#         263
BL51 BANKED LINKER/LOCATER V5.03                                                      08/07/2012  16:42:10  PAGE 81


  C:ADD1H         LINE#         264
  C:ADD3H         LINE#         265
  C:ADD3H         LINE#         266
  C:ADE4H         LINE#         267
  C:ADE4H         LINE#         268
  C:ADECH         LINE#         269
  C:AE20H         LINE#         270
  C:AE20H         LINE#         271
  C:AE2AH         LINE#         272
  C:AE32H         LINE#         273
  C:AE35H         LINE#         275
  C:AE35H         LINE#         276
  C:AE44H         LINE#         277
  C:AE44H         LINE#         278
  C:AE44H         LINE#         279
  C:AE47H         LINE#         280
  C:AE47H         LINE#         281
  C:AE55H         LINE#         282
  C:AE62H         LINE#         283
  C:AE62H         LINE#         284
  C:AECFH         LINE#         285
  C:AECFH         LINE#         286
  C:AEDAH         LINE#         287
  C:AEDAH         LINE#         288
  C:AEDAH         LINE#         289
  C:AEE5H         LINE#         290
  C:AEE5H         LINE#         291
  C:AEE7H         LINE#         292
  C:AEE7H         LINE#         293
  C:AEF3H         LINE#         294
  C:AEFEH         LINE#         295
  C:AEFEH         LINE#         296
  C:AEFEH         LINE#         297
  C:AEFEH         LINE#         298
  C:AEFEH         LINE#         299
  C:AEFEH         LINE#         300
  C:AEFEH         LINE#         301
  C:AF2AH         LINE#         302
  C:AF2AH         LINE#         303
  C:AF35H         LINE#         304
  C:AF35H         LINE#         305
  C:AF54H         LINE#         306
  C:AF65H         LINE#         308
  C:AF65H         LINE#         309
  C:AF76H         LINE#         310
  C:AF76H         LINE#         311
  C:AFBDH         LINE#         312
  C:AFD8H         LINE#         313
  C:B020H         LINE#         315
  C:B020H         LINE#         317
  C:B020H         LINE#         318
  C:B020H         LINE#         319
  C:B026H         LINE#         320
  C:B038H         LINE#         321
  C:B050H         LINE#         322
  C:B057H         LINE#         323
  C:B065H         LINE#         324
BL51 BANKED LINKER/LOCATER V5.03                                                      08/07/2012  16:42:10  PAGE 82


  C:B067H         LINE#         326
  C:B067H         LINE#         327
  C:B068H         LINE#         328
  C:B068H         LINE#         329
  C:B06AH         LINE#         331
  C:B06AH         LINE#         332
  C:B06FH         LINE#         333
  C:B06FH         LINE#         334
  C:B06FH         LINE#         335
  C:B078H         LINE#         336
  C:B08FH         LINE#         337
  C:B092H         LINE#         338
  C:B094H         LINE#         339
  -------         ENDPROC       WITH_TAG_PAGE
  -------         ENDMOD        CGIUTIL

  -------         MODULE        HTMFILES
  C:0000H         SYMBOL        _ICE_DUMMY_
  C:AA53H         PUBLIC        cgi_table03
  C:9EE5H         PUBLIC        fu_htm_file
  X:4B39H         PUBLIC        fu_htm_tags
  C:A49DH         PUBLIC        Erase_htm_file
  C:E5C2H         PUBLIC        _get_tag03
  C:E47FH         PUBLIC        _datacpy03
  X:4B57H         PUBLIC        Erase_htm_tags
  C:CC0AH         PUBLIC        _fs_open03
  X:4B87H         PUBLIC        fsop
  C:A8EDH         PUBLIC        TF_htm_file
  C:A5D8H         PUBLIC        OK_htm_file
  C:A36CH         PUBLIC        Warn_htm_file
  C:A7EFH         PUBLIC        main_htm_file
  X:4B90H         PUBLIC        TF_htm_tags
  X:4BA2H         PUBLIC        OK_htm_tags
  X:4BB4H         PUBLIC        Warn_htm_tags
  X:4BBDH         PUBLIC        main_htm_tags
  C:AA02H         PUBLIC        files_table03
  C:A72EH         PUBLIC        sb_gif_file
  X:4BC6H         PUBLIC        indata
  -------         PROC          _FS_OPEN03
  X:4D67H         SYMBOL        name
  -------         DO            
  X:4D6AH         SYMBOL        ptr
  -------         ENDDO         
  C:CC0AH         LINE#         105
  C:CC10H         LINE#         106
  C:CC10H         LINE#         108
  C:CC25H         LINE#         109
  C:CC31H         LINE#         110
  C:CC31H         LINE#         111
  C:CC3BH         LINE#         112
  C:CC46H         LINE#         113
  C:CC4AH         LINE#         114
  C:CC4AH         LINE#         115
  C:CC67H         LINE#         116
  C:CC67H         LINE#         117
  C:CC91H         LINE#         118
  C:CC91H         LINE#         119
BL51 BANKED LINKER/LOCATER V5.03                                                      08/07/2012  16:42:10  PAGE 83


  C:CCB6H         LINE#         120
  C:CCC6H         LINE#         121
  C:CCC6H         LINE#         122
  C:CD00H         LINE#         123
  C:CD21H         LINE#         124
  C:CD21H         LINE#         125
  C:CD36H         LINE#         126
  C:CD36H         LINE#         127
  C:CD43H         LINE#         128
  C:CD49H         LINE#         129
  -------         ENDPROC       _FS_OPEN03
  -------         PROC          _DATACPY03
  X:4D9BH         SYMBOL        inputdata
  C:E47FH         LINE#         142
  C:E485H         LINE#         143
  C:E485H         LINE#         144
  -------         ENDPROC       _DATACPY03
  -------         PROC          _GET_TAG03
  D:0007H         SYMBOL        index
  C:E5C2H         LINE#         158
  C:E5C2H         LINE#         159
  C:E5C2H         LINE#         160
  C:E5E0H         LINE#         161
  -------         ENDPROC       _GET_TAG03
  -------         ENDMOD        HTMFILES

  -------         MODULE        UPDATECBK
  C:0000H         SYMBOL        _ICE_DUMMY_
  D:0090H         PUBLIC        P1
  D:00B0H         PUBLIC        P3
  D:00E8H         PUBLIC        P4
  D:00A8H         PUBLIC        IE
  X:2800H         PUBLIC        NETTMPBUFFER
  D:00B8H         PUBLIC        IP
  C:E5FEH         PUBLIC        _cgi_callerase
  D:0098H         PUBLIC        SCON
  D:0088H         PUBLIC        TCON
  C:DF06H         PUBLIC        _ssi_eraseflash
  C:DD24H         PUBLIC        _ssi_main
  X:37A0H         PUBLIC        size_flag
  C:B095H         PUBLIC        _cgi_firmwareUpdate
  C:E757H         PUBLIC        _ssi_warn
  D:00D8H         PUBLIC        WDTCON
  C:E258H         PUBLIC        _ssi_firmwareUpdate
  D:00C8H         PUBLIC        T2CON
  C:E443H         PUBLIC        _ssi_updatecomplete
  D:00D0H         PUBLIC        PSW
  -------         PROC          _CGI_FIRMWAREUPDATE
  X:4C6BH         SYMBOL        cnt
  D:0001H         SYMBOL        vptr
  -------         DO            
  X:4C6CH         SYMBOL        vp
  X:4C6FH         SYMBOL        i
  X:4C70H         SYMBOL        fflag
  X:4C71H         SYMBOL        tmplen
  X:4C73H         SYMBOL        offset
  X:4C75H         SYMBOL        offset2
BL51 BANKED LINKER/LOCATER V5.03                                                      08/07/2012  16:42:10  PAGE 84


  X:4C77H         SYMBOL        update
  X:4C7BH         SYMBOL        str_ptr
  X:4C7EH         SYMBOL        str2
  X:4C81H         SYMBOL        flashsize
  -------         ENDDO         
  C:B095H         LINE#         58
  C:B09AH         LINE#         59
  C:B09AH         LINE#         60
  C:B09EH         LINE#         61
  C:B0A3H         LINE#         62
  C:B0AFH         LINE#         64
  C:B0BEH         LINE#         66
  C:B0C1H         LINE#         67
  C:B0DAH         LINE#         68
  C:B0DAH         LINE#         70
  C:B0EAH         LINE#         71
  C:B0EAH         LINE#         72
  C:B0F9H         LINE#         73
  C:B108H         LINE#         74
  C:B108H         LINE#         76
  C:B116H         LINE#         83
  C:B128H         LINE#         84
  C:B128H         LINE#         85
  C:B158H         LINE#         87
  C:B193H         LINE#         88
  C:B1AEH         LINE#         89
  C:B1B5H         LINE#         90
  C:B1B5H         LINE#         91
  C:B1D0H         LINE#         92
  C:B1D7H         LINE#         93
  C:B1D7H         LINE#         95
  C:B206H         LINE#         96
  C:B206H         LINE#         98
  C:B210H         LINE#         99
  C:B21AH         LINE#         100
  C:B220H         LINE#         101
  C:B230H         LINE#         103
  C:B245H         LINE#         105
  C:B264H         LINE#         107
  C:B282H         LINE#         108
  C:B295H         LINE#         110
  C:B2A4H         LINE#         111
  C:B2A6H         LINE#         113
  C:B2A6H         LINE#         114
  C:B2AFH         LINE#         115
  C:B2B5H         LINE#         126
  C:B2B5H         LINE#         127
  C:B2B7H         LINE#         150
  C:B2B7H         LINE#         151
  C:B2BDH         LINE#         167
  C:B2BDH         LINE#         168
  C:B2C9H         LINE#         169
  C:B2C9H         LINE#         170
  C:B302H         LINE#         171
  C:B302H         LINE#         173
  C:B312H         LINE#         174
  C:B312H         LINE#         176
BL51 BANKED LINKER/LOCATER V5.03                                                      08/07/2012  16:42:10  PAGE 85


  C:B323H         LINE#         177
  C:B32AH         LINE#         178
  C:B32CH         LINE#         180
  C:B32CH         LINE#         183
  C:B32CH         LINE#         184
  C:B33BH         LINE#         186
  C:B34AH         LINE#         187
  C:B38FH         LINE#         188
  C:B39FH         LINE#         189
  C:B39FH         LINE#         191
  C:B39FH         LINE#         192
  C:B3A2H         LINE#         193
  C:B3A2H         LINE#         195
  C:B3A2H         LINE#         197
  C:B3A5H         LINE#         198
  C:B3B1H         LINE#         199
  C:B3B4H         LINE#         200
  C:B3B4H         LINE#         201
  C:B3B4H         LINE#         202
  C:B3B4H         LINE#         204
  C:B3B4H         LINE#         205
  C:B3D4H         LINE#         206
  C:B3D4H         LINE#         207
  C:B3EFH         LINE#         208
  C:B3F1H         LINE#         210
  C:B3F1H         LINE#         211
  C:B400H         LINE#         212
  C:B400H         LINE#         213
  C:B400H         LINE#         214
  C:B40EH         LINE#         215
  C:B40EH         LINE#         216
  C:B423H         LINE#         217
  C:B423H         LINE#         218
  C:B43DH         LINE#         219
  C:B45BH         LINE#         220
  C:B473H         LINE#         221
  C:B475H         LINE#         223
  C:B478H         LINE#         224
  C:B478H         LINE#         225
  C:B490H         LINE#         226
  C:B4A2H         LINE#         227
  C:B4A2H         LINE#         228
  C:B4AEH         LINE#         229
  C:B4B4H         LINE#         230
  C:B4B9H         LINE#         231
  C:B4B9H         LINE#         233
  C:B4BBH         LINE#         235
  C:B4BBH         LINE#         236
  C:B4C4H         LINE#         237
  C:B4C7H         LINE#         239
  C:B4C7H         LINE#         240
  C:B4C7H         LINE#         241
  C:B4C9H         LINE#         242
  -------         ENDPROC       _CGI_FIRMWAREUPDATE
  -------         PROC          _SSI_FIRMWAREUPDATE
  D:0007H         SYMBOL        varid
  X:4D9EH         SYMBOL        vp
BL51 BANKED LINKER/LOCATER V5.03                                                      08/07/2012  16:42:10  PAGE 86


  C:E258H         LINE#         243
  C:E25EH         LINE#         244
  C:E25EH         LINE#         245
  C:E265H         LINE#         246
  C:E265H         LINE#         247
  C:E265H         LINE#         248
  C:E265H         LINE#         249
  C:E265H         LINE#         250
  C:E265H         LINE#         251
  C:E287H         LINE#         252
  C:E289H         LINE#         253
  C:E289H         LINE#         254
  C:E296H         LINE#         255
  C:E296H         LINE#         256
  C:E296H         LINE#         257
  C:E2A4H         LINE#         258
  C:E2A6H         LINE#         259
  -------         ENDPROC       _SSI_FIRMWAREUPDATE
  -------         PROC          _SSI_ERASEFLASH
  D:0007H         SYMBOL        varid
  X:4DA1H         SYMBOL        vp
  C:DF06H         LINE#         276
  C:DF0CH         LINE#         277
  C:DF0CH         LINE#         278
  C:DF16H         LINE#         279
  C:DF16H         LINE#         281
  C:DF16H         LINE#         282
  C:DF2AH         LINE#         283
  C:DF2CH         LINE#         284
  C:DF2CH         LINE#         285
  C:DF2CH         LINE#         286
  C:DF2CH         LINE#         287
  C:DF2CH         LINE#         288
  C:DF45H         LINE#         289
  C:DF47H         LINE#         290
  C:DF47H         LINE#         291
  C:DF58H         LINE#         292
  C:DF5AH         LINE#         293
  C:DF5AH         LINE#         294
  C:DF67H         LINE#         295
  C:DF67H         LINE#         296
  C:DF67H         LINE#         297
  C:DF75H         LINE#         298
  C:DF77H         LINE#         300
  -------         ENDPROC       _SSI_ERASEFLASH
  -------         PROC          _SSI_UPDATECOMPLETE
  D:0007H         SYMBOL        varid
  X:4DA4H         SYMBOL        vp
  C:E443H         LINE#         301
  C:E449H         LINE#         302
  C:E449H         LINE#         303
  C:E46EH         LINE#         304
  C:E47CH         LINE#         305
  C:E47EH         LINE#         306
  -------         ENDPROC       _SSI_UPDATECOMPLETE
  -------         PROC          _CGI_CALLERASE
  X:4D7EH         SYMBOL        cnt
BL51 BANKED LINKER/LOCATER V5.03                                                      08/07/2012  16:42:10  PAGE 87


  X:4D7FH         SYMBOL        vptr
  C:E5FEH         LINE#         308
  C:E607H         LINE#         309
  C:E607H         LINE#         310
  C:E60CH         LINE#         311
  C:E618H         LINE#         312
  C:E61AH         LINE#         313
  -------         ENDPROC       _CGI_CALLERASE
  -------         PROC          _SSI_WARN
  X:4D82H         SYMBOL        varid
  X:4D83H         SYMBOL        vp
  C:E757H         LINE#         315
  C:E760H         LINE#         316
  C:E762H         LINE#         317
  -------         ENDPROC       _SSI_WARN
  -------         PROC          _SSI_MAIN
  X:4C9EH         SYMBOL        varid
  X:4C9FH         SYMBOL        vp
  -------         DO            
  X:4CA2H         SYMBOL        tmpBuf
  -------         ENDDO         
  C:DD24H         LINE#         319
  C:DD2DH         LINE#         320
  C:DD2DH         LINE#         322
  C:DD3CH         LINE#         323
  C:DD4DH         LINE#         324
  C:DD4DH         LINE#         325
  C:DD4DH         LINE#         326
  C:DD53H         LINE#         327
  C:DD55H         LINE#         328
  C:DD55H         LINE#         329
  C:DD5BH         LINE#         330
  C:DD5DH         LINE#         331
  C:DD5DH         LINE#         332
  C:DD63H         LINE#         333
  C:DD65H         LINE#         334
  C:DD65H         LINE#         335
  C:DD7AH         LINE#         336
  C:DD7AH         LINE#         337
  C:DD7AH         LINE#         338
  C:DD8FH         LINE#         339
  C:DD9DH         LINE#         340
  C:DD9FH         LINE#         341
  -------         ENDPROC       _SSI_MAIN
  -------         ENDMOD        UPDATECBK

  -------         MODULE        ?C?COPY
  C:93EAH         PUBLIC        ?C?COPY
  -------         ENDMOD        ?C?COPY

  -------         MODULE        ?C?CLDPTR
  C:9410H         PUBLIC        ?C?CLDPTR
  -------         ENDMOD        ?C?CLDPTR

  -------         MODULE        ?C?CLDOPTR
  C:9429H         PUBLIC        ?C?CLDOPTR
  -------         ENDMOD        ?C?CLDOPTR
BL51 BANKED LINKER/LOCATER V5.03                                                      08/07/2012  16:42:10  PAGE 88



  -------         MODULE        ?C?CLDIOPTR
  C:9456H         PUBLIC        ?C?CLDIOPTR
  -------         ENDMOD        ?C?CLDIOPTR

  -------         MODULE        ?C?CILDOPTR
  C:948DH         PUBLIC        ?C?CILDOPTR
  -------         ENDMOD        ?C?CILDOPTR

  -------         MODULE        ?C?CSTPTR
  C:94C0H         PUBLIC        ?C?CSTPTR
  -------         ENDMOD        ?C?CSTPTR

  -------         MODULE        ?C?CSTOPTR
  C:94D2H         PUBLIC        ?C?CSTOPTR
  -------         ENDMOD        ?C?CSTOPTR

  -------         MODULE        ?C?IMUL
  C:94F4H         PUBLIC        ?C?IMUL
  -------         ENDMOD        ?C?IMUL

  -------         MODULE        ?C?UIDIV
  C:9506H         PUBLIC        ?C?UIDIV
  -------         ENDMOD        ?C?UIDIV

  -------         MODULE        ?C?SIDIV
  C:955BH         PUBLIC        ?C?SIDIV
  -------         ENDMOD        ?C?SIDIV

  -------         MODULE        ?C?IILDX
  C:9591H         PUBLIC        ?C?IILDX
  -------         ENDMOD        ?C?IILDX

  -------         MODULE        ?C?ILDPTR
  C:95A7H         PUBLIC        ?C?ILDPTR
  -------         ENDMOD        ?C?ILDPTR

  -------         MODULE        ?C?ILDOPTR
  C:95D2H         PUBLIC        ?C?ILDOPTR
  -------         ENDMOD        ?C?ILDOPTR

  -------         MODULE        ?C?IILDOPTR
  C:960AH         PUBLIC        ?C?IILDOPTR
  -------         ENDMOD        ?C?IILDOPTR

  -------         MODULE        ?C?ISTPTR
  C:9657H         PUBLIC        ?C?ISTPTR
  -------         ENDMOD        ?C?ISTPTR

  -------         MODULE        ?C?ISTOPTR
  C:9676H         PUBLIC        ?C?ISTOPTR
  -------         ENDMOD        ?C?ISTOPTR

  -------         MODULE        ?C?LADD
  C:96A3H         PUBLIC        ?C?LADD
  -------         ENDMOD        ?C?LADD

BL51 BANKED LINKER/LOCATER V5.03                                                      08/07/2012  16:42:10  PAGE 89


  -------         MODULE        ?C?LMUL
  C:96B0H         PUBLIC        ?C?LMUL
  -------         ENDMOD        ?C?LMUL

  -------         MODULE        ?C?ULDIV
  C:973BH         PUBLIC        ?C?ULDIV
  -------         ENDMOD        ?C?ULDIV

  -------         MODULE        ?C?LNOT
  C:97CDH         PUBLIC        ?C?LNOT
  -------         ENDMOD        ?C?LNOT

  -------         MODULE        ?C?SLCMP
  C:97DAH         PUBLIC        ?C?SLCMP
  -------         ENDMOD        ?C?SLCMP

  -------         MODULE        ?C?ULCMP
  C:97F0H         PUBLIC        ?C?ULCMP
  -------         ENDMOD        ?C?ULCMP

  -------         MODULE        ?C?ULSHR
  C:9801H         PUBLIC        ?C?ULSHR
  -------         ENDMOD        ?C?ULSHR

  -------         MODULE        ?C?LLDXDATA
  C:9814H         PUBLIC        ?C?LLDXDATA
  -------         ENDMOD        ?C?LLDXDATA

  -------         MODULE        ?C?LLDXDATA0
  C:9820H         PUBLIC        ?C?LLDXDATA0
  -------         ENDMOD        ?C?LLDXDATA0

  -------         MODULE        ?C?LSTXDATA
  C:982CH         PUBLIC        ?C?LSTXDATA
  -------         ENDMOD        ?C?LSTXDATA

  -------         MODULE        ?C?LSTKXDATA
  C:9838H         PUBLIC        ?C?LSTKXDATA
  -------         ENDMOD        ?C?LSTKXDATA

  -------         MODULE        ?C?OFFXADD
  C:9869H         PUBLIC        ?C?OFFXADD
  -------         ENDMOD        ?C?OFFXADD

  -------         MODULE        ?C?PLDXDATA
  C:9875H         PUBLIC        ?C?PLDXDATA
  -------         ENDMOD        ?C?PLDXDATA

  -------         MODULE        ?C?PSTXDATA
  C:987EH         PUBLIC        ?C?PSTXDATA
  -------         ENDMOD        ?C?PSTXDATA

  -------         MODULE        ?C?PLDPTR
  C:9887H         PUBLIC        ?C?PLDPTR
  -------         ENDMOD        ?C?PLDPTR

  -------         MODULE        ?C?PSTPTR
BL51 BANKED LINKER/LOCATER V5.03                                                      08/07/2012  16:42:10  PAGE 90


  C:98A7H         PUBLIC        ?C?PSTPTR
  -------         ENDMOD        ?C?PSTPTR

  -------         MODULE        ?C?PLDOPTR
  C:98F6H         PUBLIC        ?C?PLDOPTR
  -------         ENDMOD        ?C?PLDOPTR

  -------         MODULE        ?C?PSTOPTR
  C:9926H         PUBLIC        ?C?PSTOPTR
  -------         ENDMOD        ?C?PSTOPTR

  -------         MODULE        ?C?CCASE
  C:997FH         PUBLIC        ?C?CCASE
  -------         ENDMOD        ?C?CCASE

  -------         MODULE        ?C?ICASE
  C:99A5H         PUBLIC        ?C?ICASE
  -------         ENDMOD        ?C?ICASE

  -------         MODULE        ?C?ICALL
  C:99D2H         PUBLIC        ?C?ICALL
  C:99D6H         PUBLIC        ?C?ICALL2
  -------         ENDMOD        ?C?ICALL

  -------         MODULE        PRINTF
  X:4C43H         PUBLIC        ?_PRINTF517?BYTE
  X:4C43H         PUBLIC        ?_PRINTF?BYTE
  X:4C43H         PUBLIC        ?_SPRINTF517?BYTE
  X:4C43H         PUBLIC        ?_SPRINTF?BYTE
  C:8EFAH         PUBLIC        _PRINTF
  C:8EFAH         PUBLIC        _PRINTF517
  C:8EF4H         PUBLIC        _SPRINTF
  C:8EF4H         PUBLIC        _SPRINTF517
  -------         ENDMOD        PRINTF

  -------         MODULE        ?C?STRCMP
  C:9B60H         PUBLIC        ?C?STRCMP
  -------         ENDMOD        ?C?STRCMP

  -------         MODULE        STRNCMP
  X:4D39H         PUBLIC        ?_strncmp?BYTE
  C:DE1BH         PUBLIC        _strncmp
  -------         ENDMOD        STRNCMP

  -------         MODULE        ?C?STRCPY
  C:9C49H         PUBLIC        ?C?STRCPY
  -------         ENDMOD        ?C?STRCPY

  -------         MODULE        STRLEN
  C:E6D3H         PUBLIC        _STRLEN
  -------         ENDMOD        STRLEN

  -------         MODULE        STRCHR
  C:E653H         PUBLIC        _STRCHR
  -------         ENDMOD        STRCHR

  -------         MODULE        STRCSPN
BL51 BANKED LINKER/LOCATER V5.03                                                      08/07/2012  16:42:10  PAGE 91


  X:4D18H         PUBLIC        ?_strcspn?BYTE
  C:80FEH         PUBLIC        _strcspn
  -------         ENDMOD        STRCSPN

  -------         MODULE        ?C?MEMCMP
  C:9DECH         PUBLIC        ?C?MEMCMP
  -------         ENDMOD        ?C?MEMCMP

  -------         MODULE        ?C?MEMSET
  C:9E10H         PUBLIC        ?C?MEMSET
  -------         ENDMOD        ?C?MEMSET

  -------         MODULE        ?C?PLDIDATA
  C:9E3CH         PUBLIC        ?C?PLDIDATA
  -------         ENDMOD        ?C?PLDIDATA

  -------         MODULE        ?C?PSTIDATA
  C:9E45H         PUBLIC        ?C?PSTIDATA
  -------         ENDMOD        ?C?PSTIDATA

  -------         MODULE        ?C?PLDIXDATA
  C:9E4EH         PUBLIC        ?C?PLDIXDATA
  -------         ENDMOD        ?C?PLDIXDATA

  -------         MODULE        ?C?PLDPDATA
  C:9E65H         PUBLIC        ?C?PLDPDATA
  -------         ENDMOD        ?C?PLDPDATA

  -------         MODULE        ?C?PSTPDATA
  C:9E6EH         PUBLIC        ?C?PSTPDATA
  -------         ENDMOD        ?C?PSTPDATA

  -------         MODULE        ?C?PLDCODE
  C:9E77H         PUBLIC        ?C?PLDCODE
  -------         ENDMOD        ?C?PLDCODE

  -------         MODULE        PUTCHAR
  C:91FFH         PUBLIC        _PUTCHAR
  -------         ENDMOD        PUTCHAR

Program Size: data=114.1 xdata=9675 code=34730
LINK/LOCATE RUN COMPLETE.  0 WARNING(S),  0 ERROR(S)
