BL51 BANKED LINKER/LOCATER V6.00                                                        11/05/2015  16:28:40  PAGE 1


BL51 BANKED LINKER/LOCATER V6.00, INVOKED BY:
C:\KEIL\C51\BIN\BL51.EXE BANK1 {.\obj\main.obj}, BANK1 {.\obj\patch_info.obj}, BANK1 {.\obj\ee_process.obj}, BANK0 {.\ob
>> j\firmware_rev.obj}, COMMON {.\obj\L51_BANK.obj}, COMMON {.\obj\STARTUP.obj}, BANK1 {.\obj\ee_default.obj}, BANK1 {.\
>> obj\dma.obj}, BANK1 {.\obj\eeprom.obj}, BANK1 {.\obj\serial.obj}, BANK1 {.\obj\MACdriver.obj}, BANK1 {.\obj\timer.obj
>> }, BANK1 {.\obj\uart.obj}, BANK1 {.\obj\MDC_MDIO.obj}, BANK1 {.\obj\os_cbk.obj}, BANK1 {.\obj\vtag.obj}, BANK1 {.\obj
>> \fs.obj}, BANK0 {.\obj\htmfiles0.obj}, BANK1 {.\obj\htmfiles1.obj}, BANK2 {.\obj\htmfiles2.obj}, BANK3 {.\obj\htmfile
>> s3.obj}, BANK4 {.\obj\htmfiles4.obj}, BANK5 {.\obj\htmfiles5.obj}, BANK6 {.\obj\htmfiles6.obj}, BANK7 {.\obj\htmfiles
>> 7.obj}, BANK1 {.\obj\uip.obj}, BANK6 {.\obj\uip_arp.obj}, BANK1 {.\obj\muip.obj}, BANK1 {.\obj\cgi.obj}, BANK1 {.\obj
>> \cgiutil.obj}, BANK1 {.\obj\challenge.obj}, BANK1 {.\obj\cookie.obj}, BANK1 {.\obj\httpd.obj}, BANK1 {.\obj\applicati
>> on.obj}, BANK1 {.\obj\httpd_app.obj}, BANK5 {.\obj\checksum.obj}, BANK1 {.\obj\loginCbk.obj}, BANK1 {.\obj\errormsgCb
>> k.obj}, BANK2 {.\obj\uartCbk.obj}, BANK2 {.\obj\telnetCbk.obj}, BANK5 {.\obj\setDefCbk.obj}, BANK1 {.\obj\setIPCbk.ob
>> j}, BANK1 {.\obj\setPASSCbk.obj}, BANK1 {.\obj\statusCbk.obj}, BANK1 {.\obj\smtpCbk.obj}, BANK1 {.\obj\fw_upCbk.obj},
>>  BANK5 {.\obj\adcCbk.obj}, BANK5 {.\obj\udp_telCbk.obj}, BANK1 {.\obj\didoCbk.obj}, BANK6 {.\obj\CommandLine.obj}, BA
>> NK1 {.\obj\utility.obj}, BANK2 {.\obj\udp.obj}, BANK2 {.\obj\dhcpc.obj}, BANK2 {.\obj\gpio.obj}, BANK2 {.\obj\dns.obj
>> }, BANK2 {.\obj\wdg.obj}, BANK2 {.\obj\netuart_ctrl.obj}, BANK5 {.\obj\dido.obj}, BANK2 {..\..\Project\WebCtrl_flash\
>> LIB\NETUART.LIB}, BANK2 {..\..\Project\WebCtrl_flash\LIB\UDP_TEL.LIB}, BANK2 {.\obj\telnet.obj}, BANK5 {.\obj\net_cmd
>> .obj}, BANK2 {.\obj\smtp.obj}, BANK2 {.\obj\base64.obj}, BANK2 {.\obj\cram_md5.obj}, BANK2 {.\obj\snmp_trap.obj} TO .
>> \obj\NetUART BANKAREA (0X5000, 0XFF00) PRINT (.\NetUART.m51) RAMSIZE (256) NOOVERLAY, BANK0 (?CO?HTMFILES0 (0X5000), 
>> ?CO?FIRMWARE_REV (0X6000)) BANK1 (?CO?HTMFILES1 (0X5000)) BANK2 (?CO?HTMFILES2 (0X5000)) BANK3 (?CO?HTMFILES3 (0X5000
>> )) BANK4 (?CO?HTMFILES4 (0X5000)) BANK5 (?CO?HTMFILES5 (0X5000)) BANK6 (?CO?HTMFILES6 (0X5000)) BANK7 (?CO?HTMFILES7 
>> (0X5000)) CODE (0X0000-0X4FFF) XDATA (0X0000-0X3AFF)


MEMORY MODEL: LARGE


INPUT MODULES INCLUDED:
  .\obj\main.obj (MAIN)
  .\obj\patch_info.obj (PATCH_INFO)
  .\obj\ee_process.obj (EE_PROCESS)
  .\obj\firmware_rev.obj (FIRMWARE_REV)
  .\obj\L51_BANK.obj (?BANK?SWITCHING)
  .\obj\STARTUP.obj (?C_STARTUP)
  .\obj\ee_default.obj (EE_DEFAULT)
  .\obj\dma.obj (DMA)
  .\obj\eeprom.obj (EEPROM)
  .\obj\serial.obj (SERIAL)
  .\obj\MACdriver.obj (MACDRIVER)
  .\obj\timer.obj (TIMER)
  .\obj\uart.obj (UART)
  .\obj\MDC_MDIO.obj (MDC_MDIO)
  .\obj\os_cbk.obj (OS_CBK)
  .\obj\vtag.obj (VTAG)
  .\obj\fs.obj (FS)
  .\obj\htmfiles0.obj (HTMFILES0)
  .\obj\htmfiles1.obj (HTMFILES1)
  .\obj\htmfiles2.obj (HTMFILES2)
  .\obj\htmfiles3.obj (HTMFILES3)
  .\obj\htmfiles4.obj (HTMFILES4)
  .\obj\htmfiles5.obj (HTMFILES5)
  .\obj\htmfiles6.obj (HTMFILES6)
  .\obj\htmfiles7.obj (HTMFILES7)
  .\obj\uip.obj (UIP)
  .\obj\uip_arp.obj (UIP_ARP)
  .\obj\muip.obj (MUIP)
  .\obj\cgi.obj (CGI)
  .\obj\cgiutil.obj (CGIUTIL)
  .\obj\challenge.obj (CHALLENGE)
BL51 BANKED LINKER/LOCATER V6.00                                                      11/05/2015  16:28:40  PAGE 2


  .\obj\cookie.obj (COOKIE)
  .\obj\httpd.obj (HTTPD)
  .\obj\application.obj (APPLICATION)
  .\obj\httpd_app.obj (HTTPD_APP)
  .\obj\checksum.obj (CHECKSUM)
  .\obj\loginCbk.obj (LOGINCBK)
  .\obj\errormsgCbk.obj (ERRORMSGCBK)
  .\obj\uartCbk.obj (UARTCBK)
  .\obj\telnetCbk.obj (TELNETCBK)
  .\obj\setDefCbk.obj (SETDEFCBK)
  .\obj\setIPCbk.obj (SETIPCBK)
  .\obj\setPASSCbk.obj (SETPASSCBK)
  .\obj\statusCbk.obj (STATUSCBK)
  .\obj\smtpCbk.obj (SMTPCBK)
  .\obj\fw_upCbk.obj (FW_UPCBK)
  .\obj\adcCbk.obj (ADCCBK)
  .\obj\udp_telCbk.obj (UDP_TELCBK)
  .\obj\didoCbk.obj (DIDOCBK)
  .\obj\CommandLine.obj (COMMANDLINE)
  .\obj\utility.obj (UTILITY)
  .\obj\udp.obj (UDP)
  .\obj\dhcpc.obj (DHCPC)
  .\obj\gpio.obj (GPIO)
  .\obj\dns.obj (DNS)
  .\obj\wdg.obj (WDG)
  .\obj\netuart_ctrl.obj (NETUART_CTRL)
  .\obj\dido.obj (DIDO)
  ..\..\Project\WebCtrl_flash\LIB\NETUART.LIB (NET_UART)
  ..\..\Project\WebCtrl_flash\LIB\UDP_TEL.LIB (UDP_TEL)
  .\obj\telnet.obj (TELNET)
  .\obj\net_cmd.obj (NET_CMD)
  .\obj\smtp.obj (SMTP)
  .\obj\base64.obj (BASE64)
  .\obj\cram_md5.obj (CRAM_MD5)
  .\obj\snmp_trap.obj (SNMP_TRAP)
  C:\KEIL\C51\LIB\C51L.LIB (?C_INIT)
  C:\KEIL\C51\LIB\C51L.LIB (?C?COPY)
  C:\KEIL\C51\LIB\C51L.LIB (?C?CLDPTR)
  C:\KEIL\C51\LIB\C51L.LIB (?C?CLDOPTR)
  C:\KEIL\C51\LIB\C51L.LIB (?C?CLDIOPTR)
  C:\KEIL\C51\LIB\C51L.LIB (?C?CILDPTR)
  C:\KEIL\C51\LIB\C51L.LIB (?C?CILDOPTR)
  C:\KEIL\C51\LIB\C51L.LIB (?C?CSTPTR)
  C:\KEIL\C51\LIB\C51L.LIB (?C?CSTOPTR)
  C:\KEIL\C51\LIB\C51L.LIB (?C?IMUL)
  C:\KEIL\C51\LIB\C51L.LIB (?C?UIDIV)
  C:\KEIL\C51\LIB\C51L.LIB (?C?SIDIV)
  C:\KEIL\C51\LIB\C51L.LIB (?C?IILDX)
  C:\KEIL\C51\LIB\C51L.LIB (?C?ILDIX)
  C:\KEIL\C51\LIB\C51L.LIB (?C?ILDPTR)
  C:\KEIL\C51\LIB\C51L.LIB (?C?ILDOPTR)
  C:\KEIL\C51\LIB\C51L.LIB (?C?IILDPTR)
  C:\KEIL\C51\LIB\C51L.LIB (?C?IILDOPTR)
  C:\KEIL\C51\LIB\C51L.LIB (?C?ISTPTR)
  C:\KEIL\C51\LIB\C51L.LIB (?C?ISTOPTR)
  C:\KEIL\C51\LIB\C51L.LIB (?C?LMUL)
  C:\KEIL\C51\LIB\C51L.LIB (?C?ULDIV)
BL51 BANKED LINKER/LOCATER V6.00                                                      11/05/2015  16:28:40  PAGE 3


  C:\KEIL\C51\LIB\C51L.LIB (?C?LNOT)
  C:\KEIL\C51\LIB\C51L.LIB (?C?SLCMP)
  C:\KEIL\C51\LIB\C51L.LIB (?C?ULCMP)
  C:\KEIL\C51\LIB\C51L.LIB (?C?ULSHR)
  C:\KEIL\C51\LIB\C51L.LIB (?C?LSHL)
  C:\KEIL\C51\LIB\C51L.LIB (?C?LLDPTR)
  C:\KEIL\C51\LIB\C51L.LIB (?C?LLDOPTR)
  C:\KEIL\C51\LIB\C51L.LIB (?C?LSTPTR)
  C:\KEIL\C51\LIB\C51L.LIB (?C?LSTOPTR)
  C:\KEIL\C51\LIB\C51L.LIB (?C?LLDPTR0)
  C:\KEIL\C51\LIB\C51L.LIB (?C?LLDIXDATA)
  C:\KEIL\C51\LIB\C51L.LIB (?C?LSTXDATA)
  C:\KEIL\C51\LIB\C51L.LIB (?C?LSTKXDATA)
  C:\KEIL\C51\LIB\C51L.LIB (?C?LSTKOPTR)
  C:\KEIL\C51\LIB\C51L.LIB (?C?OFFX256)
  C:\KEIL\C51\LIB\C51L.LIB (?C?OFFXADD)
  C:\KEIL\C51\LIB\C51L.LIB (?C?PLDPTR)
  C:\KEIL\C51\LIB\C51L.LIB (?C?PSTPTR)
  C:\KEIL\C51\LIB\C51L.LIB (?C?PLDOPTR)
  C:\KEIL\C51\LIB\C51L.LIB (?C?PSTOPTR)
  C:\KEIL\C51\LIB\C51L.LIB (?C?CCASE)
  C:\KEIL\C51\LIB\C51L.LIB (?C?ICASE)
  C:\KEIL\C51\LIB\C51L.LIB (?C?ICALL)
  C:\KEIL\C51\LIB\C51L.LIB (PRINTF)
  C:\KEIL\C51\LIB\C51L.LIB (RAND)
  C:\KEIL\C51\LIB\C51L.LIB (SCANF)
  C:\KEIL\C51\LIB\C51L.LIB (STRCAT)
  C:\KEIL\C51\LIB\C51L.LIB (?C?STRCMP)
  C:\KEIL\C51\LIB\C51L.LIB (STRNCMP)
  C:\KEIL\C51\LIB\C51L.LIB (?C?STRCPY)
  C:\KEIL\C51\LIB\C51L.LIB (STRLEN)
  C:\KEIL\C51\LIB\C51L.LIB (STRCHR)
  C:\KEIL\C51\LIB\C51L.LIB (STRCSPN)
  C:\KEIL\C51\LIB\C51L.LIB (ATOL)
  C:\KEIL\C51\LIB\C51L.LIB (ATOI)
  C:\KEIL\C51\LIB\C51L.LIB (?C?MEMCMP)
  C:\KEIL\C51\LIB\C51L.LIB (?C?MEMSET)
  C:\KEIL\C51\LIB\C51L.LIB (?C?LNEG)
  C:\KEIL\C51\LIB\C51L.LIB (?C?LLDIDATA)
  C:\KEIL\C51\LIB\C51L.LIB (?C?LLDXDATA)
  C:\KEIL\C51\LIB\C51L.LIB (?C?LLDPDATA)
  C:\KEIL\C51\LIB\C51L.LIB (?C?LLDCODE)
  C:\KEIL\C51\LIB\C51L.LIB (?C?LLDIDATA0)
  C:\KEIL\C51\LIB\C51L.LIB (?C?LLDXDATA0)
  C:\KEIL\C51\LIB\C51L.LIB (?C?LLDPDATA0)
  C:\KEIL\C51\LIB\C51L.LIB (?C?LLDCODE0)
  C:\KEIL\C51\LIB\C51L.LIB (?C?LSTIDATA)
  C:\KEIL\C51\LIB\C51L.LIB (?C?LSTPDATA)
  C:\KEIL\C51\LIB\C51L.LIB (?C?LSTKIDATA)
  C:\KEIL\C51\LIB\C51L.LIB (?C?LSTKPDATA)
  C:\KEIL\C51\LIB\C51L.LIB (?C?PLDIDATA)
  C:\KEIL\C51\LIB\C51L.LIB (?C?PSTIDATA)
  C:\KEIL\C51\LIB\C51L.LIB (?C?PLDXDATA)
  C:\KEIL\C51\LIB\C51L.LIB (?C?PLDIXDATA)
  C:\KEIL\C51\LIB\C51L.LIB (?C?PILDXDATA)
  C:\KEIL\C51\LIB\C51L.LIB (?C?PSTXDATA)
  C:\KEIL\C51\LIB\C51L.LIB (?C?PLDPDATA)
BL51 BANKED LINKER/LOCATER V6.00                                                      11/05/2015  16:28:40  PAGE 4


  C:\KEIL\C51\LIB\C51L.LIB (?C?PSTPDATA)
  C:\KEIL\C51\LIB\C51L.LIB (?C?PLDCODE)
  C:\KEIL\C51\LIB\C51L.LIB (PUTCHAR)
  C:\KEIL\C51\LIB\C51L.LIB (GETCHAR)
  C:\KEIL\C51\LIB\C51L.LIB (UNGETC)
  C:\KEIL\C51\LIB\C51L.LIB (ISDIGIT)
  C:\KEIL\C51\LIB\C51L.LIB (ISSPACE)
  C:\KEIL\C51\LIB\C51L.LIB (_GETKEY)


LINK MAP OF MODULE:  .\obj\NetUART (MAIN)


            TYPE    BASE      LENGTH    RELOCATION   SEGMENT NAME
            -----------------------------------------------------

            * * * * * * *   D A T A   M E M O R Y   * * * * * * *
            REG     0000H     0008H     ABSOLUTE     "REG BANK 0"
            DATA    0008H     0018H     ABSOLUTE     
            BIT     0020H.0   0005H.0   ABSOLUTE     
            BIT     0025H.0   0001H.1   UNIT         ?BI?PRINTF?PRINTF
            BIT     0026H.1   0000H.6   UNIT         ?BI?SCANF?SCANF
            BIT     0026H.7   0000H.1   UNIT         ?BI?_ATOL?ATOL
            BIT     0027H.0   0000H.1   UNIT         ?BI?_ATOI?ATOI
            BIT     0027H.1   0000H.1   UNIT         ?BI?GETCHAR
                    0027H.2   0000H.6                *** GAP ***
            DATA    0028H     0005H     UNIT         ?DT?PRINTF?PRINTF
            DATA    002DH     0001H     UNIT         ?BANK?DATA
                    002EH     0002H                  *** GAP ***
            DATA    0030H     0030H     ABSOLUTE     
            DATA    0060H     0005H     UNIT         ?DT?SCANF?SCANF
            IDATA   0065H     0001H     UNIT         ?STACK

            * * * * * * *  X D A T A   M E M O R Y  * * * * * * *
            XDATA   0000H     0D7FH     UNIT         ?XD?HTTPD
            XDATA   0D7FH     0A7FH     UNIT         ?XD?UIP
            XDATA   17FEH     0720H     UNIT         ?XD?EE_PROCESS
            XDATA   1F1EH     0608H     UNIT         ?XD?MUIP
            XDATA   2526H     0188H     UNIT         ?XD?BASE64
            XDATA   26AEH     0171H     UNIT         ?XD?HTMFILES3
            XDATA   281FH     0155H     UNIT         ?XD?SMTP
            XDATA   2974H     0100H     UNIT         ?XD?UIP_ARP
            XDATA   2A74H     00D7H     UNIT         ?XD?NET_CMD
            XDATA   2B4BH     00AAH     UNIT         ?XD?TELNET
            XDATA   2BF5H     00A5H     UNIT         ?XD?UART
            XDATA   2C9AH     0092H     UNIT         ?XD?NET_UART
            XDATA   2D2CH     007DH     UNIT         ?XD?COM_PORT_OPTION?NET_UART
            XDATA   2DA9H     0073H     UNIT         ?XD?_CGI_SMTP?SMTPCBK
            XDATA   2E1CH     0073H     UNIT         ?XD?CRAM_MD5
            XDATA   2E8FH     0067H     UNIT         ?XD?_SSI_SMTP?SMTPCBK
            XDATA   2EF6H     0067H     UNIT         ?XD?_SMTP_SEND_AUTH_ID_PW?SMTP
            XDATA   2F5DH     005CH     UNIT         ?XD?SMTP_SEND_MAILBODY?SMTP
            XDATA   2FB9H     005AH     UNIT         ?XD?UDP_TEL
            XDATA   3013H     0050H     UNIT         ?XD?FS
            XDATA   3063H     004BH     UNIT         ?XD?COMMAND_SETTING?COMMANDLINE
            XDATA   30AEH     0049H     UNIT         ?XD?COMMANDLINE
            XDATA   30F7H     003DH     UNIT         ?XD?NETCMD?NET_CMD
BL51 BANKED LINKER/LOCATER V6.00                                                      11/05/2015  16:28:40  PAGE 5


            XDATA   3134H     0033H     UNIT         ?XD?APPLICATION
            XDATA   3167H     0033H     UNIT         ?XD?_CGI_LOGIN?LOGINCBK
            XDATA   319AH     0030H     UNIT         ?XD?DIDO_DATA_CONFIG?DIDO
            XDATA   31CAH     002EH     UNIT         ?XD?SCANF?SCANF
            XDATA   31F8H     002AH     UNIT         ?XD?_SSI_UDP_TEL?UDP_TELCBK
            XDATA   3222H     0029H     UNIT         ?XD?DHCPC
            XDATA   324BH     0028H     UNIT         ?XD?PRINTF?PRINTF
            XDATA   3273H     0024H     UNIT         ?XD?_SSI_SETPASS?SETPASSCBK
            XDATA   3297H     0024H     UNIT         ?XD?_DNS_QUERY?DNS
            XDATA   32BBH     001DH     UNIT         ?XD?DHCPCSENDDISCOVER?DHCPC
            XDATA   32D8H     001BH     UNIT         ?XD?_DHCPCSENDREQUEST?DHCPC
            XDATA   32F3H     001AH     UNIT         ?XD?TELNETCBK
            XDATA   330DH     001AH     UNIT         ?XD?COMMAND_INFO?COMMANDLINE
            XDATA   3327H     001AH     UNIT         ?XD?ONLOGINACCOUNT?NET_CMD
            XDATA   3341H     0019H     UNIT         ?XD?UDP
            XDATA   335AH     0017H     UNIT         ?XD?DIDO
            XDATA   3371H     0016H     UNIT         ?XD?_VLAN_TAG_PKT?VTAG
            XDATA   3387H     0016H     UNIT         ?XD?_SSI_STATUS?STATUSCBK
            XDATA   339DH     0012H     UNIT         ?XD?COMMAND_TYPE?COMMANDLINE
            XDATA   33AFH     0011H     UNIT         ?XD?HTTP_SERVER?HTTPD
            XDATA   33C0H     0010H     UNIT         ?XD?_ETHERNETSEND?MACDRIVER
            XDATA   33D0H     0010H     UNIT         ?XD?LOGINCBK
            XDATA   33E0H     0010H     UNIT         ?XD?NUC_PROCESS_CMD?NETUART_CTRL
            XDATA   33F0H     000FH     UNIT         ?XD?KBHIT_EE_LOAD_DEFAULT?MAIN
            XDATA   33FFH     000FH     UNIT         ?XD?UARTCBK
            XDATA   340EH     000FH     UNIT         ?XD?_CGISTRCPY?SMTPCBK
            XDATA   341DH     000FH     UNIT         ?XD?_NUC_SEND?NETUART_CTRL
            XDATA   342CH     000EH     UNIT         ?XD?_SENDTVSETCOMMAND?APPLICATION
            XDATA   343AH     000EH     UNIT         ?XD?_CGI_DIDO?DIDOCBK
            XDATA   3448H     000EH     UNIT         ?XD?_HEX_2_ASC?COMMANDLINE
            XDATA   3456H     000EH     UNIT         ?XD?DIDO_TCP_RX_FUN?DIDO
            XDATA   3464H     000DH     UNIT         ?XD?_ETHERNETRECEIVE?MACDRIVER
            XDATA   3471H     000DH     UNIT         ?XD?_STRFIND?HTTPD_APP
            XDATA   347EH     000DH     UNIT         ?XD?_SENDUARTRX2ETH?TELNET
            XDATA   348BH     000DH     UNIT         ?XD?_CRC?NET_CMD
            XDATA   3498H     000CH     UNIT         ?XD?_SAVEMODULEINFO2EEPROM?EE_PROCESS
            XDATA   34A4H     000CH     UNIT         ?XD?HTTPD_HEADER_INIT?HTTPD_APP
            XDATA   34B0H     000CH     UNIT         ?XD?_CGI_UDP_TEL?UDP_TELCBK
            XDATA   34BCH     000CH     UNIT         ?XD?RE_RORN?COMMANDLINE
            XDATA   34C8H     000CH     UNIT         ?XD?CRC_OPERATION?NET_CMD
            XDATA   34D4H     000CH     UNIT         ?XD?MPPROCESS?NET_CMD
            XDATA   34E0H     000CH     UNIT         ?XD?_B64DEC?BASE64
            XDATA   34ECH     000CH     UNIT         ?XD?_CRAM_MD5?CRAM_MD5
            XDATA   34F8H     000BH     UNIT         ?XD?MACDRIVER
            XDATA   3503H     000BH     UNIT         ?XD?_UIP_CONNECT?UIP
            XDATA   350EH     000BH     UNIT         ?XD?_CGI_SETIP?SETIPCBK
            XDATA   3519H     000BH     UNIT         ?XD?_SSI_DIDO?DIDOCBK
            XDATA   3524H     000BH     UNIT         ?XD?DNS_UDP_RECEIVE?DNS
            XDATA   352FH     000AH     UNIT         ?XD?_UITOS?CGIUTIL
            XDATA   3539H     000AH     UNIT         ?XD?WITH_TAG_PAGE?CGIUTIL
            XDATA   3543H     000AH     UNIT         ?XD?_CGI_UART?UARTCBK
            XDATA   354DH     000AH     UNIT         ?XD?_SSI_SETIP?SETIPCBK
            XDATA   3557H     000AH     UNIT         ?XD?_CGI_ADC?ADCCBK
            XDATA   3561H     000AH     UNIT         ?XD?_B64ENC?BASE64
            XDATA   356BH     0009H     UNIT         ?XD?_IP210_DMA?DMA
            XDATA   3574H     0009H     UNIT         ?XD?OS_CBK
            XDATA   357DH     0009H     UNIT         ?XD?_FS_OPEN?FS
BL51 BANKED LINKER/LOCATER V6.00                                                      11/05/2015  16:28:40  PAGE 6


            XDATA   3586H     0009H     UNIT         ?XD?_UIP_ARP_UPDATE?UIP_ARP
            XDATA   358FH     0009H     UNIT         ?XD?_STOUI?CGIUTIL
            XDATA   3598H     0009H     UNIT         ?XD?CHALLENGE
            XDATA   35A1H     0009H     UNIT         ?XD?COOKIE
            XDATA   35AAH     0009H     UNIT         ?XD?APPLICATION?APPLICATION
            XDATA   35B3H     0009H     UNIT         ?XD?_CGI_TELNET?TELNETCBK
            XDATA   35BCH     0009H     UNIT         ?XD?_REPLACEDOUBLEQUOTES?SMTPCBK
            XDATA   35C5H     0009H     UNIT         ?XD?_UDP_INIT?UDP
            XDATA   35CEH     0009H     UNIT         ?XD?DNS
            XDATA   35D7H     0009H     UNIT         ?XD?_SET_BIT?UDP_TEL
            XDATA   35E0H     0009H     UNIT         ?XD?RESENDUARTRX2ETH?TELNET
            XDATA   35E9H     0009H     UNIT         ?XD?_STRCAT?STRCAT
            XDATA   35F2H     0009H     UNIT         ?XD?_STRCSPN?STRCSPN
            XDATA   35FBH     0008H     UNIT         ?XD?EEPROMLOADDEFAULT?EE_PROCESS
            XDATA   3603H     0008H     UNIT         ?XD?TIMER
            XDATA   360BH     0008H     UNIT         ?XD?FU_CHECK?HTMFILES0
            XDATA   3613H     0008H     UNIT         ?XD?HTTPD_PARSE_COOKIE?COOKIE
            XDATA   361BH     0008H     UNIT         ?XD?_UITOS3DIGITAL?APPLICATION
            XDATA   3623H     0008H     UNIT         ?XD?_CGI_RESET?ERRORMSGCBK
            XDATA   362BH     0008H     UNIT         ?XD?TELNETD?TELNET
            XDATA   3633H     0008H     UNIT         ?XD?CLEARUARTRXBUF?TELNET
            XDATA   363BH     0008H     UNIT         ?XD?CLEARUARTRXBUF_PARITYERROR?TELNET
            XDATA   3643H     0008H     UNIT         ?XD?GENCONNID?NET_CMD
            XDATA   364BH     0008H     UNIT         ?XD?_SENDLOGINRESULT?NET_CMD
            XDATA   3653H     0008H     UNIT         ?XD?_STRCAT_MAIL_TO?SMTP
            XDATA   365BH     0008H     UNIT         ?XD?_B64ENCODE?BASE64
            XDATA   3663H     0008H     UNIT         ?XD?_B64DECODE?BASE64
            XDATA   366BH     0008H     UNIT         ?XD?_STRNCMP?STRNCMP
            XDATA   3673H     0007H     UNIT         ?XD?_CATNETWORKCONFIGMSG?MAIN
            XDATA   367AH     0007H     UNIT         ?XD?_CHECK_PACKET_TYPE?MACDRIVER
            XDATA   3681H     0007H     UNIT         ?XD?_ETHERNETRECEIVELOOKAHEAD?MACDRIVER
            XDATA   3688H     0007H     UNIT         ?XD?CGIUTIL
            XDATA   368FH     0007H     UNIT         ?XD?_CGI_SETPASS?SETPASSCBK
            XDATA   3696H     0007H     UNIT         ?XD?_ASC_TO_HEX?UTILITY
            XDATA   369DH     0007H     UNIT         ?XD?CHECK_RFC2217_SIGNAL?NET_UART
            XDATA   36A4H     0007H     UNIT         ?XD?_UDP_TEL_GETIP?UDP_TEL
            XDATA   36ABH     0007H     UNIT         ?XD?_MODIFYMAIL?SMTP
            XDATA   36B2H     0007H     UNIT         ?XD?_ATOL?ATOL
            XDATA   36B9H     0006H     UNIT         ?XD?_FS_OPEN00?HTMFILES0
            XDATA   36BFH     0006H     UNIT         ?XD?_FS_OPEN01?HTMFILES1
            XDATA   36C5H     0006H     UNIT         ?XD?_FS_OPEN02?HTMFILES2
            XDATA   36CBH     0006H     UNIT         ?XD?_FS_OPEN03?HTMFILES3
            XDATA   36D1H     0006H     UNIT         ?XD?_FS_OPEN04?HTMFILES4
            XDATA   36D7H     0006H     UNIT         ?XD?_FS_OPEN05?HTMFILES5
            XDATA   36DDH     0006H     UNIT         ?XD?_FS_OPEN06?HTMFILES6
            XDATA   36E3H     0006H     UNIT         ?XD?_FS_OPEN07?HTMFILES7
            XDATA   36E9H     0006H     UNIT         ?XD?MUIP_SEND?MUIP
            XDATA   36EFH     0006H     UNIT         ?XD?UDP_RECEIVE?APPLICATION
            XDATA   36F5H     0006H     UNIT         ?XD?_FINDCOOKIE?HTTPD_APP
            XDATA   36FBH     0006H     UNIT         ?XD?_SSI_LOGIN?LOGINCBK
            XDATA   3701H     0006H     UNIT         ?XD?_SSI_TELNET?TELNETCBK
            XDATA   3707H     0006H     UNIT         ?XD?_CGI_STATUS?STATUSCBK
            XDATA   370DH     0006H     UNIT         ?XD?DHCPCCHECKINFO?DHCPC
            XDATA   3713H     0006H     UNIT         ?XD?UDP_TEL_UPDATA_IP_AVAL?UDP_TEL
            XDATA   3719H     0006H     UNIT         ?XD?UDP_TEL_RX?UDP_TEL
            XDATA   371FH     0006H     UNIT         ?XD?SEARCHEMPTYCONNTABLE?NET_CMD
            XDATA   3725H     0006H     UNIT         ?XD?EEP_READ_REQ?NET_CMD
BL51 BANKED LINKER/LOCATER V6.00                                                      11/05/2015  16:28:40  PAGE 7


            XDATA   372BH     0006H     UNIT         ?XD?EEP_WRITE_REQ?NET_CMD
            XDATA   3731H     0006H     UNIT         ?XD?UDP_NET_CMD?NET_CMD
            XDATA   3737H     0006H     UNIT         ?XD?_CRAM_MD5_ENCODE?CRAM_MD5
            XDATA   373DH     0006H     UNIT         ?XD?_CRAM_MD5_DECODE?CRAM_MD5
            XDATA   3743H     0005H     UNIT         ?XD?LOADEEPROM2MODULEINFO?EE_PROCESS
            XDATA   3748H     0005H     UNIT         ?XD?LOADEEPROM2EECONFIG?EE_PROCESS
            XDATA   374DH     0005H     UNIT         ?XD?_UART_TRANSMIT_MULTI?UART
            XDATA   3752H     0005H     UNIT         ?XD?VTAG
            XDATA   3757H     0005H     UNIT         ?XD?NETUART_CTRL
            XDATA   375CH     0005H     UNIT         ?XD?UDP_TEL_SEND_ONE_PKT?UDP_TEL
            XDATA   3761H     0005H     UNIT         ?XD?UDP_GET_DNS?UDP_TEL
            XDATA   3766H     0005H     UNIT         ?XD?TELNET_CONNECT?TELNET
            XDATA   376BH     0005H     UNIT         ?XD?_ATOI?ATOI
            XDATA   3770H     0004H     UNIT         ?XD?_UIP_PROCESS?UIP
            XDATA   3774H     0004H     UNIT         ?XD?FIBER_COVER2?APPLICATION
            XDATA   3778H     0004H     UNIT         ?XD?UIP_UDPCHKSUM?CHECKSUM
            XDATA   377CH     0004H     UNIT         ?XD?UIP_TCPCHKSUM?CHECKSUM
            XDATA   3780H     0004H     UNIT         ?XD?_CGI_SETDEF?SETDEFCBK
            XDATA   3784H     0004H     UNIT         ?XD?_CGI_FW_UP?FW_UPCBK
            XDATA   3788H     0004H     UNIT         ?XD?_CGI_FU_UP?FW_UPCBK
            XDATA   378CH     0004H     UNIT         ?XD?_DHCPCFOUNDTAG?DHCPC
            XDATA   3790H     0004H     UNIT         ?XD?_DNS_RESULT?DNS
            XDATA   3794H     0004H     UNIT         ?XD?WRITEETHRX2UART?TELNET
            XDATA   3798H     0004H     UNIT         ?XD?RESENDUARTRX2UART?TELNET
            XDATA   379CH     0004H     UNIT         ?XD?ONCHANNELREQUEST?NET_CMD
            XDATA   37A0H     0004H     UNIT         ?XD?SMTP?SMTP
            XDATA   37A4H     0004H     UNIT         ?XD?RAND?RAND
            XDATA   37A8H     0003H     UNIT         ?XD?MAIN
            XDATA   37ABH     0003H     UNIT         ?XD?_SETUP_BLUPGRADE?EE_PROCESS
            XDATA   37AEH     0003H     UNIT         ?XD?_EEPROM_READ_BYTE?EEPROM
            XDATA   37B1H     0003H     UNIT         ?XD?_ETHERNETSEND2?MACDRIVER
            XDATA   37B4H     0003H     UNIT         ?XD?_UART_RECEIVE_MULTI?UART
            XDATA   37B7H     0003H     UNIT         ?XD?_DATACPY00?HTMFILES0
            XDATA   37BAH     0003H     UNIT         ?XD?_DATACPY01?HTMFILES1
            XDATA   37BDH     0003H     UNIT         ?XD?_DATACPY02?HTMFILES2
            XDATA   37C0H     0003H     UNIT         ?XD?_DATACPY03?HTMFILES3
            XDATA   37C3H     0003H     UNIT         ?XD?_DATACPY04?HTMFILES4
            XDATA   37C6H     0003H     UNIT         ?XD?_DATACPY05?HTMFILES5
            XDATA   37C9H     0003H     UNIT         ?XD?_DATACPY06?HTMFILES6
            XDATA   37CCH     0003H     UNIT         ?XD?_DATACPY07?HTMFILES7
            XDATA   37CFH     0003H     UNIT         ?XD?_UIP_LOG?UIP
            XDATA   37D2H     0003H     UNIT         ?XD?UIP_ARP_OUT?UIP_ARP
            XDATA   37D5H     0003H     UNIT         ?XD?_HTTPD_CHECK_COOKIE?HTTPD
            XDATA   37D8H     0003H     UNIT         ?XD?_HTTPD_INIT_FILE?HTTPD_APP
            XDATA   37DBH     0003H     UNIT         ?XD?_SSI_ERRORMSG?ERRORMSGCBK
            XDATA   37DEH     0003H     UNIT         ?XD?_SSI_UART?UARTCBK
            XDATA   37E1H     0003H     UNIT         ?XD?_SSI_ADC?ADCCBK
            XDATA   37E4H     0003H     UNIT         ?XD?_UP2LWR?COMMANDLINE
            XDATA   37E7H     0003H     UNIT         ?XD?_UDP_SET_BUF?UDP
            XDATA   37EAH     0003H     UNIT         ?XD?DHCPCCLTPKTINIT?DHCPC
            XDATA   37EDH     0003H     UNIT         ?XD?DHCPC_UDP_RECEIVE?DHCPC
            XDATA   37F0H     0003H     UNIT         ?XD?_NUC_CHK_PW?NETUART_CTRL
            XDATA   37F3H     0003H     UNIT         ?XD?TELNET_RFC?NET_UART
            XDATA   37F6H     0003H     UNIT         ?XD?NEW_BLOCK_INIT?UDP_TEL
            XDATA   37F9H     0003H     UNIT         ?XD?TELNET_CONNECTED_INIT?TELNET
            XDATA   37FCH     0003H     UNIT         ?XD?_FINDSA?NET_CMD
            XDATA   37FFH     0003H     UNIT         ?XD?_SENDLOGINMD5KEY?NET_CMD
BL51 BANKED LINKER/LOCATER V6.00                                                      11/05/2015  16:28:40  PAGE 8


            XDATA   3802H     0003H     UNIT         ?XD?_B64ENCODE_ALLOC?BASE64
            XDATA   3805H     0003H     UNIT         ?XD?_B64DECODE_ALLOC?BASE64
            XDATA   3808H     0002H     UNIT         ?XD?EEPROMCHECKDATAAVAILABLE?EE_PROCESS
            XDATA   380AH     0002H     UNIT         ?XD?_FILL_DMA_SETTING?DMA
            XDATA   380CH     0002H     UNIT         ?XD?ETHERNETRECEIVESKIP?MACDRIVER
            XDATA   380EH     0002H     UNIT         ?XD?_UIP_ADD32?MACDRIVER
            XDATA   3810H     0002H     UNIT         ?XD?MDC_MDIO
            XDATA   3812H     0002H     UNIT         ?XD?HTTPD_SET_COOKIE?COOKIE
            XDATA   3814H     0002H     UNIT         ?XD?QUERYSTR_FUNC?HTTPD_APP
            XDATA   3816H     0002H     UNIT         ?XD?_HTTPD_COPY_DATA?HTTPD_APP
            XDATA   3818H     0002H     UNIT         ?XD?_UIP_CHKSUM?CHECKSUM
            XDATA   381AH     0002H     UNIT         ?XD?ADC_CONVERT?ADCCBK
            XDATA   381CH     0002H     UNIT         ?XD?ADCCBK
            XDATA   381EH     0002H     UNIT         ?XD?_UDP_SEND?UDP
            XDATA   3820H     0002H     UNIT         ?XD?WDG
            XDATA   3822H     0002H     UNIT         ?XD?READETH2UARTTXBUF?TELNET
            XDATA   3824H     0002H     UNIT         ?XD?UART_AUTO_SEND?TELNET
            XDATA   3826H     0002H     UNIT         ?XD?LOCALCMD?NET_CMD
            XDATA   3828H     0002H     UNIT         ?XD?ONLOGINREQUEST?NET_CMD
            XDATA   382AH     0002H     UNIT         ?XD?ONGPIOREQUEST?NET_CMD
            XDATA   382CH     0002H     UNIT         ?XD?SMTP_CHK_MAILTOTOTAL?SMTP
            XDATA   382EH     0001H     UNIT         ?XD?MAIN?MAIN
            XDATA   382FH     0001H     UNIT         ?XD?UART_EMPTY_RX_FIFO?UART
            XDATA   3830H     0001H     UNIT         ?XD?_WRITE_MDC?MDC_MDIO
            XDATA   3831H     0001H     UNIT         ?XD?CHECK_SPEED?OS_CBK
            XDATA   3832H     0001H     UNIT         ?XD?CHECKSUM
            XDATA   3833H     0001H     UNIT         ?XD?ERRORMSGCBK
            XDATA   3834H     0001H     UNIT         ?XD?SETIPCBK
            XDATA   3835H     0001H     UNIT         ?XD?UDP_TELCBK
            XDATA   3836H     0001H     UNIT         ?XD?NUC_ON_TCP_RX?NETUART_CTRL
            XDATA   3837H     0001H     UNIT         ?XD?DIDO_INIT?DIDO
            XDATA   3838H     0001H     UNIT         ?XD?_GET_BIT?UDP_TEL
            XDATA   3839H     0001H     UNIT         ?XD?UDP_TEL_INIT?UDP_TEL
            XDATA   383AH     0001H     UNIT         ?XD?_IP210_ISR_CTRL?TELNET
            XDATA   383BH     0001H     UNIT         ?XD?CHECKCONNID?NET_CMD
            XDATA   383CH     0001H     UNIT         ?XD?LOCALCMDTXPREFIX?NET_CMD
            XDATA   383DH     0001H     UNIT         ?XD?AGINGNETCMDCONNTABLE?NET_CMD
            XDATA   383EH     0001H     UNIT         ?XD?GETCHAR

            * * * * * * *   C O D E   M E M O R Y   * * * * * * *
            CODE    0000H     0003H     ABSOLUTE     
            CODE    0003H     0003H     ABSOLUTE     
            CODE    0006H     0002H     UNIT         ?CO?CGIUTIL
            CODE    0008H     0001H     UNIT         ?CO?CRAM_MD5
                    0009H     0002H                  *** GAP ***
            CODE    000BH     0003H     ABSOLUTE     
            CODE    000EH     003FH     UNIT         ?CO?DHCPC
                    004DH     0003H                  *** GAP ***
            CODE    0050H     0065H     ABSOLUTE     
            CODE    00B5H     0DB8H     UNIT         ?C?LIB_CODE
            CODE    0E6DH     0781H     UNIT         ?CO?EE_DEFAULT
            CODE    15EEH     0652H     UNIT         ?C_INITSEG
            CODE    1C40H     0365H     UNIT         ?PR?PRINTF?PRINTF
            CODE    1FA5H     0057H     UNIT         ?CO?TELNET
                    1FFCH     0004H                  *** GAP ***
            CODE    2000H     0616H     PAGE         ?BANK?SWITCH
            CODE    2616H     03DBH     UNIT         ?CO?COMMANDLINE
BL51 BANKED LINKER/LOCATER V6.00                                                      11/05/2015  16:28:40  PAGE 9


            CODE    29F1H     0322H     UNIT         ?PR?SCANF?SCANF
            CODE    2D13H     017BH     UNIT         ?CO?MAIN
            CODE    2E8EH     0138H     UNIT         ?CO?TELNETCBK
            CODE    2FC6H     0118H     UNIT         ?CO?HTTPD_APP
            CODE    30DEH     0115H     UNIT         ?CO?SMTP
            CODE    31F3H     0113H     UNIT         ?C_C51STARTUP
            CODE    3306H     010CH     UNIT         ?PR?_ATOL?ATOL
            CODE    3412H     00F7H     UNIT         ?CO?ERRORMSGCBK
            CODE    3509H     00E9H     UNIT         ?CO?HTTPD
            CODE    35F2H     00DBH     UNIT         ?PR?_ATOI?ATOI
            CODE    36CDH     00BCH     UNIT         ?CO?DIDO
            CODE    3789H     00A9H     UNIT         ?CO?SMTPCBK
            CODE    3832H     00A0H     UNIT         ?CO?UARTCBK
            CODE    38D2H     0081H     UNIT         ?PR?_STRCSPN?STRCSPN
            CODE    3953H     0076H     UNIT         ?PR?_STRNCMP?STRNCMP
            CODE    39C9H     006EH     UNIT         ?CO?APPLICATION
            CODE    3A37H     006EH     UNIT         ?CO?SETIPCBK
            CODE    3AA5H     006BH     UNIT         ?PR?_STRCAT?STRCAT
            CODE    3B10H     0061H     UNIT         ?CO?UDP_TELCBK
            CODE    3B71H     0052H     UNIT         ?CO?DIDOCBK
            CODE    3BC3H     004DH     UNIT         ?PR?RAND?RAND
            CODE    3C10H     004AH     UNIT         ?CO?NET_CMD
            CODE    3C5AH     0037H     UNIT         ?CO?LOGINCBK
            CODE    3C91H     0033H     UNIT         ?CO?STATUSCBK
            CODE    3CC4H     002BH     UNIT         ?CO?OS_CBK
            CODE    3CEFH     0029H     UNIT         ?BANK?SELECT
            CODE    3D18H     0027H     UNIT         ?PR?PUTCHAR?PUTCHAR
            CODE    3D3FH     0026H     UNIT         ?CO?MACDRIVER
            CODE    3D65H     0026H     UNIT         ?CO?SETPASSCBK
            CODE    3D8BH     001CH     UNIT         ?PR?_STRCHR?STRCHR
            CODE    3DA7H     0019H     UNIT         ?CO?ADCCBK
            CODE    3DC0H     0018H     UNIT         ?CO?NET_UART
            CODE    3DD8H     0015H     UNIT         ?PR?_STRLEN?STRLEN
            CODE    3DEDH     0014H     UNIT         ?CO?EE_PROCESS
            CODE    3E01H     0014H     UNIT         ?PR?GETCHAR?GETCHAR
            CODE    3E15H     0014H     UNIT         ?PR?_ISSPACE?ISSPACE
            CODE    3E29H     0013H     UNIT         ?CO?SETDEFCBK
            CODE    3E3CH     0010H     UNIT         ?CO?VTAG
            CODE    3E4CH     0010H     UNIT         ?CO?DNS
            CODE    3E5CH     000FH     UNIT         ?CO?FW_UPCBK
            CODE    3E6BH     000FH     UNIT         ?PR?_ISDIGIT?ISDIGIT
            CODE    3E7AH     000DH     UNIT         ?CO?COOKIE
            CODE    3E87H     000CH     UNIT         ?CO?UIP
            CODE    3E93H     000AH     UNIT         ?CO?NETUART_CTRL
            CODE    3E9DH     000AH     UNIT         ?PR?_GETKEY?_GETKEY
            CODE    3EA7H     0008H     UNIT         ?CO?UDP_TEL
            CODE    3EAFH     0008H     UNIT         ?PR?GETCHAR?UNGETCHAR
                    3EB7H     C129H                  *** GAP ***
            CODE    FFE0H     001BH     ABSOLUTE     
                    FFFBH     0002H                  *** GAP ***
            CODE    FFFDH     0003H     ABSOLUTE     

            * * * * * * *   C O D E   B A N K   0   * * * * * * *
                    0000H     5000H                  *** GAP ***
            BANK0   5000H     0077H     UNIT         ?CO?HTMFILES0
            BANK0   5077H     0178H     UNIT         ?PR?_FS_OPEN00?HTMFILES0
            BANK0   51EFH     00FCH     UNIT         ?PR?FU_CHECK?HTMFILES0
BL51 BANKED LINKER/LOCATER V6.00                                                      11/05/2015  16:28:40  PAGE 10


            BANK0   52EBH     0048H     UNIT         ?PR?_DATACPY00?HTMFILES0
            BANK0   5333H     0022H     UNIT         ?PR?_GET_TAG00?HTMFILES0
                    5355H     0CABH                  *** GAP ***
            BANK0   6000H     7FE0H     UNIT         ?CO?FIRMWARE_REV

            * * * * * * *   C O D E   B A N K   1   * * * * * * *
                    0000H     5000H                  *** GAP ***
            BANK1   5000H     000FH     UNIT         ?CO?HTMFILES1
            BANK1   500FH     1B19H     UNIT         ?PR?_UIP_PROCESS?UIP
            BANK1   6B28H     0DBDH     UNIT         ?PR?HTTP_SERVER?HTTPD
            BANK1   78E5H     0737H     UNIT         ?PR?WITH_TAG_PAGE?CGIUTIL
            BANK1   801CH     03D2H     UNIT         ?PR?_CGI_DIDO?DIDOCBK
            BANK1   83EEH     03A0H     UNIT         ?PR?APPLICATION?APPLICATION
            BANK1   878EH     0375H     UNIT         ?PR?_ETHERNETSEND?MACDRIVER
            BANK1   8B03H     036EH     UNIT         ?PR?_CGI_SETIP?SETIPCBK
            BANK1   8E71H     0361H     UNIT         ?PR?_CATNETWORKCONFIGMSG?MAIN
            BANK1   91D2H     0317H     UNIT         ?PR?_CGI_SETPASS?SETPASSCBK
            BANK1   94E9H     0307H     UNIT         ?PR?_CGI_LOGIN?LOGINCBK
            BANK1   97F0H     02A8H     UNIT         ?PR?_SSI_ERRORMSG?ERRORMSGCBK
            BANK1   9A98H     02A5H     UNIT         ?PR?MUIP_SEND?MUIP
            BANK1   9D3DH     0249H     UNIT         ?PR?_CGI_SMTP?SMTPCBK
            BANK1   9F86H     0242H     UNIT         ?PR?_SSI_SETIP?SETIPCBK
            BANK1   A1C8H     0241H     UNIT         ?PR?MUIP_PROCESS?MUIP
            BANK1   A409H     0232H     UNIT         ?PR?_SSI_DIDO?DIDOCBK
            BANK1   A63BH     0228H     UNIT         ?PR?_UIP_CONNECT?UIP
            BANK1   A863H     020DH     UNIT         ?PR?_ETHERNETRECEIVE?MACDRIVER
            BANK1   AA70H     020DH     UNIT         ?PR?HTTPD_HEADER_INIT?HTTPD_APP
            BANK1   AC7DH     01DEH     UNIT         ?PR?_FINDCOOKIE?HTTPD_APP
            BANK1   AE5BH     01A3H     UNIT         ?PR?HTTPD_DATA_PROCESSING?CGI
            BANK1   AFFEH     019BH     UNIT         ?PR?_CGISTRCPY?SMTPCBK
            BANK1   B199H     0178H     UNIT         ?PR?_FS_OPEN01?HTMFILES1
            BANK1   B311H     0178H     UNIT         ?PR?QUERYSTR_FUNC?HTTPD_APP
            BANK1   B489H     0162H     UNIT         ?PR?_SENDTVSETCOMMAND?APPLICATION
            BANK1   B5EBH     015BH     UNIT         ?PR?LAST_TAG_PAGE?CGIUTIL
            BANK1   B746H     0144H     UNIT         ?PR?_HTTPD_INIT_FILE?HTTPD_APP
            BANK1   B88AH     0143H     UNIT         ?PR?HTTPD_PARSE_COOKIE?COOKIE
            BANK1   B9CDH     013BH     UNIT         ?PR?_UITOS?CGIUTIL
            BANK1   BB08H     012EH     UNIT         ?PR?_CHECK_PACKET_TYPE?MACDRIVER
            BANK1   BC36H     0123H     UNIT         ?PR?_REPLACEDOUBLEQUOTES?SMTPCBK
            BANK1   BD59H     0112H     UNIT         ?PR?_STRFIND?HTTPD_APP
            BANK1   BE6BH     010BH     UNIT         ?PR?_ASC_TO_HEX?UTILITY
            BANK1   BF76H     00F8H     UNIT         ?PR?NETWORKCONFIG?MAIN
            BANK1   C06EH     00F8H     UNIT         ?PR?NO_TAG_PAGE?CGIUTIL
            BANK1   C166H     00F4H     UNIT         ?PR?_SSI_STATUS?STATUSCBK
            BANK1   C25AH     00F1H     UNIT         ?PR?_CGI_RESET?ERRORMSGCBK
            BANK1   C34BH     00EBH     UNIT         ?PR?_CGI_STATUS?STATUSCBK
            BANK1   C436H     00E6H     UNIT         ?PR?EEPROMLOADDEFAULT?EE_PROCESS
            BANK1   C51CH     00E6H     UNIT         ?PR?_CGI_FW_UP?FW_UPCBK
            BANK1   C602H     00E6H     UNIT         ?PR?_CGI_FU_UP?FW_UPCBK
            BANK1   C6E8H     00E4H     UNIT         ?PR?_FS_OPEN?FS
            BANK1   C7CCH     00DEH     UNIT         ?PR?KBHIT_EE_LOAD_DEFAULT?MAIN
            BANK1   C8AAH     00CCH     UNIT         ?PR?_SSI_SETPASS?SETPASSCBK
            BANK1   C976H     00C6H     UNIT         ?PR?_IP210_DMA?DMA
            BANK1   CA3CH     00C6H     UNIT         ?PR?TAG_ADDRESS_BIGGER_MSS?CGIUTIL
            BANK1   CB02H     00BEH     UNIT         ?PR?ON_TCP_RX?APPLICATION
            BANK1   CBC0H     00BCH     UNIT         ?PR?ETHERNETRECEIVESKIP?MACDRIVER
            BANK1   CC7CH     00B6H     UNIT         ?PR?_UITOS3DIGITAL?APPLICATION
BL51 BANKED LINKER/LOCATER V6.00                                                      11/05/2015  16:28:40  PAGE 11


            BANK1   CD32H     00B4H     UNIT         ?PR?_ETHERNETRECEIVELOOKAHEAD?MACDRIVER
            BANK1   CDE6H     00B0H     UNIT         ?PR?RE_INIT?VTAG
            BANK1   CE96H     00AFH     UNIT         ?PR?_HTTPD_CHECK_COOKIE?HTTPD
            BANK1   CF45H     00ACH     UNIT         ?PR?_VLAN_TAG_PKT?VTAG
            BANK1   CFF1H     00AAH     UNIT         ?PR?_SSI_LOGIN?LOGINCBK
            BANK1   D09BH     00A7H     UNIT         ?PR?CHECKPKTSEND?APPLICATION
            BANK1   D142H     009CH     UNIT         ?PR?_ETHERNETSEND2?MACDRIVER
            BANK1   D1DEH     0095H     UNIT         ?PR?_SAVEMODULEINFO2EEPROM?EE_PROCESS
            BANK1   D273H     0095H     UNIT         ?PR?UART_SET_PROPERTY?UART
            BANK1   D308H     008FH     UNIT         ?PR?HTTPD_SET_COOKIE?COOKIE
            BANK1   D397H     0089H     UNIT         ?PR?_STOUI?CGIUTIL
            BANK1   D420H     0085H     UNIT         ?PR?HTTPD_FILE_NOT_FOUND?HTTPD_APP
            BANK1   D4A5H     007EH     UNIT         ?PR?_UIP_ADD32?MACDRIVER
            BANK1   D523H     007BH     UNIT         ?PR?_SSI_SMTP?SMTPCBK
            BANK1   D59EH     0075H     UNIT         ?PR?EEPROMINIT?EE_PROCESS
            BANK1   D613H     0075H     UNIT         ?PR?LOADDEFAULT?OS_CBK
            BANK1   D688H     0071H     UNIT         ?PR?CHECK_VLAN_TAG?VTAG
            BANK1   D6F9H     0065H     UNIT         ?PR?MAIN?MAIN
            BANK1   D75EH     0064H     UNIT         ?PR?_SETUP_BLUPGRADE?EE_PROCESS
            BANK1   D7C2H     005FH     UNIT         ?PR?HTTPD_COPYDATA?HTTPD
            BANK1   D821H     005EH     UNIT         ?PR?_EEPROM_READ_BYTE?EEPROM
            BANK1   D87FH     005CH     UNIT         ?PR?HTTPD_CHALLENGEERROR?HTTPD_APP
            BANK1   D8DBH     005BH     UNIT         ?PR?_UIP_ADD_RCV_NXT?UIP
            BANK1   D936H     005BH     UNIT         ?PR?_HTTPD_COPY_DATA?HTTPD_APP
            BANK1   D991H     0059H     UNIT         ?PR?CHECK_SPEED?OS_CBK
            BANK1   D9EAH     0059H     UNIT         ?PR?UIP_INIT?UIP
            BANK1   DA43H     0058H     UNIT         ?PR?LOADEEPROM2MODULEINFO?EE_PROCESS
            BANK1   DA9BH     0058H     UNIT         ?PR?LOADEEPROM2EECONFIG?EE_PROCESS
            BANK1   DAF3H     0058H     UNIT         ?PR?FIBER_COVER2?APPLICATION
            BANK1   DB4BH     0056H     UNIT         ?PR?EEPROMCHECKDATAAVAILABLE?EE_PROCESS
            BANK1   DBA1H     0056H     UNIT         ?PR?IP210_WRITE_TIMER_COUNTER?TIMER
            BANK1   DBF7H     004FH     UNIT         ?PR?ETHERNETRECEIVEFREESPACE?MACDRIVER
            BANK1   DC46H     004BH     UNIT         ?PR?CHECK_MAC_STATUS?MACDRIVER
            BANK1   DC91H     004AH     UNIT         ?PR?EEPROMERR?ERRORMSGCBK
            BANK1   DCDBH     0049H     UNIT         ?PR?HTTPD_LOGIN_FAIL?HTTPD_APP
            BANK1   DD24H     0048H     UNIT         ?PR?_DATACPY01?HTMFILES1
            BANK1   DD6CH     0045H     UNIT         ?PR?_WRITE_MDC?MDC_MDIO
            BANK1   DDB1H     0043H     UNIT         ?PR?_UIP_UNLISTEN?UIP
            BANK1   DDF4H     0041H     UNIT         ?PR?_READ_MDC?MDC_MDIO
            BANK1   DE35H     0041H     UNIT         ?PR?HTTPD_LOGIN_PASS?HTTPD_APP
            BANK1   DE76H     0040H     UNIT         ?PR?_EEPROM_WRITE_BYTE?EEPROM
            BANK1   DEB6H     0040H     UNIT         ?PR?_UART_TRANSMIT_MULTI?UART
            BANK1   DEF6H     0040H     UNIT         ?PR?_UIP_LISTEN?UIP
            BANK1   DF36H     003DH     UNIT         ?PR?CHECK_FIRMWAREUPDATE?OS_CBK
            BANK1   DF73H     0030H     UNIT         ?PR?_HEX_TO_ASC?UTILITY
            BANK1   DFA3H     002FH     UNIT         ?PR?_UART_RECEIVE_MULTI?UART
            BANK1   DFD2H     002EH     UNIT         ?PR?_FILL_DMA_SETTING?DMA
            BANK1   E000H     002AH     UNIT         ?PR?MAC_INIT?MACDRIVER
            BANK1   E02AH     002AH     UNIT         ?PR?FIBER_COVER?APPLICATION
            BANK1   E054H     0029H     UNIT         ?PR?ENVLANCHECK?VTAG
            BANK1   E07DH     0028H     UNIT         ?PR?RESTORE_UIP_BUF?UIP
            BANK1   E0A5H     0028H     UNIT         ?PR?HTTPD_INIT?HTTPD
            BANK1   E0CDH     0025H     UNIT         ?PR?TFD_INDEX?MACDRIVER
            BANK1   E0F2H     0024H     UNIT         ?PR?GATEWAY_TIMER?OS_CBK
            BANK1   E116H     0023H     UNIT         ?PR?OS_LOOP_100MS?OS_CBK
            BANK1   E139H     0022H     UNIT         ?PR?_GET_TAG01?HTMFILES1
            BANK1   E15BH     0021H     UNIT         ?PR?MAC_ADDRESS_FILL?MACDRIVER
BL51 BANKED LINKER/LOCATER V6.00                                                      11/05/2015  16:28:40  PAGE 12


            BANK1   E17CH     0021H     UNIT         ?PR?IP_ADDRESS_FILL?MACDRIVER
            BANK1   E19DH     001FH     UNIT         ?PR?TIMER_COUNTER_OVERFLOW?TIMER
            BANK1   E1BCH     001DH     UNIT         ?PR?_RESIZE_RX_BUF?MACDRIVER
            BANK1   E1D9H     001DH     UNIT         ?PR?_CHG_UIP_BUF?UIP
            BANK1   E1F6H     001BH     UNIT         ?PR?WAIT_PACKET_SENT?MACDRIVER
            BANK1   E211H     001BH     UNIT         ?PR?UART_EMPTY_RX_FIFO?UART
            BANK1   E22CH     001AH     UNIT         ?PR?TIMERCOUNTER_INIT?TIMER
            BANK1   E246H     0018H     UNIT         ?PR?IP210_DMA_SET_IDLE?DMA
            BANK1   E25EH     0018H     UNIT         ?PR?_UART_SET_DIVISOR?UART
            BANK1   E276H     0018H     UNIT         ?PR?_GET_SYSTEM_PARAMETER?APPLICATION
            BANK1   E28EH     0017H     UNIT         ?PR?GETDEVICEID?EE_PROCESS
            BANK1   E2A5H     0016H     UNIT         ?PR?_DELAY0?MAIN
            BANK1   E2BBH     0015H     UNIT         ?PR?UDP_RECEIVE?APPLICATION
            BANK1   E2D0H     0014H     UNIT         ?PR?SERIAL_INIT?SERIAL
            BANK1   E2E4H     0013H     UNIT         ?PR?_UART_RECEIVE_BYTE?UART
            BANK1   E2F7H     0013H     UNIT         ?PR?_DELAY?UTILITY
            BANK1   E30AH     0012H     UNIT         ?PR?IP210_DMA_IDLE_RESTORE?DMA
            BANK1   E31CH     0012H     UNIT         ?PR?_SERIAL_CHECK_RX?SERIAL
            BANK1   E32EH     000FH     UNIT         ?PR?OS_LOOP?OS_CBK
            BANK1   E33DH     000FH     UNIT         ?PR?MUIP_INIT?MUIP
            BANK1   E34CH     000FH     UNIT         ?PR?IP210_SWRESET?UTILITY
            BANK1   E35BH     000EH     UNIT         ?PR?TIMER2_INIT?TIMER
            BANK1   E369H     000CH     UNIT         ?PR?TIMER0_INIT?TIMER
            BANK1   E375H     000CH     UNIT         ?PR?_UIP_LOG?UIP
            BANK1   E381H     000BH     UNIT         ?PR?SERIAL_POLLING_RX?SERIAL
            BANK1   E38CH     000BH     UNIT         ?PR?OS_INITIAL?OS_CBK
            BANK1   E397H     000AH     UNIT         ?PR?IP210_WAIT_DMA_COMPLETE?DMA
            BANK1   E3A1H     0008H     UNIT         ?PR?GETCH2?MAIN
            BANK1   E3A9H     0008H     UNIT         ?PR?EEPROM_ENABLE?EEPROM
            BANK1   E3B1H     0008H     UNIT         ?PR?UART_SET_RTS?UART
            BANK1   E3B9H     0008H     UNIT         ?PR?UART_CLEAR_RTS?UART
            BANK1   E3C1H     0008H     UNIT         ?PR?CPUINIT?UTILITY
            BANK1   E3C9H     0006H     UNIT         ?PR?UART_TX_FIFO_STATUS?UART
            BANK1   E3CFH     0006H     UNIT         ?PR?UART_RX_FIFO_STATUS?UART
            BANK1   E3D5H     0006H     UNIT         ?PR?_UART_TRANSMIT_BYTE?UART
            BANK1   E3DBH     0006H     UNIT         ?PR?GETTVSTATE?APPLICATION
            BANK1   E3E1H     0003H     UNIT         ?PR?TIMERCOUNTER0_INIT?TIMER
            BANK1   E3E4H     0001H     UNIT         ?PR?FLASHLED?MAIN
            BANK1   E3E5H     0001H     UNIT         ?PR?UDP_XMIT?UIP

            * * * * * * *   C O D E   B A N K   2   * * * * * * *
                    0000H     5000H                  *** GAP ***
            BANK2   5000H     000FH     UNIT         ?CO?HTMFILES2
            BANK2   500FH     09D3H     UNIT         ?PR?CLEARUARTRXBUF?TELNET
            BANK2   59E2H     096FH     UNIT         ?PR?COM_PORT_OPTION?NET_UART
            BANK2   6351H     08F2H     UNIT         ?PR?_CGI_TELNET?TELNETCBK
            BANK2   6C43H     05D7H     UNIT         ?PR?TELNETD?TELNET
            BANK2   721AH     04A7H     UNIT         ?PR?RESENDUARTRX2ETH?TELNET
            BANK2   76C1H     03B6H     UNIT         ?PR?SMTP_SEND_MAILBODY?SMTP
            BANK2   7A77H     03AEH     UNIT         ?PR?_SSI_TELNET?TELNETCBK
            BANK2   7E25H     0397H     UNIT         ?PR?_SENDUARTRX2ETH?TELNET
            BANK2   81BCH     0347H     UNIT         ?PR?UDP_TEL_SEND_ONE_PKT?UDP_TEL
            BANK2   8503H     033CH     UNIT         ?PR?_DNS_QUERY?DNS
            BANK2   883FH     0336H     UNIT         ?PR?READETH2UARTTXBUF?TELNET
            BANK2   8B75H     0304H     UNIT         ?PR?TELNET_RFC?NET_UART
            BANK2   8E79H     02D0H     UNIT         ?PR?CLEARUARTRXBUF_PARITYERROR?TELNET
            BANK2   9149H     02BCH     UNIT         ?PR?RESENDUARTRX2UART?TELNET
BL51 BANKED LINKER/LOCATER V6.00                                                      11/05/2015  16:28:40  PAGE 13


            BANK2   9405H     02A7H     UNIT         ?PR?UDP_TEL_INIT?UDP_TEL
            BANK2   96ACH     0284H     UNIT         ?PR?UDP_GET_DNS?UDP_TEL
            BANK2   9930H     025BH     UNIT         ?PR?WRITEETHRX2UART?TELNET
            BANK2   9B8BH     0252H     UNIT         ?PR?NUC_PROCESS_CMD?NETUART_CTRL
            BANK2   9DDDH     0250H     UNIT         ?PR?SMTP?SMTP
            BANK2   A02DH     021DH     UNIT         ?PR?UDP_TEL_RX?UDP_TEL
            BANK2   A24AH     01F0H     UNIT         ?PR?_UDP_SEND?UDP
            BANK2   A43AH     01EDH     UNIT         ?PR?_NUC_SEND?NETUART_CTRL
            BANK2   A627H     01E9H     UNIT         ?PR?UDP_TEL_CHK_SEND?UDP_TEL
            BANK2   A810H     01DEH     UNIT         ?PR?TELNET_INIT_COM?TELNET
            BANK2   A9EEH     0178H     UNIT         ?PR?_FS_OPEN02?HTMFILES2
            BANK2   AB66H     014FH     UNIT         ?PR?_UDP_TEL_GETIP?UDP_TEL
            BANK2   ACB5H     014CH     UNIT         ?PR?_B64ENC?BASE64
            BANK2   AE01H     014AH     UNIT         ?PR?DHCPCCHECKINFO?DHCPC
            BANK2   AF4BH     0148H     UNIT         ?PR?_CGI_UART?UARTCBK
            BANK2   B093H     0148H     UNIT         ?PR?_DHCPCSENDREQUEST?DHCPC
            BANK2   B1DBH     0135H     UNIT         ?PR?DHCPCCLTPKTINIT?DHCPC
            BANK2   B310H     0134H     UNIT         ?PR?DNS_UDP_RECEIVE?DNS
            BANK2   B444H     012CH     UNIT         ?PR?_B64DEC?BASE64
            BANK2   B570H     0112H     UNIT         ?PR?_CRAM_MD5?CRAM_MD5
            BANK2   B682H     0109H     UNIT         ?PR?TELNET_CONNECT?TELNET
            BANK2   B78BH     0103H     UNIT         ?PR?UDP_TEL_UPDATA_IP_AVAL?UDP_TEL
            BANK2   B88EH     00FDH     UNIT         ?PR?REVERSE_TELNET_ON_TCP_RX?TELNET
            BANK2   B98BH     00D3H     UNIT         ?PR?CHECK_RFC2217_SIGNAL?NET_UART
            BANK2   BA5EH     00D1H     UNIT         ?PR?NETUARTONTCPRX?NET_UART
            BANK2   BB2FH     00C9H     UNIT         ?PR?DHCPCTIMER?DHCPC
            BANK2   BBF8H     00C9H     UNIT         ?PR?SMTP_TIMER?SMTP
            BANK2   BCC1H     00C1H     UNIT         ?PR?NEW_BLOCK_INIT?UDP_TEL
            BANK2   BD82H     00B6H     UNIT         ?PR?SMTP_CHK_MAILTOTOTAL?SMTP
            BANK2   BE38H     00B1H     UNIT         ?PR?_DHCPCFOUNDTAG?DHCPC
            BANK2   BEE9H     00B1H     UNIT         ?PR?DHCPCSENDDISCOVER?DHCPC
            BANK2   BF9AH     00ADH     UNIT         ?PR?UDP_LEARN_IP?UDP_TEL
            BANK2   C047H     00AAH     UNIT         ?PR?NUC_ON_TCP_RX?NETUART_CTRL
            BANK2   C0F1H     00A9H     UNIT         ?PR?UART_AUTO_SEND?TELNET
            BANK2   C19AH     00A9H     UNIT         ?PR?_SMTP_SEND_AUTH_ID_PW?SMTP
            BANK2   C243H     00A7H     UNIT         ?PR?_STRCAT_MAIL_TO?SMTP
            BANK2   C2EAH     00A3H     UNIT         ?PR?SMTP_SEND_CMD_MAIL?SMTP
            BANK2   C38DH     00A0H     UNIT         ?PR?DHCPC_UDP_RECEIVE?DHCPC
            BANK2   C42DH     009FH     UNIT         ?PR?_SET_BIT?UDP_TEL
            BANK2   C4CCH     009EH     UNIT         ?PR?SMTP_SEND_CMD_HELO?SMTP
            BANK2   C56AH     009DH     UNIT         ?PR?RFC_LOOP?NET_UART
            BANK2   C607H     0093H     UNIT         ?PR?TELNET_SERVER_TIMEOUT?TELNET
            BANK2   C69AH     008FH     UNIT         ?PR?TELNET_CONNECTED_INIT?TELNET
            BANK2   C729H     008CH     UNIT         ?PR?SMTP_SEND_CMD_RCPT?SMTP
            BANK2   C7B5H     007BH     UNIT         ?PR?NETUARTTIMER?NET_UART
            BANK2   C830H     007AH     UNIT         ?PR?_DNS_RESULT?DNS
            BANK2   C8AAH     0079H     UNIT         ?PR?SMTP_SEND_MAILBODY_END?SMTP
            BANK2   C923H     0073H     UNIT         ?PR?SMTP_INIT?SMTP
            BANK2   C996H     0072H     UNIT         ?PR?SMTP_SEND_PACKET?SMTP
            BANK2   CA08H     0071H     UNIT         ?PR?DHCPCAPPLYIP?DHCPC
            BANK2   CA79H     0070H     UNIT         ?PR?_B64ENCODE?BASE64
            BANK2   CAE9H     0070H     UNIT         ?PR?_B64DECODE?BASE64
            BANK2   CB59H     0065H     UNIT         ?PR?_B64ENCODE_ALLOC?BASE64
            BANK2   CBBEH     0064H     UNIT         ?PR?DHCPCRECEIVEACK?DHCPC
            BANK2   CC22H     005DH     UNIT         ?PR?_MODIFYMAIL?SMTP
            BANK2   CC7FH     005DH     UNIT         ?PR?SMTP_SEND_STARTTLS?SMTP
            BANK2   CCDCH     005DH     UNIT         ?PR?SMTP_SEND_CMD_DATA?SMTP
BL51 BANKED LINKER/LOCATER V6.00                                                      11/05/2015  16:28:40  PAGE 14


            BANK2   CD39H     005DH     UNIT         ?PR?SMTP_SEND_CMD_QUIT?SMTP
            BANK2   CD96H     005DH     UNIT         ?PR?SMTP_SEND_CMD_AUTH?SMTP
            BANK2   CDF3H     0057H     UNIT         ?PR?UDP_PROCESS?UDP
            BANK2   CE4AH     0055H     UNIT         ?PR?_CRAM_MD5_DECODE?CRAM_MD5
            BANK2   CE9FH     0051H     UNIT         ?PR?_SSI_UART?UARTCBK
            BANK2   CEF0H     004FH     UNIT         ?PR?_B64DECODE_ALLOC?BASE64
            BANK2   CF3FH     004EH     UNIT         ?PR?_UDP_INIT?UDP
            BANK2   CF8DH     004EH     UNIT         ?PR?SMTP_CHECK_MAIL?SMTP
            BANK2   CFDBH     0048H     UNIT         ?PR?_DATACPY02?HTMFILES2
            BANK2   D023H     0042H     UNIT         ?PR?UDP_TEL_TIMER?UDP_TEL
            BANK2   D065H     0041H     UNIT         ?PR?_UDP_SET_BUF?UDP
            BANK2   D0A6H     0041H     UNIT         ?PR?NETUARTINIT?NET_UART
            BANK2   D0E7H     003EH     UNIT         ?PR?_CRAM_MD5_ENCODE?CRAM_MD5
            BANK2   D125H     0036H     UNIT         ?PR?SMTPONTCPRX?SMTP
            BANK2   D15BH     0031H     UNIT         ?PR?NUC_ON_LOOP?NETUART_CTRL
            BANK2   D18CH     002EH     UNIT         ?PR?DHCPCINIT?DHCPC
            BANK2   D1BAH     002EH     UNIT         ?PR?_SMTP_SEND_MAIL?SMTP
            BANK2   D1E8H     002CH     UNIT         ?PR?_NUC_CHK_PW?NETUART_CTRL
            BANK2   D214H     002BH     UNIT         ?PR?DHCPCRECEIVEOFFER?DHCPC
            BANK2   D23FH     002AH     UNIT         ?PR?TELNETD_LISTEN?TELNET
            BANK2   D269H     0028H     UNIT         ?PR?TELNETD_CLOSE?TELNET
            BANK2   D291H     0022H     UNIT         ?PR?_GET_TAG02?HTMFILES2
            BANK2   D2B3H     0021H     UNIT         ?PR?NETUARTTELNETCLOSE?NET_UART
            BANK2   D2D4H     001EH     UNIT         ?PR?CHECK_SIGNAL_CHANGE_OP?NETUART_CTRL
            BANK2   D2F2H     001DH     UNIT         ?PR?NETUARTLOOP?NET_UART
            BANK2   D30FH     001DH     UNIT         ?PR?SMTP_CONNECT?SMTP
            BANK2   D32CH     001DH     UNIT         ?PR?_B64ENCODE_LEN?BASE64
            BANK2   D349H     0019H     UNIT         ?PR?_B64DECODE_LEN?BASE64
            BANK2   D362H     0017H     UNIT         ?PR?NUC_INIT?NETUART_CTRL
            BANK2   D379H     0016H     UNIT         ?PR?_GET_BIT?UDP_TEL
            BANK2   D38FH     0016H     UNIT         ?PR?CHECK_RS485?TELNET
            BANK2   D3A5H     0011H     UNIT         ?PR?TELNET_CLOSE?TELNET
            BANK2   D3B6H     0010H     UNIT         ?PR?TELNET_INIT?TELNET
            BANK2   D3C6H     000DH     UNIT         ?PR?WATCHDOGTIMERENABLE?WDG
            BANK2   D3D3H     000AH     UNIT         ?PR?CHECK_210?NET_UART
            BANK2   D3DDH     000AH     UNIT         ?PR?UART_RS485_UPDATE_TXCONTROL?TELNET
            BANK2   D3E7H     0007H     UNIT         ?PR?DHCPCRECEIVENACK?DHCPC
            BANK2   D3EEH     0007H     UNIT         ?PR?WATCHDOGTIMERRESET?WDG
            BANK2   D3F5H     0007H     UNIT         ?PR?WATCHDOGTIMERINIT?WDG
            BANK2   D3FCH     0006H     UNIT         ?PR?_IP210_ISR_CTRL?TELNET
            BANK2   D402H     0003H     UNIT         ?PR?WATCHDOGTIMERDISABLE?WDG
            BANK2   D405H     0003H     UNIT         ?PR?TELNETD_INIT?TELNET
            BANK2   D408H     0003H     UNIT         ?PR?TELNET?TELNET
            BANK2   D40BH     0001H     UNIT         ?PR?IP210_UART_ISR_PROCESS?TELNET

            * * * * * * *   C O D E   B A N K   3   * * * * * * *
                    0000H     5000H                  *** GAP ***
            BANK3   5000H     AA07H     UNIT         ?CO?HTMFILES3
            BANK3   FA07H     0178H     UNIT         ?PR?_FS_OPEN03?HTMFILES3
            BANK3   FB7FH     0048H     UNIT         ?PR?_DATACPY03?HTMFILES3
            BANK3   FBC7H     0022H     UNIT         ?PR?_GET_TAG03?HTMFILES3

            * * * * * * *   C O D E   B A N K   4   * * * * * * *
                    0000H     5000H                  *** GAP ***
            BANK4   5000H     0283H     UNIT         ?CO?HTMFILES4
            BANK4   5283H     0178H     UNIT         ?PR?_FS_OPEN04?HTMFILES4
            BANK4   53FBH     0048H     UNIT         ?PR?_DATACPY04?HTMFILES4
BL51 BANKED LINKER/LOCATER V6.00                                                      11/05/2015  16:28:40  PAGE 15


            BANK4   5443H     0022H     UNIT         ?PR?_GET_TAG04?HTMFILES4
            BANK4   5465H     0003H     UNIT         ?PR?FUU_RUN?HTMFILES4

            * * * * * * *   C O D E   B A N K   5   * * * * * * *
                    0000H     5000H                  *** GAP ***
            BANK5   5000H     000FH     UNIT         ?CO?HTMFILES5
            BANK5   500FH     09F6H     UNIT         ?PR?NETCMD?NET_CMD
            BANK5   5A05H     06DBH     UNIT         ?PR?DIDO_DATA_CONFIG?DIDO
            BANK5   60E0H     02C1H     UNIT         ?PR?UIP_TCPCHKSUM?CHECKSUM
            BANK5   63A1H     0283H     UNIT         ?PR?DIDO_TCP_RX_FUN?DIDO
            BANK5   6624H     021CH     UNIT         ?PR?MPPROCESS?NET_CMD
            BANK5   6840H     01F2H     UNIT         ?PR?ONLOGINACCOUNT?NET_CMD
            BANK5   6A32H     01B9H     UNIT         ?PR?UIP_UDPCHKSUM?CHECKSUM
            BANK5   6BEBH     0178H     UNIT         ?PR?_FS_OPEN05?HTMFILES5
            BANK5   6D63H     0146H     UNIT         ?PR?ONLOGINREQUEST?NET_CMD
            BANK5   6EA9H     0134H     UNIT         ?PR?UDP_NET_CMD?NET_CMD
            BANK5   6FDDH     0126H     UNIT         ?PR?_CGI_UDP_TEL?UDP_TELCBK
            BANK5   7103H     011FH     UNIT         ?PR?EEP_READ_REQ?NET_CMD
            BANK5   7222H     0115H     UNIT         ?PR?EEP_WRITE_REQ?NET_CMD
            BANK5   7337H     0104H     UNIT         ?PR?_CGI_ADC?ADCCBK
            BANK5   743BH     00F2H     UNIT         ?PR?_CRC?NET_CMD
            BANK5   752DH     00E0H     UNIT         ?PR?CRC_OPERATION?NET_CMD
            BANK5   760DH     00AAH     UNIT         ?PR?ADC_CONVERT?ADCCBK
            BANK5   76B7H     009FH     UNIT         ?PR?LOCALCMDTXPREFIX?NET_CMD
            BANK5   7756H     0096H     UNIT         ?PR?ONGPIOREQUEST?NET_CMD
            BANK5   77ECH     0094H     UNIT         ?PR?GENCONNID?NET_CMD
            BANK5   7880H     008AH     UNIT         ?PR?AGINGNETCMDCONNTABLE?NET_CMD
            BANK5   790AH     0087H     UNIT         ?PR?_SSI_UDP_TEL?UDP_TELCBK
            BANK5   7991H     0083H     UNIT         ?PR?EN_LOOPBACK?NET_CMD
            BANK5   7A14H     0080H     UNIT         ?PR?NETCMDSEND?NET_CMD
            BANK5   7A94H     0080H     UNIT         ?PR?DIS_LOOPBACK?NET_CMD
            BANK5   7B14H     007DH     UNIT         ?PR?CRC_INFO?NET_CMD
            BANK5   7B91H     007BH     UNIT         ?PR?CHECKCONNID?NET_CMD
            BANK5   7C0CH     0071H     UNIT         ?PR?_UIP_CHKSUM?CHECKSUM
            BANK5   7C7DH     0070H     UNIT         ?PR?_CGI_SETDEF?SETDEFCBK
            BANK5   7CEDH     006AH     UNIT         ?PR?_SENDLOGINRESULT?NET_CMD
            BANK5   7D57H     0065H     UNIT         ?PR?LOCALCMD?NET_CMD
            BANK5   7DBCH     0064H     UNIT         ?PR?_DIDO_READ?DIDO
            BANK5   7E20H     005BH     UNIT         ?PR?_SENDLOGINMD5KEY?NET_CMD
            BANK5   7E7BH     005AH     UNIT         ?PR?ONCHANNELREQUEST?NET_CMD
            BANK5   7ED5H     0055H     UNIT         ?PR?_DIDO_WRITE?DIDO
            BANK5   7F2AH     0055H     UNIT         ?PR?_FINDSA?NET_CMD
            BANK5   7F7FH     0055H     UNIT         ?PR?RESET_DEVICE_REQ?NET_CMD
            BANK5   7FD4H     0052H     UNIT         ?PR?NETCMDONTCPRX?NET_CMD
            BANK5   8026H     004FH     UNIT         ?PR?_SSI_ADC?ADCCBK
            BANK5   8075H     004DH     UNIT         ?PR?DIDO_INIT?DIDO
            BANK5   80C2H     0048H     UNIT         ?PR?_DATACPY05?HTMFILES5
            BANK5   810AH     0038H     UNIT         ?PR?_ONCHANNELREQUESTACK?NET_CMD
            BANK5   8142H     002BH     UNIT         ?PR?NETCMDINIT?NET_CMD
            BANK5   816DH     0027H     UNIT         ?PR?_ONGPIOREQUESTACK?NET_CMD
            BANK5   8194H     0026H     UNIT         ?PR?UIP_IPCHKSUM?CHECKSUM
            BANK5   81BAH     0022H     UNIT         ?PR?_GET_TAG05?HTMFILES5
            BANK5   81DCH     001BH     UNIT         ?PR?SEARCHEMPTYCONNTABLE?NET_CMD
            BANK5   81F7H     0007H     UNIT         ?PR?DIDO_SEND?DIDO
            BANK5   81FEH     0003H     UNIT         ?PR?NETCMDTIMER?NET_CMD
            BANK5   8201H     0001H     UNIT         ?PR?SENDACCESSGPIOACK?NET_CMD
            BANK5   8202H     0001H     UNIT         ?PR?ONACCESSGPIOREQ?NET_CMD
BL51 BANKED LINKER/LOCATER V6.00                                                      11/05/2015  16:28:40  PAGE 16



            * * * * * * *   C O D E   B A N K   6   * * * * * * *
                    0000H     5000H                  *** GAP ***
            BANK6   5000H     000FH     UNIT         ?CO?HTMFILES6
            BANK6   500FH     305BH     UNIT         ?PR?COMMAND_SETTING?COMMANDLINE
            BANK6   806AH     0964H     UNIT         ?PR?COMMAND_TYPE?COMMANDLINE
            BANK6   89CEH     02ECH     UNIT         ?PR?UIP_ARP_OUT?UIP_ARP
            BANK6   8CBAH     029FH     UNIT         ?PR?COMMAND_INFO?COMMANDLINE
            BANK6   8F59H     022CH     UNIT         ?PR?CLI_TIMER?COMMANDLINE
            BANK6   9185H     01E6H     UNIT         ?PR?UIP_ARP_ARPIN?UIP_ARP
            BANK6   936BH     01CEH     UNIT         ?PR?_UIP_ARP_UPDATE?UIP_ARP
            BANK6   9539H     0178H     UNIT         ?PR?_FS_OPEN06?HTMFILES6
            BANK6   96B1H     013CH     UNIT         ?PR?ATD_LOOP?COMMANDLINE
            BANK6   97EDH     013AH     UNIT         ?PR?GATEWAY_MAC_REQ?UIP_ARP
            BANK6   9927H     013AH     UNIT         ?PR?_HEX_2_ASC?COMMANDLINE
            BANK6   9A61H     00AAH     UNIT         ?PR?RE_RORN?COMMANDLINE
            BANK6   9B0BH     00A9H     UNIT         ?PR?UIP_ARP_IPIN?UIP_ARP
            BANK6   9BB4H     0072H     UNIT         ?PR?UIP_ARP_TIMER?UIP_ARP
            BANK6   9C26H     0051H     UNIT         ?PR?CLI_INIT?COMMANDLINE
            BANK6   9C77H     004EH     UNIT         ?PR?_UP2LWR?COMMANDLINE
            BANK6   9CC5H     0048H     UNIT         ?PR?_DATACPY06?HTMFILES6
            BANK6   9D0DH     0037H     UNIT         ?PR?UIP_ARP_INIT?UIP_ARP
            BANK6   9D44H     0022H     UNIT         ?PR?_GET_TAG06?HTMFILES6
            BANK6   9D66H     0001H     UNIT         ?PR?HELP?COMMANDLINE

            * * * * * * *   C O D E   B A N K   7   * * * * * * *
                    0000H     5000H                  *** GAP ***
            BANK7   5000H     000FH     UNIT         ?CO?HTMFILES7
            BANK7   500FH     0178H     UNIT         ?PR?_FS_OPEN07?HTMFILES7
            BANK7   5187H     0048H     UNIT         ?PR?_DATACPY07?HTMFILES7
            BANK7   51CFH     0022H     UNIT         ?PR?_GET_TAG07?HTMFILES7



INTERBANK CALL TABLE OF MODULE:  .\obj\NetUART (MAIN)

ADDRESS    FUNCTION NAME
------------------------
 235EH     NETUARTLOOP
 2363H     WATCHDOGTIMERRESET
 2368H     FU_CHECK
 236DH     IP210_UART_ISR_PROCESS
 2372H     FUU_RUN
 2377H     GATEWAY_MAC_REQ
 237CH     CHECK_RS485
 2381H     CLI_TIMER
 2386H     UDP_TEL_TIMER
 238BH     TELNET_SERVER_TIMEOUT
 2390H     NUC_ON_LOOP
 2395H     RFC_LOOP
 239AH     WRITEETHRX2UART
 239FH     _UDP_INIT
 23A4H     _FS_OPEN00
 23A9H     _DATACPY00
 23AEH     _GET_TAG00
 23B3H     _FS_OPEN01
 23B8H     _DATACPY01
BL51 BANKED LINKER/LOCATER V6.00                                                      11/05/2015  16:28:40  PAGE 17


 23BDH     _GET_TAG01
 23C2H     _FS_OPEN02
 23C7H     _DATACPY02
 23CCH     _GET_TAG02
 23D1H     _FS_OPEN03
 23D6H     _DATACPY03
 23DBH     _GET_TAG03
 23E0H     _FS_OPEN04
 23E5H     _DATACPY04
 23EAH     _GET_TAG04
 23EFH     _FS_OPEN05
 23F4H     _DATACPY05
 23F9H     _GET_TAG05
 23FEH     _FS_OPEN06
 2403H     _DATACPY06
 2408H     _GET_TAG06
 240DH     _FS_OPEN07
 2412H     _DATACPY07
 2417H     _GET_TAG07
 241CH     _SSI_LOGIN
 2421H     _SSI_ERRORMSG
 2426H     _SSI_STATUS
 242BH     _SSI_SETIP
 2430H     _SSI_SETPASS
 2435H     _SSI_UART
 243AH     _SSI_TELNET
 243FH     _SSI_SMTP
 2444H     _SSI_ADC
 2449H     _SSI_UDP_TEL
 244EH     _SSI_DIDO
 2453H     _CGI_LOGIN
 2458H     _CGI_STATUS
 245DH     _CGI_RESET
 2462H     _CGI_SETDEF
 2467H     _CGI_SETIP
 246CH     _CGI_SETPASS
 2471H     _CGI_UART
 2476H     _CGI_TELNET
 247BH     _CGI_SMTP
 2480H     _CGI_ADC
 2485H     _CGI_UDP_TEL
 248AH     _CGI_DIDO
 248FH     _CGI_FW_UP
 2494H     _CGI_FU_UP
 2499H     UIP_TCPCHKSUM
 249EH     UIP_IPCHKSUM
 24A3H     CLEARUARTRXBUF
 24A8H     NETUARTINIT
 24ADH     CHECK_210
 24B2H     UIP_ARP_OUT
 24B7H     DNS_UDP_RECEIVE
 24BCH     DHCPC_UDP_RECEIVE
 24C1H     UDP_TEL_RX
 24C6H     UDP_NET_CMD
 24CBH     NETUARTONTCPRX
 24D0H     NETCMDONTCPRX
 24D5H     SMTPONTCPRX
BL51 BANKED LINKER/LOCATER V6.00                                                      11/05/2015  16:28:40  PAGE 18


 24DAH     NUC_ON_TCP_RX
 24DFH     DIDO_TCP_RX_FUN
 24E4H     UIP_ARP_INIT
 24E9H     DIDO_INIT
 24EEH     DHCPCINIT
 24F3H     SMTP_INIT
 24F8H     NETCMDINIT
 24FDH     NUC_INIT
 2502H     CLI_INIT
 2507H     UART_AUTO_SEND
 250CH     LOCALCMD
 2511H     UIP_ARP_IPIN
 2516H     UIP_ARP_ARPIN
 251BH     UDP_PROCESS
 2520H     NETUARTTIMER
 2525H     NETCMDTIMER
 252AH     SMTP_CHECK_MAIL
 252FH     SMTP_TIMER
 2534H     DHCPCTIMER
 2539H     UIP_ARP_TIMER
 253EH     _SENDTVSETCOMMAND
 2543H     _FS_OPEN
 2548H     _HTTPD_INIT_FILE
 254DH     EEPROMLOADDEFAULT
 2552H     EEPROMERR
 2557H     _DIDO_READ
 255CH     _DIDO_WRITE
 2561H     _UART_TRANSMIT_MULTI
 2566H     _IP210_ISR_CTRL
 256BH     _SAVEMODULEINFO2EEPROM
 2570H     UDP_GET_DNS
 2575H     _EEPROM_WRITE_BYTE
 257AH     _EEPROM_READ_BYTE
 257FH     _HEX_TO_ASC
 2584H     _ASC_TO_HEX
 2589H     UART_SET_PROPERTY
 258EH     UART_CLEAR_RTS
 2593H     WATCHDOGTIMERINIT
 2598H     WATCHDOGTIMERENABLE
 259DH     UDP_RECEIVE
 25A2H     UIP_UDPCHKSUM
 25A7H     _CATNETWORKCONFIGMSG
 25ACH     _STOUI
 25B1H     _UIP_LISTEN
 25B6H     _UP2LWR
 25BBH     _CHG_UIP_BUF
 25C0H     _ETHERNETSEND
 25C5H     RESTORE_UIP_BUF
 25CAH     CHECKPKTSEND
 25CFH     _UIP_UNLISTEN
 25D4H     _UIP_CONNECT
 25D9H     UART_RX_FIFO_STATUS
 25DEH     UART_SET_RTS
 25E3H     _UART_RECEIVE_MULTI
 25E8H     RE_RORN
 25EDH     UART_TX_FIFO_STATUS
 25F2H     COMMAND_TYPE
BL51 BANKED LINKER/LOCATER V6.00                                                      11/05/2015  16:28:40  PAGE 19


 25F7H     _IP210_DMA
 25FCH     _UIP_PROCESS
 2601H     MUIP_SEND
 2606H     _UDP_SEND
 260BH     GETDEVICEID
 2610H     MAIN



SYMBOL TABLE OF MODULE:  .\obj\NetUART (MAIN)

  VALUE           TYPE          NAME
  ----------------------------------

  -------         MODULE        MAIN
  C:0000H         SYMBOL        _ICE_DUMMY_
  D:0080H         PUBLIC        P0
  D:0090H         PUBLIC        P1
 C1:E2A5H         PUBLIC        _Delay0
  D:00A0H         PUBLIC        P2
  D:00B0H         PUBLIC        P3
  D:00E8H         PUBLIC        P4
  B:00D8H.1       PUBLIC        WDTEN
  B:00A8H.7       PUBLIC        EA
  D:00DAH         PUBLIC        OUTPUTEN
  D:00A8H         PUBLIC        IE
  D:00B8H         PUBLIC        IP
  B:0098H.0       PUBLIC        RI
  B:0098H.1       PUBLIC        TI
 C1:D6F9H         PUBLIC        main
 C1:E3E4H         PUBLIC        flashLed
  B:00D8H.3       PUBLIC        WDT_DIS
  D:0099H         PUBLIC        SBUF
  D:0098H         PUBLIC        SCON
  D:0089H         PUBLIC        TMOD
  D:0088H         PUBLIC        TCON
  X:37A8H         PUBLIC        led_status
 C1:E3A1H         PUBLIC        getch2
  C:2E80H         SYMBOL        _?ix1000
  C:2E87H         SYMBOL        _?ix1001
 C1:BF76H         PUBLIC        NetworkConfig
  X:37AAH         PUBLIC        MODE_TYPE
  D:008CH         PUBLIC        TH0
  D:008AH         PUBLIC        TL0
  D:00D8H         PUBLIC        WDTCON
  B:0088H.4       PUBLIC        TR0
  D:00C8H         PUBLIC        T2CON
 C1:C7CCH         PUBLIC        Kbhit_EE_Load_Default
 C1:8E71H         PUBLIC        _CatNetworkConfigMsg
  D:00D0H         PUBLIC        PSW

  -------         PROC BANK=1   _CATNETWORKCONFIGMSG
  X:3673H         SYMBOL        Msg
  X:3676H         SYMBOL        endl
  -------         DO            
  X:3679H         SYMBOL        i
  -------         ENDDO         
BL51 BANKED LINKER/LOCATER V6.00                                                      11/05/2015  16:28:40  PAGE 20


 C1:8E71H         LINE#         60
 C1:8E7CH         LINE#         61
 C1:8E7CH         LINE#         64
 C1:8EC8H         LINE#         65
 C1:8F13H         LINE#         66
 C1:8F18H         LINE#         67
 C1:8F18H         LINE#         68
 C1:8F5DH         LINE#         69
 C1:8F69H         LINE#         71
 C1:8F6CH         LINE#         88
 C1:8FEFH         LINE#         89
 C1:9072H         LINE#         90
 C1:90F5H         LINE#         92
 C1:90F8H         LINE#         97
 C1:917BH         LINE#         98
  -------         ENDPROC       _CATNETWORKCONFIGMSG

  -------         PROC BANK=1   NETWORKCONFIG
  -------         DO            
  D:0006H         SYMBOL        i
  -------         ENDDO         
 C1:BF76H         LINE#         102
 C1:BF76H         LINE#         103
 C1:BF76H         LINE#         106
 C1:BF79H         LINE#         107
 C1:BF79H         LINE#         108
 C1:BF91H         LINE#         109
 C1:BF9CH         LINE#         110
 C1:BFAEH         LINE#         111
 C1:BFC0H         LINE#         112
 C1:BFD2H         LINE#         113
 C1:BFE4H         LINE#         114
 C1:BFF6H         LINE#         115
 C1:C008H         LINE#         116
 C1:C01AH         LINE#         117
 C1:C02CH         LINE#         119
 C1:C044H         LINE#         120
 C1:C060H         LINE#         121
  -------         ENDPROC       NETWORKCONFIG

  -------         PROC BANK=1   _DELAY0
  D:0006H         SYMBOL        H
 C1:E2A5H         LINE#         125
 C1:E2A5H         LINE#         126
 C1:E2A5H         LINE#         127
 C1:E2B4H         LINE#         128
 C1:E2B4H         LINE#         129
 C1:E2B7H         LINE#         130
 C1:E2B7H         LINE#         131
 C1:E2B8H         LINE#         132
 C1:E2BAH         LINE#         133
  -------         ENDPROC       _DELAY0

  -------         PROC BANK=1   GETCH2
  -------         DO            
  D:0007H         SYMBOL        a
  -------         ENDDO         
BL51 BANKED LINKER/LOCATER V6.00                                                      11/05/2015  16:28:40  PAGE 21


 C1:E3A1H         LINE#         134
 C1:E3A1H         LINE#         135
 C1:E3A1H         LINE#         136
 C1:E3A4H         LINE#         137
 C1:E3A6H         LINE#         138
 C1:E3A8H         LINE#         139
 C1:E3A8H         LINE#         140
  -------         ENDPROC       GETCH2

  -------         PROC BANK=1   KBHIT_EE_LOAD_DEFAULT
  -------         DO            
  X:33F0H         SYMBOL        keyword
  X:33F7H         SYMBOL        cur_type
  X:33FEH         SYMBOL        i
  -------         ENDDO         
 C1:C7CCH         LINE#         142
 C1:C7CCH         LINE#         143
 C1:C7CCH         LINE#         144
 C1:C7D3H         LINE#         145
 C1:C7D9H         LINE#         146
 C1:C7D9H         LINE#         147
 C1:C7E8H         LINE#         148
 C1:C7E8H         LINE#         149
 C1:C7E8H         LINE#         150
 C1:C7F1H         LINE#         151
 C1:C7F4H         LINE#         152
 C1:C7F7H         LINE#         153
 C1:C7F7H         LINE#         154
 C1:C7F7H         LINE#         155
 C1:C7F7H         LINE#         156
 C1:C80AH         LINE#         157
 C1:C81DH         LINE#         158
 C1:C823H         LINE#         159
 C1:C838H         LINE#         160
 C1:C838H         LINE#         161
 C1:C838H         LINE#         162
 C1:C84DH         LINE#         163
 C1:C84DH         LINE#         164
 C1:C85CH         LINE#         165
 C1:C862H         LINE#         166
 C1:C862H         LINE#         167
 C1:C871H         LINE#         168
 C1:C887H         LINE#         169
 C1:C897H         LINE#         170
 C1:C897H         LINE#         171
 C1:C897H         LINE#         172
 C1:C8A0H         LINE#         173
 C1:C8A9H         LINE#         174
 C1:C8A9H         LINE#         175
 C1:C8A9H         LINE#         176
 C1:C8A9H         LINE#         177
  -------         ENDPROC       KBHIT_EE_LOAD_DEFAULT

  -------         PROC BANK=1   FLASHLED
 C1:E3E4H         LINE#         186
 C1:E3E4H         LINE#         187
 C1:E3E4H         LINE#         203
BL51 BANKED LINKER/LOCATER V6.00                                                      11/05/2015  16:28:40  PAGE 22


  -------         ENDPROC       FLASHLED

  -------         PROC BANK=1   MAIN
  -------         DO            
  X:382EH         SYMBOL        RXFIFO_START
  -------         ENDDO         
 C1:D6F9H         LINE#         225
 C1:D6F9H         LINE#         226
 C1:D6F9H         LINE#         227
 C1:D6FFH         LINE#         229
 C1:D701H         LINE#         230
 C1:D704H         LINE#         231
 C1:D707H         LINE#         232
 C1:D70AH         LINE#         234
 C1:D70CH         LINE#         235
 C1:D70EH         LINE#         240
 C1:D711H         LINE#         241
 C1:D711H         LINE#         242
 C1:D714H         LINE#         243
 C1:D717H         LINE#         245
 C1:D719H         LINE#         246
 C1:D71BH         LINE#         249
 C1:D71EH         LINE#         250
 C1:D721H         LINE#         252
 C1:D724H         LINE#         256
 C1:D727H         LINE#         257
 C1:D72AH         LINE#         258
 C1:D733H         LINE#         260
 C1:D736H         LINE#         262
 C1:D739H         LINE#         269
 C1:D746H         LINE#         273
 C1:D746H         LINE#         274
 C1:D74DH         LINE#         275
 C1:D74DH         LINE#         278
 C1:D755H         LINE#         280
 C1:D758H         LINE#         289
 C1:D75BH         LINE#         293
  -------         ENDPROC       MAIN
  -------         ENDMOD        MAIN

  -------         MODULE        PATCH_INFO
  N:0100H         SYMBOL        EE_LENGTH
  N:0002H         SYMBOL        SIZE_EEAPP_ID
  N:0002H         SYMBOL        SIZE_EECHIP_ID
  C:FFE0H         SYMBOL        _PATCH_INFO
  -------         ENDMOD        PATCH_INFO

  -------         MODULE        EE_PROCESS
  C:0000H         SYMBOL        _ICE_DUMMY_
  D:0090H         PUBLIC        P1
  D:00B0H         PUBLIC        P3
 C1:E28EH         PUBLIC        GetDeviceID
  D:00A8H         PUBLIC        IE
 C1:C436H         PUBLIC        EEPROMLoadDefault
  D:00B8H         PUBLIC        IP
 C1:D75EH         PUBLIC        _Setup_BLUpgrade
 C1:DB4BH         PUBLIC        EEPROMCheckDataAvailable
BL51 BANKED LINKER/LOCATER V6.00                                                      11/05/2015  16:28:40  PAGE 23


  D:0098H         PUBLIC        SCON
  D:0088H         PUBLIC        TCON
  X:17FEH         PUBLIC        EE_Reserved_0
  X:1806H         PUBLIC        web_def
  D:00D8H         PUBLIC        WDTCON
 C1:D59EH         PUBLIC        EEPROMInit
 C1:DA9BH         SYMBOL        LoadEEPROM2EEConfig
  D:00C8H         PUBLIC        T2CON
 C1:D1DEH         PUBLIC        _SaveModuleInfo2EEPROM
  X:1807H         PUBLIC        need_load_default
  X:1808H         PUBLIC        EE_Result
  X:1809H         PUBLIC        EEConfigInfo
  X:184CH         PUBLIC        ModuleInfo
 C1:DA43H         SYMBOL        LoadEEPROM2ModuleInfo
  D:00D0H         PUBLIC        PSW

  -------         PROC BANK=1   GETDEVICEID
 C1:E28EH         LINE#         71
 C1:E28EH         LINE#         72
 C1:E28EH         LINE#         73
 C1:E2A4H         LINE#         74
  -------         ENDPROC       GETDEVICEID

  -------         PROC BANK=1   LOADEEPROM2MODULEINFO
  -------         DO            
  X:3743H         SYMBOL        i
  X:3745H         SYMBOL        p
  -------         ENDDO         
 C1:DA43H         LINE#         90
 C1:DA43H         LINE#         91
 C1:DA43H         LINE#         96
 C1:DA51H         LINE#         98
 C1:DA58H         LINE#         99
 C1:DA58H         LINE#         100
 C1:DA79H         LINE#         101
 C1:DA79H         LINE#         103
 C1:DA7BH         LINE#         104
 C1:DA7BH         LINE#         105
 C1:DA98H         LINE#         117
 C1:DA9AH         LINE#         118
  -------         ENDPROC       LOADEEPROM2MODULEINFO

  -------         PROC BANK=1   _SAVEMODULEINFO2EEPROM
  X:3498H         SYMBOL        pSubModule
  X:349BH         SYMBOL        size
  -------         DO            
  X:349DH         SYMBOL        i
  X:349FH         SYMBOL        pu8SubMoudle
  X:34A2H         SYMBOL        loc_EESubMoudle
  -------         ENDDO         
 C1:D1DEH         LINE#         135
 C1:D1F1H         LINE#         136
 C1:D1F1H         LINE#         138
 C1:D1FCH         LINE#         139
 C1:D219H         LINE#         140
 C1:D234H         LINE#         141
 C1:D270H         LINE#         142
BL51 BANKED LINKER/LOCATER V6.00                                                      11/05/2015  16:28:40  PAGE 24


 C1:D272H         LINE#         143
  -------         ENDPROC       _SAVEMODULEINFO2EEPROM

  -------         PROC BANK=1   _SETUP_BLUPGRADE
  X:37ABH         SYMBOL        uip_hostaddr
 C1:D75EH         LINE#         146
 C1:D769H         LINE#         147
 C1:D769H         LINE#         148
 C1:D774H         LINE#         149
 C1:D78DH         LINE#         150
 C1:D7A6H         LINE#         151
 C1:D7BFH         LINE#         153
 C1:D7C1H         LINE#         154
  -------         ENDPROC       _SETUP_BLUPGRADE

  -------         PROC BANK=1   LOADEEPROM2EECONFIG
  -------         DO            
  X:3748H         SYMBOL        i
  X:374AH         SYMBOL        p
  -------         ENDDO         
 C1:DA9BH         LINE#         173
 C1:DA9BH         LINE#         174
 C1:DA9BH         LINE#         178
 C1:DAA9H         LINE#         180
 C1:DAB0H         LINE#         181
 C1:DAB0H         LINE#         182
 C1:DAD1H         LINE#         183
 C1:DAD1H         LINE#         185
 C1:DAD3H         LINE#         186
 C1:DAD3H         LINE#         187
 C1:DAF0H         LINE#         249
 C1:DAF2H         LINE#         250
  -------         ENDPROC       LOADEEPROM2EECONFIG

  -------         PROC BANK=1   EEPROMCHECKDATAAVAILABLE
  -------         DO            
  X:3808H         SYMBOL        eebyte
  X:3809H         SYMBOL        i
  -------         ENDDO         
 C1:DB4BH         LINE#         273
 C1:DB4BH         LINE#         274
 C1:DB4BH         LINE#         280
 C1:DB51H         LINE#         307
 C1:DB60H         LINE#         308
 C1:DB60H         LINE#         309
 C1:DB6EH         LINE#         310
 C1:DB6EH         LINE#         312
 C1:DB72H         LINE#         313
 C1:DB74H         LINE#         314
 C1:DB74H         LINE#         316
 C1:DB8AH         LINE#         317
 C1:DB8AH         LINE#         318
 C1:DB93H         LINE#         319
 C1:DB96H         LINE#         320
 C1:DB96H         LINE#         321
 C1:DB9EH         LINE#         324
 C1:DBA0H         LINE#         326
BL51 BANKED LINKER/LOCATER V6.00                                                      11/05/2015  16:28:40  PAGE 25


  -------         ENDPROC       EEPROMCHECKDATAAVAILABLE

  -------         PROC BANK=1   EEPROMLOADDEFAULT
  -------         DO            
  X:35FBH         SYMBOL        i
  X:35FDH         SYMBOL        p
  X:3600H         SYMBOL        pEE_Reserved_0
  -------         ENDDO         
 C1:C436H         LINE#         344
 C1:C436H         LINE#         345
 C1:C436H         LINE#         351
 C1:C444H         LINE#         352
 C1:C452H         LINE#         353
 C1:C46CH         LINE#         354
 C1:C46CH         LINE#         355
 C1:C472H         LINE#         356
 C1:C48BH         LINE#         358
 C1:C4A3H         LINE#         359
 C1:C4B2H         LINE#         360
 C1:C4B2H         LINE#         361
 C1:C4B5H         LINE#         362
 C1:C4D8H         LINE#         363
 C1:C4D8H         LINE#         365
 C1:C4DBH         LINE#         366
 C1:C4DBH         LINE#         367
 C1:C4DBH         LINE#         368
 C1:C4DBH         LINE#         369
 C1:C4DEH         LINE#         370
 C1:C4FFH         LINE#         371
 C1:C4FFH         LINE#         373
 C1:C502H         LINE#         374
 C1:C502H         LINE#         375
 C1:C502H         LINE#         376
 C1:C505H         LINE#         377
 C1:C519H         LINE#         380
 C1:C51BH         LINE#         381
  -------         ENDPROC       EEPROMLOADDEFAULT

  -------         PROC BANK=1   EEPROMINIT
 C1:D59EH         LINE#         402
 C1:D59EH         LINE#         403
 C1:D59EH         LINE#         406
 C1:D5A1H         LINE#         408
 C1:D5A7H         LINE#         409
 C1:D5A7H         LINE#         410
 C1:D5ADH         LINE#         411
 C1:D5ADH         LINE#         412
 C1:D5B1H         LINE#         414
 C1:D5C3H         LINE#         415
 C1:D5C3H         LINE#         417
 C1:D5C9H         LINE#         418
 C1:D5C9H         LINE#         419
 C1:D5CDH         LINE#         421
 C1:D5E0H         LINE#         422
 C1:D5E0H         LINE#         424
 C1:D5E0H         LINE#         425
 C1:D5E0H         LINE#         428
BL51 BANKED LINKER/LOCATER V6.00                                                      11/05/2015  16:28:40  PAGE 26


 C1:D5F3H         LINE#         430
 C1:D606H         LINE#         431
 C1:D60CH         LINE#         432
 C1:D60CH         LINE#         436
 C1:D612H         LINE#         441
 C1:D612H         LINE#         442
 C1:D612H         LINE#         444
  -------         ENDPROC       EEPROMINIT
  -------         ENDMOD        EE_PROCESS

  -------         MODULE        FIRMWARE_REV
  C:0000H         SYMBOL        _ICE_DUMMY_
 C0:6000H         PUBLIC        FWARE_REV
  -------         ENDMOD        FIRMWARE_REV

  -------         MODULE        ?BANK?SWITCHING
  C:3CEFH         SEGMENT       ?BANK?SELECT
  D:002DH         SEGMENT       ?BANK?DATA
  C:2000H         SEGMENT       ?BANK?SWITCH
  C:205EH         PUBLIC        ?B_BANK0
  C:2076H         PUBLIC        ?B_BANK1
  C:214EH         PUBLIC        ?B_BANK10
  C:2166H         PUBLIC        ?B_BANK11
  C:217EH         PUBLIC        ?B_BANK12
  C:2196H         PUBLIC        ?B_BANK13
  C:21AEH         PUBLIC        ?B_BANK14
  C:21C6H         PUBLIC        ?B_BANK15
  C:21DEH         PUBLIC        ?B_BANK16
  C:21F6H         PUBLIC        ?B_BANK17
  C:220EH         PUBLIC        ?B_BANK18
  C:2226H         PUBLIC        ?B_BANK19
  C:208EH         PUBLIC        ?B_BANK2
  C:223EH         PUBLIC        ?B_BANK20
  C:2256H         PUBLIC        ?B_BANK21
  C:226EH         PUBLIC        ?B_BANK22
  C:2286H         PUBLIC        ?B_BANK23
  C:229EH         PUBLIC        ?B_BANK24
  C:22B6H         PUBLIC        ?B_BANK25
  C:22CEH         PUBLIC        ?B_BANK26
  C:22E6H         PUBLIC        ?B_BANK27
  C:22FEH         PUBLIC        ?B_BANK28
  C:2316H         PUBLIC        ?B_BANK29
  C:20A6H         PUBLIC        ?B_BANK3
  C:232EH         PUBLIC        ?B_BANK30
  C:2346H         PUBLIC        ?B_BANK31
  C:20BEH         PUBLIC        ?B_BANK4
  C:20D6H         PUBLIC        ?B_BANK5
  C:20EEH         PUBLIC        ?B_BANK6
  C:2106H         PUBLIC        ?B_BANK7
  C:211EH         PUBLIC        ?B_BANK8
  C:2136H         PUBLIC        ?B_BANK9
  D:002DH         PUBLIC        ?B_CURRENTBANK
  N:0000H         PUBLIC        ?B_FACTOR
  N:001FH         PUBLIC        ?B_MASK
  N:0004H         PUBLIC        ?B_MODE
  N:0020H         PUBLIC        ?B_NBANKS
  N:00FFH         PUBLIC        ?B_RST_BANK
BL51 BANKED LINKER/LOCATER V6.00                                                      11/05/2015  16:28:40  PAGE 27


  C:2000H         PUBLIC        ?B_SWITCH0
  C:2002H         PUBLIC        ?B_SWITCH1
  C:201CH         PUBLIC        ?B_SWITCH10
  C:201FH         PUBLIC        ?B_SWITCH11
  C:2022H         PUBLIC        ?B_SWITCH12
  C:2025H         PUBLIC        ?B_SWITCH13
  C:2028H         PUBLIC        ?B_SWITCH14
  C:202BH         PUBLIC        ?B_SWITCH15
  C:202EH         PUBLIC        ?B_SWITCH16
  C:2031H         PUBLIC        ?B_SWITCH17
  C:2034H         PUBLIC        ?B_SWITCH18
  C:2037H         PUBLIC        ?B_SWITCH19
  C:2004H         PUBLIC        ?B_SWITCH2
  C:203AH         PUBLIC        ?B_SWITCH20
  C:203DH         PUBLIC        ?B_SWITCH21
  C:2040H         PUBLIC        ?B_SWITCH22
  C:2043H         PUBLIC        ?B_SWITCH23
  C:2046H         PUBLIC        ?B_SWITCH24
  C:2049H         PUBLIC        ?B_SWITCH25
  C:204CH         PUBLIC        ?B_SWITCH26
  C:204FH         PUBLIC        ?B_SWITCH27
  C:2052H         PUBLIC        ?B_SWITCH28
  C:2055H         PUBLIC        ?B_SWITCH29
  C:2007H         PUBLIC        ?B_SWITCH3
  C:2058H         PUBLIC        ?B_SWITCH30
  C:205BH         PUBLIC        ?B_SWITCH31
  C:200AH         PUBLIC        ?B_SWITCH4
  C:200DH         PUBLIC        ?B_SWITCH5
  C:2010H         PUBLIC        ?B_SWITCH6
  C:2013H         PUBLIC        ?B_SWITCH7
  C:2016H         PUBLIC        ?B_SWITCH8
  C:2019H         PUBLIC        ?B_SWITCH9
  C:3CF0H         PUBLIC        ?B_SWITCHBANK_A
  C:3CEFH         PUBLIC        _SWITCHBANK
  N:0000H         SYMBOL        ?BANK?SWITCHING
  N:0000H         SYMBOL        ?B_FIRSTBIT
  C:3CF4H         SYMBOL        ?B_RESTORE_BANK
  N:0000H         SYMBOL        ?B_RTX
  C:2068H         SYMBOL        ?B_SWITCHJ0
  C:2080H         SYMBOL        ?B_SWITCHJ1
  C:2158H         SYMBOL        ?B_SWITCHJ10
  C:2170H         SYMBOL        ?B_SWITCHJ11
  C:2188H         SYMBOL        ?B_SWITCHJ12
  C:21A0H         SYMBOL        ?B_SWITCHJ13
  C:21B8H         SYMBOL        ?B_SWITCHJ14
  C:21D0H         SYMBOL        ?B_SWITCHJ15
  C:21E8H         SYMBOL        ?B_SWITCHJ16
  C:2200H         SYMBOL        ?B_SWITCHJ17
  C:2218H         SYMBOL        ?B_SWITCHJ18
  C:2230H         SYMBOL        ?B_SWITCHJ19
  C:2098H         SYMBOL        ?B_SWITCHJ2
  C:2248H         SYMBOL        ?B_SWITCHJ20
  C:2260H         SYMBOL        ?B_SWITCHJ21
  C:2278H         SYMBOL        ?B_SWITCHJ22
  C:2290H         SYMBOL        ?B_SWITCHJ23
  C:22A8H         SYMBOL        ?B_SWITCHJ24
  C:22C0H         SYMBOL        ?B_SWITCHJ25
BL51 BANKED LINKER/LOCATER V6.00                                                      11/05/2015  16:28:40  PAGE 28


  C:22D8H         SYMBOL        ?B_SWITCHJ26
  C:22F0H         SYMBOL        ?B_SWITCHJ27
  C:2308H         SYMBOL        ?B_SWITCHJ28
  C:2320H         SYMBOL        ?B_SWITCHJ29
  C:20B0H         SYMBOL        ?B_SWITCHJ3
  C:2338H         SYMBOL        ?B_SWITCHJ30
  C:2350H         SYMBOL        ?B_SWITCHJ31
  C:20C8H         SYMBOL        ?B_SWITCHJ4
  C:20E0H         SYMBOL        ?B_SWITCHJ5
  C:20F8H         SYMBOL        ?B_SWITCHJ6
  C:2110H         SYMBOL        ?B_SWITCHJ7
  C:2128H         SYMBOL        ?B_SWITCHJ8
  C:2140H         SYMBOL        ?B_SWITCHJ9
  N:0000H         SYMBOL        ?B_VAR_BANKING
  D:00E0H         SYMBOL        ACC
  N:035EH         SYMBOL        B_SWITCH_SIZE
  C:2000H         SYMBOL        B_SWITCH_START
  N:0020H         SYMBOL        CNT
  D:0083H         SYMBOL        DPH
  D:0082H         SYMBOL        DPL
  B:00B0H.5       SYMBOL        H16
  B:00B0H.4       SYMBOL        H17
  B:0090H.7       SYMBOL        H18
  B:00E8H.1       SYMBOL        H19
  B:00E8H.6       SYMBOL        H20
  N:0001H         SYMBOL        LONG_MACRO
  N:001FH         SYMBOL        MASK
  D:0090H         SYMBOL        P1
  D:00B0H         SYMBOL        P3
  D:00E8H         SYMBOL        P4
  C:3CF8H         SYMBOL        SWITCH_TAB
  C:2000H         LINE#         1001
  C:2002H         LINE#         1001
  C:2004H         LINE#         1001
  C:2007H         LINE#         1001
  C:200AH         LINE#         1001
  C:200DH         LINE#         1001
  C:2010H         LINE#         1001
  C:2013H         LINE#         1001
  C:2016H         LINE#         1001
  C:2019H         LINE#         1001
  C:201CH         LINE#         1001
  C:201FH         LINE#         1001
  C:2022H         LINE#         1001
  C:2025H         LINE#         1001
  C:2028H         LINE#         1001
  C:202BH         LINE#         1001
  C:202EH         LINE#         1001
  C:2031H         LINE#         1001
  C:2034H         LINE#         1001
  C:2037H         LINE#         1001
  C:203AH         LINE#         1001
  C:203DH         LINE#         1001
  C:2040H         LINE#         1001
  C:2043H         LINE#         1001
  C:2046H         LINE#         1001
  C:2049H         LINE#         1001
BL51 BANKED LINKER/LOCATER V6.00                                                      11/05/2015  16:28:40  PAGE 29


  C:204CH         LINE#         1001
  C:204FH         LINE#         1001
  C:2052H         LINE#         1001
  C:2055H         LINE#         1001
  C:2058H         LINE#         1001
  C:205BH         LINE#         1001
  C:205EH         LINE#         1012
  C:2060H         LINE#         1012
  C:2062H         LINE#         1012
  C:2064H         LINE#         1012
  C:2066H         LINE#         1012
  C:2068H         LINE#         1012
  C:206BH         LINE#         1012
  C:206DH         LINE#         1012
  C:206FH         LINE#         1012
  C:2071H         LINE#         1012
  C:2073H         LINE#         1012
  C:2075H         LINE#         1012
  C:2076H         LINE#         1012
  C:2078H         LINE#         1012
  C:207AH         LINE#         1012
  C:207CH         LINE#         1012
  C:207EH         LINE#         1012
  C:2080H         LINE#         1012
  C:2083H         LINE#         1012
  C:2085H         LINE#         1012
  C:2087H         LINE#         1012
  C:2089H         LINE#         1012
  C:208BH         LINE#         1012
  C:208DH         LINE#         1012
  C:208EH         LINE#         1012
  C:2090H         LINE#         1012
  C:2092H         LINE#         1012
  C:2094H         LINE#         1012
  C:2096H         LINE#         1012
  C:2098H         LINE#         1012
  C:209BH         LINE#         1012
  C:209DH         LINE#         1012
  C:209FH         LINE#         1012
  C:20A1H         LINE#         1012
  C:20A3H         LINE#         1012
  C:20A5H         LINE#         1012
  C:20A6H         LINE#         1012
  C:20A8H         LINE#         1012
  C:20AAH         LINE#         1012
  C:20ACH         LINE#         1012
  C:20AEH         LINE#         1012
  C:20B0H         LINE#         1012
  C:20B3H         LINE#         1012
  C:20B5H         LINE#         1012
  C:20B7H         LINE#         1012
  C:20B9H         LINE#         1012
  C:20BBH         LINE#         1012
  C:20BDH         LINE#         1012
  C:20BEH         LINE#         1012
  C:20C0H         LINE#         1012
  C:20C2H         LINE#         1012
BL51 BANKED LINKER/LOCATER V6.00                                                      11/05/2015  16:28:40  PAGE 30


  C:20C4H         LINE#         1012
  C:20C6H         LINE#         1012
  C:20C8H         LINE#         1012
  C:20CBH         LINE#         1012
  C:20CDH         LINE#         1012
  C:20CFH         LINE#         1012
  C:20D1H         LINE#         1012
  C:20D3H         LINE#         1012
  C:20D5H         LINE#         1012
  C:20D6H         LINE#         1012
  C:20D8H         LINE#         1012
  C:20DAH         LINE#         1012
  C:20DCH         LINE#         1012
  C:20DEH         LINE#         1012
  C:20E0H         LINE#         1012
  C:20E3H         LINE#         1012
  C:20E5H         LINE#         1012
  C:20E7H         LINE#         1012
  C:20E9H         LINE#         1012
  C:20EBH         LINE#         1012
  C:20EDH         LINE#         1012
  C:20EEH         LINE#         1012
  C:20F0H         LINE#         1012
  C:20F2H         LINE#         1012
  C:20F4H         LINE#         1012
  C:20F6H         LINE#         1012
  C:20F8H         LINE#         1012
  C:20FBH         LINE#         1012
  C:20FDH         LINE#         1012
  C:20FFH         LINE#         1012
  C:2101H         LINE#         1012
  C:2103H         LINE#         1012
  C:2105H         LINE#         1012
  C:2106H         LINE#         1012
  C:2108H         LINE#         1012
  C:210AH         LINE#         1012
  C:210CH         LINE#         1012
  C:210EH         LINE#         1012
  C:2110H         LINE#         1012
  C:2113H         LINE#         1012
  C:2115H         LINE#         1012
  C:2117H         LINE#         1012
  C:2119H         LINE#         1012
  C:211BH         LINE#         1012
  C:211DH         LINE#         1012
  C:211EH         LINE#         1012
  C:2120H         LINE#         1012
  C:2122H         LINE#         1012
  C:2124H         LINE#         1012
  C:2126H         LINE#         1012
  C:2128H         LINE#         1012
  C:212BH         LINE#         1012
  C:212DH         LINE#         1012
  C:212FH         LINE#         1012
  C:2131H         LINE#         1012
  C:2133H         LINE#         1012
  C:2135H         LINE#         1012
BL51 BANKED LINKER/LOCATER V6.00                                                      11/05/2015  16:28:40  PAGE 31


  C:2136H         LINE#         1012
  C:2138H         LINE#         1012
  C:213AH         LINE#         1012
  C:213CH         LINE#         1012
  C:213EH         LINE#         1012
  C:2140H         LINE#         1012
  C:2143H         LINE#         1012
  C:2145H         LINE#         1012
  C:2147H         LINE#         1012
  C:2149H         LINE#         1012
  C:214BH         LINE#         1012
  C:214DH         LINE#         1012
  C:214EH         LINE#         1012
  C:2150H         LINE#         1012
  C:2152H         LINE#         1012
  C:2154H         LINE#         1012
  C:2156H         LINE#         1012
  C:2158H         LINE#         1012
  C:215BH         LINE#         1012
  C:215DH         LINE#         1012
  C:215FH         LINE#         1012
  C:2161H         LINE#         1012
  C:2163H         LINE#         1012
  C:2165H         LINE#         1012
  C:2166H         LINE#         1012
  C:2168H         LINE#         1012
  C:216AH         LINE#         1012
  C:216CH         LINE#         1012
  C:216EH         LINE#         1012
  C:2170H         LINE#         1012
  C:2173H         LINE#         1012
  C:2175H         LINE#         1012
  C:2177H         LINE#         1012
  C:2179H         LINE#         1012
  C:217BH         LINE#         1012
  C:217DH         LINE#         1012
  C:217EH         LINE#         1012
  C:2180H         LINE#         1012
  C:2182H         LINE#         1012
  C:2184H         LINE#         1012
  C:2186H         LINE#         1012
  C:2188H         LINE#         1012
  C:218BH         LINE#         1012
  C:218DH         LINE#         1012
  C:218FH         LINE#         1012
  C:2191H         LINE#         1012
  C:2193H         LINE#         1012
  C:2195H         LINE#         1012
  C:2196H         LINE#         1012
  C:2198H         LINE#         1012
  C:219AH         LINE#         1012
  C:219CH         LINE#         1012
  C:219EH         LINE#         1012
  C:21A0H         LINE#         1012
  C:21A3H         LINE#         1012
  C:21A5H         LINE#         1012
  C:21A7H         LINE#         1012
BL51 BANKED LINKER/LOCATER V6.00                                                      11/05/2015  16:28:40  PAGE 32


  C:21A9H         LINE#         1012
  C:21ABH         LINE#         1012
  C:21ADH         LINE#         1012
  C:21AEH         LINE#         1012
  C:21B0H         LINE#         1012
  C:21B2H         LINE#         1012
  C:21B4H         LINE#         1012
  C:21B6H         LINE#         1012
  C:21B8H         LINE#         1012
  C:21BBH         LINE#         1012
  C:21BDH         LINE#         1012
  C:21BFH         LINE#         1012
  C:21C1H         LINE#         1012
  C:21C3H         LINE#         1012
  C:21C5H         LINE#         1012
  C:21C6H         LINE#         1012
  C:21C8H         LINE#         1012
  C:21CAH         LINE#         1012
  C:21CCH         LINE#         1012
  C:21CEH         LINE#         1012
  C:21D0H         LINE#         1012
  C:21D3H         LINE#         1012
  C:21D5H         LINE#         1012
  C:21D7H         LINE#         1012
  C:21D9H         LINE#         1012
  C:21DBH         LINE#         1012
  C:21DDH         LINE#         1012
  C:21DEH         LINE#         1012
  C:21E0H         LINE#         1012
  C:21E2H         LINE#         1012
  C:21E4H         LINE#         1012
  C:21E6H         LINE#         1012
  C:21E8H         LINE#         1012
  C:21EBH         LINE#         1012
  C:21EDH         LINE#         1012
  C:21EFH         LINE#         1012
  C:21F1H         LINE#         1012
  C:21F3H         LINE#         1012
  C:21F5H         LINE#         1012
  C:21F6H         LINE#         1012
  C:21F8H         LINE#         1012
  C:21FAH         LINE#         1012
  C:21FCH         LINE#         1012
  C:21FEH         LINE#         1012
  C:2200H         LINE#         1012
  C:2203H         LINE#         1012
  C:2205H         LINE#         1012
  C:2207H         LINE#         1012
  C:2209H         LINE#         1012
  C:220BH         LINE#         1012
  C:220DH         LINE#         1012
  C:220EH         LINE#         1012
  C:2210H         LINE#         1012
  C:2212H         LINE#         1012
  C:2214H         LINE#         1012
  C:2216H         LINE#         1012
  C:2218H         LINE#         1012
BL51 BANKED LINKER/LOCATER V6.00                                                      11/05/2015  16:28:40  PAGE 33


  C:221BH         LINE#         1012
  C:221DH         LINE#         1012
  C:221FH         LINE#         1012
  C:2221H         LINE#         1012
  C:2223H         LINE#         1012
  C:2225H         LINE#         1012
  C:2226H         LINE#         1012
  C:2228H         LINE#         1012
  C:222AH         LINE#         1012
  C:222CH         LINE#         1012
  C:222EH         LINE#         1012
  C:2230H         LINE#         1012
  C:2233H         LINE#         1012
  C:2235H         LINE#         1012
  C:2237H         LINE#         1012
  C:2239H         LINE#         1012
  C:223BH         LINE#         1012
  C:223DH         LINE#         1012
  C:223EH         LINE#         1012
  C:2240H         LINE#         1012
  C:2242H         LINE#         1012
  C:2244H         LINE#         1012
  C:2246H         LINE#         1012
  C:2248H         LINE#         1012
  C:224BH         LINE#         1012
  C:224DH         LINE#         1012
  C:224FH         LINE#         1012
  C:2251H         LINE#         1012
  C:2253H         LINE#         1012
  C:2255H         LINE#         1012
  C:2256H         LINE#         1012
  C:2258H         LINE#         1012
  C:225AH         LINE#         1012
  C:225CH         LINE#         1012
  C:225EH         LINE#         1012
  C:2260H         LINE#         1012
  C:2263H         LINE#         1012
  C:2265H         LINE#         1012
  C:2267H         LINE#         1012
  C:2269H         LINE#         1012
  C:226BH         LINE#         1012
  C:226DH         LINE#         1012
  C:226EH         LINE#         1012
  C:2270H         LINE#         1012
  C:2272H         LINE#         1012
  C:2274H         LINE#         1012
  C:2276H         LINE#         1012
  C:2278H         LINE#         1012
  C:227BH         LINE#         1012
  C:227DH         LINE#         1012
  C:227FH         LINE#         1012
  C:2281H         LINE#         1012
  C:2283H         LINE#         1012
  C:2285H         LINE#         1012
  C:2286H         LINE#         1012
  C:2288H         LINE#         1012
  C:228AH         LINE#         1012
BL51 BANKED LINKER/LOCATER V6.00                                                      11/05/2015  16:28:40  PAGE 34


  C:228CH         LINE#         1012
  C:228EH         LINE#         1012
  C:2290H         LINE#         1012
  C:2293H         LINE#         1012
  C:2295H         LINE#         1012
  C:2297H         LINE#         1012
  C:2299H         LINE#         1012
  C:229BH         LINE#         1012
  C:229DH         LINE#         1012
  C:229EH         LINE#         1012
  C:22A0H         LINE#         1012
  C:22A2H         LINE#         1012
  C:22A4H         LINE#         1012
  C:22A6H         LINE#         1012
  C:22A8H         LINE#         1012
  C:22ABH         LINE#         1012
  C:22ADH         LINE#         1012
  C:22AFH         LINE#         1012
  C:22B1H         LINE#         1012
  C:22B3H         LINE#         1012
  C:22B5H         LINE#         1012
  C:22B6H         LINE#         1012
  C:22B8H         LINE#         1012
  C:22BAH         LINE#         1012
  C:22BCH         LINE#         1012
  C:22BEH         LINE#         1012
  C:22C0H         LINE#         1012
  C:22C3H         LINE#         1012
  C:22C5H         LINE#         1012
  C:22C7H         LINE#         1012
  C:22C9H         LINE#         1012
  C:22CBH         LINE#         1012
  C:22CDH         LINE#         1012
  C:22CEH         LINE#         1012
  C:22D0H         LINE#         1012
  C:22D2H         LINE#         1012
  C:22D4H         LINE#         1012
  C:22D6H         LINE#         1012
  C:22D8H         LINE#         1012
  C:22DBH         LINE#         1012
  C:22DDH         LINE#         1012
  C:22DFH         LINE#         1012
  C:22E1H         LINE#         1012
  C:22E3H         LINE#         1012
  C:22E5H         LINE#         1012
  C:22E6H         LINE#         1012
  C:22E8H         LINE#         1012
  C:22EAH         LINE#         1012
  C:22ECH         LINE#         1012
  C:22EEH         LINE#         1012
  C:22F0H         LINE#         1012
  C:22F3H         LINE#         1012
  C:22F5H         LINE#         1012
  C:22F7H         LINE#         1012
  C:22F9H         LINE#         1012
  C:22FBH         LINE#         1012
  C:22FDH         LINE#         1012
BL51 BANKED LINKER/LOCATER V6.00                                                      11/05/2015  16:28:40  PAGE 35


  C:22FEH         LINE#         1012
  C:2300H         LINE#         1012
  C:2302H         LINE#         1012
  C:2304H         LINE#         1012
  C:2306H         LINE#         1012
  C:2308H         LINE#         1012
  C:230BH         LINE#         1012
  C:230DH         LINE#         1012
  C:230FH         LINE#         1012
  C:2311H         LINE#         1012
  C:2313H         LINE#         1012
  C:2315H         LINE#         1012
  C:2316H         LINE#         1012
  C:2318H         LINE#         1012
  C:231AH         LINE#         1012
  C:231CH         LINE#         1012
  C:231EH         LINE#         1012
  C:2320H         LINE#         1012
  C:2323H         LINE#         1012
  C:2325H         LINE#         1012
  C:2327H         LINE#         1012
  C:2329H         LINE#         1012
  C:232BH         LINE#         1012
  C:232DH         LINE#         1012
  C:232EH         LINE#         1012
  C:2330H         LINE#         1012
  C:2332H         LINE#         1012
  C:2334H         LINE#         1012
  C:2336H         LINE#         1012
  C:2338H         LINE#         1012
  C:233BH         LINE#         1012
  C:233DH         LINE#         1012
  C:233FH         LINE#         1012
  C:2341H         LINE#         1012
  C:2343H         LINE#         1012
  C:2345H         LINE#         1012
  C:2346H         LINE#         1012
  C:2348H         LINE#         1012
  C:234AH         LINE#         1012
  C:234CH         LINE#         1012
  C:234EH         LINE#         1012
  C:2350H         LINE#         1012
  C:2353H         LINE#         1012
  C:2355H         LINE#         1012
  C:2357H         LINE#         1012
  C:2359H         LINE#         1012
  C:235BH         LINE#         1012
  C:235DH         LINE#         1012
  C:3CEFH         LINE#         1033
  C:3CF0H         LINE#         1079
  C:3CF3H         LINE#         1080
  C:3CF4H         LINE#         1082
  C:3CF7H         LINE#         1083
  -------         ENDMOD        ?BANK?SWITCHING

  -------         MODULE        ?C_STARTUP
  C:31F3H         SEGMENT       ?C_C51STARTUP
BL51 BANKED LINKER/LOCATER V6.00                                                      11/05/2015  16:28:40  PAGE 36


  I:0065H         SEGMENT       ?STACK
  C:0000H         PUBLIC        ?C_STARTUP
  C:3272H         PUBLIC        CPU_GOTO_0000H
  C:325BH         PUBLIC        CPU_GOTO_FFF7H
  C:3275H         PUBLIC        CPU_GOTO_FFFDH
  C:0059H         PUBLIC        CPU_GOTO_FUU
  C:3275H         PUBLIC        CPU_REBOOT
  B:00D0H.6       SYMBOL        AC
  D:00E0H         SYMBOL        ACC
  D:00F0H         SYMBOL        B
  B:0020H.0       SYMBOL        BITADDR
  B:00C8H.0       SYMBOL        CP_RL2
  B:00D0H.7       SYMBOL        CY
  B:00C8H.1       SYMBOL        C_T2
  D:0083H         SYMBOL        DPH
  D:0082H         SYMBOL        DPL
  B:00A8H.7       SYMBOL        EA
  C:322EH         SYMBOL        END_POINT
  B:00A8H.4       SYMBOL        ES
  B:00A8H.1       SYMBOL        ET0
  B:00A8H.3       SYMBOL        ET1
  B:00A8H.5       SYMBOL        ET2
  B:00A8H.0       SYMBOL        EX0
  B:00A8H.2       SYMBOL        EX1
  B:00C8H.3       SYMBOL        EXEN2
  B:00C8H.6       SYMBOL        EXF2
  B:00D0H.5       SYMBOL        F0
  C:00A5H         SYMBOL        H16_1
  C:00ADH         SYMBOL        H16_CHECK_TI
  C:00A8H         SYMBOL        H16_SR
  C:008FH         SYMBOL        H17_1
  C:0097H         SYMBOL        H17_CHECK_TI
  C:0092H         SYMBOL        H17_SR
  C:0079H         SYMBOL        H18_1
  C:0081H         SYMBOL        H18_CHECK_TI
  C:007CH         SYMBOL        H18_SR
  N:0000H         SYMBOL        IBPSTACK
  N:0100H         SYMBOL        IBPSTACKTOP
  N:0080H         SYMBOL        IDATALEN
  C:3235H         SYMBOL        IDATALOOP
  D:00A8H         SYMBOL        IE
  B:0088H.1       SYMBOL        IE0
  B:0088H.3       SYMBOL        IE1
  B:00B0H.2       SYMBOL        INT0
  B:00B0H.3       SYMBOL        INT1
  D:00B8H         SYMBOL        IP
  B:0088H.0       SYMBOL        IT0
  B:0088H.2       SYMBOL        IT1
  B:00D0H.2       SYMBOL        OV
  B:00D0H.0       SYMBOL        P
  D:0080H         SYMBOL        P0
  D:0090H         SYMBOL        P1
  D:00A0H         SYMBOL        P2
  D:00B0H         SYMBOL        P3
  D:00E8H         SYMBOL        P4
  D:00DAH         SYMBOL        P4ENON
  N:0000H         SYMBOL        PBPSTACK
BL51 BANKED LINKER/LOCATER V6.00                                                      11/05/2015  16:28:40  PAGE 37


  N:0000H         SYMBOL        PBPSTACKTOP
  D:0087H         SYMBOL        PCON
  N:0000H         SYMBOL        PDATALEN
  N:0000H         SYMBOL        PDATASTART
  N:0000H         SYMBOL        PPAGE
  N:0000H         SYMBOL        PPAGEENABLE
  D:00A0H         SYMBOL        PPAGE_SFR
  B:00B8H.4       SYMBOL        PS
  D:00D0H         SYMBOL        PSW
  B:00B8H.1       SYMBOL        PT0
  B:00B8H.3       SYMBOL        PT1
  B:00B8H.5       SYMBOL        PT2
  B:00B8H.0       SYMBOL        PX0
  B:00B8H.2       SYMBOL        PX1
  B:0098H.2       SYMBOL        RB8
  D:00CBH         SYMBOL        RCAP2H
  D:00CAH         SYMBOL        RCAP2L
  B:00C8H.5       SYMBOL        RCLK
  B:00B0H.7       SYMBOL        RD
  B:0098H.4       SYMBOL        REN
  D:0030H         SYMBOL        RESERVED_DATA
  B:0098H.0       SYMBOL        RI
  B:00D0H.3       SYMBOL        RS0
  B:00D0H.4       SYMBOL        RS1
  B:00B0H.0       SYMBOL        RXD
  D:0099H         SYMBOL        SBUF
  D:0098H         SYMBOL        SCON
  B:0098H.7       SYMBOL        SM0
  B:0098H.6       SYMBOL        SM1
  B:0098H.5       SYMBOL        SM2
  D:0081H         SYMBOL        SP
  I:0065H         SYMBOL        STACK_LABEL
  C:3230H         SYMBOL        STARTUP1
  B:00B0H.4       SYMBOL        T0
  B:00B0H.5       SYMBOL        T1
  B:0090H.0       SYMBOL        T2
  D:00C8H         SYMBOL        T2CON
  B:0090H.1       SYMBOL        T2EX
  B:0098H.3       SYMBOL        TB8
  B:00C8H.4       SYMBOL        TCLK
  D:0088H         SYMBOL        TCON
  B:0088H.5       SYMBOL        TF0
  B:0088H.7       SYMBOL        TF1
  B:00C8H.7       SYMBOL        TF2
  D:008CH         SYMBOL        TH0
  D:008DH         SYMBOL        TH1
  D:00CDH         SYMBOL        TH2
  B:0098H.1       SYMBOL        TI
  D:008AH         SYMBOL        TL0
  D:008BH         SYMBOL        TL1
  D:00CCH         SYMBOL        TL2
  D:0089H         SYMBOL        TMOD
  B:0088H.4       SYMBOL        TR0
  B:0088H.6       SYMBOL        TR1
  B:00C8H.2       SYMBOL        TR2
  B:00B0H.1       SYMBOL        TXD
  C:31F3H         SYMBOL        VECTOR_INT0_ET0
BL51 BANKED LINKER/LOCATER V6.00                                                      11/05/2015  16:28:40  PAGE 38


  C:320FH         SYMBOL        VEC_CLEAN_UART_ISR
  B:00D8H.1       SYMBOL        WDTEN
  B:00B0H.6       SYMBOL        WR
  N:0000H         SYMBOL        XBPSTACK
  N:0000H         SYMBOL        XBPSTACKTOP
  N:8000H         SYMBOL        XDATALEN
  C:3240H         SYMBOL        XDATALOOP
  N:0000H         SYMBOL        XDATASTART
  C:0000H         LINE#         103
  C:0003H         LINE#         106
  C:FFFDH         LINE#         109
  C:000BH         LINE#         112
  C:31F3H         LINE#         117
  C:31F5H         LINE#         119
  C:31F7H         LINE#         120
  C:31F9H         LINE#         121
  C:31FBH         LINE#         122
  C:31FDH         LINE#         123
  C:31FFH         LINE#         124
  C:3202H         LINE#         128
  C:3204H         LINE#         129
  C:3206H         LINE#         130
  C:3208H         LINE#         131
  C:320AH         LINE#         132
  C:320CH         LINE#         134
  C:320EH         LINE#         135
  C:320FH         LINE#         138
  C:3211H         LINE#         140
  C:3213H         LINE#         141
  C:3215H         LINE#         142
  C:3217H         LINE#         143
  C:3219H         LINE#         144
  C:321BH         LINE#         145
  C:321EH         LINE#         147
  C:3221H         LINE#         149
  C:3223H         LINE#         150
  C:3225H         LINE#         151
  C:3227H         LINE#         152
  C:3229H         LINE#         153
  C:322BH         LINE#         155
  C:322DH         LINE#         156
  C:322EH         LINE#         159
  C:3230H         LINE#         161
  C:3232H         LINE#         164
  C:3234H         LINE#         165
  C:3235H         LINE#         166
  C:3236H         LINE#         167
  C:3238H         LINE#         171
  C:323BH         LINE#         172
  C:323DH         LINE#         176
  C:323FH         LINE#         178
  C:3240H         LINE#         179
  C:3241H         LINE#         180
  C:3242H         LINE#         181
  C:3244H         LINE#         182
  C:3246H         LINE#         217
  C:3249H         LINE#         219
BL51 BANKED LINKER/LOCATER V6.00                                                      11/05/2015  16:28:40  PAGE 39


  C:324BH         LINE#         220
  C:324DH         LINE#         221
  C:324FH         LINE#         222
  C:3251H         LINE#         223
  C:3253H         LINE#         227
  C:3256H         LINE#         230
  C:3259H         LINE#         231
  C:325BH         LINE#         235
  C:325DH         LINE#         236
  C:325FH         LINE#         237
  C:3261H         LINE#         238
  C:3263H         LINE#         239
  C:3265H         LINE#         240
  C:3267H         LINE#         241
  C:3269H         LINE#         245
  C:326BH         LINE#         246
  C:326DH         LINE#         247
  C:326FH         LINE#         250
  C:3272H         LINE#         253
  C:3275H         LINE#         256
  C:3277H         LINE#         257
  C:3279H         LINE#         258
  C:327BH         LINE#         259
  C:327DH         LINE#         260
  C:327FH         LINE#         261
  C:3281H         LINE#         262
  C:3283H         LINE#         263
  C:0059H         LINE#         272
  C:005BH         LINE#         274
  C:005EH         LINE#         275
  C:0061H         LINE#         276
  C:0064H         LINE#         277
  C:0067H         LINE#         278
  C:006AH         LINE#         279
  C:006CH         LINE#         280
  C:006EH         LINE#         283
  C:0070H         LINE#         284
  C:0072H         LINE#         285
  C:0074H         LINE#         286
  C:0077H         LINE#         287
  C:0079H         LINE#         290
  C:007CH         LINE#         293
  C:007EH         LINE#         294
  C:0081H         LINE#         296
  C:0084H         LINE#         299
  C:0086H         LINE#         300
  C:0088H         LINE#         301
  C:008AH         LINE#         302
  C:008DH         LINE#         303
  C:008FH         LINE#         306
  C:0092H         LINE#         309
  C:0094H         LINE#         310
  C:0097H         LINE#         312
  C:009AH         LINE#         315
  C:009CH         LINE#         316
  C:009EH         LINE#         317
  C:00A0H         LINE#         318
BL51 BANKED LINKER/LOCATER V6.00                                                      11/05/2015  16:28:40  PAGE 40


  C:00A3H         LINE#         319
  C:00A5H         LINE#         322
  C:00A8H         LINE#         325
  C:00AAH         LINE#         326
  C:00ADH         LINE#         328
  C:00B0H         LINE#         331
  C:00B2H         LINE#         333
  -------         ENDMOD        ?C_STARTUP

  -------         MODULE        EE_DEFAULT
  C:0000H         SYMBOL        _ICE_DUMMY_
  C:0E6DH         PUBLIC        EE_Default
  -------         ENDMOD        EE_DEFAULT

  -------         MODULE        DMA
  C:0000H         SYMBOL        _ICE_DUMMY_
  D:0090H         PUBLIC        P1
  D:00B0H         PUBLIC        P3
  B:00A8H.7       PUBLIC        EA
 C1:E30AH         PUBLIC        IP210_DMA_Idle_Restore
  D:00A8H         PUBLIC        IE
  D:00B8H         PUBLIC        IP
  D:0087H         PUBLIC        PCON
  D:0098H         PUBLIC        SCON
  D:0088H         PUBLIC        TCON
 C1:C976H         PUBLIC        _IP210_DMA
  B:00A8H.0       PUBLIC        EX0
 C1:E246H         PUBLIC        IP210_DMA_Set_Idle
  D:00D8H         PUBLIC        WDTCON
 C1:DFD2H         PUBLIC        _Fill_DMA_Setting
  D:00C8H         PUBLIC        T2CON
  D:00E1H         PUBLIC        PDCON
 C1:E397H         PUBLIC        IP210_Wait_DMA_Complete
  D:00D0H         PUBLIC        PSW

  -------         PROC BANK=1   IP210_DMA_SET_IDLE
  -------         DO            
  D:0007H         SYMBOL        temp_ier
  -------         ENDDO         
 C1:E246H         LINE#         27
 C1:E246H         LINE#         28
 C1:E246H         LINE#         34
 C1:E24AH         LINE#         36
 C1:E24EH         LINE#         37
 C1:E250H         LINE#         38
 C1:E253H         LINE#         39
 C1:E256H         LINE#         41
 C1:E258H         LINE#         42
 C1:E25AH         LINE#         44
 C1:E25DH         LINE#         45
  -------         ENDPROC       IP210_DMA_SET_IDLE

  -------         PROC BANK=1   IP210_DMA_IDLE_RESTORE
  -------         DO            
  D:0007H         SYMBOL        temp_ier
  -------         ENDDO         
 C1:E30AH         LINE#         58
BL51 BANKED LINKER/LOCATER V6.00                                                      11/05/2015  16:28:40  PAGE 41


 C1:E30AH         LINE#         59
 C1:E30AH         LINE#         64
 C1:E30FH         LINE#         66
 C1:E313H         LINE#         67
 C1:E315H         LINE#         68
 C1:E318H         LINE#         69
 C1:E31BH         LINE#         71
  -------         ENDPROC       IP210_DMA_IDLE_RESTORE

  -------         PROC BANK=1   _FILL_DMA_SETTING
  X:380AH         SYMBOL        src_addr
  D:0004H         SYMBOL        des_addr
  D:0002H         SYMBOL        length
 C1:DFD2H         LINE#         87
 C1:DFDAH         LINE#         88
 C1:DFDAH         LINE#         90
 C1:DFE2H         LINE#         91
 C1:DFEBH         LINE#         93
 C1:DFF0H         LINE#         94
 C1:DFF5H         LINE#         96
 C1:DFFAH         LINE#         97
 C1:DFFFH         LINE#         98
  -------         ENDPROC       _FILL_DMA_SETTING

  -------         PROC BANK=1   IP210_WAIT_DMA_COMPLETE
  -------         DO            
  D:0007H         SYMBOL        b
  -------         ENDDO         
 C1:E397H         LINE#         111
 C1:E397H         LINE#         112
 C1:E397H         LINE#         117
 C1:E397H         LINE#         118
 C1:E39CH         LINE#         119
 C1:E3A0H         LINE#         122
  -------         ENDPROC       IP210_WAIT_DMA_COMPLETE

  -------         PROC BANK=1   _IP210_DMA
  X:356BH         SYMBOL        src_addr
  X:356DH         SYMBOL        des_addr
  X:356FH         SYMBOL        length
  X:3571H         SYMBOL        cmd
  -------         DO            
  D:0001H         SYMBOL        i
  X:3572H         SYMBOL        loop_count
  X:3573H         SYMBOL        mode
  -------         ENDDO         
 C1:C976H         LINE#         138
 C1:C98AH         LINE#         139
 C1:C98AH         LINE#         144
 C1:C992H         LINE#         145
 C1:C99AH         LINE#         146
 C1:C99AH         LINE#         149
 C1:C99DH         LINE#         150
 C1:C99DH         LINE#         152
 C1:C9ABH         LINE#         153
 C1:C9BAH         LINE#         154
 C1:C9BAH         LINE#         155
BL51 BANKED LINKER/LOCATER V6.00                                                      11/05/2015  16:28:40  PAGE 42


 C1:C9C5H         LINE#         156
 C1:C9C5H         LINE#         157
 C1:C9CDH         LINE#         158
 C1:C9DAH         LINE#         160
 C1:C9ECH         LINE#         162
 C1:C9F4H         LINE#         164
 C1:C9FBH         LINE#         165
 C1:C9FBH         LINE#         166
 C1:C9FEH         LINE#         168
 C1:C9FEH         LINE#         170
 C1:CA01H         LINE#         171
 C1:CA08H         LINE#         172
 C1:CA0BH         LINE#         174
 C1:CA19H         LINE#         175
 C1:CA27H         LINE#         176
 C1:CA35H         LINE#         177
 C1:CA39H         LINE#         180
 C1:CA3BH         LINE#         181
  -------         ENDPROC       _IP210_DMA
  -------         ENDMOD        DMA

  -------         MODULE        EEPROM
  C:0000H         SYMBOL        _ICE_DUMMY_
 C1:D821H         PUBLIC        _EEPROM_Read_Byte
  D:0090H         PUBLIC        P1
  D:00B0H         PUBLIC        P3
  D:00A8H         PUBLIC        IE
 C1:DE76H         PUBLIC        _EEPROM_Write_Byte
  D:00B8H         PUBLIC        IP
  D:0098H         PUBLIC        SCON
  D:0088H         PUBLIC        TCON
  D:00D8H         PUBLIC        WDTCON
  D:00C8H         PUBLIC        T2CON
 C1:E3A9H         PUBLIC        EEPROM_Enable
  D:00D0H         PUBLIC        PSW

  -------         PROC BANK=1   EEPROM_ENABLE
  -------         DO            
  D:0007H         SYMBOL        byte_data
  -------         ENDDO         
 C1:E3A9H         LINE#         29
 C1:E3A9H         LINE#         30
 C1:E3A9H         LINE#         33
 C1:E3ADH         LINE#         35
 C1:E3B0H         LINE#         40
  -------         ENDPROC       EEPROM_ENABLE

  -------         PROC BANK=1   _EEPROM_READ_BYTE
  D:0006H         SYMBOL        addr
  X:37AEH         SYMBOL        read_data
  -------         DO            
  D:0005H         SYMBOL        EE_addr
  D:0007H         SYMBOL        EE_id
  D:0006H         SYMBOL        byte_data
  D:0004H         SYMBOL        ii
  D:0007H         SYMBOL        i
  -------         ENDDO         
BL51 BANKED LINKER/LOCATER V6.00                                                      11/05/2015  16:28:40  PAGE 43


 C1:D821H         LINE#         84
 C1:D82CH         LINE#         85
 C1:D82CH         LINE#         91
 C1:D82EH         LINE#         92
 C1:D832H         LINE#         94
 C1:D837H         LINE#         95
 C1:D83AH         LINE#         98
 C1:D83CH         LINE#         99
 C1:D83CH         LINE#         100
 C1:D842H         LINE#         102
 C1:D845H         LINE#         103
 C1:D845H         LINE#         104
 C1:D84AH         LINE#         105
 C1:D84EH         LINE#         106
 C1:D84EH         LINE#         108
 C1:D84EH         LINE#         109
 C1:D84EH         LINE#         110
 C1:D853H         LINE#         111
 C1:D85CH         LINE#         114
 C1:D860H         LINE#         115
 C1:D860H         LINE#         116
 C1:D874H         LINE#         117
 C1:D877H         LINE#         118
 C1:D877H         LINE#         121
 C1:D87CH         LINE#         123
 C1:D87EH         LINE#         124
  -------         ENDPROC       _EEPROM_READ_BYTE

  -------         PROC BANK=1   _EEPROM_WRITE_BYTE
  D:0006H         SYMBOL        addr
  D:0005H         SYMBOL        write_data
  -------         DO            
  D:0004H         SYMBOL        EE_addr
  D:0007H         SYMBOL        EE_id
  D:0006H         SYMBOL        byte_data
  D:0004H         SYMBOL        ii
  D:0007H         SYMBOL        i
  -------         ENDDO         
 C1:DE76H         LINE#         142
 C1:DE76H         LINE#         143
 C1:DE76H         LINE#         149
 C1:DE78H         LINE#         150
 C1:DE7CH         LINE#         152
 C1:DE81H         LINE#         153
 C1:DE84H         LINE#         154
 C1:DE87H         LINE#         158
 C1:DE89H         LINE#         159
 C1:DE89H         LINE#         160
 C1:DE8EH         LINE#         162
 C1:DE90H         LINE#         163
 C1:DE90H         LINE#         164
 C1:DE95H         LINE#         165
 C1:DE99H         LINE#         166
 C1:DE99H         LINE#         168
 C1:DE99H         LINE#         169
 C1:DE99H         LINE#         170
 C1:DE9EH         LINE#         171
BL51 BANKED LINKER/LOCATER V6.00                                                      11/05/2015  16:28:40  PAGE 44


 C1:DEA7H         LINE#         174
 C1:DEABH         LINE#         175
 C1:DEABH         LINE#         176
 C1:DEAEH         LINE#         177
 C1:DEAEH         LINE#         180
 C1:DEB3H         LINE#         181
 C1:DEB5H         LINE#         183
  -------         ENDPROC       _EEPROM_WRITE_BYTE
  -------         ENDMOD        EEPROM

  -------         MODULE        SERIAL
  C:0000H         SYMBOL        _ICE_DUMMY_
  D:0090H         PUBLIC        P1
  D:00B0H         PUBLIC        P3
  D:00A8H         PUBLIC        IE
  D:00B8H         PUBLIC        IP
  B:0098H.0       PUBLIC        RI
  B:0098H.1       PUBLIC        TI
 C1:E31CH         PUBLIC        _Serial_Check_Rx
  D:0099H         PUBLIC        SBUF
  D:0087H         PUBLIC        PCON
  D:0098H         PUBLIC        SCON
  D:0089H         PUBLIC        TMOD
  D:0088H         PUBLIC        TCON
 C1:E381H         PUBLIC        Serial_Polling_Rx
  D:008DH         PUBLIC        TH1
  D:00D8H         PUBLIC        WDTCON
  B:0088H.6       PUBLIC        TR1
 C1:E2D0H         PUBLIC        Serial_Init
  D:00C8H         PUBLIC        T2CON
  D:00D0H         PUBLIC        PSW

  -------         PROC BANK=1   SERIAL_INIT
 C1:E2D0H         LINE#         34
 C1:E2D0H         LINE#         35
 C1:E2D0H         LINE#         36
 C1:E2D3H         LINE#         37
 C1:E2D6H         LINE#         38
 C1:E2D9H         LINE#         39
 C1:E2DCH         LINE#         40
 C1:E2DFH         LINE#         41
 C1:E2E1H         LINE#         42
 C1:E2E3H         LINE#         43
  -------         ENDPROC       SERIAL_INIT

  -------         PROC BANK=1   _SERIAL_CHECK_RX
  D:0007H         SYMBOL        rx_byte
 C1:E31CH         LINE#         59
 C1:E31CH         LINE#         60
 C1:E31CH         LINE#         61
 C1:E31FH         LINE#         62
 C1:E31FH         LINE#         63
 C1:E321H         LINE#         64
 C1:E32BH         LINE#         65
 C1:E32BH         LINE#         66
 C1:E32DH         LINE#         67
  -------         ENDPROC       _SERIAL_CHECK_RX
BL51 BANKED LINKER/LOCATER V6.00                                                      11/05/2015  16:28:40  PAGE 45



  -------         PROC BANK=1   SERIAL_POLLING_RX
 C1:E381H         LINE#         82
 C1:E381H         LINE#         83
 C1:E381H         LINE#         84
 C1:E384H         LINE#         85
 C1:E384H         LINE#         86
 C1:E386H         LINE#         87
 C1:E389H         LINE#         88
 C1:E389H         LINE#         89
 C1:E38BH         LINE#         90
  -------         ENDPROC       SERIAL_POLLING_RX
  -------         ENDMOD        SERIAL

  -------         MODULE        MACDRIVER
  C:0000H         SYMBOL        _ICE_DUMMY_
  D:0080H         PUBLIC        P0
  D:0090H         PUBLIC        P1
 C1:DBF7H         PUBLIC        EthernetReceiveFreeSpace
  D:00A0H         PUBLIC        P2
  D:00B0H         PUBLIC        P3
  D:00E8H         PUBLIC        P4
  B:00D8H.1       PUBLIC        WDTEN
  X:34F8H         PUBLIC        RWmismatch
 C1:E15BH         PUBLIC        MAC_Address_fill
  D:00A8H         PUBLIC        IE
  X:34FAH         PUBLIC        Tx_Current
  D:00B8H         PUBLIC        IP
 C1:D4A5H         PUBLIC        _uip_add32
 C1:CBC0H         PUBLIC        EthernetReceiveSkip
 C1:E1F6H         PUBLIC        wait_packet_sent
 C1:878EH         PUBLIC        _EthernetSend
  B:00D8H.3       PUBLIC        WDT_DIS
  D:0098H         PUBLIC        SCON
  D:0088H         PUBLIC        TCON
  X:34FBH         PUBLIC        turn_around
 C1:DC46H         PUBLIC        check_MAC_status
  C:3D61H         SYMBOL        _?ix1000
 C1:E17CH         PUBLIC        IP_Address_fill
  D:00D8H         PUBLIC        WDTCON
 C1:E0E0H         PUBLIC        TFD_index
 C1:CD32H         PUBLIC        _EthernetReceiveLookAhead
  X:34FCH         PUBLIC        Tx_bak
  X:34FDH         PUBLIC        TxTime
 C1:E1BCH         PUBLIC        _Resize_RX_Buf
 C1:BB08H         PUBLIC        _check_packet_type
 C1:D142H         PUBLIC        _EthernetSend2
  D:00C8H         PUBLIC        T2CON
 C1:E000H         PUBLIC        MAC_init
  X:3501H         PUBLIC        Read_Point
 C1:A863H         PUBLIC        _EthernetReceive
  D:00D0H         PUBLIC        PSW

  -------         PROC BANK=1   MAC_ADDRESS_FILL
  -------         DO            
  D:0007H         SYMBOL        i
  -------         ENDDO         
BL51 BANKED LINKER/LOCATER V6.00                                                      11/05/2015  16:28:40  PAGE 46


 C1:E15BH         LINE#         69
 C1:E15BH         LINE#         70
 C1:E15BH         LINE#         71
 C1:E15DH         LINE#         72
 C1:E17BH         LINE#         73
  -------         ENDPROC       MAC_ADDRESS_FILL

  -------         PROC BANK=1   IP_ADDRESS_FILL
  -------         DO            
  D:0007H         SYMBOL        i
  -------         ENDDO         
 C1:E17CH         LINE#         87
 C1:E17CH         LINE#         88
 C1:E17CH         LINE#         89
 C1:E17EH         LINE#         90
 C1:E19CH         LINE#         91
  -------         ENDPROC       IP_ADDRESS_FILL

  -------         PROC BANK=1   _RESIZE_RX_BUF
  D:0007H         SYMBOL        rx_start
  -------         DO            
  D:0005H         SYMBOL        MAC_Setting
  -------         ENDDO         
 C1:E1BCH         LINE#         105
 C1:E1BCH         LINE#         106
 C1:E1C1H         LINE#         108
 C1:E1C4H         LINE#         109
 C1:E1C9H         LINE#         110
 C1:E1D1H         LINE#         111
 C1:E1D8H         LINE#         112
  -------         ENDPROC       _RESIZE_RX_BUF

  -------         PROC BANK=1   MAC_INIT
  -------         DO            
  D:0007H         SYMBOL        reg_value
  -------         ENDDO         
 C1:E000H         LINE#         125
 C1:E000H         LINE#         126
 C1:E000H         LINE#         129
 C1:E006H         LINE#         131
 C1:E00CH         LINE#         133
 C1:E00FH         LINE#         135
 C1:E013H         LINE#         136
 C1:E018H         LINE#         137
 C1:E019H         LINE#         138
 C1:E024H         LINE#         140
 C1:E027H         LINE#         141
  -------         ENDPROC       MAC_INIT
  -------         PROC          L?0102
  -------         ENDPROC       L?0102

  -------         PROC BANK=1   TFD_INDEX
 C1:E0E0H         LINE#         158
 C1:E0E0H         LINE#         159
 C1:E0E0H         LINE#         160
 C1:E0E8H         LINE#         161
 C1:E0EDH         LINE#         162
BL51 BANKED LINKER/LOCATER V6.00                                                      11/05/2015  16:28:40  PAGE 47


 C1:E0F1H         LINE#         163
  -------         ENDPROC       TFD_INDEX

  -------         PROC BANK=1   _CHECK_PACKET_TYPE
  X:367AH         SYMBOL        tx_buf
  -------         DO            
  X:367DH         SYMBOL        ether_type_offset
  X:367EH         SYMBOL        ip_type_offset
  X:367FH         SYMBOL        VLAN_TAG
  X:3680H         SYMBOL        value
  -------         ENDDO         
 C1:BB08H         LINE#         196
 C1:BB13H         LINE#         197
 C1:BB13H         LINE#         198
 C1:BB18H         LINE#         200
 C1:BB1FH         LINE#         202
 C1:BB22H         LINE#         207
 C1:BB6EH         LINE#         208
 C1:BB6EH         LINE#         209
 C1:BB74H         LINE#         210
 C1:BB78H         LINE#         211
 C1:BB7AH         LINE#         214
 C1:BB7AH         LINE#         215
 C1:BB80H         LINE#         216
 C1:BB84H         LINE#         217
 C1:BB84H         LINE#         219
 C1:BBCCH         LINE#         220
 C1:BBCCH         LINE#         221
 C1:BBD4H         LINE#         222
 C1:BBD9H         LINE#         223
 C1:BBDCH         LINE#         224
 C1:BBDCH         LINE#         227
 C1:BBDCH         LINE#         228
 C1:BBE2H         LINE#         229
 C1:BBE5H         LINE#         231
 C1:BC03H         LINE#         232
 C1:BC03H         LINE#         233
 C1:BC0DH         LINE#         234
 C1:BC10H         LINE#         235
 C1:BC14H         LINE#         236
 C1:BC17H         LINE#         237
 C1:BC20H         LINE#         238
 C1:BC23H         LINE#         239
 C1:BC23H         LINE#         240
 C1:BC30H         LINE#         241
 C1:BC33H         LINE#         242
 C1:BC35H         LINE#         243
 C1:BC35H         LINE#         244
  -------         ENDPROC       _CHECK_PACKET_TYPE

  -------         PROC BANK=1   _ETHERNETSEND
  X:33C0H         SYMBOL        tx_buf
  X:33C3H         SYMBOL        plen
  -------         DO            
  X:33C5H         SYMBOL        ptype
  X:33C6H         SYMBOL        chr
  X:33C7H         SYMBOL        send_buf
BL51 BANKED LINKER/LOCATER V6.00                                                      11/05/2015  16:28:40  PAGE 48


  X:33CAH         SYMBOL        tag_buf
  X:33CEH         SYMBOL        f_tag
  X:33CFH         SYMBOL        value
  -------         ENDDO         
 C1:878EH         LINE#         285
 C1:87A1H         LINE#         286
 C1:87A1H         LINE#         287
 C1:87A8H         LINE#         288
 C1:87B1H         LINE#         290
 C1:87C4H         LINE#         291
 C1:87CBH         LINE#         292
 C1:87E8H         LINE#         293
 C1:87E8H         LINE#         294
 C1:87FAH         LINE#         295
 C1:8808H         LINE#         296
 C1:8816H         LINE#         297
 C1:881CH         LINE#         299
 C1:881FH         LINE#         304
 C1:8834H         LINE#         305
 C1:8834H         LINE#         306
 C1:8834H         LINE#         307
 C1:8837H         LINE#         309
 C1:8837H         LINE#         311
 C1:883AH         LINE#         316
 C1:887AH         LINE#         317
 C1:887AH         LINE#         318
 C1:8890H         LINE#         319
 C1:8890H         LINE#         320
 C1:889EH         LINE#         321
 C1:88ACH         LINE#         322
 C1:88B2H         LINE#         323
 C1:88C3H         LINE#         324
 C1:88EFH         LINE#         325
 C1:8910H         LINE#         326
 C1:8913H         LINE#         330
 C1:8947H         LINE#         331
 C1:8947H         LINE#         332
 C1:8955H         LINE#         333
 C1:8963H         LINE#         334
 C1:8969H         LINE#         335
 C1:8980H         LINE#         336
 C1:89ACH         LINE#         337
 C1:89CDH         LINE#         338
 C1:89D2H         LINE#         339
 C1:89D4H         LINE#         341
 C1:89EFH         LINE#         342
 C1:89EFH         LINE#         344
 C1:8A06H         LINE#         345
 C1:8A09H         LINE#         346
 C1:8A1AH         LINE#         347
 C1:8A1DH         LINE#         348
 C1:8A30H         LINE#         351
 C1:8A33H         LINE#         356
 C1:8A51H         LINE#         357
 C1:8A6BH         LINE#         359
 C1:8A7EH         LINE#         360
 C1:8A8BH         LINE#         361
BL51 BANKED LINKER/LOCATER V6.00                                                      11/05/2015  16:28:40  PAGE 49


 C1:8A8FH         LINE#         362
 C1:8A9CH         LINE#         363
 C1:8A9FH         LINE#         364
 C1:8A9FH         LINE#         368
 C1:8AA2H         LINE#         371
 C1:8AAAH         LINE#         372
 C1:8AACH         LINE#         373
 C1:8AB0H         LINE#         374
 C1:8AB6H         LINE#         375
 C1:8AD2H         LINE#         376
 C1:8AEBH         LINE#         377
 C1:8AF0H         LINE#         378
 C1:8AFDH         LINE#         379
 C1:8AFDH         LINE#         382
 C1:8B00H         LINE#         387
 C1:8B02H         LINE#         388
  -------         ENDPROC       _ETHERNETSEND

  -------         PROC BANK=1   _ETHERNETSEND2
  D:0001H         SYMBOL        tx_buf
  X:37B1H         SYMBOL        plen
  -------         DO            
  X:37B3H         SYMBOL        ptype
  D:0007H         SYMBOL        chr
  -------         ENDDO         
 C1:D142H         LINE#         415
 C1:D14AH         LINE#         416
 C1:D14DH         LINE#         417
 C1:D164H         LINE#         418
 C1:D167H         LINE#         419
 C1:D178H         LINE#         420
 C1:D17BH         LINE#         422
 C1:D192H         LINE#         423
 C1:D1ACH         LINE#         425
 C1:D1BFH         LINE#         426
 C1:D1C7H         LINE#         427
 C1:D1CBH         LINE#         428
 C1:D1D6H         LINE#         429
 C1:D1D8H         LINE#         430
 C1:D1D8H         LINE#         434
 C1:D1DBH         LINE#         435
 C1:D1DDH         LINE#         436
  -------         ENDPROC       _ETHERNETSEND2

  -------         PROC BANK=1   _ETHERNETRECEIVELOOKAHEAD
  X:3681H         SYMBOL        len
  -------         DO            
  X:3684H         SYMBOL        pkt_addr
  X:3686H         SYMBOL        packet_len
  -------         ENDDO         
 C1:CD32H         LINE#         493
 C1:CD3DH         LINE#         494
 C1:CD4CH         LINE#         495
 C1:CD53H         LINE#         497
 C1:CD62H         LINE#         498
 C1:CD78H         LINE#         499
 C1:CD82H         LINE#         500
BL51 BANKED LINKER/LOCATER V6.00                                                      11/05/2015  16:28:40  PAGE 50


 C1:CD8BH         LINE#         501
 C1:CD94H         LINE#         502
 C1:CDA7H         LINE#         504
 C1:CDBBH         LINE#         505
 C1:CDD3H         LINE#         506
 C1:CDE5H         LINE#         507
 C1:CDE5H         LINE#         508
  -------         ENDPROC       _ETHERNETRECEIVELOOKAHEAD

  -------         PROC BANK=1   CHECK_MAC_STATUS
 C1:DC46H         LINE#         511
 C1:DC46H         LINE#         512
 C1:DC46H         LINE#         513
 C1:DC64H         LINE#         514
 C1:DC64H         LINE#         515
 C1:DC72H         LINE#         516
 C1:DC72H         LINE#         517
 C1:DC81H         LINE#         518
 C1:DC81H         LINE#         519
 C1:DC8AH         LINE#         520
 C1:DC8EH         LINE#         521
 C1:DC90H         LINE#         522
 C1:DC90H         LINE#         523
  -------         ENDPROC       CHECK_MAC_STATUS

  -------         PROC BANK=1   _ETHERNETRECEIVE
  X:3464H         SYMBOL        rx_buf
  -------         DO            
  X:3467H         SYMBOL        packet_len
  X:3469H         SYMBOL        pkt_addr
  X:346BH         SYMBOL        p_type
  -------         DO            
  X:346CH         SYMBOL        fst_len
  X:346EH         SYMBOL        sec_len
  X:3470H         SYMBOL        offset
  -------         ENDDO         
  -------         ENDDO         
 C1:A863H         LINE#         542
 C1:A86EH         LINE#         543
 C1:A86EH         LINE#         545
 C1:A87DH         LINE#         546
 C1:A880H         LINE#         547
 C1:A884H         LINE#         548
 C1:A884H         LINE#         549
 C1:A88BH         LINE#         551
 C1:A89AH         LINE#         552
 C1:A8B0H         LINE#         553
 C1:A8C9H         LINE#         554
 C1:A8D5H         LINE#         555
 C1:A8DEH         LINE#         556
 C1:A8E7H         LINE#         557
 C1:A8FAH         LINE#         559
 C1:A90EH         LINE#         561
 C1:A91CH         LINE#         563
 C1:A93BH         LINE#         564
 C1:A949H         LINE#         565
 C1:A94EH         LINE#         566
BL51 BANKED LINKER/LOCATER V6.00                                                      11/05/2015  16:28:40  PAGE 51


 C1:A95DH         LINE#         567
 C1:A978H         LINE#         568
 C1:A97FH         LINE#         569
 C1:A9A0H         LINE#         571
 C1:A9A6H         LINE#         572
 C1:A9D0H         LINE#         573
 C1:A9D2H         LINE#         575
 C1:A9F4H         LINE#         578
 C1:AA08H         LINE#         579
 C1:AA15H         LINE#         580
 C1:AA15H         LINE#         581
 C1:AA2FH         LINE#         582
 C1:AA39H         LINE#         583
 C1:AA39H         LINE#         585
 C1:AA49H         LINE#         586
 C1:AA4FH         LINE#         587
 C1:AA59H         LINE#         588
 C1:AA67H         LINE#         590
 C1:AA6FH         LINE#         591
  -------         ENDPROC       _ETHERNETRECEIVE

  -------         PROC BANK=1   ETHERNETRECEIVESKIP
  -------         DO            
  X:380CH         SYMBOL        packet_len
  D:0004H         SYMBOL        pkt_addr
  -------         ENDDO         
 C1:CBC0H         LINE#         601
 C1:CBC0H         LINE#         602
 C1:CBC0H         LINE#         603
 C1:CBD0H         LINE#         604
 C1:CBD4H         LINE#         606
 C1:CBD4H         LINE#         607
 C1:CBE2H         LINE#         608
 C1:CBECH         LINE#         609
 C1:CBF5H         LINE#         610
 C1:CBFEH         LINE#         611
 C1:CC0AH         LINE#         613
 C1:CC1EH         LINE#         615
 C1:CC32H         LINE#         616
 C1:CC3BH         LINE#         617
 C1:CC3BH         LINE#         618
 C1:CC4FH         LINE#         619
 C1:CC59H         LINE#         620
 C1:CC59H         LINE#         622
 C1:CC61H         LINE#         623
 C1:CC67H         LINE#         624
 C1:CC6BH         LINE#         625
 C1:CC73H         LINE#         626
 C1:CC7BH         LINE#         627
  -------         ENDPROC       ETHERNETRECEIVESKIP

  -------         PROC BANK=1   ETHERNETRECEIVEFREESPACE
  -------         DO            
  D:0004H         SYMBOL        WritePtr
  -------         ENDDO         
 C1:DBF7H         LINE#         699
 C1:DBF7H         LINE#         700
BL51 BANKED LINKER/LOCATER V6.00                                                      11/05/2015  16:28:40  PAGE 52


 C1:DC03H         LINE#         701
 C1:DC0FH         LINE#         702
 C1:DC13H         LINE#         703
 C1:DC21H         LINE#         704
 C1:DC28H         LINE#         706
 C1:DC45H         LINE#         707
  -------         ENDPROC       ETHERNETRECEIVEFREESPACE

  -------         PROC BANK=1   _UIP_ADD32
  D:0001H         SYMBOL        op32
  X:380EH         SYMBOL        op16
 C1:D4A5H         LINE#         814
 C1:D4ADH         LINE#         815
 C1:D4ADH         LINE#         817
 C1:D4B8H         LINE#         818
 C1:D4C8H         LINE#         819
 C1:D4D2H         LINE#         820
 C1:D4D9H         LINE#         822
 C1:D4EEH         LINE#         823
 C1:D4F4H         LINE#         824
 C1:D4F7H         LINE#         825
 C1:D4FDH         LINE#         826
 C1:D4FDH         LINE#         827
 C1:D4FDH         LINE#         830
 C1:D50AH         LINE#         831
 C1:D510H         LINE#         832
 C1:D513H         LINE#         833
 C1:D519H         LINE#         834
 C1:D51CH         LINE#         835
 C1:D522H         LINE#         836
 C1:D522H         LINE#         837
 C1:D522H         LINE#         838
 C1:D522H         LINE#         839
  -------         ENDPROC       _UIP_ADD32

  -------         PROC BANK=1   WAIT_PACKET_SENT
 C1:E1F6H         LINE#         845
 C1:E1F6H         LINE#         846
 C1:E1F6H         LINE#         848
 C1:E1F6H         LINE#         849
 C1:E1F9H         LINE#         850
 C1:E210H         LINE#         851
  -------         ENDPROC       WAIT_PACKET_SENT
  -------         ENDMOD        MACDRIVER

  -------         MODULE        TIMER
  C:0000H         SYMBOL        _ICE_DUMMY_
 C1:E22CH         PUBLIC        Timercounter_Init
  D:0090H         PUBLIC        P1
  D:00B0H         PUBLIC        P3
 C1:E19DH         PUBLIC        Timer_Counter_Overflow
  D:00A8H         PUBLIC        IE
  D:00B8H         PUBLIC        IP
  D:00CBH         PUBLIC        RCAP2H
  D:00CAH         PUBLIC        RCAP2L
  X:3603H         PUBLIC        timercounter
 C1:E369H         PUBLIC        Timer0_Init
BL51 BANKED LINKER/LOCATER V6.00                                                      11/05/2015  16:28:40  PAGE 53


 C1:E35BH         PUBLIC        Timer2_Init
  X:3607H         PUBLIC        high_timercounter
 C1:E3E1H         PUBLIC        Timercounter0_Init
  D:0098H         PUBLIC        SCON
  D:0089H         PUBLIC        TMOD
  D:0088H         PUBLIC        TCON
 C1:DBA1H         PUBLIC        IP210_Write_Timer_Counter
  D:008CH         PUBLIC        TH0
  D:00CDH         PUBLIC        TH2
  D:008AH         PUBLIC        TL0
  D:00D8H         PUBLIC        WDTCON
  D:00CCH         PUBLIC        TL2
  B:00C8H.2       PUBLIC        TR2
  D:00C8H         PUBLIC        T2CON
  D:00D0H         PUBLIC        PSW

  -------         PROC BANK=1   TIMER2_INIT
 C1:E35BH         LINE#         33
 C1:E35BH         LINE#         34
 C1:E35BH         LINE#         35
 C1:E35EH         LINE#         36
 C1:E361H         LINE#         37
 C1:E364H         LINE#         38
 C1:E366H         LINE#         39
 C1:E368H         LINE#         40
  -------         ENDPROC       TIMER2_INIT

  -------         PROC BANK=1   TIMER0_INIT
 C1:E369H         LINE#         42
 C1:E369H         LINE#         43
 C1:E369H         LINE#         44
 C1:E36CH         LINE#         45
 C1:E36FH         LINE#         46
 C1:E372H         LINE#         47
 C1:E374H         LINE#         51
  -------         ENDPROC       TIMER0_INIT

  -------         PROC BANK=1   IP210_WRITE_TIMER_COUNTER
 C1:DBA1H         LINE#         64
 C1:DBA1H         LINE#         65
 C1:DBA1H         LINE#         66
 C1:DBAEH         LINE#         67
 C1:DBC6H         LINE#         68
 C1:DBDEH         LINE#         69
 C1:DBF6H         LINE#         70
  -------         ENDPROC       IP210_WRITE_TIMER_COUNTER

  -------         PROC BANK=1   TIMERCOUNTER_INIT
 C1:E22CH         LINE#         84
 C1:E22CH         LINE#         85
 C1:E22CH         LINE#         88
 C1:E22FH         LINE#         90
 C1:E239H         LINE#         91
 C1:E243H         LINE#         92
  -------         ENDPROC       TIMERCOUNTER_INIT

  -------         PROC BANK=1   TIMERCOUNTER0_INIT
BL51 BANKED LINKER/LOCATER V6.00                                                      11/05/2015  16:28:40  PAGE 54


 C1:E3E1H         LINE#         97
 C1:E3E1H         LINE#         98
 C1:E3E1H         LINE#         101
  -------         ENDPROC       TIMERCOUNTER0_INIT

  -------         PROC BANK=1   TIMER_COUNTER_OVERFLOW
 C1:E19DH         LINE#         119
 C1:E19DH         LINE#         120
 C1:E19DH         LINE#         121
  -------         ENDPROC       TIMER_COUNTER_OVERFLOW
  -------         ENDMOD        TIMER

  -------         MODULE        UART
  C:0000H         SYMBOL        _ICE_DUMMY_
  D:0090H         PUBLIC        P1
  D:00B0H         PUBLIC        P3
  D:00A8H         PUBLIC        IE
 C1:D273H         PUBLIC        UART_Set_Property
  D:00B8H         PUBLIC        IP
 C1:E3B1H         PUBLIC        UART_Set_RTS
 C1:DFA3H         PUBLIC        _UART_Receive_Multi
  D:0098H         PUBLIC        SCON
  D:0088H         PUBLIC        TCON
 C1:E2E4H         PUBLIC        _UART_Receive_Byte
 C1:DEB6H         PUBLIC        _UART_Transmit_Multi
  X:2BF5H         PUBLIC        UART_Baudrate
 C1:E3D5H         PUBLIC        _UART_Transmit_Byte
  D:00D8H         PUBLIC        WDTCON
 C1:E3CFH         PUBLIC        UART_Rx_FIFO_Status
 C1:E3C9H         PUBLIC        UART_Tx_FIFO_Status
 C1:E211H         PUBLIC        UART_Empty_Rx_FIFO
 C1:E3B9H         PUBLIC        UART_Clear_RTS
  D:00C8H         PUBLIC        T2CON
 C1:E25EH         PUBLIC        _UART_Set_Divisor
  X:2C91H         PUBLIC        UART_Settings
  D:00D0H         PUBLIC        PSW

  -------         PROC BANK=1   _UART_SET_DIVISOR
  D:0007H         SYMBOL        divisor_H
  D:0005H         SYMBOL        divisor_L
  -------         DO            
  D:0006H         SYMBOL        byte_data
  -------         ENDDO         
 C1:E25EH         LINE#         21
 C1:E25EH         LINE#         22
 C1:E25EH         LINE#         26
 C1:E262H         LINE#         27
 C1:E265H         LINE#         28
 C1:E266H         LINE#         30
 C1:E26BH         LINE#         31
 C1:E26EH         LINE#         34
 C1:E271H         LINE#         35
 C1:E275H         LINE#         37
  -------         ENDPROC       _UART_SET_DIVISOR

  -------         PROC BANK=1   UART_SET_PROPERTY
  -------         DO            
BL51 BANKED LINKER/LOCATER V6.00                                                      11/05/2015  16:28:40  PAGE 55


  D:0005H         SYMBOL        divisor_L
  D:0007H         SYMBOL        divisor_H
  D:0007H         SYMBOL        byte_data
  -------         ENDDO         
 C1:D273H         LINE#         39
 C1:D273H         LINE#         40
 C1:D273H         LINE#         46
 C1:D27EH         LINE#         47
 C1:D27EH         LINE#         48
 C1:D282H         LINE#         49
 C1:D285H         LINE#         50
 C1:D286H         LINE#         53
 C1:D28AH         LINE#         54
 C1:D28CH         LINE#         57
 C1:D294H         LINE#         58
 C1:D296H         LINE#         60
 C1:D299H         LINE#         62
 C1:D29DH         LINE#         63
 C1:D29FH         LINE#         67
 C1:D2A3H         LINE#         71
 C1:D2A6H         LINE#         72
 C1:D2ACH         LINE#         73
 C1:D2AEH         LINE#         76
 C1:D2B5H         LINE#         77
 C1:D2BBH         LINE#         79
 C1:D2BFH         LINE#         82
 C1:D2C3H         LINE#         83
 C1:D2C8H         LINE#         84
 C1:D2CCH         LINE#         86
 C1:D2CDH         LINE#         90
 C1:D2D3H         LINE#         91
 C1:D2D3H         LINE#         92
 C1:D2D3H         LINE#         93
 C1:D2D7H         LINE#         94
 C1:D2D8H         LINE#         97
 C1:D2DCH         LINE#         100
 C1:D2DEH         LINE#         101
 C1:D2DFH         LINE#         102
 C1:D2E0H         LINE#         105
 C1:D2E0H         LINE#         106
 C1:D2E7H         LINE#         107
 C1:D2E7H         LINE#         108
 C1:D2EBH         LINE#         110
 C1:D2EEH         LINE#         111
 C1:D2EFH         LINE#         112
 C1:D2F0H         LINE#         114
 C1:D2F0H         LINE#         117
 C1:D2F4H         LINE#         118
 C1:D2F7H         LINE#         121
 C1:D2FDH         LINE#         122
 C1:D301H         LINE#         123
 C1:D306H         LINE#         124
 C1:D307H         LINE#         126
 C1:D307H         LINE#         128
  -------         ENDPROC       UART_SET_PROPERTY

  -------         PROC BANK=1   _UART_TRANSMIT_MULTI
BL51 BANKED LINKER/LOCATER V6.00                                                      11/05/2015  16:28:40  PAGE 56


  X:374DH         SYMBOL        ptr_src
  X:3750H         SYMBOL        length
  -------         DO            
  D:0006H         SYMBOL        tx_count
  D:0005H         SYMBOL        tx_byte
  -------         ENDDO         
 C1:DEB6H         LINE#         130
 C1:DEC7H         LINE#         131
 C1:DEC7H         LINE#         132
 C1:DECAH         LINE#         133
 C1:DECAH         LINE#         135
 C1:DED7H         LINE#         136
 C1:DED7H         LINE#         137
 C1:DEEAH         LINE#         138
 C1:DEEEH         LINE#         139
 C1:DEF5H         LINE#         140
  -------         ENDPROC       _UART_TRANSMIT_MULTI

  -------         PROC BANK=1   _UART_RECEIVE_MULTI
  X:37B4H         SYMBOL        ptr_des
  D:0005H         SYMBOL        length
  -------         DO            
  D:0007H         SYMBOL        rx_count
  D:0006H         SYMBOL        rx_byte
  -------         ENDDO         
 C1:DFA3H         LINE#         142
 C1:DFAEH         LINE#         143
 C1:DFAEH         LINE#         144
 C1:DFB0H         LINE#         146
 C1:DFB5H         LINE#         147
 C1:DFB5H         LINE#         148
 C1:DFBAH         LINE#         151
 C1:DFCEH         LINE#         152
 C1:DFD1H         LINE#         153
  -------         ENDPROC       _UART_RECEIVE_MULTI

  -------         PROC BANK=1   UART_TX_FIFO_STATUS
 C1:E3C9H         LINE#         157
 C1:E3C9H         LINE#         158
 C1:E3C9H         LINE#         159
 C1:E3CEH         LINE#         160
  -------         ENDPROC       UART_TX_FIFO_STATUS

  -------         PROC BANK=1   UART_RX_FIFO_STATUS
 C1:E3CFH         LINE#         162
 C1:E3CFH         LINE#         163
 C1:E3CFH         LINE#         164
 C1:E3D4H         LINE#         165
  -------         ENDPROC       UART_RX_FIFO_STATUS

  -------         PROC BANK=1   UART_EMPTY_RX_FIFO
  -------         DO            
  D:0007H         SYMBOL        rx_count
  X:382FH         SYMBOL        rx_byte
  D:0006H         SYMBOL        i
  -------         ENDDO         
 C1:E211H         LINE#         167
BL51 BANKED LINKER/LOCATER V6.00                                                      11/05/2015  16:28:40  PAGE 57


 C1:E211H         LINE#         168
 C1:E211H         LINE#         169
 C1:E213H         LINE#         171
 C1:E216H         LINE#         172
 C1:E219H         LINE#         173
 C1:E219H         LINE#         174
 C1:E220H         LINE#         175
 C1:E220H         LINE#         176
 C1:E228H         LINE#         177
 C1:E22BH         LINE#         178
 C1:E22BH         LINE#         180
  -------         ENDPROC       UART_EMPTY_RX_FIFO

  -------         PROC BANK=1   _UART_RECEIVE_BYTE
  D:0001H         SYMBOL        Rx_byte
 C1:E2E4H         LINE#         182
 C1:E2E4H         LINE#         183
 C1:E2E4H         LINE#         185
 C1:E2EAH         LINE#         186
 C1:E2EAH         LINE#         187
 C1:E2F1H         LINE#         188
 C1:E2F4H         LINE#         189
 C1:E2F4H         LINE#         191
 C1:E2F4H         LINE#         192
 C1:E2F6H         LINE#         193
 C1:E2F6H         LINE#         195
  -------         ENDPROC       _UART_RECEIVE_BYTE

  -------         PROC BANK=1   _UART_TRANSMIT_BYTE
  D:0007H         SYMBOL        Tx_byte
 C1:E3D5H         LINE#         198
 C1:E3D5H         LINE#         199
 C1:E3D5H         LINE#         200
 C1:E3DAH         LINE#         201
  -------         ENDPROC       _UART_TRANSMIT_BYTE

  -------         PROC BANK=1   UART_SET_RTS
  -------         DO            
  D:0007H         SYMBOL        tmp
  -------         ENDDO         
 C1:E3B1H         LINE#         202
 C1:E3B1H         LINE#         203
 C1:E3B1H         LINE#         205
 C1:E3B5H         LINE#         206
 C1:E3B8H         LINE#         207
  -------         ENDPROC       UART_SET_RTS

  -------         PROC BANK=1   UART_CLEAR_RTS
  -------         DO            
  D:0007H         SYMBOL        tmp
  -------         ENDDO         
 C1:E3B9H         LINE#         209
 C1:E3B9H         LINE#         210
 C1:E3B9H         LINE#         212
 C1:E3BDH         LINE#         213
 C1:E3C0H         LINE#         214
  -------         ENDPROC       UART_CLEAR_RTS
BL51 BANKED LINKER/LOCATER V6.00                                                      11/05/2015  16:28:40  PAGE 58


  -------         ENDMOD        UART

  -------         MODULE        MDC_MDIO
  C:0000H         SYMBOL        _ICE_DUMMY_
  D:0090H         PUBLIC        P1
  D:00B0H         PUBLIC        P3
  D:00A8H         PUBLIC        IE
 C1:DDF4H         PUBLIC        _Read_MDC
  D:00B8H         PUBLIC        IP
 C1:DD6CH         PUBLIC        _Write_MDC
  X:3810H         PUBLIC        MDC_PREM_OFF
  X:3811H         PUBLIC        MDC_SPEED
  D:0098H         PUBLIC        SCON
  D:0088H         PUBLIC        TCON
  D:00D8H         PUBLIC        WDTCON
  D:00C8H         PUBLIC        T2CON
  D:00D0H         PUBLIC        PSW

  -------         PROC BANK=1   _READ_MDC
  D:0007H         SYMBOL        phyad
  D:0005H         SYMBOL        regad
  -------         DO            
  D:0007H         SYMBOL        reg
  D:0006H         SYMBOL        ret_reg
  D:0002H         SYMBOL        i
  -------         ENDDO         
 C1:DDF4H         LINE#         31
 C1:DDF4H         LINE#         32
 C1:DDF4H         LINE#         33
 C1:DDF7H         LINE#         34
 C1:DDFCH         LINE#         35
 C1:DDFFH         LINE#         37
 C1:DE11H         LINE#         38
 C1:DE11H         LINE#         39
 C1:DE16H         LINE#         40
 C1:DE1BH         LINE#         41
 C1:DE28H         LINE#         42
 C1:DE2CH         LINE#         43
 C1:DE2DH         LINE#         44
 C1:DE34H         LINE#         45
 C1:DE34H         LINE#         46
  -------         ENDPROC       _READ_MDC

  -------         PROC BANK=1   _WRITE_MDC
  X:3830H         SYMBOL        phyad
  D:0001H         SYMBOL        regad
  D:0002H         SYMBOL        Regdata
  -------         DO            
  D:0007H         SYMBOL        reg
  D:0004H         SYMBOL        i
  -------         ENDDO         
 C1:DD6CH         LINE#         62
 C1:DD73H         LINE#         63
 C1:DD73H         LINE#         65
 C1:DD76H         LINE#         66
 C1:DD7BH         LINE#         67
 C1:DD80H         LINE#         68
BL51 BANKED LINKER/LOCATER V6.00                                                      11/05/2015  16:28:40  PAGE 59


 C1:DD88H         LINE#         69
 C1:DD8BH         LINE#         71
 C1:DD99H         LINE#         72
 C1:DD99H         LINE#         73
 C1:DD9EH         LINE#         74
 C1:DDA3H         LINE#         75
 C1:DDB0H         LINE#         76
  -------         ENDPROC       _WRITE_MDC
  -------         ENDMOD        MDC_MDIO

  -------         MODULE        OS_CBK
  C:0000H         SYMBOL        _ICE_DUMMY_
  D:0080H         PUBLIC        P0
 C1:E32EH         PUBLIC        os_loop
  D:0090H         PUBLIC        P1
  D:00A0H         PUBLIC        P2
  D:00B0H         PUBLIC        P3
  D:00E8H         PUBLIC        P4
  X:3574H         PUBLIC        gateway_count
  D:00A8H         PUBLIC        IE
  B:00E8H.5       PUBLIC        P4_5
  D:00B8H         PUBLIC        IP
  X:3576H         PUBLIC        Link_Status_Change
  X:3577H         PUBLIC        firm_flag
 C1:E38CH         PUBLIC        os_initial
  X:3578H         PUBLIC        boot_flag
  D:0098H         PUBLIC        SCON
  D:0088H         PUBLIC        TCON
 C1:D991H         PUBLIC        Check_Speed
  X:3579H         PUBLIC        firm_count
 C1:D613H         PUBLIC        LoadDefault
  D:00D8H         PUBLIC        WDTCON
 C1:E116H         PUBLIC        os_loop_100ms
 C1:E0F2H         PUBLIC        Gateway_timer
  X:357BH         PUBLIC        force_reset_countdown
  D:00C8H         PUBLIC        T2CON
 C1:DF36H         PUBLIC        Check_FirmwareUpdate
  X:357CH         PUBLIC        load_default_pin_pressed
  D:00D0H         PUBLIC        PSW

  -------         PROC BANK=1   LOADDEFAULT
 C1:D613H         LINE#         27
 C1:D613H         LINE#         28
 C1:D61FH         LINE#         29
 C1:D61FH         LINE#         30
 C1:D63AH         LINE#         31
 C1:D63AH         LINE#         32
 C1:D65DH         LINE#         33
 C1:D660H         LINE#         34
 C1:D663H         LINE#         35
 C1:D668H         LINE#         36
 C1:D66CH         LINE#         37
 C1:D675H         LINE#         38
 C1:D67BH         LINE#         39
 C1:D67BH         LINE#         40
 C1:D67BH         LINE#         41
 C1:D685H         LINE#         42
BL51 BANKED LINKER/LOCATER V6.00                                                      11/05/2015  16:28:40  PAGE 60


 C1:D685H         LINE#         43
 C1:D687H         LINE#         44
 C1:D687H         LINE#         45
  -------         ENDPROC       LOADDEFAULT

  -------         PROC BANK=1   OS_INITIAL
 C1:E38CH         LINE#         47
 C1:E38CH         LINE#         52
 C1:E392H         LINE#         53
 C1:E394H         LINE#         60
  -------         ENDPROC       OS_INITIAL

  -------         PROC BANK=1   CHECK_FIRMWAREUPDATE
 C1:DF36H         LINE#         89
 C1:DF36H         LINE#         90
 C1:DF44H         LINE#         91
 C1:DF44H         LINE#         92
 C1:DF52H         LINE#         93
 C1:DF61H         LINE#         94
 C1:DF61H         LINE#         95
 C1:DF65H         LINE#         96
 C1:DF68H         LINE#         97
 C1:DF6FH         LINE#         98
 C1:DF72H         LINE#         99
 C1:DF72H         LINE#         100
 C1:DF72H         LINE#         101
  -------         ENDPROC       CHECK_FIRMWAREUPDATE

  -------         PROC BANK=1   GATEWAY_TIMER
 C1:E0F2H         LINE#         104
 C1:E0F2H         LINE#         105
 C1:E100H         LINE#         106
 C1:E10FH         LINE#         107
 C1:E10FH         LINE#         108
 C1:E112H         LINE#         110
 C1:E115H         LINE#         115
 C1:E115H         LINE#         116
  -------         ENDPROC       GATEWAY_TIMER

  -------         PROC BANK=1   OS_LOOP
 C1:E32EH         LINE#         118
 C1:E32EH         LINE#         120
 C1:E331H         LINE#         123
 C1:E334H         LINE#         129
 C1:E337H         LINE#         132
 C1:E33AH         LINE#         135
  -------         ENDPROC       OS_LOOP

  -------         PROC BANK=1   CHECK_SPEED
  -------         DO            
  D:0004H         SYMBOL        status
  X:3831H         SYMBOL        tmpvalue
  -------         ENDDO         
 C1:D991H         LINE#         139
 C1:D991H         LINE#         140
 C1:D994H         LINE#         141
 C1:D998H         LINE#         143
BL51 BANKED LINKER/LOCATER V6.00                                                      11/05/2015  16:28:40  PAGE 61


 C1:D9A2H         LINE#         144
 C1:D9A6H         LINE#         145
 C1:D9ACH         LINE#         147
 C1:D9B8H         LINE#         148
 C1:D9BAH         LINE#         150
 C1:D9C2H         LINE#         152
 C1:D9CAH         LINE#         153
 C1:D9CEH         LINE#         155
 C1:D9D2H         LINE#         156
 C1:D9D6H         LINE#         158
 C1:D9D6H         LINE#         160
 C1:D9D6H         LINE#         161
 C1:D9DAH         LINE#         162
 C1:D9E1H         LINE#         164
 C1:D9E1H         LINE#         166
 C1:D9E1H         LINE#         167
 C1:D9E9H         LINE#         168
 C1:D9E9H         LINE#         169
  -------         ENDPROC       CHECK_SPEED

  -------         PROC BANK=1   OS_LOOP_100MS
 C1:E116H         LINE#         171
 C1:E116H         LINE#         173
 C1:E119H         LINE#         179
 C1:E11CH         LINE#         182
 C1:E11FH         LINE#         185
 C1:E122H         LINE#         191
 C1:E125H         LINE#         193
 C1:E128H         LINE#         194
 C1:E12EH         LINE#         195
 C1:E135H         LINE#         196
 C1:E138H         LINE#         197
 C1:E138H         LINE#         198
  -------         ENDPROC       OS_LOOP_100MS
  -------         ENDMOD        OS_CBK

  -------         MODULE        VTAG
  C:0000H         SYMBOL        _ICE_DUMMY_
  D:0080H         PUBLIC        P0
  D:0090H         PUBLIC        P1
  D:00A0H         PUBLIC        P2
  D:00B0H         PUBLIC        P3
  D:00E8H         PUBLIC        P4
  D:00A8H         PUBLIC        IE
  D:00B8H         PUBLIC        IP
 C1:E054H         PUBLIC        EnVlanCheck
  X:3752H         PUBLIC        vlan_value
  D:0098H         PUBLIC        SCON
  D:0088H         PUBLIC        TCON
  C:3E3CH         SYMBOL        _?ix1000
  D:00D8H         PUBLIC        WDTCON
 C1:D688H         PUBLIC        Check_Vlan_Tag
  X:3756H         PUBLIC        eth_vlan
 C1:CF45H         PUBLIC        _vlan_tag_pkt
  D:00C8H         PUBLIC        T2CON
 C1:CDE6H         PUBLIC        re_init
  D:00D0H         PUBLIC        PSW
BL51 BANKED LINKER/LOCATER V6.00                                                      11/05/2015  16:28:40  PAGE 62



  -------         PROC BANK=1   CHECK_VLAN_TAG
 C1:D688H         LINE#         12
 C1:D688H         LINE#         13
 C1:D690H         LINE#         14
 C1:D690H         LINE#         16
 C1:D693H         LINE#         21
 C1:D69FH         LINE#         22
 C1:D69FH         LINE#         23
 C1:D6B5H         LINE#         24
 C1:D6C3H         LINE#         25
 C1:D6D1H         LINE#         26
 C1:D6D7H         LINE#         27
 C1:D6D9H         LINE#         29
 C1:D6D9H         LINE#         30
 C1:D6E7H         LINE#         31
 C1:D6F5H         LINE#         32
 C1:D6F5H         LINE#         33
 C1:D6F8H         LINE#         34
 C1:D6F8H         LINE#         35
  -------         ENDPROC       CHECK_VLAN_TAG

  -------         PROC BANK=1   _VLAN_TAG_PKT
  X:3371H         SYMBOL        input_buf
  X:3374H         SYMBOL        len_ptr
  -------         DO            
  X:3377H         SYMBOL        tag_buf
  -------         ENDDO         
 C1:CF45H         LINE#         37
 C1:CF50H         LINE#         38
 C1:CF50H         LINE#         39
 C1:CF63H         LINE#         41
 C1:CF66H         LINE#         46
 C1:CF83H         LINE#         47
 C1:CF96H         LINE#         48
 C1:CFAEH         LINE#         49
 C1:CFCAH         LINE#         50
 C1:CFDDH         LINE#         52
 C1:CFE0H         LINE#         57
 C1:CFF0H         LINE#         58
  -------         ENDPROC       _VLAN_TAG_PKT

  -------         PROC BANK=1   ENVLANCHECK
 C1:E054H         LINE#         60
 C1:E054H         LINE#         61
 C1:E054H         LINE#         63
 C1:E057H         LINE#         68
 C1:E05EH         LINE#         69
 C1:E05EH         LINE#         70
 C1:E074H         LINE#         71
 C1:E077H         LINE#         72
 C1:E077H         LINE#         74
 C1:E07AH         LINE#         79
 C1:E07CH         LINE#         80
  -------         ENDPROC       ENVLANCHECK

  -------         PROC BANK=1   RE_INIT
BL51 BANKED LINKER/LOCATER V6.00                                                      11/05/2015  16:28:40  PAGE 63


 C1:CDE6H         LINE#         82
 C1:CDE6H         LINE#         83
 C1:CDE6H         LINE#         84
 C1:CDE9H         LINE#         85
 C1:CDECH         LINE#         86
 C1:CE21H         LINE#         87
 C1:CE3EH         LINE#         89
 C1:CE3EH         LINE#         90
 C1:CE53H         LINE#         91
 C1:CE5FH         LINE#         92
 C1:CE61H         LINE#         94
 C1:CE61H         LINE#         95
 C1:CE7CH         LINE#         96
 C1:CE95H         LINE#         97
 C1:CE95H         LINE#         98
  -------         ENDPROC       RE_INIT
  -------         ENDMOD        VTAG

  -------         MODULE        FS
  C:0000H         SYMBOL        _ICE_DUMMY_
  X:3013H         PUBLIC        fsop
 C1:C6E8H         PUBLIC        _fs_open
  X:305BH         PUBLIC        indata

  -------         PROC BANK=1   _FS_OPEN
  X:357DH         SYMBOL        name
  X:3580H         SYMBOL        fsop_idx
  -------         DO            
  X:3583H         SYMBOL        ptr
  -------         ENDDO         
 C1:C6E8H         LINE#         84
 C1:C6F3H         LINE#         85
 C1:C6F3H         LINE#         89
 C1:C700H         LINE#         90
 C1:C736H         LINE#         91
 C1:C736H         LINE#         92
 C1:C76AH         LINE#         93
 C1:C778H         LINE#         94
 C1:C778H         LINE#         114
 C1:C79EH         LINE#         115
 C1:C7AAH         LINE#         116
 C1:C7AAH         LINE#         117
 C1:C7C5H         LINE#         118
 C1:C7CBH         LINE#         119
  -------         ENDPROC       _FS_OPEN
  -------         ENDMOD        FS

  -------         MODULE        HTMFILES0
  C:0000H         SYMBOL        _ICE_DUMMY_
 C0:506DH         PUBLIC        cgi_table00
  D:0090H         PUBLIC        P1
  D:00B0H         PUBLIC        P3
  D:00A8H         PUBLIC        IE
  D:00B8H         PUBLIC        IP
 C0:5333H         PUBLIC        _get_tag00
 C0:52EBH         PUBLIC        _datacpy00
 C0:5077H         PUBLIC        _fs_open00
BL51 BANKED LINKER/LOCATER V6.00                                                      11/05/2015  16:28:40  PAGE 64


  D:0098H         PUBLIC        SCON
  D:0088H         PUBLIC        TCON
 C0:5073H         SYMBOL        _?ix1000
  D:00D8H         PUBLIC        WDTCON
 C0:51EFH         PUBLIC        FU_Check
 C0:5064H         PUBLIC        files_table00
  D:00C8H         PUBLIC        T2CON
  D:00D0H         PUBLIC        PSW

  -------         PROC BANK=0   _FS_OPEN00
  X:36B9H         SYMBOL        name
  -------         DO            
  X:36BCH         SYMBOL        ptr
  -------         ENDDO         
 C0:5077H         LINE#         69
 C0:5082H         LINE#         70
 C0:5082H         LINE#         72
 C0:509AH         LINE#         73
 C0:50ABH         LINE#         74
 C0:50ABH         LINE#         75
 C0:50B5H         LINE#         76
 C0:50C5H         LINE#         77
 C0:50C9H         LINE#         78
 C0:50C9H         LINE#         79
 C0:50EDH         LINE#         80
 C0:50EDH         LINE#         81
 C0:511BH         LINE#         82
 C0:511BH         LINE#         83
 C0:5148H         LINE#         84
 C0:515DH         LINE#         85
 C0:515DH         LINE#         86
 C0:519AH         LINE#         87
 C0:51C3H         LINE#         88
 C0:51C3H         LINE#         89
 C0:51DBH         LINE#         90
 C0:51DBH         LINE#         91
 C0:51E8H         LINE#         92
 C0:51EEH         LINE#         93
  -------         ENDPROC       _FS_OPEN00

  -------         PROC BANK=0   _DATACPY00
  X:37B7H         SYMBOL        inputdata
 C0:52EBH         LINE#         106
 C0:52F6H         LINE#         107
 C0:52F6H         LINE#         108
  -------         ENDPROC       _DATACPY00

  -------         PROC BANK=0   _GET_TAG00
  D:0007H         SYMBOL        index
 C0:5333H         LINE#         122
 C0:5333H         LINE#         123
 C0:5333H         LINE#         124
 C0:5354H         LINE#         125
  -------         ENDPROC       _GET_TAG00

  -------         PROC BANK=0   FU_CHECK
  -------         DO            
BL51 BANKED LINKER/LOCATER V6.00                                                      11/05/2015  16:28:40  PAGE 65


  X:360BH         SYMBOL        i
  X:360DH         SYMBOL        bRun_FUU
  X:360EH         SYMBOL        checksum
  X:360FH         SYMBOL        magic_code
  -------         ENDDO         
 C0:51EFH         LINE#         127
 C0:51EFH         LINE#         128
 C0:51EFH         LINE#         130
 C0:51F4H         LINE#         131
 C0:51F6H         LINE#         132
 C0:5208H         LINE#         135
 C0:5208H         LINE#         142
 C0:521FH         LINE#         143
 C0:521FH         LINE#         144
 C0:5241H         LINE#         145
 C0:5241H         LINE#         146
 C0:5251H         LINE#         147
 C0:5257H         LINE#         148
 C0:5257H         LINE#         149
 C0:525DH         LINE#         150
 C0:525DH         LINE#         151
 C0:525FH         LINE#         152
 C0:525FH         LINE#         154
 C0:5276H         LINE#         155
 C0:5276H         LINE#         156
 C0:5288H         LINE#         157
 C0:5298H         LINE#         158
 C0:52AEH         LINE#         159
 C0:52BBH         LINE#         160
 C0:52BBH         LINE#         161
 C0:52D2H         LINE#         162
 C0:52D8H         LINE#         163
 C0:52D8H         LINE#         164
 C0:52D8H         LINE#         166
 C0:52DEH         LINE#         167
 C0:52DEH         LINE#         168
 C0:52E7H         LINE#         169
 C0:52EAH         LINE#         170
 C0:52EAH         LINE#         171
  -------         ENDPROC       FU_CHECK
  -------         ENDMOD        HTMFILES0

  -------         MODULE        HTMFILES1
  C:0000H         SYMBOL        _ICE_DUMMY_
 C1:5009H         PUBLIC        cgi_table01
 C1:E139H         PUBLIC        _get_tag01
 C1:DD24H         PUBLIC        _datacpy01
 C1:B199H         PUBLIC        _fs_open01
 C1:5000H         PUBLIC        files_table01

  -------         PROC BANK=1   _FS_OPEN01
  X:36BFH         SYMBOL        name
  -------         DO            
  X:36C2H         SYMBOL        ptr
  -------         ENDDO         
 C1:B199H         LINE#         68
 C1:B1A4H         LINE#         69
BL51 BANKED LINKER/LOCATER V6.00                                                      11/05/2015  16:28:40  PAGE 66


 C1:B1A4H         LINE#         71
 C1:B1BCH         LINE#         72
 C1:B1CDH         LINE#         73
 C1:B1CDH         LINE#         74
 C1:B1D7H         LINE#         75
 C1:B1E7H         LINE#         76
 C1:B1EBH         LINE#         77
 C1:B1EBH         LINE#         78
 C1:B20FH         LINE#         79
 C1:B20FH         LINE#         80
 C1:B23DH         LINE#         81
 C1:B23DH         LINE#         82
 C1:B26AH         LINE#         83
 C1:B27FH         LINE#         84
 C1:B27FH         LINE#         85
 C1:B2BCH         LINE#         86
 C1:B2E5H         LINE#         87
 C1:B2E5H         LINE#         88
 C1:B2FDH         LINE#         89
 C1:B2FDH         LINE#         90
 C1:B30AH         LINE#         91
 C1:B310H         LINE#         92
  -------         ENDPROC       _FS_OPEN01

  -------         PROC BANK=1   _DATACPY01
  X:37BAH         SYMBOL        inputdata
 C1:DD24H         LINE#         105
 C1:DD2FH         LINE#         106
 C1:DD2FH         LINE#         107
  -------         ENDPROC       _DATACPY01

  -------         PROC BANK=1   _GET_TAG01
  D:0007H         SYMBOL        index
 C1:E139H         LINE#         121
 C1:E139H         LINE#         122
 C1:E139H         LINE#         123
 C1:E15AH         LINE#         124
  -------         ENDPROC       _GET_TAG01
  -------         ENDMOD        HTMFILES1

  -------         MODULE        HTMFILES2
  C:0000H         SYMBOL        _ICE_DUMMY_
 C2:5009H         PUBLIC        cgi_table02
 C2:D291H         PUBLIC        _get_tag02
 C2:CFDBH         PUBLIC        _datacpy02
 C2:A9EEH         PUBLIC        _fs_open02
 C2:5000H         PUBLIC        files_table02

  -------         PROC BANK=2   _FS_OPEN02
  X:36C5H         SYMBOL        name
  -------         DO            
  X:36C8H         SYMBOL        ptr
  -------         ENDDO         
 C2:A9EEH         LINE#         68
 C2:A9F9H         LINE#         69
 C2:A9F9H         LINE#         71
 C2:AA11H         LINE#         72
BL51 BANKED LINKER/LOCATER V6.00                                                      11/05/2015  16:28:40  PAGE 67


 C2:AA22H         LINE#         73
 C2:AA22H         LINE#         74
 C2:AA2CH         LINE#         75
 C2:AA3CH         LINE#         76
 C2:AA40H         LINE#         77
 C2:AA40H         LINE#         78
 C2:AA64H         LINE#         79
 C2:AA64H         LINE#         80
 C2:AA92H         LINE#         81
 C2:AA92H         LINE#         82
 C2:AABFH         LINE#         83
 C2:AAD4H         LINE#         84
 C2:AAD4H         LINE#         85
 C2:AB11H         LINE#         86
 C2:AB3AH         LINE#         87
 C2:AB3AH         LINE#         88
 C2:AB52H         LINE#         89
 C2:AB52H         LINE#         90
 C2:AB5FH         LINE#         91
 C2:AB65H         LINE#         92
  -------         ENDPROC       _FS_OPEN02

  -------         PROC BANK=2   _DATACPY02
  X:37BDH         SYMBOL        inputdata
 C2:CFDBH         LINE#         105
 C2:CFE6H         LINE#         106
 C2:CFE6H         LINE#         107
  -------         ENDPROC       _DATACPY02

  -------         PROC BANK=2   _GET_TAG02
  D:0007H         SYMBOL        index
 C2:D291H         LINE#         121
 C2:D291H         LINE#         122
 C2:D291H         LINE#         123
 C2:D2B2H         LINE#         124
  -------         ENDPROC       _GET_TAG02
  -------         ENDMOD        HTMFILES2

  -------         MODULE        HTMFILES3
  C:0000H         SYMBOL        _ICE_DUMMY_
 C3:F977H         PUBLIC        cgi_table03
  X:26AEH         PUBLIC        smtp_htm_tags
  X:26B7H         PUBLIC        login2_htm_tags
 C3:A996H         PUBLIC        setDef_htm_file
 C3:AA46H         PUBLIC        setIP_htm_file
 C3:EC2DH         PUBLIC        udp_tel_htm_file
 C3:FBC7H         PUBLIC        _get_tag03
  X:26C0H         PUBLIC        setIP_htm_tags
 C3:698BH         PUBLIC        errormsg_htm_file
 C3:FB7FH         PUBLIC        _datacpy03
  X:2705H         PUBLIC        udp_tel_htm_tags
 C3:FA07H         PUBLIC        _fs_open03
  X:270EH         PUBLIC        errormsg_htm_tags
 C3:BD62H         PUBLIC        setPASS_htm_file
 C3:C425H         PUBLIC        Status_htm_file
 C3:78E1H         PUBLIC        telnet_htm_file
 C3:66DBH         PUBLIC        NoService_htm_file
BL51 BANKED LINKER/LOCATER V6.00                                                      11/05/2015  16:28:40  PAGE 68


  X:272FH         PUBLIC        setPASS_htm_tags
  X:273EH         PUBLIC        Status_htm_tags
 C3:516CH         PUBLIC        index_htm_file
 C3:6404H         PUBLIC        login_htm_file
  X:274DH         PUBLIC        telnet_htm_tags
 C3:F25CH         PUBLIC        dido_htm_file
 C3:E8C9H         PUBLIC        adc_htm_file
 C3:521FH         PUBLIC        left_htm_file
  X:27ECH         PUBLIC        dido_htm_tags
 C3:F869H         PUBLIC        files_table03
  X:280AH         PUBLIC        adc_htm_tags
 C3:6B2DH         PUBLIC        fw_up_wait_htm_file
 C3:6C2FH         PUBLIC        uart_htm_file
 C3:C706H         PUBLIC        smtp_htm_file
  X:2816H         PUBLIC        uart_htm_tags
 C3:6490H         PUBLIC        login2_htm_file

  -------         PROC BANK=3   _FS_OPEN03
  X:36CBH         SYMBOL        name
  -------         DO            
  X:36CEH         SYMBOL        ptr
  -------         ENDDO         
 C3:FA07H         LINE#         340
 C3:FA12H         LINE#         341
 C3:FA12H         LINE#         343
 C3:FA2AH         LINE#         344
 C3:FA3BH         LINE#         345
 C3:FA3BH         LINE#         346
 C3:FA45H         LINE#         347
 C3:FA55H         LINE#         348
 C3:FA59H         LINE#         349
 C3:FA59H         LINE#         350
 C3:FA7DH         LINE#         351
 C3:FA7DH         LINE#         352
 C3:FAABH         LINE#         353
 C3:FAABH         LINE#         354
 C3:FAD8H         LINE#         355
 C3:FAEDH         LINE#         356
 C3:FAEDH         LINE#         357
 C3:FB2AH         LINE#         358
 C3:FB53H         LINE#         359
 C3:FB53H         LINE#         360
 C3:FB6BH         LINE#         361
 C3:FB6BH         LINE#         362
 C3:FB78H         LINE#         363
 C3:FB7EH         LINE#         364
  -------         ENDPROC       _FS_OPEN03

  -------         PROC BANK=3   _DATACPY03
  X:37C0H         SYMBOL        inputdata
 C3:FB7FH         LINE#         377
 C3:FB8AH         LINE#         378
 C3:FB8AH         LINE#         379
  -------         ENDPROC       _DATACPY03

  -------         PROC BANK=3   _GET_TAG03
  D:0007H         SYMBOL        index
BL51 BANKED LINKER/LOCATER V6.00                                                      11/05/2015  16:28:40  PAGE 69


 C3:FBC7H         LINE#         393
 C3:FBC7H         LINE#         394
 C3:FBC7H         LINE#         395
 C3:FBE8H         LINE#         396
  -------         ENDPROC       _GET_TAG03
  -------         ENDMOD        HTMFILES3

  -------         MODULE        HTMFILES4
  C:0000H         SYMBOL        _ICE_DUMMY_
 C4:5271H         PUBLIC        cgi_table04
 C4:5465H         PUBLIC        FUU_Run
 C4:5443H         PUBLIC        _get_tag04
 C4:53FBH         PUBLIC        _datacpy04
 C4:5283H         PUBLIC        _fs_open04
 C4:5136H         PUBLIC        fu_up_htm_file
 C4:5030H         PUBLIC        fw_up_htm_file
 C4:5244H         PUBLIC        files_table04

  -------         PROC BANK=4   _FS_OPEN04
  X:36D1H         SYMBOL        name
  -------         DO            
  X:36D4H         SYMBOL        ptr
  -------         ENDDO         
 C4:5283H         LINE#         78
 C4:528EH         LINE#         79
 C4:528EH         LINE#         81
 C4:52A6H         LINE#         82
 C4:52B7H         LINE#         83
 C4:52B7H         LINE#         84
 C4:52C1H         LINE#         85
 C4:52D1H         LINE#         86
 C4:52D5H         LINE#         87
 C4:52D5H         LINE#         88
 C4:52F9H         LINE#         89
 C4:52F9H         LINE#         90
 C4:5327H         LINE#         91
 C4:5327H         LINE#         92
 C4:5354H         LINE#         93
 C4:5369H         LINE#         94
 C4:5369H         LINE#         95
 C4:53A6H         LINE#         96
 C4:53CFH         LINE#         97
 C4:53CFH         LINE#         98
 C4:53E7H         LINE#         99
 C4:53E7H         LINE#         100
 C4:53F4H         LINE#         101
 C4:53FAH         LINE#         102
  -------         ENDPROC       _FS_OPEN04

  -------         PROC BANK=4   _DATACPY04
  X:37C3H         SYMBOL        inputdata
 C4:53FBH         LINE#         115
 C4:5406H         LINE#         116
 C4:5406H         LINE#         117
  -------         ENDPROC       _DATACPY04

  -------         PROC BANK=4   _GET_TAG04
BL51 BANKED LINKER/LOCATER V6.00                                                      11/05/2015  16:28:40  PAGE 70


  D:0007H         SYMBOL        index
 C4:5443H         LINE#         131
 C4:5443H         LINE#         132
 C4:5443H         LINE#         133
 C4:5464H         LINE#         134
  -------         ENDPROC       _GET_TAG04

  -------         PROC BANK=4   FUU_RUN
 C4:5465H         LINE#         136
 C4:5465H         LINE#         137
 C4:5465H         LINE#         138
  -------         ENDPROC       FUU_RUN
  -------         ENDMOD        HTMFILES4

  -------         MODULE        HTMFILES5
  C:0000H         SYMBOL        _ICE_DUMMY_
 C5:5009H         PUBLIC        cgi_table05
 C5:81BAH         PUBLIC        _get_tag05
 C5:80C2H         PUBLIC        _datacpy05
 C5:6BEBH         PUBLIC        _fs_open05
 C5:5000H         PUBLIC        files_table05

  -------         PROC BANK=5   _FS_OPEN05
  X:36D7H         SYMBOL        name
  -------         DO            
  X:36DAH         SYMBOL        ptr
  -------         ENDDO         
 C5:6BEBH         LINE#         68
 C5:6BF6H         LINE#         69
 C5:6BF6H         LINE#         71
 C5:6C0EH         LINE#         72
 C5:6C1FH         LINE#         73
 C5:6C1FH         LINE#         74
 C5:6C29H         LINE#         75
 C5:6C39H         LINE#         76
 C5:6C3DH         LINE#         77
 C5:6C3DH         LINE#         78
 C5:6C61H         LINE#         79
 C5:6C61H         LINE#         80
 C5:6C8FH         LINE#         81
 C5:6C8FH         LINE#         82
 C5:6CBCH         LINE#         83
 C5:6CD1H         LINE#         84
 C5:6CD1H         LINE#         85
 C5:6D0EH         LINE#         86
 C5:6D37H         LINE#         87
 C5:6D37H         LINE#         88
 C5:6D4FH         LINE#         89
 C5:6D4FH         LINE#         90
 C5:6D5CH         LINE#         91
 C5:6D62H         LINE#         92
  -------         ENDPROC       _FS_OPEN05

  -------         PROC BANK=5   _DATACPY05
  X:37C6H         SYMBOL        inputdata
 C5:80C2H         LINE#         105
 C5:80CDH         LINE#         106
BL51 BANKED LINKER/LOCATER V6.00                                                      11/05/2015  16:28:40  PAGE 71


 C5:80CDH         LINE#         107
  -------         ENDPROC       _DATACPY05

  -------         PROC BANK=5   _GET_TAG05
  D:0007H         SYMBOL        index
 C5:81BAH         LINE#         121
 C5:81BAH         LINE#         122
 C5:81BAH         LINE#         123
 C5:81DBH         LINE#         124
  -------         ENDPROC       _GET_TAG05
  -------         ENDMOD        HTMFILES5

  -------         MODULE        HTMFILES6
  C:0000H         SYMBOL        _ICE_DUMMY_
 C6:5009H         PUBLIC        cgi_table06
 C6:9D44H         PUBLIC        _get_tag06
 C6:9CC5H         PUBLIC        _datacpy06
 C6:9539H         PUBLIC        _fs_open06
 C6:5000H         PUBLIC        files_table06

  -------         PROC BANK=6   _FS_OPEN06
  X:36DDH         SYMBOL        name
  -------         DO            
  X:36E0H         SYMBOL        ptr
  -------         ENDDO         
 C6:9539H         LINE#         68
 C6:9544H         LINE#         69
 C6:9544H         LINE#         71
 C6:955CH         LINE#         72
 C6:956DH         LINE#         73
 C6:956DH         LINE#         74
 C6:9577H         LINE#         75
 C6:9587H         LINE#         76
 C6:958BH         LINE#         77
 C6:958BH         LINE#         78
 C6:95AFH         LINE#         79
 C6:95AFH         LINE#         80
 C6:95DDH         LINE#         81
 C6:95DDH         LINE#         82
 C6:960AH         LINE#         83
 C6:961FH         LINE#         84
 C6:961FH         LINE#         85
 C6:965CH         LINE#         86
 C6:9685H         LINE#         87
 C6:9685H         LINE#         88
 C6:969DH         LINE#         89
 C6:969DH         LINE#         90
 C6:96AAH         LINE#         91
 C6:96B0H         LINE#         92
  -------         ENDPROC       _FS_OPEN06

  -------         PROC BANK=6   _DATACPY06
  X:37C9H         SYMBOL        inputdata
 C6:9CC5H         LINE#         105
 C6:9CD0H         LINE#         106
 C6:9CD0H         LINE#         107
  -------         ENDPROC       _DATACPY06
BL51 BANKED LINKER/LOCATER V6.00                                                      11/05/2015  16:28:40  PAGE 72



  -------         PROC BANK=6   _GET_TAG06
  D:0007H         SYMBOL        index
 C6:9D44H         LINE#         121
 C6:9D44H         LINE#         122
 C6:9D44H         LINE#         123
 C6:9D65H         LINE#         124
  -------         ENDPROC       _GET_TAG06
  -------         ENDMOD        HTMFILES6

  -------         MODULE        HTMFILES7
  C:0000H         SYMBOL        _ICE_DUMMY_
 C7:5009H         PUBLIC        cgi_table07
 C7:51CFH         PUBLIC        _get_tag07
 C7:5187H         PUBLIC        _datacpy07
 C7:500FH         PUBLIC        _fs_open07
 C7:5000H         PUBLIC        files_table07

  -------         PROC BANK=7   _FS_OPEN07
  X:36E3H         SYMBOL        name
  -------         DO            
  X:36E6H         SYMBOL        ptr
  -------         ENDDO         
 C7:500FH         LINE#         68
 C7:501AH         LINE#         69
 C7:501AH         LINE#         71
 C7:5032H         LINE#         72
 C7:5043H         LINE#         73
 C7:5043H         LINE#         74
 C7:504DH         LINE#         75
 C7:505DH         LINE#         76
 C7:5061H         LINE#         77
 C7:5061H         LINE#         78
 C7:5085H         LINE#         79
 C7:5085H         LINE#         80
 C7:50B3H         LINE#         81
 C7:50B3H         LINE#         82
 C7:50E0H         LINE#         83
 C7:50F5H         LINE#         84
 C7:50F5H         LINE#         85
 C7:5132H         LINE#         86
 C7:515BH         LINE#         87
 C7:515BH         LINE#         88
 C7:5173H         LINE#         89
 C7:5173H         LINE#         90
 C7:5180H         LINE#         91
 C7:5186H         LINE#         92
  -------         ENDPROC       _FS_OPEN07

  -------         PROC BANK=7   _DATACPY07
  X:37CCH         SYMBOL        inputdata
 C7:5187H         LINE#         105
 C7:5192H         LINE#         106
 C7:5192H         LINE#         107
  -------         ENDPROC       _DATACPY07

  -------         PROC BANK=7   _GET_TAG07
BL51 BANKED LINKER/LOCATER V6.00                                                      11/05/2015  16:28:40  PAGE 73


  D:0007H         SYMBOL        index
 C7:51CFH         LINE#         121
 C7:51CFH         LINE#         122
 C7:51CFH         LINE#         123
 C7:51F0H         LINE#         124
  -------         ENDPROC       _GET_TAG07
  -------         ENDMOD        HTMFILES7

  -------         MODULE        UIP
  C:0000H         SYMBOL        _ICE_DUMMY_
  X:0D7FH         SYMBOL        lastport
 C1:A63BH         PUBLIC        _uip_connect
  X:0D81H         PUBLIC        uip_listenports
  D:0080H         PUBLIC        P0
  D:0090H         PUBLIC        P1
  D:00A0H         PUBLIC        P2
  D:00B0H         PUBLIC        P3
  D:00E8H         PUBLIC        P4
  X:0D8FH         PUBLIC        uip_sappdata
 C1:DDB1H         PUBLIC        _uip_unlisten
  D:00A8H         PUBLIC        IE
  X:0D92H         PUBLIC        uip_hostaddr
  X:0D96H         PUBLIC        uip_appdata
 C1:500FH         PUBLIC        _uip_process
  X:0D99H         PUBLIC        uip_dnsaddr
  D:00B8H         PUBLIC        IP
  X:0D9DH         PUBLIC        uip_urgdata
 C1:DEF6H         PUBLIC        _uip_listen
 C1:D8EAH         SYMBOL        _uip_add_rcv_nxt
  X:0DA0H         PUBLIC        ipid
  D:0098H         PUBLIC        SCON
  D:0088H         PUBLIC        TCON
  X:0DA2H         PUBLIC        uip_surglen
  X:0DA3H         SYMBOL        tmp16
  X:0DA5H         PUBLIC        uip_acc32
  X:0DA9H         PUBLIC        PKT_FLAGS
  X:0DABH         PUBLIC        uip_flags
  X:0DACH         PUBLIC        uip_urglen
  X:0DADH         PUBLIC        uip_arp_draddr
  X:0DB1H         PUBLIC        uip_arp_netmask
  X:0DB5H         SYMBOL        iss
  D:00D8H         PUBLIC        WDTCON
 C1:E375H         PUBLIC        _uip_log
  X:0DB9H         SYMBOL        opt
  X:0DBAH         PUBLIC        uip_conns
 C1:E07DH         PUBLIC        restore_uip_buf
  X:11CAH         PUBLIC        uip_conn
  X:11CDH         SYMBOL        c
 C1:E1D9H         PUBLIC        _chg_uip_buf
  X:11CEH         PUBLIC        uip_slen
 C1:D9EAH         PUBLIC        uip_init
  D:00C8H         PUBLIC        T2CON
  X:11D0H         PUBLIC        uip_stat
  X:11FCH         PUBLIC        uip_buf
 C1:E3E5H         PUBLIC        udp_xmit
  X:11FFH         PUBLIC        uip_len
  X:1201H         PUBLIC        uip_buf_real
BL51 BANKED LINKER/LOCATER V6.00                                                      11/05/2015  16:28:40  PAGE 74


  X:1204H         PUBLIC        eth_vlan_buf
  D:00D0H         PUBLIC        PSW

  -------         PROC BANK=1   _UIP_LOG
  D:0001H         SYMBOL        msg
  -------         DO            
  X:37CFH         SYMBOL        x
  -------         ENDDO         
 C1:E375H         LINE#         68
  -------         ENDPROC       _UIP_LOG

  -------         PROC BANK=1   UDP_XMIT
 C1:E3E5H         LINE#         69
  -------         ENDPROC       UDP_XMIT

  -------         PROC BANK=1   _CHG_UIP_BUF
  D:0001H         SYMBOL        new_buf
 C1:E1D9H         LINE#         212
 C1:E1D9H         LINE#         213
 C1:E1D9H         LINE#         214
 C1:E1E4H         LINE#         215
 C1:E1F5H         LINE#         216
  -------         ENDPROC       _CHG_UIP_BUF

  -------         PROC BANK=1   RESTORE_UIP_BUF
 C1:E07DH         LINE#         218
 C1:E07DH         LINE#         219
 C1:E07DH         LINE#         220
 C1:E093H         LINE#         221
 C1:E0A4H         LINE#         222
  -------         ENDPROC       RESTORE_UIP_BUF

  -------         PROC BANK=1   UIP_INIT
 C1:D9EAH         LINE#         225
 C1:D9EAH         LINE#         226
 C1:D9EAH         LINE#         240
 C1:D9F9H         LINE#         241
 C1:DA09H         LINE#         242
 C1:DA11H         LINE#         243
 C1:DA20H         LINE#         244
 C1:DA31H         LINE#         245
 C1:DA39H         LINE#         247
 C1:DA42H         LINE#         262
  -------         ENDPROC       UIP_INIT

  -------         PROC BANK=1   _UIP_CONNECT
  X:3503H         SYMBOL        ripaddr
  X:3506H         SYMBOL        rport
  -------         DO            
  X:3508H         SYMBOL        conn
  X:350BH         SYMBOL        cconn
 C1:A64CH         SYMBOL        again
  -------         ENDDO         
 C1:A63BH         LINE#         277
 C1:A64CH         LINE#         278
 C1:A64CH         LINE#         282
 C1:A64CH         LINE#         283
BL51 BANKED LINKER/LOCATER V6.00                                                      11/05/2015  16:28:40  PAGE 75


 C1:A65AH         LINE#         285
 C1:A663H         LINE#         286
 C1:A669H         LINE#         287
 C1:A669H         LINE#         291
 C1:A678H         LINE#         292
 C1:A692H         LINE#         293
 C1:A6B9H         LINE#         294
 C1:A6B9H         LINE#         295
 C1:A6B9H         LINE#         296
 C1:A6B9H         LINE#         297
 C1:A6C1H         LINE#         298
 C1:A6CAH         LINE#         299
 C1:A6DBH         LINE#         300
 C1:A6F5H         LINE#         301
 C1:A6FEH         LINE#         302
 C1:A713H         LINE#         303
 C1:A715H         LINE#         304
 C1:A715H         LINE#         305
 C1:A71AH         LINE#         306
 C1:A74CH         LINE#         307
 C1:A74CH         LINE#         308
 C1:A761H         LINE#         309
 C1:A761H         LINE#         310
 C1:A761H         LINE#         311
 C1:A76AH         LINE#         313
 C1:A775H         LINE#         314
 C1:A779H         LINE#         315
 C1:A779H         LINE#         317
 C1:A78CH         LINE#         319
 C1:A796H         LINE#         320
 C1:A7A0H         LINE#         321
 C1:A7AAH         LINE#         322
 C1:A7B4H         LINE#         324
 C1:A7CAH         LINE#         326
 C1:A7D4H         LINE#         327
 C1:A7DBH         LINE#         328
 C1:A7E3H         LINE#         329
 C1:A7EBH         LINE#         330
 C1:A7F2H         LINE#         331
 C1:A7FAH         LINE#         332
 C1:A80AH         LINE#         333
 C1:A81AH         LINE#         334
 C1:A83BH         LINE#         335
 C1:A862H         LINE#         337
 C1:A862H         LINE#         338
  -------         ENDPROC       _UIP_CONNECT

  -------         PROC BANK=1   _UIP_UNLISTEN
  D:0006H         SYMBOL        port
 C1:DDB1H         LINE#         406
 C1:DDB1H         LINE#         407
 C1:DDB1H         LINE#         408
 C1:DDC0H         LINE#         409
 C1:DDC0H         LINE#         410
 C1:DDD7H         LINE#         411
 C1:DDD7H         LINE#         412
 C1:DDEBH         LINE#         414
BL51 BANKED LINKER/LOCATER V6.00                                                      11/05/2015  16:28:40  PAGE 76


 C1:DDEBH         LINE#         415
 C1:DDF3H         LINE#         416
  -------         ENDPROC       _UIP_UNLISTEN

  -------         PROC BANK=1   _UIP_LISTEN
  D:0006H         SYMBOL        port
 C1:DEF6H         LINE#         430
 C1:DEF6H         LINE#         431
 C1:DEF6H         LINE#         432
 C1:DF05H         LINE#         433
 C1:DF05H         LINE#         434
 C1:DF18H         LINE#         435
 C1:DF18H         LINE#         436
 C1:DF2DH         LINE#         438
 C1:DF2DH         LINE#         439
 C1:DF35H         LINE#         440
  -------         ENDPROC       _UIP_LISTEN
 C1:D8E5H         SYMBOL        L?0275
  -------         PROC          L?0274
  -------         ENDPROC       L?0274
 C1:D8E5H         SYMBOL        L?0275

  -------         PROC BANK=1   _UIP_ADD_RCV_NXT
  D:0006H         SYMBOL        n
 C1:D8EAH         LINE#         602
 C1:D8EAH         LINE#         603
 C1:D8EAH         LINE#         604
 C1:D901H         LINE#         605
 C1:D918H         LINE#         606
 C1:D922H         LINE#         607
 C1:D92CH         LINE#         608
  -------         ENDPROC       _UIP_ADD_RCV_NXT

  -------         PROC BANK=1   _UIP_PROCESS
  D:0007H         SYMBOL        flag
  -------         DO            
  X:3770H         SYMBOL        uip_connr
 C1:6706H         SYMBOL        tcp_send_nodata
 C1:5C0DH         SYMBOL        tcp_send_synack
 C1:5C25H         SYMBOL        tcp_send_syn
 C1:64FCH         SYMBOL        apprexmit
 C1:62A3H         SYMBOL        tcp_send_finack
 C1:63BBH         SYMBOL        appsend
 C1:6B20H         SYMBOL        drop
 C1:5426H         SYMBOL        icmp_input
 C1:5531H         SYMBOL        tcp_input
 C1:6B11H         SYMBOL        send
 C1:5C85H         SYMBOL        found
 C1:56BFH         SYMBOL        reset
 C1:5842H         SYMBOL        found_listen
 C1:6992H         SYMBOL        tcp_send_noconn
 C1:6727H         SYMBOL        tcp_send
 C1:66EEH         SYMBOL        tcp_send_ack
 C1:670FH         SYMBOL        tcp_send_noopts
  -------         DO            
  X:3773H         SYMBOL        m
  -------         ENDDO         
BL51 BANKED LINKER/LOCATER V6.00                                                      11/05/2015  16:28:40  PAGE 77


  -------         ENDDO         
 C1:500FH         LINE#         625
 C1:500FH         LINE#         626
 C1:500FH         LINE#         627
 C1:5024H         LINE#         628
 C1:503FH         LINE#         631
 C1:5047H         LINE#         638
 C1:504FH         LINE#         639
 C1:5057H         LINE#         640
 C1:505FH         LINE#         641
 C1:5065H         LINE#         642
 C1:5065H         LINE#         643
 C1:5065H         LINE#         644
 C1:5065H         LINE#         645
 C1:506CH         LINE#         650
 C1:5099H         LINE#         651
 C1:50A4H         LINE#         652
 C1:50C1H         LINE#         653
 C1:50C1H         LINE#         654
 C1:50C8H         LINE#         655
 C1:50D1H         LINE#         656
 C1:50D6H         LINE#         657
 C1:50E8H         LINE#         658
 C1:50EEH         LINE#         659
 C1:50EEH         LINE#         660
 C1:50F1H         LINE#         661
 C1:50F1H         LINE#         662
 C1:50F1H         LINE#         663
 C1:50F1H         LINE#         669
 C1:510BH         LINE#         670
 C1:510BH         LINE#         671
 C1:5113H         LINE#         672
 C1:5120H         LINE#         673
 C1:512EH         LINE#         674
 C1:512EH         LINE#         675
 C1:5147H         LINE#         679
 C1:5154H         LINE#         680
 C1:5161H         LINE#         681
 C1:5181H         LINE#         684
 C1:5181H         LINE#         685
 C1:5188H         LINE#         691
 C1:518DH         LINE#         692
 C1:5191H         LINE#         694
 C1:5197H         LINE#         695
 C1:51C6H         LINE#         696
 C1:51CAH         LINE#         697
 C1:51CAH         LINE#         698
 C1:51CDH         LINE#         700
 C1:51CDH         LINE#         701
 C1:51D0H         LINE#         702
 C1:51D0H         LINE#         705
 C1:51FEH         LINE#         708
 C1:5206H         LINE#         716
 C1:5214H         LINE#         717
 C1:5241H         LINE#         718
 C1:5241H         LINE#         721
 C1:5241H         LINE#         724
BL51 BANKED LINKER/LOCATER V6.00                                                      11/05/2015  16:28:40  PAGE 78


 C1:5241H         LINE#         726
 C1:5255H         LINE#         727
 C1:5258H         LINE#         730
 C1:5258H         LINE#         735
 C1:525FH         LINE#         736
 C1:5265H         LINE#         737
 C1:526BH         LINE#         738
 C1:526EH         LINE#         739
 C1:5271H         LINE#         741
 C1:5271H         LINE#         742
 C1:5271H         LINE#         743
 C1:5271H         LINE#         745
 C1:5271H         LINE#         747
 C1:5271H         LINE#         748
 C1:5271H         LINE#         749
 C1:528BH         LINE#         752
 C1:5291H         LINE#         753
 C1:5297H         LINE#         754
 C1:529DH         LINE#         755
 C1:529DH         LINE#         756
 C1:52A0H         LINE#         757
 C1:52A0H         LINE#         758
 C1:52A0H         LINE#         759
 C1:52A0H         LINE#         760
 C1:52A0H         LINE#         776
 C1:52AEH         LINE#         788
 C1:52C3H         LINE#         789
 C1:52D1H         LINE#         790
 C1:52DFH         LINE#         792
 C1:52E2H         LINE#         793
 C1:52E2H         LINE#         799
 C1:52FAH         LINE#         800
 C1:5309H         LINE#         801
 C1:5309H         LINE#         802
 C1:532AH         LINE#         803
 C1:5337H         LINE#         804
 C1:5337H         LINE#         808
 C1:5359H         LINE#         815
 C1:5367H         LINE#         816
 C1:5375H         LINE#         818
 C1:5378H         LINE#         820
 C1:5378H         LINE#         826
 C1:5390H         LINE#         827
 C1:539DH         LINE#         829
 C1:53A0H         LINE#         830
 C1:53A0H         LINE#         832
 C1:53A0H         LINE#         833
 C1:53A0H         LINE#         834
 C1:53A0H         LINE#         838
 C1:53AEH         LINE#         839
 C1:53BCH         LINE#         841
 C1:53BFH         LINE#         842
 C1:53BFH         LINE#         844
 C1:53D3H         LINE#         845
 C1:53E1H         LINE#         847
 C1:53E4H         LINE#         848
 C1:53E4H         LINE#         860
BL51 BANKED LINKER/LOCATER V6.00                                                      11/05/2015  16:28:40  PAGE 79


 C1:5402H         LINE#         862
 C1:5402H         LINE#         869
 C1:5407H         LINE#         871
 C1:5415H         LINE#         872
 C1:5423H         LINE#         874
 C1:5426H         LINE#         875
 C1:5426H         LINE#         877
 C1:5426H         LINE#         878
 C1:5434H         LINE#         883
 C1:544EH         LINE#         884
 C1:545CH         LINE#         885
 C1:546AH         LINE#         887
 C1:546DH         LINE#         888
 C1:546DH         LINE#         894
 C1:5481H         LINE#         895
 C1:5491H         LINE#         896
 C1:54A1H         LINE#         897
 C1:54A1H         LINE#         900
 C1:54B8H         LINE#         903
 C1:54C1H         LINE#         904
 C1:54CAH         LINE#         915
 C1:54DBH         LINE#         916
 C1:54ECH         LINE#         917
 C1:54F5H         LINE#         918
 C1:5506H         LINE#         919
 C1:5517H         LINE#         920
 C1:5520H         LINE#         922
 C1:552EH         LINE#         923
 C1:5531H         LINE#         1019
 C1:5531H         LINE#         1020
 C1:553FH         LINE#         1035
 C1:5563H         LINE#         1040
 C1:5641H         LINE#         1041
 C1:5641H         LINE#         1042
 C1:5641H         LINE#         1043
 C1:564EH         LINE#         1049
 C1:566AH         LINE#         1050
 C1:566AH         LINE#         1052
 C1:567AH         LINE#         1054
 C1:5689H         LINE#         1055
 C1:56A9H         LINE#         1056
 C1:56A9H         LINE#         1057
 C1:56B1H         LINE#         1060
 C1:56BFH         LINE#         1061
 C1:56BFH         LINE#         1064
 C1:56DBH         LINE#         1065
 C1:56DBH         LINE#         1067
 C1:56E9H         LINE#         1069
 C1:56F1H         LINE#         1070
 C1:56FAH         LINE#         1071
 C1:5702H         LINE#         1074
 C1:570DH         LINE#         1075
 C1:5719H         LINE#         1076
 C1:5720H         LINE#         1078
 C1:572BH         LINE#         1079
 C1:5737H         LINE#         1080
 C1:573EH         LINE#         1082
BL51 BANKED LINKER/LOCATER V6.00                                                      11/05/2015  16:28:40  PAGE 80


 C1:5749H         LINE#         1083
 C1:5755H         LINE#         1084
 C1:575CH         LINE#         1086
 C1:5767H         LINE#         1087
 C1:5773H         LINE#         1088
 C1:577AH         LINE#         1093
 C1:5784H         LINE#         1094
 C1:579EH         LINE#         1095
 C1:57A7H         LINE#         1096
 C1:57AEH         LINE#         1097
 C1:57AEH         LINE#         1098
 C1:57AEH         LINE#         1099
 C1:57AEH         LINE#         1102
 C1:57CFH         LINE#         1103
 C1:57E0H         LINE#         1104
 C1:57E9H         LINE#         1107
 C1:57FAH         LINE#         1108
 C1:580BH         LINE#         1109
 C1:5814H         LINE#         1110
 C1:5825H         LINE#         1111
 C1:5836H         LINE#         1112
 C1:583FH         LINE#         1116
 C1:5842H         LINE#         1121
 C1:5842H         LINE#         1128
 C1:584BH         LINE#         1129
 C1:585CH         LINE#         1130
 C1:586EH         LINE#         1131
 C1:588AH         LINE#         1132
 C1:588CH         LINE#         1133
 C1:588CH         LINE#         1134
 C1:58A4H         LINE#         1135
 C1:58CDH         LINE#         1136
 C1:58CDH         LINE#         1137
 C1:58E9H         LINE#         1138
 C1:58E9H         LINE#         1139
 C1:58E9H         LINE#         1140
 C1:58F2H         LINE#         1142
 C1:58FDH         LINE#         1146
 C1:590BH         LINE#         1148
 C1:590EH         LINE#         1149
 C1:590EH         LINE#         1150
 C1:5923H         LINE#         1153
 C1:593CH         LINE#         1154
 C1:5943H         LINE#         1155
 C1:594BH         LINE#         1156
 C1:5952H         LINE#         1157
 C1:597EH         LINE#         1158
 C1:59AAH         LINE#         1159
 C1:59D3H         LINE#         1160
 C1:59FFH         LINE#         1161
 C1:5A07H         LINE#         1163
 C1:5A11H         LINE#         1164
 C1:5A1BH         LINE#         1165
 C1:5A25H         LINE#         1166
 C1:5A2FH         LINE#         1167
 C1:5A39H         LINE#         1170
 C1:5A62H         LINE#         1171
BL51 BANKED LINKER/LOCATER V6.00                                                      11/05/2015  16:28:40  PAGE 81


 C1:5A8BH         LINE#         1172
 C1:5AB4H         LINE#         1173
 C1:5ADDH         LINE#         1174
 C1:5AE4H         LINE#         1177
 C1:5B04H         LINE#         1178
 C1:5B3AH         LINE#         1179
 C1:5B55H         LINE#         1180
 C1:5B5AH         LINE#         1182
 C1:5B5AH         LINE#         1183
 C1:5B62H         LINE#         1184
 C1:5B68H         LINE#         1186
 C1:5B7FH         LINE#         1187
 C1:5B7FH         LINE#         1190
 C1:5BB0H         LINE#         1191
 C1:5BE3H         LINE#         1195
 C1:5BE5H         LINE#         1196
 C1:5BE5H         LINE#         1199
 C1:5C04H         LINE#         1202
 C1:5C04H         LINE#         1203
 C1:5C04H         LINE#         1204
 C1:5C0AH         LINE#         1205
 C1:5C0AH         LINE#         1206
 C1:5C0DH         LINE#         1207
 C1:5C0DH         LINE#         1211
 C1:5C0DH         LINE#         1212
 C1:5C25H         LINE#         1214
 C1:5C25H         LINE#         1215
 C1:5C44H         LINE#         1223
 C1:5C5CH         LINE#         1224
 C1:5C64H         LINE#         1225
 C1:5C6CH         LINE#         1226
 C1:5C74H         LINE#         1227
 C1:5C7DH         LINE#         1228
 C1:5C82H         LINE#         1229
 C1:5C85H         LINE#         1232
 C1:5C85H         LINE#         1234
 C1:5C9AH         LINE#         1235
 C1:5C9FH         LINE#         1241
 C1:5CB8H         LINE#         1242
 C1:5CCAH         LINE#         1244
 C1:5CCFH         LINE#         1245
 C1:5CCFH         LINE#         1246
 C1:5CD2H         LINE#         1247
 C1:5CD2H         LINE#         1250
 C1:5CF4H         LINE#         1254
 C1:5D0BH         LINE#         1263
 C1:5DC5H         LINE#         1264
 C1:5DC5H         LINE#         1265
 C1:5DC5H         LINE#         1271
 C1:5DFBH         LINE#         1273
 C1:5E04H         LINE#         1275
 C1:5E04H         LINE#         1276
 C1:5E0EH         LINE#         1280
 C1:5E62H         LINE#         1282
 C1:5E79H         LINE#         1283
 C1:5E83H         LINE#         1284
 C1:5E8DH         LINE#         1285
BL51 BANKED LINKER/LOCATER V6.00                                                      11/05/2015  16:28:40  PAGE 82


 C1:5E97H         LINE#         1289
 C1:5EA2H         LINE#         1291
 C1:5EC1H         LINE#         1293
 C1:5ED4H         LINE#         1294
 C1:5EDCH         LINE#         1295
 C1:5EE4H         LINE#         1296
 C1:5EEBH         LINE#         1297
 C1:5EEBH         LINE#         1298
 C1:5F0DH         LINE#         1299
 C1:5F13H         LINE#         1300
 C1:5F2CH         LINE#         1301
 C1:5F2CH         LINE#         1303
 C1:5F32H         LINE#         1305
 C1:5F49H         LINE#         1306
 C1:5F49H         LINE#         1307
 C1:5F4BH         LINE#         1309
 C1:5F4BH         LINE#         1310
 C1:5F51H         LINE#         1311
 C1:5F51H         LINE#         1313
 C1:5F51H         LINE#         1315
 C1:5F93H         LINE#         1320
 C1:5F93H         LINE#         1325
 C1:5F9DH         LINE#         1326
 C1:5F9DH         LINE#         1327
 C1:5FA5H         LINE#         1328
 C1:5FABH         LINE#         1329
 C1:5FB4H         LINE#         1330
 C1:5FC3H         LINE#         1331
 C1:5FC3H         LINE#         1332
 C1:5FC3H         LINE#         1333
 C1:5FC6H         LINE#         1334
 C1:5FC6H         LINE#         1335
 C1:5FCDH         LINE#         1336
 C1:5FCDH         LINE#         1337
 C1:5FD0H         LINE#         1338
 C1:5FD0H         LINE#         1339
 C1:5FD0H         LINE#         1341
 C1:5FD0H         LINE#         1347
 C1:5FF7H         LINE#         1350
 C1:6007H         LINE#         1351
 C1:603DH         LINE#         1352
 C1:6058H         LINE#         1353
 C1:605DH         LINE#         1355
 C1:605DH         LINE#         1356
 C1:6065H         LINE#         1357
 C1:606BH         LINE#         1359
 C1:6082H         LINE#         1360
 C1:6082H         LINE#         1362
 C1:60B3H         LINE#         1364
 C1:60E6H         LINE#         1368
 C1:60E8H         LINE#         1369
 C1:60E8H         LINE#         1372
 C1:6107H         LINE#         1375
 C1:6107H         LINE#         1376
 C1:6107H         LINE#         1377
 C1:610DH         LINE#         1378
 C1:610DH         LINE#         1379
BL51 BANKED LINKER/LOCATER V6.00                                                      11/05/2015  16:28:40  PAGE 83


 C1:6110H         LINE#         1380
 C1:6110H         LINE#         1381
 C1:6123H         LINE#         1382
 C1:614CH         LINE#         1383
 C1:6175H         LINE#         1384
 C1:619EH         LINE#         1385
 C1:61C7H         LINE#         1386
 C1:61CEH         LINE#         1387
 C1:61D4H         LINE#         1388
 C1:61E8H         LINE#         1389
 C1:61EFH         LINE#         1390
 C1:61F5H         LINE#         1391
 C1:61F5H         LINE#         1392
 C1:61F8H         LINE#         1393
 C1:61F8H         LINE#         1394
 C1:61F8H         LINE#         1397
 C1:61F8H         LINE#         1409
 C1:6214H         LINE#         1412
 C1:6217H         LINE#         1415
 C1:622FH         LINE#         1416
 C1:622FH         LINE#         1417
 C1:622FH         LINE#         1418
 C1:6240H         LINE#         1419
 C1:6246H         LINE#         1420
 C1:6255H         LINE#         1421
 C1:625CH         LINE#         1422
 C1:625CH         LINE#         1425
 C1:6275H         LINE#         1426
 C1:6275H         LINE#         1427
 C1:627CH         LINE#         1428
 C1:627CH         LINE#         1431
 C1:627FH         LINE#         1432
 C1:6294H         LINE#         1433
 C1:629CH         LINE#         1434
 C1:62A3H         LINE#         1435
 C1:62A3H         LINE#         1436
 C1:62A3H         LINE#         1437
 C1:62A6H         LINE#         1438
 C1:62A6H         LINE#         1442
 C1:62BFH         LINE#         1456
 C1:62D8H         LINE#         1457
 C1:62E5H         LINE#         1458
 C1:62E5H         LINE#         1466
 C1:6308H         LINE#         1467
 C1:6308H         LINE#         1468
 C1:630BH         LINE#         1469
 C1:630BH         LINE#         1470
 C1:631FH         LINE#         1471
 C1:631FH         LINE#         1472
 C1:631FH         LINE#         1473
 C1:6322H         LINE#         1474
 C1:6322H         LINE#         1487
 C1:634DH         LINE#         1489
 C1:635DH         LINE#         1491
 C1:6382H         LINE#         1492
 C1:6382H         LINE#         1493
 C1:638AH         LINE#         1494
BL51 BANKED LINKER/LOCATER V6.00                                                      11/05/2015  16:28:40  PAGE 84


 C1:638AH         LINE#         1495
 C1:63A6H         LINE#         1513
 C1:63B1H         LINE#         1514
 C1:63B8H         LINE#         1515
 C1:63BBH         LINE#         1517
 C1:63BBH         LINE#         1518
 C1:63C2H         LINE#         1519
 C1:63C9H         LINE#         1520
 C1:63DBH         LINE#         1521
 C1:63F0H         LINE#         1522
 C1:63F3H         LINE#         1523
 C1:63F3H         LINE#         1524
 C1:63FAH         LINE#         1525
 C1:6401H         LINE#         1526
 C1:6416H         LINE#         1527
 C1:641EH         LINE#         1528
 C1:6425H         LINE#         1529
 C1:643AH         LINE#         1530
 C1:643DH         LINE#         1531
 C1:643DH         LINE#         1533
 C1:644CH         LINE#         1536
 C1:6453H         LINE#         1537
 C1:6467H         LINE#         1538
 C1:6467H         LINE#         1542
 C1:647CH         LINE#         1547
 C1:6492H         LINE#         1548
 C1:6497H         LINE#         1549
 C1:6497H         LINE#         1553
 C1:64A4H         LINE#         1554
 C1:64A6H         LINE#         1559
 C1:64C1H         LINE#         1560
 C1:64C1H         LINE#         1561
 C1:64C3H         LINE#         1563
 C1:64CAH         LINE#         1564
 C1:64CAH         LINE#         1566
 C1:64D0H         LINE#         1568
 C1:64E4H         LINE#         1569
 C1:64E4H         LINE#         1573
 C1:64E4H         LINE#         1575
 C1:64EAH         LINE#         1577
 C1:64FCH         LINE#         1578
 C1:64FCH         LINE#         1579
 C1:6511H         LINE#         1583
 C1:653CH         LINE#         1585
 C1:6549H         LINE#         1587
 C1:655EH         LINE#         1589
 C1:6560H         LINE#         1591
 C1:6560H         LINE#         1594
 C1:656AH         LINE#         1595
 C1:6573H         LINE#         1596
 C1:658BH         LINE#         1597
 C1:658EH         LINE#         1598
 C1:658EH         LINE#         1599
 C1:658EH         LINE#         1600
 C1:658EH         LINE#         1601
 C1:658EH         LINE#         1604
 C1:6598H         LINE#         1605
BL51 BANKED LINKER/LOCATER V6.00                                                      11/05/2015  16:28:40  PAGE 85


 C1:65AAH         LINE#         1606
 C1:65B0H         LINE#         1607
 C1:65B3H         LINE#         1608
 C1:65B3H         LINE#         1609
 C1:65B6H         LINE#         1611
 C1:65B6H         LINE#         1615
 C1:65C5H         LINE#         1616
 C1:65C8H         LINE#         1617
 C1:65C8H         LINE#         1618
 C1:65E1H         LINE#         1619
 C1:65EBH         LINE#         1620
 C1:65FBH         LINE#         1621
 C1:6602H         LINE#         1622
 C1:660BH         LINE#         1623
 C1:660EH         LINE#         1624
 C1:661EH         LINE#         1625
 C1:661EH         LINE#         1626
 C1:661EH         LINE#         1627
 C1:661EH         LINE#         1628
 C1:661EH         LINE#         1629
 C1:6621H         LINE#         1630
 C1:6628H         LINE#         1631
 C1:663BH         LINE#         1632
 C1:6644H         LINE#         1633
 C1:6647H         LINE#         1634
 C1:6647H         LINE#         1635
 C1:6659H         LINE#         1636
 C1:665CH         LINE#         1637
 C1:665CH         LINE#         1638
 C1:665CH         LINE#         1640
 C1:665CH         LINE#         1641
 C1:666BH         LINE#         1642
 C1:666EH         LINE#         1643
 C1:666EH         LINE#         1644
 C1:6687H         LINE#         1645
 C1:669AH         LINE#         1646
 C1:66A1H         LINE#         1647
 C1:66A8H         LINE#         1648
 C1:66AEH         LINE#         1649
 C1:66B1H         LINE#         1650
 C1:66B3H         LINE#         1651
 C1:66B3H         LINE#         1652
 C1:66C5H         LINE#         1653
 C1:66C7H         LINE#         1654
 C1:66C7H         LINE#         1655
 C1:66C7H         LINE#         1657
 C1:66C7H         LINE#         1658
 C1:66C7H         LINE#         1660
 C1:66C7H         LINE#         1661
 C1:66D1H         LINE#         1662
 C1:66E4H         LINE#         1663
 C1:66EBH         LINE#         1664
 C1:66EBH         LINE#         1665
 C1:66EBH         LINE#         1666
 C1:66EEH         LINE#         1671
 C1:66EEH         LINE#         1672
 C1:6706H         LINE#         1673
BL51 BANKED LINKER/LOCATER V6.00                                                      11/05/2015  16:28:40  PAGE 86


 C1:6706H         LINE#         1674
 C1:670FH         LINE#         1675
 C1:670FH         LINE#         1676
 C1:6727H         LINE#         1677
 C1:6727H         LINE#         1682
 C1:6750H         LINE#         1683
 C1:6779H         LINE#         1684
 C1:67A2H         LINE#         1685
 C1:67CBH         LINE#         1687
 C1:67F4H         LINE#         1688
 C1:681DH         LINE#         1689
 C1:6846H         LINE#         1690
 C1:686FH         LINE#         1692
 C1:6877H         LINE#         1694
 C1:68A3H         LINE#         1695
 C1:68CFH         LINE#         1697
 C1:68DFH         LINE#         1698
 C1:68EFH         LINE#         1699
 C1:6918H         LINE#         1700
 C1:6944H         LINE#         1703
 C1:695BH         LINE#         1706
 C1:6973H         LINE#         1707
 C1:6975H         LINE#         1708
 C1:698AH         LINE#         1709
 C1:6992H         LINE#         1710
 C1:6992H         LINE#         1712
 C1:6992H         LINE#         1714
 C1:69AEH         LINE#         1715
 C1:69BAH         LINE#         1718
 C1:69C3H         LINE#         1720
 C1:69CCH         LINE#         1726
 C1:6A0FH         LINE#         1727
 C1:6A31H         LINE#         1734
 C1:6A44H         LINE#         1735
 C1:6A52H         LINE#         1736
 C1:6A60H         LINE#         1737
 C1:6A68H         LINE#         1738
 C1:6A76H         LINE#         1739
 C1:6A85H         LINE#         1740
 C1:6A8CH         LINE#         1743
 C1:6A95H         LINE#         1745
 C1:6A9EH         LINE#         1751
 C1:6AE1H         LINE#         1752
 C1:6B03H         LINE#         1755
 C1:6B11H         LINE#         1756
 C1:6B11H         LINE#         1757
 C1:6B20H         LINE#         1760
 C1:6B20H         LINE#         1761
 C1:6B27H         LINE#         1763
  -------         ENDPROC       _UIP_PROCESS
  -------         ENDMOD        UIP

  -------         MODULE        UIP_ARP
  C:0000H         SYMBOL        _ICE_DUMMY_
  D:0080H         PUBLIC        P0
  D:0090H         PUBLIC        P1
  X:2974H         SYMBOL        tmpage
BL51 BANKED LINKER/LOCATER V6.00                                                      11/05/2015  16:28:40  PAGE 87


  D:00A0H         PUBLIC        P2
  D:00B0H         PUBLIC        P3
  D:00E8H         PUBLIC        P4
 C6:9B0BH         PUBLIC        uip_arp_ipin
 C6:9D0DH         PUBLIC        uip_arp_init
  D:00A8H         PUBLIC        IE
  X:2976H         PUBLIC        uip_ethaddr
  D:00B8H         PUBLIC        IP
 C6:89CEH         PUBLIC        uip_arp_out
  X:297CH         PUBLIC        arp_table
 C6:97EDH         PUBLIC        gateway_mac_req
  D:0098H         PUBLIC        SCON
  D:0088H         PUBLIC        TCON
 C6:936BH         SYMBOL        _uip_arp_update
  D:00D8H         PUBLIC        WDTCON
  X:2A6CH         SYMBOL        c
  D:00C8H         PUBLIC        T2CON
  X:2A6DH         SYMBOL        i
 C6:9185H         PUBLIC        uip_arp_arpin
  X:2A6EH         SYMBOL        arptime
  X:2A70H         SYMBOL        ipaddr
 C6:9BB4H         PUBLIC        uip_arp_timer
  D:00D0H         PUBLIC        PSW

  -------         PROC BANK=6   UIP_ARP_INIT
 C6:9D0DH         LINE#         175
 C6:9D0DH         LINE#         176
 C6:9D0DH         LINE#         184
 C6:9D1CH         LINE#         185
 C6:9D3BH         LINE#         186
 C6:9D43H         LINE#         187
  -------         ENDPROC       UIP_ARP_INIT

  -------         PROC BANK=6   UIP_ARP_TIMER
  -------         DO            
  D:0001H         SYMBOL        tabptr
  -------         ENDDO         
 C6:9BB4H         LINE#         199
 C6:9BB4H         LINE#         200
 C6:9BB4H         LINE#         203
 C6:9BC2H         LINE#         204
 C6:9BD1H         LINE#         205
 C6:9BE0H         LINE#         206
 C6:9C14H         LINE#         207
 C6:9C14H         LINE#         208
 C6:9C1DH         LINE#         209
 C6:9C1DH         LINE#         210
 C6:9C25H         LINE#         212
  -------         ENDPROC       UIP_ARP_TIMER

  -------         PROC BANK=6   _UIP_ARP_UPDATE
  X:3586H         SYMBOL        ipaddr
  X:3589H         SYMBOL        ethaddr
  -------         DO            
  X:358CH         SYMBOL        tabptr
  -------         ENDDO         
 C6:936BH         LINE#         215
BL51 BANKED LINKER/LOCATER V6.00                                                      11/05/2015  16:28:40  PAGE 88


 C6:9376H         LINE#         216
 C6:9376H         LINE#         221
 C6:9388H         LINE#         223
 C6:93A2H         LINE#         225
 C6:93BEH         LINE#         226
 C6:93BEH         LINE#         230
 C6:9407H         LINE#         231
 C6:9407H         LINE#         234
 C6:9407H         LINE#         235
 C6:940AH         LINE#         238
 C6:940AH         LINE#         239
 C6:940AH         LINE#         240
 C6:9413H         LINE#         246
 C6:9422H         LINE#         247
 C6:943CH         LINE#         248
 C6:9458H         LINE#         249
 C6:9458H         LINE#         250
 C6:9458H         LINE#         251
 C6:9458H         LINE#         252
 C6:9460H         LINE#         256
 C6:9468H         LINE#         257
 C6:946EH         LINE#         258
 C6:9472H         LINE#         259
 C6:947EH         LINE#         260
 C6:9498H         LINE#         261
 C6:94BAH         LINE#         262
 C6:94BFH         LINE#         263
 C6:94C7H         LINE#         264
 C6:94C7H         LINE#         265
 C6:94CFH         LINE#         266
 C6:94D5H         LINE#         267
 C6:94D5H         LINE#         271
 C6:94F6H         LINE#         272
 C6:951CH         LINE#         273
 C6:9538H         LINE#         274
  -------         ENDPROC       _UIP_ARP_UPDATE

  -------         PROC BANK=6   UIP_ARP_IPIN
 C6:9B0BH         LINE#         290
 C6:9B0BH         LINE#         291
 C6:9B0BH         LINE#         292
 C6:9B19H         LINE#         296
 C6:9B4AH         LINE#         297
 C6:9B4AH         LINE#         299
 C6:9B4AH         LINE#         300
 C6:9B7BH         LINE#         301
 C6:9B7BH         LINE#         303
 C6:9B7BH         LINE#         304
 C6:9BB3H         LINE#         307
  -------         ENDPROC       UIP_ARP_IPIN

  -------         PROC BANK=6   UIP_ARP_ARPIN
 C6:9185H         LINE#         332
 C6:9185H         LINE#         333
 C6:9185H         LINE#         335
 C6:9194H         LINE#         336
 C6:9199H         LINE#         338
BL51 BANKED LINKER/LOCATER V6.00                                                      11/05/2015  16:28:40  PAGE 89


 C6:9199H         LINE#         340
 C6:91A0H         LINE#         342
 C6:91C9H         LINE#         343
 C6:91C9H         LINE#         347
 C6:91F7H         LINE#         349
 C6:920CH         LINE#         351
 C6:923AH         LINE#         352
 C6:925BH         LINE#         353
 C6:927CH         LINE#         354
 C6:92A8H         LINE#         356
 C6:92C4H         LINE#         357
 C6:92D5H         LINE#         358
 C6:92E5H         LINE#         359
 C6:92F5H         LINE#         361
 C6:9300H         LINE#         362
 C6:9309H         LINE#         363
 C6:9309H         LINE#         364
 C6:930AH         LINE#         365
 C6:930AH         LINE#         369
 C6:933BH         LINE#         370
 C6:936AH         LINE#         371
 C6:936AH         LINE#         372
 C6:936AH         LINE#         373
 C6:936AH         LINE#         376
  -------         ENDPROC       UIP_ARP_ARPIN

  -------         PROC BANK=6   UIP_ARP_OUT
  -------         DO            
  X:37D2H         SYMBOL        tabptr
  -------         ENDDO         
 C6:89CEH         LINE#         406
 C6:89CEH         LINE#         407
 C6:89CEH         LINE#         421
 C6:8A25H         LINE#         422
 C6:8A25H         LINE#         428
 C6:8A34H         LINE#         429
 C6:8A3FH         LINE#         430
 C6:8A41H         LINE#         432
 C6:8A5CH         LINE#         433
 C6:8A6CH         LINE#         434
 C6:8A6CH         LINE#         435
 C6:8A7BH         LINE#         436
 C6:8A95H         LINE#         437
 C6:8AC4H         LINE#         439
 C6:8AC4H         LINE#         440
 C6:8ACCH         LINE#         441
 C6:8AF7H         LINE#         443
 C6:8B02H         LINE#         446
 C6:8B15H         LINE#         447
 C6:8B2EH         LINE#         448
 C6:8B4FH         LINE#         449
 C6:8B70H         LINE#         451
 C6:8B8CH         LINE#         452
 C6:8B9CH         LINE#         453
 C6:8BACH         LINE#         454
 C6:8BBCH         LINE#         455
 C6:8BC6H         LINE#         456
BL51 BANKED LINKER/LOCATER V6.00                                                      11/05/2015  16:28:40  PAGE 90


 C6:8BD0H         LINE#         457
 C6:8BDBH         LINE#         458
 C6:8BE3H         LINE#         459
 C6:8BEBH         LINE#         460
 C6:8BF6H         LINE#         462
 C6:8C08H         LINE#         463
 C6:8C12H         LINE#         465
 C6:8C12H         LINE#         468
 C6:8C3BH         LINE#         469
 C6:8C3BH         LINE#         470
 C6:8C44H         LINE#         471
 C6:8C46H         LINE#         473
 C6:8C46H         LINE#         474
 C6:8C74H         LINE#         475
 C6:8C74H         LINE#         476
 C6:8C95H         LINE#         477
 C6:8CABH         LINE#         478
 C6:8CB9H         LINE#         479
  -------         ENDPROC       UIP_ARP_OUT

  -------         PROC BANK=6   GATEWAY_MAC_REQ
 C6:97EDH         LINE#         482
 C6:97EDH         LINE#         483
 C6:97EDH         LINE#         484
 C6:97F3H         LINE#         485
 C6:97F3H         LINE#         486
 C6:9808H         LINE#         487
 C6:980FH         LINE#         488
 C6:980FH         LINE#         489
 C6:9823H         LINE#         490
 C6:983CH         LINE#         491
 C6:985DH         LINE#         492
 C6:987EH         LINE#         494
 C6:989AH         LINE#         495
 C6:98AAH         LINE#         496
 C6:98BAH         LINE#         497
 C6:98CAH         LINE#         498
 C6:98D4H         LINE#         499
 C6:98DEH         LINE#         500
 C6:98E9H         LINE#         501
 C6:98F1H         LINE#         502
 C6:98F9H         LINE#         503
 C6:9904H         LINE#         505
 C6:9916H         LINE#         506
 C6:991FH         LINE#         507
 C6:9926H         LINE#         508
  -------         ENDPROC       GATEWAY_MAC_REQ
  -------         ENDMOD        UIP_ARP

  -------         MODULE        MUIP
  C:0000H         SYMBOL        _ICE_DUMMY_
  D:0080H         PUBLIC        P0
  D:0090H         PUBLIC        P1
  D:00A0H         PUBLIC        P2
  D:00B0H         PUBLIC        P3
  D:00E8H         PUBLIC        P4
  X:1F1EH         PUBLIC        muip_buf_cnt
BL51 BANKED LINKER/LOCATER V6.00                                                      11/05/2015  16:28:40  PAGE 91


  D:00A8H         PUBLIC        IE
  D:00B8H         PUBLIC        IP
 C1:A1C8H         PUBLIC        muip_process
  D:0098H         PUBLIC        SCON
  D:0088H         PUBLIC        TCON
  X:1F1FH         PUBLIC        muip_need_send
 C1:9A98H         PUBLIC        muip_send
  X:1F20H         PUBLIC        muip_conn
  D:00D8H         PUBLIC        WDTCON
  X:1F23H         PUBLIC        muip_snd_nxt0
  X:1F27H         PUBLIC        muip_snd_nxt1
 C1:E33DH         PUBLIC        muip_init
  X:1F2BH         PUBLIC        muip_first_ack
  X:1F2CH         PUBLIC        muip_buf
  X:2522H         PUBLIC        muip_len
  D:00C8H         PUBLIC        T2CON
  X:2524H         PUBLIC        uip_window_size
  D:00D0H         PUBLIC        PSW

  -------         PROC BANK=1   MUIP_INIT
 C1:E33DH         LINE#         51
 C1:E33DH         LINE#         52
 C1:E33DH         LINE#         53
 C1:E342H         LINE#         54
 C1:E34BH         LINE#         55
  -------         ENDPROC       MUIP_INIT

  -------         PROC BANK=1   MUIP_SEND
  -------         DO            
  X:36E9H         SYMBOL        i
  X:36EAH         SYMBOL        len
  X:36ECH         SYMBOL        MBUF
  -------         ENDDO         
 C1:9A98H         LINE#         70
 C1:9A98H         LINE#         71
 C1:9A98H         LINE#         76
 C1:9AA1H         LINE#         80
 C1:9AA7H         LINE#         81
 C1:9AADH         LINE#         84
 C1:9AB2H         LINE#         86
 C1:9AC5H         LINE#         87
 C1:9ACFH         LINE#         88
 C1:9AD9H         LINE#         89
 C1:9AE3H         LINE#         96
 C1:9AF8H         LINE#         97
 C1:9AF8H         LINE#         99
 C1:9AFBH         LINE#         104
 C1:9B27H         LINE#         113
 C1:9B2DH         LINE#         114
 C1:9B2DH         LINE#         115
 C1:9B47H         LINE#         116
 C1:9B49H         LINE#         118
 C1:9B49H         LINE#         119
 C1:9B6FH         LINE#         120
 C1:9B6FH         LINE#         122
 C1:9B88H         LINE#         123
 C1:9B9DH         LINE#         124
BL51 BANKED LINKER/LOCATER V6.00                                                      11/05/2015  16:28:40  PAGE 92


 C1:9BB2H         LINE#         125
 C1:9BC7H         LINE#         129
 C1:9BE7H         LINE#         133
 C1:9C00H         LINE#         134
 C1:9C15H         LINE#         135
 C1:9C2EH         LINE#         136
 C1:9C43H         LINE#         138
 C1:9C62H         LINE#         139
 C1:9C71H         LINE#         140
 C1:9C78H         LINE#         141
 C1:9C86H         LINE#         142
 C1:9C95H         LINE#         143
 C1:9C9CH         LINE#         144
 C1:9CA5H         LINE#         145
 C1:9CAEH         LINE#         147
 C1:9CB4H         LINE#         148
 C1:9CB4H         LINE#         149
 C1:9CD1H         LINE#         150
 C1:9CEEH         LINE#         151
 C1:9CEEH         LINE#         154
 C1:9CFCH         LINE#         155
 C1:9CFFH         LINE#         157
 C1:9D20H         LINE#         158
 C1:9D27H         LINE#         159
 C1:9D30H         LINE#         161
 C1:9D35H         LINE#         162
 C1:9D39H         LINE#         164
 C1:9D3CH         LINE#         165
  -------         ENDPROC       MUIP_SEND

  -------         PROC BANK=1   MUIP_PROCESS
 C1:A1C8H         LINE#         177
 C1:A1C8H         LINE#         178
 C1:A1C8H         LINE#         179
 C1:A1D6H         LINE#         180
 C1:A1DFH         LINE#         183
 C1:A1F7H         LINE#         186
 C1:A215H         LINE#         187
 C1:A22CH         LINE#         190
 C1:A239H         LINE#         193
 C1:A25EH         LINE#         194
 C1:A293H         LINE#         196
 C1:A2B0H         LINE#         200
 C1:A2F8H         LINE#         201
 C1:A2F8H         LINE#         204
 C1:A2FEH         LINE#         205
 C1:A2FEH         LINE#         207
 C1:A301H         LINE#         213
 C1:A327H         LINE#         217
 C1:A37BH         LINE#         218
 C1:A37BH         LINE#         220
 C1:A3A4H         LINE#         221
 C1:A3B9H         LINE#         222
 C1:A3D2H         LINE#         223
 C1:A3E7H         LINE#         224
 C1:A3FFH         LINE#         225
 C1:A404H         LINE#         226
BL51 BANKED LINKER/LOCATER V6.00                                                      11/05/2015  16:28:40  PAGE 93


 C1:A408H         LINE#         227
 C1:A408H         LINE#         228
  -------         ENDPROC       MUIP_PROCESS
  -------         ENDMOD        MUIP

  -------         MODULE        CGI
  C:0000H         SYMBOL        _ICE_DUMMY_
 C1:AE5BH         PUBLIC        Httpd_Data_Processing

  -------         PROC BANK=1   HTTPD_DATA_PROCESSING
 C1:AE5BH         LINE#         41
 C1:AE5BH         LINE#         42
 C1:AE5BH         LINE#         44
 C1:AE71H         LINE#         45
 C1:AE71H         LINE#         46
 C1:AE8DH         LINE#         47
 C1:AEB1H         LINE#         48
 C1:AECAH         LINE#         49
 C1:AECAH         LINE#         53
 C1:AECDH         LINE#         54
 C1:AECFH         LINE#         55
 C1:AECFH         LINE#         57
 C1:AECFH         LINE#         59
 C1:AF66H         LINE#         60
 C1:AF66H         LINE#         64
 C1:AF69H         LINE#         65
 C1:AF6BH         LINE#         66
 C1:AF6BH         LINE#         68
 C1:AF6BH         LINE#         75
 C1:AFF2H         LINE#         76
 C1:AFF2H         LINE#         80
 C1:AFF5H         LINE#         81
 C1:AFF7H         LINE#         82
 C1:AFF7H         LINE#         84
 C1:AFF7H         LINE#         88
 C1:AFFAH         LINE#         89
 C1:AFFCH         LINE#         90
 C1:AFFCH         LINE#         91
 C1:AFFCH         LINE#         92
 C1:AFFCH         LINE#         93
 C1:AFFCH         LINE#         95
 C1:AFFDH         LINE#         96
  -------         ENDPROC       HTTPD_DATA_PROCESSING
  -------         ENDMOD        CGI

  -------         MODULE        CGIUTIL
  C:0000H         SYMBOL        _ICE_DUMMY_
 C1:CA3CH         PUBLIC        tag_address_bigger_mss
 C1:B9CDH         PUBLIC        _uitos
 C1:D397H         PUBLIC        _stoui
 C1:B5EBH         PUBLIC        last_tag_page
 C1:78E5H         PUBLIC        with_tag_page
 C1:C06EH         PUBLIC        no_tag_page

  -------         PROC BANK=1   _STOUI
  X:358FH         SYMBOL        str_value
  -------         DO            
BL51 BANKED LINKER/LOCATER V6.00                                                      11/05/2015  16:28:40  PAGE 94


  X:3592H         SYMBOL        value
  X:3594H         SYMBOL        i
  X:3596H         SYMBOL        len
  -------         ENDDO         
 C1:D397H         LINE#         71
 C1:D3A2H         LINE#         72
 C1:D3A2H         LINE#         73
 C1:D3A7H         LINE#         75
 C1:D3B2H         LINE#         76
 C1:D3D5H         LINE#         77
 C1:D3D5H         LINE#         78
 C1:D407H         LINE#         79
 C1:D417H         LINE#         80
 C1:D41FH         LINE#         81
  -------         ENDPROC       _STOUI

  -------         PROC BANK=1   _UITOS
  X:352FH         SYMBOL        int_value
  -------         DO            
  D:0002H         SYMBOL        i
  X:3531H         SYMBOL        k
  X:3688H         SYMBOL        str
  X:3533H         SYMBOL        base
  X:3535H         SYMBOL        last_div
  X:3537H         SYMBOL        div
  -------         ENDDO         
 C1:B9CDH         LINE#         86
 C1:B9D5H         LINE#         87
 C1:B9D5H         LINE#         88
 C1:B9D8H         LINE#         89
 C1:B9DCH         LINE#         91
 C1:B9EDH         LINE#         94
 C1:B9F6H         LINE#         95
 C1:BA0FH         LINE#         96
 C1:BA20H         LINE#         97
 C1:BA28H         LINE#         99
 C1:BA28H         LINE#         101
 C1:BA39H         LINE#         102
 C1:BA39H         LINE#         103
 C1:BA4DH         LINE#         104
 C1:BA64H         LINE#         105
 C1:BA66H         LINE#         107
 C1:BA7FH         LINE#         108
 C1:BA7FH         LINE#         109
 C1:BA97H         LINE#         110
 C1:BAB3H         LINE#         111
 C1:BAC2H         LINE#         112
 C1:BAD9H         LINE#         113
 C1:BAE0H         LINE#         114
 C1:BAF2H         LINE#         115
 C1:BB01H         LINE#         116
 C1:BB07H         LINE#         117
  -------         ENDPROC       _UITOS

  -------         PROC BANK=1   NO_TAG_PAGE
 C1:C06EH         LINE#         129
 C1:C06EH         LINE#         130
BL51 BANKED LINKER/LOCATER V6.00                                                      11/05/2015  16:28:40  PAGE 95


 C1:C06EH         LINE#         131
 C1:C0A7H         LINE#         132
 C1:C0A7H         LINE#         133
 C1:C0C5H         LINE#         134
 C1:C0E0H         LINE#         136
 C1:C0E2H         LINE#         138
 C1:C0E2H         LINE#         139
 C1:C0FEH         LINE#         140
 C1:C10AH         LINE#         141
 C1:C10AH         LINE#         142
 C1:C147H         LINE#         143
 C1:C163H         LINE#         144
 C1:C165H         LINE#         145
  -------         ENDPROC       NO_TAG_PAGE

  -------         PROC BANK=1   LAST_TAG_PAGE
 C1:B5EBH         LINE#         159
 C1:B5EBH         LINE#         160
 C1:B5EBH         LINE#         161
 C1:B642H         LINE#         162
 C1:B642H         LINE#         163
 C1:B660H         LINE#         164
 C1:B67BH         LINE#         165
 C1:B691H         LINE#         166
 C1:B693H         LINE#         168
 C1:B693H         LINE#         169
 C1:B6CBH         LINE#         170
 C1:B6D7H         LINE#         171
 C1:B6E0H         LINE#         173
 C1:B6E0H         LINE#         174
 C1:B71DH         LINE#         175
 C1:B739H         LINE#         176
 C1:B743H         LINE#         177
 C1:B745H         LINE#         178
  -------         ENDPROC       LAST_TAG_PAGE

  -------         PROC BANK=1   TAG_ADDRESS_BIGGER_MSS
 C1:CA3CH         LINE#         192
 C1:CA3CH         LINE#         193
 C1:CA3CH         LINE#         194
 C1:CA65H         LINE#         195
 C1:CA80H         LINE#         196
 C1:CABDH         LINE#         197
 C1:CAD9H         LINE#         198
 C1:CAE3H         LINE#         199
 C1:CAFFH         LINE#         200
 C1:CB01H         LINE#         201
  -------         ENDPROC       TAG_ADDRESS_BIGGER_MSS

  -------         PROC BANK=1   WITH_TAG_PAGE
  -------         DO            
  X:3539H         SYMBOL        tag_value
  X:353DH         SYMBOL        tag_mss_flag
  D:0007H         SYMBOL        switch_varid
  X:353EH         SYMBOL        tag_value_len
  X:3540H         SYMBOL        tag_asc_value
  -------         ENDDO         
BL51 BANKED LINKER/LOCATER V6.00                                                      11/05/2015  16:28:40  PAGE 96


 C1:78E5H         LINE#         213
 C1:78E5H         LINE#         214
 C1:78E5H         LINE#         216
 C1:78EAH         LINE#         220
 C1:78EAH         LINE#         222
 C1:7981H         LINE#         223
 C1:7981H         LINE#         224
 C1:7981H         LINE#         225
 C1:7984H         LINE#         227
 C1:7984H         LINE#         228
 C1:7A0EH         LINE#         229
 C1:7A0EH         LINE#         230
 C1:7A76H         LINE#         231
 C1:7AD9H         LINE#         232
 C1:7B16H         LINE#         233
 C1:7B32H         LINE#         234
 C1:7B3CH         LINE#         235
 C1:7B43H         LINE#         236
 C1:7B90H         LINE#         237
 C1:7BA3H         LINE#         238
 C1:7BBEH         LINE#         239
 C1:7BBEH         LINE#         240
 C1:7BBEH         LINE#         241
 C1:7BC6H         LINE#         242
 C1:7BD4H         LINE#         243
 C1:7BD4H         LINE#         244
 C1:7BDFH         LINE#         245
 C1:7BDFH         LINE#         246
 C1:7BE2H         LINE#         247
 C1:7BE2H         LINE#         248
 C1:7BF5H         LINE#         249
 C1:7BFDH         LINE#         250
 C1:7C05H         LINE#         251
 C1:7C0EH         LINE#         255
 C1:7C11H         LINE#         256
 C1:7C11H         LINE#         257
 C1:7C24H         LINE#         258
 C1:7C2FH         LINE#         259
 C1:7C2FH         LINE#         260
 C1:7C41H         LINE#         261
 C1:7C49H         LINE#         262
 C1:7C82H         LINE#         263
 C1:7C82H         LINE#         264
 C1:7C8FH         LINE#         265
 C1:7C97H         LINE#         266
 C1:7C97H         LINE#         270
 C1:7C99H         LINE#         272
 C1:7C99H         LINE#         273
 C1:7CABH         LINE#         274
 C1:7CB0H         LINE#         275
 C1:7CB0H         LINE#         276
 C1:7CB0H         LINE#         277
 C1:7CB3H         LINE#         278
 C1:7CB3H         LINE#         279
 C1:7CC9H         LINE#         280
 C1:7CC9H         LINE#         281
 C1:7CD1H         LINE#         282
BL51 BANKED LINKER/LOCATER V6.00                                                      11/05/2015  16:28:40  PAGE 97


 C1:7CD9H         LINE#         283
 C1:7CE2H         LINE#         284
 C1:7CE2H         LINE#         285
 C1:7CE4H         LINE#         286
 C1:7CE4H         LINE#         287
 C1:7CFAH         LINE#         288
 C1:7CFAH         LINE#         289
 C1:7D02H         LINE#         290
 C1:7D3BH         LINE#         291
 C1:7D3BH         LINE#         292
 C1:7D48H         LINE#         293
 C1:7D50H         LINE#         297
 C1:7D53H         LINE#         299
 C1:7D53H         LINE#         300
 C1:7D65H         LINE#         301
 C1:7D65H         LINE#         302
 C1:7D65H         LINE#         303
 C1:7D68H         LINE#         304
 C1:7D68H         LINE#         308
 C1:7D80H         LINE#         309
 C1:7D80H         LINE#         310
 C1:7DF4H         LINE#         311
 C1:7DF4H         LINE#         316
 C1:7DFFH         LINE#         317
 C1:7DFFH         LINE#         318
 C1:7DFFH         LINE#         319
 C1:7E0AH         LINE#         320
 C1:7E0AH         LINE#         321
 C1:7E0CH         LINE#         322
 C1:7E0CH         LINE#         323
 C1:7E22H         LINE#         324
 C1:7E2DH         LINE#         325
 C1:7E2DH         LINE#         326
 C1:7E2DH         LINE#         327
 C1:7E2DH         LINE#         328
 C1:7E2DH         LINE#         329
 C1:7E2DH         LINE#         330
 C1:7E2DH         LINE#         331
 C1:7E5EH         LINE#         332
 C1:7E5EH         LINE#         333
 C1:7E69H         LINE#         334
 C1:7E69H         LINE#         335
 C1:7E94H         LINE#         336
 C1:7EA8H         LINE#         338
 C1:7EA8H         LINE#         339
 C1:7EBEH         LINE#         340
 C1:7EBEH         LINE#         342
 C1:7F0EH         LINE#         343
 C1:7F2EH         LINE#         344
 C1:7F8AH         LINE#         346
 C1:7F8AH         LINE#         348
 C1:7F8AH         LINE#         351
 C1:7F8AH         LINE#         352
 C1:7F90H         LINE#         353
 C1:7FACH         LINE#         354
 C1:7FD0H         LINE#         355
 C1:7FD7H         LINE#         356
BL51 BANKED LINKER/LOCATER V6.00                                                      11/05/2015  16:28:40  PAGE 98


 C1:7FEAH         LINE#         357
 C1:7FECH         LINE#         359
 C1:7FECH         LINE#         360
 C1:7FEDH         LINE#         361
 C1:7FEDH         LINE#         362
 C1:7FEFH         LINE#         364
 C1:7FEFH         LINE#         365
 C1:7FF4H         LINE#         366
 C1:7FF4H         LINE#         367
 C1:7FF4H         LINE#         368
 C1:7FFDH         LINE#         369
 C1:8019H         LINE#         382
 C1:801BH         LINE#         383
  -------         ENDPROC       WITH_TAG_PAGE
  -------         ENDMOD        CGIUTIL

  -------         MODULE        CHALLENGE
  C:0000H         SYMBOL        _ICE_DUMMY_
  D:0090H         PUBLIC        P1
  D:00B0H         PUBLIC        P3
  D:00A8H         PUBLIC        IE
  D:00B8H         PUBLIC        IP
  X:3598H         PUBLIC        challenge_data
  D:0098H         PUBLIC        SCON
  D:0088H         PUBLIC        TCON
  D:00D8H         PUBLIC        WDTCON
  D:00C8H         PUBLIC        T2CON
  D:00D0H         PUBLIC        PSW
  -------         ENDMOD        CHALLENGE

  -------         MODULE        COOKIE
  C:0000H         SYMBOL        _ICE_DUMMY_
  D:0090H         PUBLIC        P1
  D:00B0H         PUBLIC        P3
 C1:B88AH         PUBLIC        httpd_parse_cookie
  D:00A8H         PUBLIC        IE
  D:00B8H         PUBLIC        IP
  D:0098H         PUBLIC        SCON
 C1:D308H         PUBLIC        httpd_set_cookie
  D:0088H         PUBLIC        TCON
  D:00D8H         PUBLIC        WDTCON
  D:00C8H         PUBLIC        T2CON
  D:00D0H         PUBLIC        PSW
  X:35A1H         PUBLIC        cookie_data

  -------         PROC BANK=1   HTTPD_PARSE_COOKIE
  -------         DO            
  X:3613H         SYMBOL        currentage
  X:3617H         SYMBOL        sum_age
  -------         ENDDO         
 C1:B88AH         LINE#         34
 C1:B88AH         LINE#         35
 C1:B88AH         LINE#         37
 C1:B8B0H         LINE#         38
 C1:B8C4H         LINE#         39
 C1:B8EFH         LINE#         43
 C1:B908H         LINE#         44
BL51 BANKED LINKER/LOCATER V6.00                                                      11/05/2015  16:28:40  PAGE 99


 C1:B908H         LINE#         45
 C1:B92CH         LINE#         46
 C1:B92CH         LINE#         47
 C1:B94AH         LINE#         48
 C1:B94AH         LINE#         49
 C1:B959H         LINE#         51
 C1:B95BH         LINE#         53
 C1:B95BH         LINE#         54
 C1:B97EH         LINE#         55
 C1:B97EH         LINE#         57
 C1:B9A1H         LINE#         58
 C1:B9A1H         LINE#         59
 C1:B9B5H         LINE#         60
 C1:B9C9H         LINE#         61
 C1:B9CBH         LINE#         62
 C1:B9CBH         LINE#         64
 C1:B9CBH         LINE#         66
 C1:B9CBH         LINE#         67
 C1:B9CCH         LINE#         68
  -------         ENDPROC       HTTPD_PARSE_COOKIE

  -------         PROC BANK=1   HTTPD_SET_COOKIE
  -------         DO            
  X:3812H         SYMBOL        i_cookie
  X:3813H         SYMBOL        buff
  -------         ENDDO         
 C1:D308H         LINE#         80
 C1:D308H         LINE#         81
 C1:D308H         LINE#         84
 C1:D315H         LINE#         85
 C1:D31AH         LINE#         86
 C1:D31AH         LINE#         89
 C1:D31AH         LINE#         90
 C1:D32BH         LINE#         91
 C1:D337H         LINE#         93
 C1:D346H         LINE#         94
 C1:D352H         LINE#         95
 C1:D357H         LINE#         96
 C1:D37CH         LINE#         97
 C1:D390H         LINE#         98
 C1:D396H         LINE#         99
  -------         ENDPROC       HTTPD_SET_COOKIE
  -------         ENDMOD        COOKIE

  -------         MODULE        HTTPD
  C:0000H         SYMBOL        _ICE_DUMMY_
  D:0080H         PUBLIC        P0
  D:0090H         PUBLIC        P1
  D:00A0H         PUBLIC        P2
  X:0000H         PUBLIC        getlen
  D:00B0H         PUBLIC        P3
  D:00E8H         PUBLIC        P4
  B:00A8H.7       PUBLIC        EA
  D:00A8H         PUBLIC        IE
  D:00B8H         PUBLIC        IP
  X:0002H         PUBLIC        EE_TMPBUFFER
  D:0098H         PUBLIC        SCON
BL51 BANKED LINKER/LOCATER V6.00                                                      11/05/2015  16:28:40  PAGE 100


  D:0088H         PUBLIC        TCON
 C1:6B28H         PUBLIC        http_server
 C1:E0A5H         PUBLIC        httpd_init
 C1:CE96H         PUBLIC        _httpd_check_cookie
  D:00D8H         PUBLIC        WDTCON
  X:0BBAH         PUBLIC        hs
 C1:D7C2H         PUBLIC        httpd_copydata
  X:0BBDH         PUBLIC        reqdata
  D:00C8H         PUBLIC        T2CON
  D:00D0H         PUBLIC        PSW

  -------         PROC BANK=1   HTTPD_INIT
 C1:E0A5H         LINE#         83
 C1:E0A5H         LINE#         84
 C1:E0A5H         LINE#         86
 C1:E0ACH         LINE#         89
 C1:E0BBH         LINE#         90
 C1:E0CAH         LINE#         93
  -------         ENDPROC       HTTPD_INIT

  -------         PROC BANK=1   HTTP_SERVER
  -------         DO            
  X:33AFH         SYMBOL        hfile_ptr
  X:33B2H         SYMBOL        p_reqfile
  X:33B5H         SYMBOL        filenum
  D:0001H         SYMBOL        CR_ptr
  X:33B6H         SYMBOL        str_ptr
  X:33B9H         SYMBOL        requestname_ptr
  X:33BAH         SYMBOL        count
  X:33BBH         SYMBOL        i_httpd
  X:33BDH         SYMBOL        tmp_EA
  -------         DO            
  X:33BEH         SYMBOL        acklen
  -------         ENDDO         
  -------         ENDDO         
 C1:6B28H         LINE#         111
 C1:6B28H         LINE#         112
 C1:6B28H         LINE#         115
 C1:6B2FH         LINE#         117
 C1:6B36H         LINE#         119
 C1:6B38H         LINE#         121
 C1:6B3BH         LINE#         123
 C1:6B3EH         LINE#         128
 C1:6B47H         LINE#         130
 C1:6B62H         LINE#         139
 C1:6B69H         LINE#         140
 C1:6B69H         LINE#         147
 C1:6B80H         LINE#         148
 C1:6B92H         LINE#         149
 C1:6BA1H         LINE#         150
 C1:6BA8H         LINE#         151
 C1:6BBCH         LINE#         152
 C1:6BC3H         LINE#         153
 C1:6BC6H         LINE#         156
 C1:6BC6H         LINE#         157
 C1:6BCDH         LINE#         158
 C1:6BCDH         LINE#         166
BL51 BANKED LINKER/LOCATER V6.00                                                      11/05/2015  16:28:40  PAGE 101


 C1:6BE1H         LINE#         167
 C1:6BE1H         LINE#         168
 C1:6BF9H         LINE#         169
 C1:6BF9H         LINE#         170
 C1:6BFFH         LINE#         171
 C1:6BFFH         LINE#         172
 C1:6BFFH         LINE#         173
 C1:6C02H         LINE#         175
 C1:6C02H         LINE#         176
 C1:6C0AH         LINE#         177
 C1:6C0AH         LINE#         178
 C1:6C0DH         LINE#         180
 C1:6C0DH         LINE#         181
 C1:6C17H         LINE#         182
 C1:6C17H         LINE#         183
 C1:6C2DH         LINE#         184
 C1:6C2DH         LINE#         185
 C1:6C33H         LINE#         190
 C1:6C59H         LINE#         191
 C1:6C59H         LINE#         192
 C1:6C7FH         LINE#         193
 C1:6C7FH         LINE#         195
 C1:6C84H         LINE#         196
 C1:6C87H         LINE#         198
 C1:6C87H         LINE#         200
 C1:6C87H         LINE#         201
 C1:6C8DH         LINE#         202
 C1:6CA0H         LINE#         203
 C1:6CA0H         LINE#         204
 C1:6CA2H         LINE#         206
 C1:6CA2H         LINE#         207
 C1:6CA8H         LINE#         208
 C1:6CBBH         LINE#         210
 C1:6CC4H         LINE#         211
 C1:6CC4H         LINE#         213
 C1:6CC4H         LINE#         214
 C1:6CE2H         LINE#         215
 C1:6CE2H         LINE#         216
 C1:6CFAH         LINE#         217
 C1:6CFAH         LINE#         219
 C1:6CFAH         LINE#         220
 C1:6CFAH         LINE#         222
 C1:6CFAH         LINE#         224
 C1:6CFAH         LINE#         225
 C1:6CFAH         LINE#         226
 C1:6D14H         LINE#         228
 C1:6D49H         LINE#         229
 C1:6D49H         LINE#         230
 C1:6D4CH         LINE#         231
 C1:6D84H         LINE#         234
 C1:6D84H         LINE#         235
 C1:6D9EH         LINE#         236
 C1:6DA0H         LINE#         237
 C1:6DA0H         LINE#         238
 C1:6DB1H         LINE#         239
 C1:6DCEH         LINE#         241
 C1:6DE6H         LINE#         242
BL51 BANKED LINKER/LOCATER V6.00                                                      11/05/2015  16:28:40  PAGE 102


 C1:6DE6H         LINE#         243
 C1:6E15H         LINE#         244
 C1:6E42H         LINE#         245
 C1:6E58H         LINE#         246
 C1:6E58H         LINE#         247
 C1:6E6DH         LINE#         248
 C1:6E83H         LINE#         253
 C1:6E8BH         LINE#         254
 C1:6E8BH         LINE#         256
 C1:6E8BH         LINE#         259
 C1:6EC1H         LINE#         263
 C1:6ED5H         LINE#         267
 C1:6EEDH         LINE#         268
 C1:6EEDH         LINE#         271
 C1:6EF7H         LINE#         272
 C1:6F00H         LINE#         273
 C1:6F2DH         LINE#         274
 C1:6F3BH         LINE#         275
 C1:6F3BH         LINE#         276
 C1:6F40H         LINE#         277
 C1:6F4EH         LINE#         278
 C1:6F60H         LINE#         279
 C1:6F62H         LINE#         282
 C1:6F62H         LINE#         283
 C1:6F9BH         LINE#         285
 C1:6FB1H         LINE#         286
 C1:6FB6H         LINE#         287
 C1:6FB6H         LINE#         288
 C1:6FBAH         LINE#         289
 C1:6FBAH         LINE#         291
 C1:6FD0H         LINE#         292
 C1:6FD0H         LINE#         293
 C1:6FD8H         LINE#         294
 C1:6FD8H         LINE#         295
 C1:6FD8H         LINE#         296
 C1:6FD8H         LINE#         297
 C1:6FEDH         LINE#         298
 C1:6FF8H         LINE#         299
 C1:701BH         LINE#         301
 C1:7024H         LINE#         303
 C1:7040H         LINE#         305
 C1:7048H         LINE#         306
 C1:7063H         LINE#         307
 C1:7076H         LINE#         308
 C1:7078H         LINE#         311
 C1:7091H         LINE#         312
 C1:7093H         LINE#         314
 C1:70BAH         LINE#         317
 C1:70C8H         LINE#         318
 C1:70C8H         LINE#         334
 C1:70DFH         LINE#         335
 C1:70DFH         LINE#         336
 C1:70EFH         LINE#         337
 C1:70EFH         LINE#         340
 C1:7106H         LINE#         341
 C1:7106H         LINE#         342
 C1:7135H         LINE#         343
BL51 BANKED LINKER/LOCATER V6.00                                                      11/05/2015  16:28:40  PAGE 103


 C1:7135H         LINE#         344
 C1:7135H         LINE#         347
 C1:7150H         LINE#         348
 C1:7150H         LINE#         351
 C1:716BH         LINE#         352
 C1:716BH         LINE#         358
 C1:71A5H         LINE#         359
 C1:71C0H         LINE#         360
 C1:71C0H         LINE#         362
 C1:71C3H         LINE#         363
 C1:71C3H         LINE#         364
 C1:71C3H         LINE#         365
 C1:71C3H         LINE#         367
 C1:71D3H         LINE#         368
 C1:71D3H         LINE#         369
 C1:7202H         LINE#         370
 C1:7202H         LINE#         373
 C1:721FH         LINE#         375
 C1:7232H         LINE#         376
 C1:7232H         LINE#         378
 C1:7259H         LINE#         379
 C1:7267H         LINE#         381
 C1:7290H         LINE#         382
 C1:7290H         LINE#         386
 C1:7290H         LINE#         388
 C1:7290H         LINE#         393
 C1:7293H         LINE#         402
 C1:7293H         LINE#         403
 C1:7299H         LINE#         404
 C1:7299H         LINE#         405
 C1:72B6H         LINE#         406
 C1:72BBH         LINE#         407
 C1:72E2H         LINE#         409
 C1:72E5H         LINE#         411
 C1:72E5H         LINE#         413
 C1:72F8H         LINE#         414
 C1:7311H         LINE#         415
 C1:7311H         LINE#         417
 C1:7311H         LINE#         418
 C1:7316H         LINE#         419
 C1:731CH         LINE#         421
 C1:731CH         LINE#         422
 C1:732EH         LINE#         423
 C1:734BH         LINE#         424
 C1:734BH         LINE#         425
 C1:734EH         LINE#         426
 C1:736DH         LINE#         429
 C1:736DH         LINE#         430
 C1:737FH         LINE#         431
 C1:7381H         LINE#         432
 C1:7381H         LINE#         433
 C1:7391H         LINE#         435
 C1:73AEH         LINE#         436
 C1:73DBH         LINE#         437
 C1:73F1H         LINE#         438
 C1:73F1H         LINE#         439
 C1:7406H         LINE#         440
BL51 BANKED LINKER/LOCATER V6.00                                                      11/05/2015  16:28:40  PAGE 104


 C1:741CH         LINE#         445
 C1:7424H         LINE#         446
 C1:7424H         LINE#         448
 C1:742DH         LINE#         449
 C1:743CH         LINE#         451
 C1:7446H         LINE#         452
 C1:7451H         LINE#         453
 C1:7478H         LINE#         455
 C1:7486H         LINE#         456
 C1:749DH         LINE#         459
 C1:74ADH         LINE#         460
 C1:74ADH         LINE#         461
 C1:74DCH         LINE#         462
 C1:74DCH         LINE#         465
 C1:74F9H         LINE#         467
 C1:750CH         LINE#         468
 C1:750CH         LINE#         469
 C1:7533H         LINE#         470
 C1:7541H         LINE#         471
 C1:7567H         LINE#         472
 C1:7567H         LINE#         476
 C1:759BH         LINE#         478
 C1:759BH         LINE#         483
 C1:759DH         LINE#         485
 C1:759DH         LINE#         487
 C1:75A0H         LINE#         488
 C1:75A0H         LINE#         489
 C1:75A0H         LINE#         490
 C1:75A0H         LINE#         491
 C1:75A0H         LINE#         500
 C1:75A0H         LINE#         502
 C1:75A0H         LINE#         504
 C1:75AAH         LINE#         505
 C1:75AAH         LINE#         506
 C1:75BCH         LINE#         507
 C1:75C3H         LINE#         508
 C1:75DFH         LINE#         509
 C1:75DFH         LINE#         511
 C1:75FBH         LINE#         512
 C1:760BH         LINE#         513
 C1:760BH         LINE#         515
 C1:7613H         LINE#         516
 C1:7620H         LINE#         517
 C1:7620H         LINE#         518
 C1:7663H         LINE#         519
 C1:7688H         LINE#         521
 C1:768AH         LINE#         523
 C1:768AH         LINE#         524
 C1:76AFH         LINE#         525
 C1:76C4H         LINE#         526
 C1:76C4H         LINE#         527
 C1:76C6H         LINE#         529
 C1:76C6H         LINE#         530
 C1:76DAH         LINE#         531
 C1:76DAH         LINE#         532
 C1:76DCH         LINE#         534
 C1:76DCH         LINE#         535
BL51 BANKED LINKER/LOCATER V6.00                                                      11/05/2015  16:28:40  PAGE 105


 C1:76EFH         LINE#         536
 C1:7700H         LINE#         537
 C1:770CH         LINE#         538
 C1:7718H         LINE#         539
 C1:7724H         LINE#         545
 C1:7724H         LINE#         546
 C1:7740H         LINE#         547
 C1:7749H         LINE#         548
 C1:7749H         LINE#         549
 C1:775CH         LINE#         550
 C1:775CH         LINE#         551
 C1:7771H         LINE#         552
 C1:7771H         LINE#         553
 C1:7777H         LINE#         554
 C1:777AH         LINE#         556
 C1:777AH         LINE#         557
 C1:777AH         LINE#         558
 C1:7781H         LINE#         560
 C1:778BH         LINE#         561
 C1:778BH         LINE#         562
 C1:779DH         LINE#         567
 C1:77A7H         LINE#         568
 C1:77A7H         LINE#         569
 C1:77AFH         LINE#         570
 C1:77BAH         LINE#         571
 C1:77BAH         LINE#         572
 C1:77C0H         LINE#         573
 C1:77C3H         LINE#         575
 C1:77C3H         LINE#         578
 C1:77DAH         LINE#         579
 C1:780AH         LINE#         580
 C1:7816H         LINE#         581
 C1:7822H         LINE#         583
 C1:7842H         LINE#         584
 C1:785FH         LINE#         585
 C1:787BH         LINE#         599
 C1:787BH         LINE#         600
 C1:787BH         LINE#         603
 C1:7890H         LINE#         605
 C1:7890H         LINE#         606
 C1:7898H         LINE#         607
 C1:7898H         LINE#         608
 C1:78ABH         LINE#         609
 C1:78ABH         LINE#         611
 C1:78AEH         LINE#         612
 C1:78AEH         LINE#         614
 C1:78B1H         LINE#         615
 C1:78C0H         LINE#         616
 C1:78DCH         LINE#         619
 C1:78DCH         LINE#         620
 C1:78DCH         LINE#         621
 C1:78DCH         LINE#         622
 C1:78E4H         LINE#         625
  -------         ENDPROC       HTTP_SERVER

  -------         PROC BANK=1   HTTPD_COPYDATA
 C1:D7C2H         LINE#         627
BL51 BANKED LINKER/LOCATER V6.00                                                      11/05/2015  16:28:40  PAGE 106


 C1:D7C2H         LINE#         628
 C1:D7C2H         LINE#         629
 C1:D7DFH         LINE#         630
 C1:D7DFH         LINE#         631
 C1:D7E2H         LINE#         632
 C1:D7E2H         LINE#         634
 C1:D7E2H         LINE#         635
 C1:D80AH         LINE#         636
 C1:D81EH         LINE#         637
 C1:D820H         LINE#         638
 C1:D820H         LINE#         639
  -------         ENDPROC       HTTPD_COPYDATA

  -------         PROC BANK=1   _HTTPD_CHECK_COOKIE
  X:37D5H         SYMBOL        reqfile
 C1:CE96H         LINE#         641
 C1:CEA1H         LINE#         642
 C1:CEA1H         LINE#         643
 C1:CEF5H         LINE#         646
 C1:CEF5H         LINE#         647
 C1:CF2CH         LINE#         649
 C1:CF2CH         LINE#         650
 C1:CF3FH         LINE#         651
 C1:CF42H         LINE#         652
 C1:CF42H         LINE#         657
 C1:CF42H         LINE#         658
 C1:CF44H         LINE#         659
  -------         ENDPROC       _HTTPD_CHECK_COOKIE
  -------         ENDMOD        HTTPD

  -------         MODULE        APPLICATION
  C:0000H         SYMBOL        _ICE_DUMMY_
  D:0080H         PUBLIC        P0
  D:0090H         PUBLIC        P1
  D:00A0H         PUBLIC        P2
  D:00B0H         PUBLIC        P3
  D:00E8H         PUBLIC        P4
  X:313BH         SYMBOL        current
  X:313FH         PUBLIC        in_isr
 C1:B489H         PUBLIC        _SendTVSetCommand
 C1:CC7CH         PUBLIC        _uitos3Digital
 C1:E02AH         PUBLIC        fiber_cover
  D:00A8H         PUBLIC        IE
  X:3140H         PUBLIC        f_auto_send
  B:00E8H.0       PUBLIC        P4_0
  B:00B0H.2       PUBLIC        P3_2
  B:00B0H.3       PUBLIC        P3_3
  D:00B8H         PUBLIC        IP
 C1:83EEH         PUBLIC        application
 C1:D09BH         PUBLIC        CheckPktSend
  X:3141H         SYMBOL        start
  D:0098H         PUBLIC        SCON
  X:3145H         PUBLIC        conn_timer
  D:0088H         PUBLIC        TCON
 C1:DAF3H         PUBLIC        fiber_cover2
  X:3149H         PUBLIC        config_g
  X:315FH         PUBLIC        TCP_Status
BL51 BANKED LINKER/LOCATER V6.00                                                      11/05/2015  16:28:40  PAGE 107


 C1:E2BBH         PUBLIC        UDP_RECEIVE
  X:3160H         PUBLIC        system_parameter
 C1:E3DBH         PUBLIC        GetTVState
  D:00D8H         PUBLIC        WDTCON
 C1:CB02H         PUBLIC        on_tcp_rx
 C1:E276H         PUBLIC        _get_system_parameter
  B:0088H.4       PUBLIC        TR0
  D:00C8H         PUBLIC        T2CON
  X:3164H         PUBLIC        m_eScaler_State
  X:3165H         PUBLIC        ResetTCP_Port
  X:3166H         PUBLIC        fiber_not_link_cnt
  D:00D0H         PUBLIC        PSW

  -------         PROC BANK=1   CHECKPKTSEND
 C1:D09BH         LINE#         108
 C1:D09BH         LINE#         109
 C1:D09BH         LINE#         110
 C1:D0A8H         LINE#         111
 C1:D0A8H         LINE#         113
 C1:D0ABH         LINE#         119
 C1:D0B3H         LINE#         120
 C1:D0B3H         LINE#         121
 C1:D0B9H         LINE#         122
 C1:D0B9H         LINE#         123
 C1:D0BBH         LINE#         124
 C1:D0E7H         LINE#         125
 C1:D108H         LINE#         126
 C1:D116H         LINE#         127
 C1:D118H         LINE#         129
 C1:D11BH         LINE#         130
 C1:D121H         LINE#         131
 C1:D123H         LINE#         134
 C1:D126H         LINE#         136
 C1:D129H         LINE#         142
 C1:D13AH         LINE#         146
 C1:D141H         LINE#         147
 C1:D141H         LINE#         148
  -------         ENDPROC       CHECKPKTSEND

  -------         PROC BANK=1   FIBER_COVER
 C1:E02AH         LINE#         151
 C1:E02AH         LINE#         152
 C1:E02AH         LINE#         153
 C1:E035H         LINE#         154
 C1:E035H         LINE#         155
 C1:E035H         LINE#         156
 C1:E037H         LINE#         158
 C1:E037H         LINE#         159
 C1:E03DH         LINE#         160
 C1:E043H         LINE#         161
 C1:E043H         LINE#         162
 C1:E04EH         LINE#         163
 C1:E053H         LINE#         164
 C1:E053H         LINE#         165
 C1:E053H         LINE#         166
  -------         ENDPROC       FIBER_COVER

BL51 BANKED LINKER/LOCATER V6.00                                                      11/05/2015  16:28:40  PAGE 108


  -------         PROC BANK=1   FIBER_COVER2
  -------         DO            
  X:3774H         SYMBOL        tmp10
  X:3776H         SYMBOL        tmp00
  D:0006H         SYMBOL        tmp00b
  -------         ENDDO         
 C1:DAF3H         LINE#         167
 C1:DAF3H         LINE#         168
 C1:DAF3H         LINE#         171
 C1:DB02H         LINE#         172
 C1:DB11H         LINE#         173
 C1:DB20H         LINE#         174
 C1:DB27H         LINE#         175
 C1:DB2BH         LINE#         176
 C1:DB2BH         LINE#         177
 C1:DB3CH         LINE#         178
 C1:DB3CH         LINE#         179
  -------         ENDPROC       FIBER_COVER2

  -------         PROC BANK=1   UDP_RECEIVE
  -------         DO            
  X:36EFH         SYMBOL        j
  X:36F1H         SYMBOL        k
  X:36F3H         SYMBOL        cmd
  -------         ENDDO         
 C1:E2BBH         LINE#         182
 C1:E2BBH         LINE#         183
 C1:E2BBH         LINE#         186
 C1:E2BEH         LINE#         189
 C1:E2C1H         LINE#         193
 C1:E2C7H         LINE#         195
 C1:E2CAH         LINE#         228
 C1:E2CDH         LINE#         234
  -------         ENDPROC       UDP_RECEIVE

  -------         PROC BANK=1   ON_TCP_RX
 C1:CB02H         LINE#         238
 C1:CB02H         LINE#         239
 C1:CB02H         LINE#         242
 C1:CB0BH         LINE#         244
 C1:CB0BH         LINE#         249
 C1:CB23H         LINE#         250
 C1:CB56H         LINE#         251
 C1:CB60H         LINE#         252
 C1:CB8DH         LINE#         255
 C1:CB8DH         LINE#         259
 C1:CB90H         LINE#         260
 C1:CB90H         LINE#         261
 C1:CB90H         LINE#         262
 C1:CB90H         LINE#         263
 C1:CB90H         LINE#         267
 C1:CB99H         LINE#         268
 C1:CB99H         LINE#         272
 C1:CBA2H         LINE#         276
 C1:CBABH         LINE#         280
 C1:CBB4H         LINE#         284
 C1:CBBDH         LINE#         286
BL51 BANKED LINKER/LOCATER V6.00                                                      11/05/2015  16:28:40  PAGE 109


 C1:CBBFH         LINE#         287
  -------         ENDPROC       ON_TCP_RX

  -------         PROC BANK=1   _GET_SYSTEM_PARAMETER
  D:0006H         SYMBOL        ID
 C1:E276H         LINE#         289
 C1:E276H         LINE#         290
 C1:E276H         LINE#         291
 C1:E27DH         LINE#         292
 C1:E27DH         LINE#         293
 C1:E287H         LINE#         294
 C1:E287H         LINE#         295
 C1:E28DH         LINE#         296
  -------         ENDPROC       _GET_SYSTEM_PARAMETER

  -------         PROC BANK=1   _UITOS3DIGITAL
  X:361BH         SYMBOL        int_value
  -------         DO            
  D:0002H         SYMBOL        i
  D:0006H         SYMBOL        k
  X:3134H         SYMBOL        str
  X:361DH         SYMBOL        base
  X:361FH         SYMBOL        last_div
  X:3621H         SYMBOL        div
  -------         ENDDO         
 C1:CC7CH         LINE#         509
 C1:CC84H         LINE#         510
 C1:CC84H         LINE#         511
 C1:CC87H         LINE#         512
 C1:CC89H         LINE#         514
 C1:CC98H         LINE#         517
 C1:CCA9H         LINE#         518
 C1:CCA9H         LINE#         519
 C1:CCC1H         LINE#         520
 C1:CCDDH         LINE#         521
 C1:CCECH         LINE#         522
 C1:CD03H         LINE#         523
 C1:CD0AH         LINE#         524
 C1:CD1CH         LINE#         525
 C1:CD2BH         LINE#         526
 C1:CD31H         LINE#         527
  -------         ENDPROC       _UITOS3DIGITAL

  -------         PROC BANK=1   GETTVSTATE
 C1:E3DBH         LINE#         531
 C1:E3DBH         LINE#         532
 C1:E3DBH         LINE#         533
 C1:E3E0H         LINE#         534
  -------         ENDPROC       GETTVSTATE

  -------         PROC BANK=1   _SENDTVSETCOMMAND
  X:342CH         SYMBOL        SetCmd
  D:0005H         SYMBOL        SetValue
  -------         DO            
  D:0001H         SYMBOL        pData
  X:342DH         SYMBOL        TVSetCMD
  X:3436H         SYMBOL        k
BL51 BANKED LINKER/LOCATER V6.00                                                      11/05/2015  16:28:40  PAGE 110


  X:3438H         SYMBOL        j
  -------         ENDDO         
 C1:B489H         LINE#         536
 C1:B48EH         LINE#         537
 C1:B48EH         LINE#         542
 C1:B495H         LINE#         543
 C1:B498H         LINE#         546
 C1:B49FH         LINE#         548
 C1:B49FH         LINE#         549
 C1:B4A5H         LINE#         550
 C1:B4A9H         LINE#         551
 C1:B4ACH         LINE#         552
 C1:B4B0H         LINE#         553
 C1:B4B8H         LINE#         554
 C1:B4BFH         LINE#         555
 C1:B4C9H         LINE#         556
 C1:B4D3H         LINE#         557
 C1:B4D7H         LINE#         559
 C1:B4EEH         LINE#         560
 C1:B501H         LINE#         561
 C1:B50FH         LINE#         562
 C1:B51CH         LINE#         563
 C1:B51CH         LINE#         564
 C1:B546H         LINE#         565
 C1:B556H         LINE#         566
 C1:B594H         LINE#         567
 C1:B5E5H         LINE#         568
 C1:B5E5H         LINE#         569
 C1:B5EAH         LINE#         570
  -------         ENDPROC       _SENDTVSETCOMMAND

  -------         PROC BANK=1   APPLICATION
  -------         DO            
  X:35AAH         SYMBOL        tmpvalue
  X:35ABH         SYMBOL        i
  X:35ACH         SYMBOL        l
  X:35ADH         SYMBOL        test_delay
  X:35AFH         SYMBOL        j
  -------         DO            
  X:35B1H         SYMBOL        uip_len_tmp
  -------         ENDDO         
  -------         ENDDO         
 C1:83EEH         LINE#         574
 C1:83EEH         LINE#         575
 C1:83EEH         LINE#         576
 C1:83F3H         LINE#         577
 C1:83F7H         LINE#         589
 C1:83FDH         LINE#         596
 C1:8403H         LINE#         597
 C1:8407H         LINE#         598
 C1:840BH         LINE#         600
 C1:840EH         LINE#         602
 C1:8411H         LINE#         603
 C1:8414H         LINE#         605
 C1:8417H         LINE#         610
 C1:8419H         LINE#         613
 C1:841CH         LINE#         616
BL51 BANKED LINKER/LOCATER V6.00                                                      11/05/2015  16:28:40  PAGE 111


 C1:841FH         LINE#         621
 C1:8454H         LINE#         626
 C1:8457H         LINE#         629
 C1:846EH         LINE#         630
 C1:8485H         LINE#         632
 C1:84ABH         LINE#         633
 C1:84BFH         LINE#         634
 C1:84D3H         LINE#         635
 C1:84DAH         LINE#         638
 C1:84DDH         LINE#         642
 C1:84DFH         LINE#         643
 C1:84E1H         LINE#         644
 C1:84E4H         LINE#         648
 C1:84E7H         LINE#         652
 C1:84EAH         LINE#         656
 C1:84EDH         LINE#         659
 C1:84F0H         LINE#         661
 C1:84F3H         LINE#         663
 C1:84F5H         LINE#         665
 C1:84F5H         LINE#         666
 C1:84F5H         LINE#         669
 C1:84F8H         LINE#         674
 C1:84FBH         LINE#         676
 C1:84FEH         LINE#         678
 C1:8501H         LINE#         681
 C1:8504H         LINE#         686
 C1:8507H         LINE#         688
 C1:850AH         LINE#         692
 C1:851BH         LINE#         696
 C1:852DH         LINE#         697
 C1:852DH         LINE#         701
 C1:8530H         LINE#         704
 C1:8533H         LINE#         709
 C1:8542H         LINE#         713
 C1:8545H         LINE#         718
 C1:8548H         LINE#         719
 C1:8552H         LINE#         720
 C1:8552H         LINE#         722
 C1:8563H         LINE#         726
 C1:8563H         LINE#         728
 C1:8572H         LINE#         729
 C1:8575H         LINE#         730
 C1:8584H         LINE#         731
 C1:8587H         LINE#         733
 C1:858AH         LINE#         738
 C1:8594H         LINE#         739
 C1:8594H         LINE#         741
 C1:85A5H         LINE#         745
 C1:85A5H         LINE#         747
 C1:85B4H         LINE#         748
 C1:85B7H         LINE#         750
 C1:85BAH         LINE#         755
 C1:85BDH         LINE#         758
 C1:85CCH         LINE#         759
 C1:85CFH         LINE#         761
 C1:85DEH         LINE#         762
 C1:85E3H         LINE#         764
BL51 BANKED LINKER/LOCATER V6.00                                                      11/05/2015  16:28:40  PAGE 112


 C1:85E6H         LINE#         769
 C1:85E9H         LINE#         771
 C1:85ECH         LINE#         774
 C1:85EFH         LINE#         777
 C1:85F2H         LINE#         782
 C1:85F2H         LINE#         785
 C1:860DH         LINE#         786
 C1:860DH         LINE#         789
 C1:860DH         LINE#         925
 C1:8633H         LINE#         926
 C1:8647H         LINE#         927
 C1:868CH         LINE#         928
 C1:868CH         LINE#         929
 C1:868FH         LINE#         931
 C1:8692H         LINE#         932
 C1:869CH         LINE#         933
 C1:869CH         LINE#         935
 C1:86ADH         LINE#         939
 C1:86B4H         LINE#         940
 C1:86B4H         LINE#         942
 C1:86B7H         LINE#         946
 C1:86BAH         LINE#         947
 C1:86BDH         LINE#         948
 C1:86C4H         LINE#         951
 C1:86C7H         LINE#         954
 C1:86CAH         LINE#         967
 C1:86CDH         LINE#         968
 C1:86D0H         LINE#         970
 C1:86D3H         LINE#         975
 C1:86D6H         LINE#         976
 C1:86DDH         LINE#         979
 C1:86E0H         LINE#         983
 C1:86E3H         LINE#         988
 C1:86E6H         LINE#         989
 C1:86F0H         LINE#         990
 C1:86F0H         LINE#         991
 C1:86F3H         LINE#         993
 C1:8704H         LINE#         997
 C1:870BH         LINE#         998
 C1:870BH         LINE#         1000
 C1:8710H         LINE#         1001
 C1:8710H         LINE#         1003
 C1:8713H         LINE#         1008
 C1:872FH         LINE#         1009
 C1:8734H         LINE#         1011
 C1:8737H         LINE#         1016
 C1:873AH         LINE#         1018
 C1:873DH         LINE#         1021
 C1:8740H         LINE#         1024
 C1:8743H         LINE#         1029
 C1:874FH         LINE#         1030
 C1:8763H         LINE#         1031
 C1:8766H         LINE#         1032
 C1:8770H         LINE#         1033
 C1:8770H         LINE#         1036
 C1:8781H         LINE#         1040
 C1:8788H         LINE#         1041
BL51 BANKED LINKER/LOCATER V6.00                                                      11/05/2015  16:28:40  PAGE 113


 C1:8788H         LINE#         1042
 C1:8788H         LINE#         1044
 C1:878BH         LINE#         1049
  -------         ENDPROC       APPLICATION
  -------         ENDMOD        APPLICATION

  -------         MODULE        HTTPD_APP
  C:0000H         SYMBOL        _ICE_DUMMY_
 C1:AC7DH         PUBLIC        _findcookie
 C1:AA70H         PUBLIC        httpd_header_init
 C1:D87FH         PUBLIC        httpd_ChallengeError
 C1:B746H         PUBLIC        _httpd_init_file
 C1:D940H         PUBLIC        _httpd_copy_data
 C1:DCDBH         PUBLIC        httpd_login_fail
 C1:B311H         PUBLIC        querystr_func
 C1:DE35H         PUBLIC        httpd_login_pass
  C:30D2H         SYMBOL        _?ix1000
 C1:D420H         PUBLIC        httpd_file_not_found
 C1:BD59H         PUBLIC        _strfind

  -------         PROC BANK=1   QUERYSTR_FUNC
  -------         DO            
  X:3814H         SYMBOL        count
  D:0006H         SYMBOL        index
  -------         ENDDO         
 C1:B311H         LINE#         26
 C1:B311H         LINE#         27
 C1:B311H         LINE#         29
 C1:B318H         LINE#         30
 C1:B331H         LINE#         31
 C1:B331H         LINE#         32
 C1:B363H         LINE#         33
 C1:B390H         LINE#         34
 C1:B3A9H         LINE#         35
 C1:B3A9H         LINE#         36
 C1:B3BEH         LINE#         37
 C1:B3D4H         LINE#         38
 C1:B406H         LINE#         39
 C1:B428H         LINE#         40
 C1:B43DH         LINE#         41
 C1:B454H         LINE#         42
 C1:B454H         LINE#         43
 C1:B458H         LINE#         44
 C1:B46EH         LINE#         45
 C1:B46EH         LINE#         46
 C1:B47FH         LINE#         47
 C1:B482H         LINE#         54
 C1:B488H         LINE#         55
  -------         ENDPROC       QUERYSTR_FUNC

  -------         PROC BANK=1   _STRFIND
  X:3471H         SYMBOL        srcstr
  X:3474H         SYMBOL        findstr
  -------         DO            
  X:3477H         SYMBOL        ptr
  X:347AH         SYMBOL        srcstr_end
  X:347DH         SYMBOL        len
BL51 BANKED LINKER/LOCATER V6.00                                                      11/05/2015  16:28:40  PAGE 114


  D:0006H         SYMBOL        i
  D:0007H         SYMBOL        check_count
  -------         ENDDO         
 C1:BD59H         LINE#         68
 C1:BD64H         LINE#         69
 C1:BD64H         LINE#         72
 C1:BD81H         LINE#         74
 C1:BD94H         LINE#         75
 C1:BDC0H         LINE#         76
 C1:BDC0H         LINE#         77
 C1:BDE8H         LINE#         78
 C1:BDECH         LINE#         79
 C1:BDECH         LINE#         80
 C1:BDEEH         LINE#         81
 C1:BDFAH         LINE#         82
 C1:BDFAH         LINE#         83
 C1:BE24H         LINE#         84
 C1:BE24H         LINE#         85
 C1:BE25H         LINE#         86
 C1:BE25H         LINE#         87
 C1:BE28H         LINE#         88
 C1:BE30H         LINE#         89
 C1:BE30H         LINE#         90
 C1:BE46H         LINE#         91
 C1:BE46H         LINE#         92
 C1:BE46H         LINE#         96
 C1:BE46H         LINE#         97
 C1:BE61H         LINE#         98
 C1:BE64H         LINE#         99
 C1:BE6AH         LINE#         100
  -------         ENDPROC       _STRFIND

  -------         PROC BANK=1   _FINDCOOKIE
  X:36F5H         SYMBOL        srcstr
  -------         DO            
  X:36F8H         SYMBOL        ptr
  -------         ENDDO         
 C1:AC7DH         LINE#         112
 C1:AC88H         LINE#         113
 C1:AC88H         LINE#         114
 C1:AC8FH         LINE#         118
 C1:ACB6H         LINE#         119
 C1:ACBAH         LINE#         120
 C1:ACBAH         LINE#         121
 C1:ACE7H         LINE#         122
 C1:ACE7H         LINE#         123
 C1:ACFAH         LINE#         124
 C1:ACFAH         LINE#         126
 C1:AD0BH         LINE#         127
 C1:AD0BH         LINE#         128
 C1:AD15H         LINE#         129
 C1:AD17H         LINE#         131
 C1:AD39H         LINE#         133
 C1:AD66H         LINE#         134
 C1:AD71H         LINE#         135
 C1:AD93H         LINE#         137
 C1:AD9CH         LINE#         138
BL51 BANKED LINKER/LOCATER V6.00                                                      11/05/2015  16:28:40  PAGE 115


 C1:ADBDH         LINE#         139
 C1:ADC1H         LINE#         140
 C1:ADC1H         LINE#         141
 C1:ADD0H         LINE#         142
 C1:ADD9H         LINE#         143
 C1:ADFBH         LINE#         144
 C1:ADFBH         LINE#         145
 C1:AE04H         LINE#         146
 C1:AE25H         LINE#         147
 C1:AE29H         LINE#         148
 C1:AE29H         LINE#         149
 C1:AE38H         LINE#         150
 C1:AE5AH         LINE#         151
 C1:AE5AH         LINE#         155
 C1:AE5AH         LINE#         157
 C1:AE5AH         LINE#         161
 C1:AE5AH         LINE#         162
  -------         ENDPROC       _FINDCOOKIE

  -------         PROC BANK=1   HTTPD_LOGIN_PASS
 C1:DE35H         LINE#         176
 C1:DE35H         LINE#         177
 C1:DE35H         LINE#         178
 C1:DE4FH         LINE#         179
  -------         ENDPROC       HTTPD_LOGIN_PASS

  -------         PROC BANK=1   HTTPD_LOGIN_FAIL
 C1:DCDBH         LINE#         194
 C1:DCDBH         LINE#         195
 C1:DCDBH         LINE#         196
 C1:DCF8H         LINE#         197
 C1:DCFDH         LINE#         198
  -------         ENDPROC       HTTPD_LOGIN_FAIL

  -------         PROC BANK=1   HTTPD_CHALLENGEERROR
 C1:D87FH         LINE#         212
 C1:D87FH         LINE#         213
 C1:D87FH         LINE#         214
 C1:D89CH         LINE#         215
 C1:D8A2H         LINE#         216
 C1:D8B4H         LINE#         217
  -------         ENDPROC       HTTPD_CHALLENGEERROR
 C1:D936H         SYMBOL        L?0039
 C1:D93CH         SYMBOL        L?0040
  -------         PROC          L?0038
  -------         ENDPROC       L?0038
 C1:D936H         SYMBOL        L?0039
 C1:D93CH         SYMBOL        L?0040

  -------         PROC BANK=1   _HTTPD_COPY_DATA
  D:0001H         SYMBOL        indata
  X:3816H         SYMBOL        length
 C1:D940H         LINE#         230
 C1:D948H         LINE#         231
 C1:D948H         LINE#         232
 C1:D950H         LINE#         233
 C1:D950H         LINE#         234
BL51 BANKED LINKER/LOCATER V6.00                                                      11/05/2015  16:28:40  PAGE 116


 C1:D97CH         LINE#         235
 C1:D990H         LINE#         236
 C1:D990H         LINE#         237
  -------         ENDPROC       _HTTPD_COPY_DATA

  -------         PROC BANK=1   HTTPD_HEADER_INIT
  -------         DO            
  X:34A4H         SYMBOL        info
  -------         ENDDO         
 C1:AA70H         LINE#         249
 C1:AA70H         LINE#         250
 C1:AA70H         LINE#         251
 C1:AA83H         LINE#         253
 C1:AA8AH         LINE#         254
 C1:AA96H         LINE#         255
 C1:AAC2H         LINE#         256
 C1:AAC5H         LINE#         257
 C1:AACEH         LINE#         258
 C1:AAE4H         LINE#         259
 C1:AAE4H         LINE#         260
 C1:AB01H         LINE#         261
 C1:AB0EH         LINE#         262
 C1:AB3AH         LINE#         263
 C1:AB3DH         LINE#         264
 C1:AB3DH         LINE#         266
 C1:AB58H         LINE#         267
 C1:AB58H         LINE#         268
 C1:ABA9H         LINE#         269
 C1:ABD1H         LINE#         270
 C1:ABD1H         LINE#         271
 C1:ABE7H         LINE#         272
 C1:ABE7H         LINE#         273
 C1:AC39H         LINE#         274
 C1:AC61H         LINE#         275
 C1:AC61H         LINE#         276
 C1:AC64H         LINE#         277
  -------         ENDPROC       HTTPD_HEADER_INIT

  -------         PROC BANK=1   _HTTPD_INIT_FILE
  X:37D8H         SYMBOL        infile
 C1:B746H         LINE#         291
 C1:B751H         LINE#         292
 C1:B751H         LINE#         293
 C1:B763H         LINE#         294
 C1:B76AH         LINE#         295
 C1:B791H         LINE#         297
 C1:B7B0H         LINE#         298
 C1:B7D8H         LINE#         299
 C1:B7EBH         LINE#         301
 C1:B7F2H         LINE#         302
 C1:B7F9H         LINE#         303
 C1:B802H         LINE#         304
 C1:B80BH         LINE#         305
 C1:B814H         LINE#         306
 C1:B81BH         LINE#         307
 C1:B822H         LINE#         308
 C1:B829H         LINE#         309
BL51 BANKED LINKER/LOCATER V6.00                                                      11/05/2015  16:28:40  PAGE 117


 C1:B830H         LINE#         310
 C1:B837H         LINE#         311
 C1:B83EH         LINE#         312
 C1:B845H         LINE#         313
 C1:B84EH         LINE#         314
 C1:B86BH         LINE#         315
 C1:B888H         LINE#         317
 C1:B889H         LINE#         318
  -------         ENDPROC       _HTTPD_INIT_FILE

  -------         PROC BANK=1   HTTPD_FILE_NOT_FOUND
 C1:D420H         LINE#         330
 C1:D420H         LINE#         331
 C1:D420H         LINE#         332
 C1:D427H         LINE#         333
 C1:D43BH         LINE#         334
 C1:D455H         LINE#         335
 C1:D472H         LINE#         336
 C1:D485H         LINE#         337
 C1:D4A2H         LINE#         338
  -------         ENDPROC       HTTPD_FILE_NOT_FOUND
  -------         ENDMOD        HTTPD_APP

  -------         MODULE        CHECKSUM
  C:0000H         SYMBOL        _ICE_DUMMY_
 C5:60E0H         PUBLIC        uip_tcpchksum
 C5:6A32H         PUBLIC        uip_udpchksum
 C5:8194H         PUBLIC        uip_ipchksum
  X:3832H         PUBLIC        muip_check_flag
 C5:7C0CH         PUBLIC        _uip_chksum

  -------         PROC BANK=5   _UIP_CHKSUM
  D:0001H         SYMBOL        sdata
  X:3818H         SYMBOL        len
  -------         DO            
  D:0004H         SYMBOL        acc
  -------         ENDDO         
 C5:7C0CH         LINE#         32
 C5:7C14H         LINE#         33
 C5:7C14H         LINE#         36
 C5:7C26H         LINE#         37
 C5:7C31H         LINE#         38
 C5:7C38H         LINE#         41
 C5:7C3DH         LINE#         42
 C5:7C3DH         LINE#         43
 C5:7C44H         LINE#         44
 C5:7C54H         LINE#         47
 C5:7C60H         LINE#         48
 C5:7C6CH         LINE#         49
 C5:7C73H         LINE#         50
 C5:7C78H         LINE#         51
 C5:7C78H         LINE#         52
 C5:7C78H         LINE#         54
 C5:7C7CH         LINE#         55
  -------         ENDPROC       _UIP_CHKSUM

  -------         PROC BANK=5   UIP_IPCHKSUM
BL51 BANKED LINKER/LOCATER V6.00                                                      11/05/2015  16:28:40  PAGE 118


 C5:8194H         LINE#         69
 C5:8194H         LINE#         70
 C5:8194H         LINE#         71
 C5:819AH         LINE#         72
 C5:81A2H         LINE#         74
 C5:81B9H         LINE#         75
  -------         ENDPROC       UIP_IPCHKSUM

  -------         PROC BANK=5   UIP_UDPCHKSUM
  -------         DO            
  X:3778H         SYMBOL        hsum
  X:377AH         SYMBOL        sum
  -------         ENDDO         
 C5:6A32H         LINE#         90
 C5:6A32H         LINE#         91
 C5:6A32H         LINE#         95
 C5:6A51H         LINE#         100
 C5:6A9EH         LINE#         102
 C5:6AB6H         LINE#         103
 C5:6AC4H         LINE#         104
 C5:6AC4H         LINE#         106
 C5:6AEFH         LINE#         107
 C5:6AFDH         LINE#         108
 C5:6AFDH         LINE#         109
 C5:6B18H         LINE#         110
 C5:6B26H         LINE#         111
 C5:6B26H         LINE#         112
 C5:6B41H         LINE#         113
 C5:6B4FH         LINE#         114
 C5:6B4FH         LINE#         115
 C5:6B6AH         LINE#         116
 C5:6B78H         LINE#         117
 C5:6B78H         LINE#         118
 C5:6B8DH         LINE#         119
 C5:6B9BH         LINE#         120
 C5:6B9BH         LINE#         121
 C5:6BBCH         LINE#         123
 C5:6BD4H         LINE#         124
 C5:6BE2H         LINE#         125
 C5:6BE2H         LINE#         126
 C5:6BEAH         LINE#         127
  -------         ENDPROC       UIP_UDPCHKSUM

  -------         PROC BANK=5   UIP_TCPCHKSUM
  -------         DO            
  X:377CH         SYMBOL        hsum
  X:377EH         SYMBOL        sum
  -------         ENDDO         
 C5:60E0H         LINE#         131
 C5:60E0H         LINE#         132
 C5:60E0H         LINE#         136
 C5:60E6H         LINE#         137
 C5:60EEH         LINE#         139
 C5:610DH         LINE#         143
 C5:6113H         LINE#         144
 C5:6113H         LINE#         146
 C5:612FH         LINE#         147
BL51 BANKED LINKER/LOCATER V6.00                                                      11/05/2015  16:28:40  PAGE 119


 C5:6131H         LINE#         149
 C5:6131H         LINE#         151
 C5:617EH         LINE#         152
 C5:617EH         LINE#         154
 C5:6196H         LINE#         155
 C5:61A4H         LINE#         156
 C5:61A4H         LINE#         157
 C5:61ADH         LINE#         158
 C5:61ADH         LINE#         159
 C5:61C7H         LINE#         160
 C5:61D5H         LINE#         161
 C5:61D5H         LINE#         162
 C5:61EFH         LINE#         163
 C5:61FDH         LINE#         164
 C5:61FDH         LINE#         165
 C5:6217H         LINE#         166
 C5:6225H         LINE#         167
 C5:6225H         LINE#         168
 C5:623FH         LINE#         169
 C5:624DH         LINE#         170
 C5:624DH         LINE#         171
 C5:6262H         LINE#         172
 C5:6270H         LINE#         173
 C5:6270H         LINE#         174
 C5:6277H         LINE#         175
 C5:627AH         LINE#         177
 C5:627AH         LINE#         178
 C5:62A5H         LINE#         179
 C5:62B3H         LINE#         180
 C5:62B3H         LINE#         181
 C5:62CEH         LINE#         182
 C5:62DCH         LINE#         183
 C5:62DCH         LINE#         184
 C5:62F7H         LINE#         185
 C5:6305H         LINE#         186
 C5:6305H         LINE#         187
 C5:6320H         LINE#         188
 C5:632EH         LINE#         189
 C5:632EH         LINE#         190
 C5:6343H         LINE#         191
 C5:6351H         LINE#         192
 C5:6351H         LINE#         193
 C5:6372H         LINE#         194
 C5:6372H         LINE#         196
 C5:638AH         LINE#         197
 C5:6398H         LINE#         198
 C5:6398H         LINE#         199
 C5:63A0H         LINE#         200
  -------         ENDPROC       UIP_TCPCHKSUM
  -------         ENDMOD        CHECKSUM

  -------         MODULE        LOGINCBK
  C:0000H         SYMBOL        _ICE_DUMMY_
  D:0090H         PUBLIC        P1
  D:00B0H         PUBLIC        P3
  D:00A8H         PUBLIC        IE
 C1:94E9H         PUBLIC        _cgi_login
BL51 BANKED LINKER/LOCATER V6.00                                                      11/05/2015  16:28:40  PAGE 120


  X:33D0H         PUBLIC        ipbuf
  D:00B8H         PUBLIC        IP
 C1:CFF1H         PUBLIC        _ssi_login
  D:0098H         PUBLIC        SCON
  D:0088H         PUBLIC        TCON
  D:00D8H         PUBLIC        WDTCON
  D:00C8H         PUBLIC        T2CON
  D:00D0H         PUBLIC        PSW

  -------         PROC BANK=1   _SSI_LOGIN
  D:0007H         SYMBOL        varid
  X:36FBH         SYMBOL        vp
  -------         DO            
  X:36FEH         SYMBOL        ipa
  -------         ENDDO         
 C1:CFF1H         LINE#         53
 C1:CFFCH         LINE#         54
 C1:CFFCH         LINE#         56
 C1:D002H         LINE#         57
 C1:D002H         LINE#         58
 C1:D002H         LINE#         59
 C1:D010H         LINE#         60
 C1:D016H         LINE#         61
 C1:D024H         LINE#         62
 C1:D06BH         LINE#         63
 C1:D085H         LINE#         64
 C1:D098H         LINE#         65
 C1:D098H         LINE#         74
 C1:D098H         LINE#         75
 C1:D09AH         LINE#         76
  -------         ENDPROC       _SSI_LOGIN

  -------         PROC BANK=1   _CGI_LOGIN
  X:3167H         SYMBOL        cnt
  X:3168H         SYMBOL        vptr
  -------         DO            
  X:316BH         SYMBOL        i
  X:316CH         SYMBOL        username
  X:316FH         SYMBOL        passwd
  X:3172H         SYMBOL        resp
  X:3175H         SYMBOL        name
  X:3185H         SYMBOL        pass
  X:3195H         SYMBOL        vp
  X:3198H         SYMBOL        login_valid
  X:3199H         SYMBOL        challenge_valid
  -------         ENDDO         
 C1:94E9H         LINE#         88
 C1:94F7H         LINE#         89
 C1:94F7H         LINE#         91
 C1:9510H         LINE#         94
 C1:9525H         LINE#         95
 C1:952AH         LINE#         100
 C1:9537H         LINE#         101
 C1:9546H         LINE#         103
 C1:954FH         LINE#         104
 C1:954FH         LINE#         105
 C1:9562H         LINE#         106
BL51 BANKED LINKER/LOCATER V6.00                                                      11/05/2015  16:28:40  PAGE 121


 C1:956BH         LINE#         107
 C1:956BH         LINE#         108
 C1:956DH         LINE#         109
 C1:956DH         LINE#         110
 C1:9575H         LINE#         111
 C1:9575H         LINE#         112
 C1:959EH         LINE#         113
 C1:959EH         LINE#         114
 C1:95D7H         LINE#         115
 C1:95EEH         LINE#         116
 C1:95F6H         LINE#         117
 C1:95F6H         LINE#         118
 C1:95F6H         LINE#         119
 C1:95F6H         LINE#         122
 C1:95FEH         LINE#         123
 C1:95FEH         LINE#         127
 C1:9602H         LINE#         128
 C1:9602H         LINE#         129
 C1:9619H         LINE#         133
 C1:9625H         LINE#         137
 C1:962AH         LINE#         138
 C1:962AH         LINE#         139
 C1:9641H         LINE#         143
 C1:964FH         LINE#         144
 C1:964FH         LINE#         146
 C1:964FH         LINE#         147
 C1:965EH         LINE#         148
 C1:966DH         LINE#         149
 C1:966DH         LINE#         155
 C1:9682H         LINE#         156
 C1:9682H         LINE#         157
 C1:96A2H         LINE#         158
 C1:96A2H         LINE#         159
 C1:96B6H         LINE#         160
 C1:96B8H         LINE#         161
 C1:96D8H         LINE#         162
 C1:96D8H         LINE#         163
 C1:96ECH         LINE#         165
 C1:96EEH         LINE#         166
 C1:970EH         LINE#         167
 C1:970EH         LINE#         168
 C1:972AH         LINE#         169
 C1:972AH         LINE#         171
 C1:9730H         LINE#         187
 C1:9743H         LINE#         188
 C1:9785H         LINE#         189
 C1:9785H         LINE#         190
 C1:97C7H         LINE#         191
 C1:97C7H         LINE#         192
 C1:97CCH         LINE#         193
 C1:97CCH         LINE#         194
 C1:97CCH         LINE#         195
 C1:97D6H         LINE#         196
 C1:97D6H         LINE#         197
 C1:97D9H         LINE#         198
 C1:97DBH         LINE#         200
 C1:97DBH         LINE#         201
BL51 BANKED LINKER/LOCATER V6.00                                                      11/05/2015  16:28:40  PAGE 122


 C1:97E1H         LINE#         202
 C1:97E1H         LINE#         203
 C1:97E4H         LINE#         204
 C1:97E4H         LINE#         206
 C1:97EAH         LINE#         207
 C1:97EAH         LINE#         208
 C1:97EDH         LINE#         209
 C1:97EDH         LINE#         211
 C1:97EDH         LINE#         212
 C1:97EFH         LINE#         213
  -------         ENDPROC       _CGI_LOGIN
  -------         ENDMOD        LOGINCBK

  -------         MODULE        ERRORMSGCBK
  C:0000H         SYMBOL        _ICE_DUMMY_
 C1:97F0H         PUBLIC        _ssi_errormsg
 C1:C25AH         PUBLIC        _cgi_reset
  X:3833H         PUBLIC        errmsgflag
 C1:DC91H         PUBLIC        eepromerr

  -------         PROC BANK=1   _SSI_ERRORMSG
  D:0007H         SYMBOL        varid
  X:37DBH         SYMBOL        vp
 C1:97F0H         LINE#         28
 C1:97FBH         LINE#         29
 C1:97FBH         LINE#         30
 C1:9826H         LINE#         31
 C1:9826H         LINE#         32
 C1:9826H         LINE#         33
 C1:9840H         LINE#         34
 C1:9847H         LINE#         35
 C1:9861H         LINE#         36
 C1:9868H         LINE#         37
 C1:9882H         LINE#         38
 C1:9889H         LINE#         39
 C1:98A3H         LINE#         40
 C1:98B4H         LINE#         41
 C1:98CEH         LINE#         42
 C1:98D1H         LINE#         43
 C1:98D1H         LINE#         44
 C1:98F6H         LINE#         45
 C1:98F6H         LINE#         46
 C1:98F9H         LINE#         48
 C1:98F9H         LINE#         49
 C1:9913H         LINE#         50
 C1:9925H         LINE#         51
 C1:993FH         LINE#         52
 C1:993FH         LINE#         53
 C1:9942H         LINE#         54
 C1:9942H         LINE#         55
 C1:995CH         LINE#         56
 C1:997DH         LINE#         57
 C1:997DH         LINE#         58
 C1:9980H         LINE#         60
 C1:9980H         LINE#         61
 C1:9992H         LINE#         62
 C1:9992H         LINE#         63
BL51 BANKED LINKER/LOCATER V6.00                                                      11/05/2015  16:28:40  PAGE 123


 C1:9998H         LINE#         64
 C1:999AH         LINE#         65
 C1:99A5H         LINE#         66
 C1:99A5H         LINE#         67
 C1:99ABH         LINE#         68
 C1:99ADH         LINE#         70
 C1:99C7H         LINE#         71
 C1:99C7H         LINE#         72
 C1:99CAH         LINE#         73
 C1:99CAH         LINE#         74
 C1:99D3H         LINE#         75
 C1:99D9H         LINE#         77
 C1:99F1H         LINE#         78
 C1:99F1H         LINE#         79
 C1:99F4H         LINE#         80
 C1:99F4H         LINE#         81
 C1:99FDH         LINE#         82
 C1:9A03H         LINE#         84
 C1:9A1BH         LINE#         85
 C1:9A1BH         LINE#         86
 C1:9A1DH         LINE#         87
 C1:9A1DH         LINE#         88
 C1:9A2AH         LINE#         89
 C1:9A2AH         LINE#         90
 C1:9A30H         LINE#         91
 C1:9A32H         LINE#         93
 C1:9A4CH         LINE#         94
 C1:9A4CH         LINE#         95
 C1:9A4EH         LINE#         96
 C1:9A4EH         LINE#         97
 C1:9A60H         LINE#         98
 C1:9A68H         LINE#         100
 C1:9A82H         LINE#         101
 C1:9A95H         LINE#         102
 C1:9A95H         LINE#         103
 C1:9A95H         LINE#         104
 C1:9A97H         LINE#         105
  -------         ENDPROC       _SSI_ERRORMSG

  -------         PROC BANK=1   EEPROMERR
 C1:DC91H         LINE#         117
 C1:DC91H         LINE#         118
 C1:DC91H         LINE#         119
 C1:DCAEH         LINE#         120
 C1:DCB4H         LINE#         121
  -------         ENDPROC       EEPROMERR

  -------         PROC BANK=1   _CGI_RESET
  X:3623H         SYMBOL        cnt
  D:0001H         SYMBOL        vp
  -------         DO            
  X:3624H         SYMBOL        i
  X:3625H         SYMBOL        vp2
  X:3628H         SYMBOL        filename
  -------         ENDDO         
 C1:C25AH         LINE#         141
 C1:C25FH         LINE#         142
BL51 BANKED LINKER/LOCATER V6.00                                                      11/05/2015  16:28:40  PAGE 124


 C1:C25FH         LINE#         144
 C1:C26AH         LINE#         145
 C1:C276H         LINE#         146
 C1:C293H         LINE#         147
 C1:C299H         LINE#         148
 C1:C2A9H         LINE#         149
 C1:C2A9H         LINE#         150
 C1:C2C7H         LINE#         151
 C1:C2C7H         LINE#         152
 C1:C2D3H         LINE#         153
 C1:C2D3H         LINE#         154
 C1:C2D9H         LINE#         155
 C1:C2DFH         LINE#         156
 C1:C2DFH         LINE#         157
 C1:C2E1H         LINE#         159
 C1:C2E1H         LINE#         160
 C1:C2E7H         LINE#         161
 C1:C304H         LINE#         162
 C1:C30AH         LINE#         163
 C1:C30AH         LINE#         164
 C1:C30AH         LINE#         165
 C1:C31CH         LINE#         166
 C1:C348H         LINE#         167
 C1:C34AH         LINE#         168
  -------         ENDPROC       _CGI_RESET
  -------         ENDMOD        ERRORMSGCBK

  -------         MODULE        UARTCBK
  C:0000H         SYMBOL        _ICE_DUMMY_
  D:0080H         PUBLIC        P0
  D:0090H         PUBLIC        P1
  D:00A0H         PUBLIC        P2
  D:00B0H         PUBLIC        P3
  D:00E8H         PUBLIC        P4
  X:33FFH         SYMBOL        m_mid_data
  D:00A8H         PUBLIC        IE
  C:38ABH         PUBLIC        fc_n
  D:00B8H         PUBLIC        IP
  C:38C0H         PUBLIC        md_n
  C:38A9H         PUBLIC        fc_v
  C:3897H         PUBLIC        sb_n
  X:3400H         PUBLIC        s_tmp
  C:38BDH         PUBLIC        md_v
  C:3895H         PUBLIC        sb_v
  C:3877H         PUBLIC        pr_n
 C2:AF4BH         PUBLIC        _cgi_uart
  D:0098H         PUBLIC        SCON
  D:0088H         PUBLIC        TCON
  C:3872H         PUBLIC        pr_v
  X:3405H         PUBLIC        selected
 C2:CE9FH         PUBLIC        _ssi_uart
  D:00D8H         PUBLIC        WDTCON
  D:00C8H         PUBLIC        T2CON
  D:00D0H         PUBLIC        PSW

  -------         PROC BANK=2   _SSI_UART
  D:0007H         SYMBOL        varid
BL51 BANKED LINKER/LOCATER V6.00                                                      11/05/2015  16:28:40  PAGE 125


  X:37DEH         SYMBOL        vp
 C2:CE9FH         LINE#         55
 C2:CEAAH         LINE#         56
 C2:CEAAH         LINE#         57
 C2:CEC4H         LINE#         58
 C2:CED7H         LINE#         59
 C2:CEDAH         LINE#         60
 C2:CEDAH         LINE#         61
 C2:CEDAH         LINE#         62
 C2:CEE2H         LINE#         63
 C2:CEEDH         LINE#         64
 C2:CEEDH         LINE#         65
 C2:CEEFH         LINE#         66
  -------         ENDPROC       _SSI_UART

  -------         PROC BANK=2   _CGI_UART
  X:3543H         SYMBOL        cnt
  D:0001H         SYMBOL        vptr
  -------         DO            
  X:3544H         SYMBOL        vp
  X:3547H         SYMBOL        i
  X:3549H         SYMBOL        j
  X:354BH         SYMBOL        value
  X:354CH         SYMBOL        eCMDStatus
  -------         ENDDO         
 C2:AF4BH         LINE#         68
 C2:AF50H         LINE#         69
 C2:AF50H         LINE#         70
 C2:AF59H         LINE#         73
 C2:AF5FH         LINE#         75
 C2:AF71H         LINE#         76
 C2:AF78H         LINE#         77
 C2:AF96H         LINE#         79
 C2:AFB6H         LINE#         80
 C2:AFD0H         LINE#         81
 C2:AFDAH         LINE#         82
 C2:AFDAH         LINE#         83
 C2:AFF4H         LINE#         85
 C2:AFFCH         LINE#         87
 C2:B019H         LINE#         89
 C2:B01FH         LINE#         90
 C2:B040H         LINE#         91
 C2:B042H         LINE#         92
 C2:B04CH         LINE#         93
 C2:B06AH         LINE#         94
 C2:B06CH         LINE#         95
 C2:B06CH         LINE#         96
 C2:B090H         LINE#         97
 C2:B090H         LINE#         102
 C2:B092H         LINE#         103
  -------         ENDPROC       _CGI_UART
  -------         ENDMOD        UARTCBK

  -------         MODULE        TELNETCBK
  C:0000H         SYMBOL        _ICE_DUMMY_
  D:0080H         PUBLIC        P0
  D:0090H         PUBLIC        P1
BL51 BANKED LINKER/LOCATER V6.00                                                      11/05/2015  16:28:40  PAGE 126


  X:32F3H         SYMBOL        m_bas_data
  D:00A0H         PUBLIC        P2
  D:00B0H         PUBLIC        P3
  D:00E8H         PUBLIC        P4
 C2:6351H         PUBLIC        _cgi_telnet
  X:32F4H         SYMBOL        m_hpa_data
  X:32F5H         SYMBOL        m_bkl_data
  X:32F6H         SYMBOL        m_aud_data
  X:32F7H         SYMBOL        m_alo_data
  X:32F9H         SYMBOL        m_pic_data
  X:32FAH         SYMBOL        m_tint_data
  X:32FBH         SYMBOL        m_nra_data
  X:32FCH         SYMBOL        m_hue_data
  D:00A8H         PUBLIC        IE
  X:32FDH         SYMBOL        m_nrd_data
  X:32FEH         SYMBOL        m_cot_data
  X:32FFH         SYMBOL        m_sat_data
  X:3300H         SYMBOL        m_src_data
  X:3301H         SYMBOL        m_tre_data
  X:3302H         SYMBOL        m_nrm_data
  D:00B8H         PUBLIC        IP
  X:3303H         SYMBOL        m_spk_data
  X:3304H         SYMBOL        m_vol_data
  X:3305H         SYMBOL        m_br_data
  X:3306H         SYMBOL        m_cr_data
 C2:7A77H         PUBLIC        _ssi_telnet
  X:3307H         SYMBOL        m_mut_data
  X:3308H         SYMBOL        m_ct_data
  X:3309H         SYMBOL        m_sur_data
  X:330AH         SYMBOL        m_sm_data
  X:330BH         SYMBOL        m_sr_data
  D:0098H         PUBLIC        SCON
  D:0088H         PUBLIC        TCON
  D:00D8H         PUBLIC        WDTCON
  D:00C8H         PUBLIC        T2CON
  X:330CH         SYMBOL        m_bal_data
  D:00D0H         PUBLIC        PSW

  -------         PROC BANK=2   _SSI_TELNET
  X:3701H         SYMBOL        varid
  X:3702H         SYMBOL        vp
  -------         DO            
  X:3705H         SYMBOL        select_chk
  C:2FA2H         SYMBOL        SCdis
  -------         ENDDO         
 C2:7A77H         LINE#         59
 C2:7A87H         LINE#         60
 C2:7A87H         LINE#         67
 C2:7A9FH         LINE#         68
 C2:7AB2H         LINE#         69
 C2:7B5BH         LINE#         70
 C2:7B5BH         LINE#         72
 C2:7B5BH         LINE#         73
 C2:7B5BH         LINE#         74
 C2:7B5BH         LINE#         75
 C2:7B5BH         LINE#         76
 C2:7B5BH         LINE#         77
BL51 BANKED LINKER/LOCATER V6.00                                                      11/05/2015  16:28:40  PAGE 127


 C2:7B5BH         LINE#         78
 C2:7B5BH         LINE#         79
 C2:7B6AH         LINE#         80
 C2:7B77H         LINE#         81
 C2:7B77H         LINE#         82
 C2:7B77H         LINE#         83
 C2:7B7AH         LINE#         85
 C2:7B7AH         LINE#         86
 C2:7B7AH         LINE#         87
 C2:7B7AH         LINE#         88
 C2:7B7AH         LINE#         89
 C2:7B8BH         LINE#         90
 C2:7B98H         LINE#         91
 C2:7B98H         LINE#         92
 C2:7B98H         LINE#         93
 C2:7B9BH         LINE#         95
 C2:7B9BH         LINE#         96
 C2:7B9BH         LINE#         97
 C2:7B9BH         LINE#         98
 C2:7B9BH         LINE#         99
 C2:7BACH         LINE#         100
 C2:7BB9H         LINE#         101
 C2:7BB9H         LINE#         102
 C2:7BB9H         LINE#         103
 C2:7BBCH         LINE#         106
 C2:7BBCH         LINE#         107
 C2:7BBCH         LINE#         108
 C2:7BCDH         LINE#         109
 C2:7BDAH         LINE#         110
 C2:7BDAH         LINE#         111
 C2:7BDAH         LINE#         112
 C2:7BDDH         LINE#         114
 C2:7BDDH         LINE#         115
 C2:7BDDH         LINE#         116
 C2:7BDDH         LINE#         117
 C2:7BDDH         LINE#         118
 C2:7BEEH         LINE#         119
 C2:7BFBH         LINE#         120
 C2:7BFBH         LINE#         121
 C2:7BFBH         LINE#         122
 C2:7BFEH         LINE#         124
 C2:7BFEH         LINE#         125
 C2:7BFEH         LINE#         126
 C2:7BFEH         LINE#         127
 C2:7BFEH         LINE#         128
 C2:7C0FH         LINE#         129
 C2:7C1CH         LINE#         130
 C2:7C1CH         LINE#         131
 C2:7C1CH         LINE#         132
 C2:7C1FH         LINE#         134
 C2:7C1FH         LINE#         135
 C2:7C32H         LINE#         136
 C2:7C35H         LINE#         137
 C2:7C38H         LINE#         139
 C2:7C38H         LINE#         140
 C2:7C4BH         LINE#         141
 C2:7C4EH         LINE#         142
BL51 BANKED LINKER/LOCATER V6.00                                                      11/05/2015  16:28:40  PAGE 128


 C2:7C51H         LINE#         144
 C2:7C51H         LINE#         145
 C2:7C64H         LINE#         146
 C2:7C67H         LINE#         147
 C2:7C6AH         LINE#         149
 C2:7C6AH         LINE#         150
 C2:7C7DH         LINE#         151
 C2:7C80H         LINE#         152
 C2:7C83H         LINE#         154
 C2:7C83H         LINE#         155
 C2:7C96H         LINE#         156
 C2:7C99H         LINE#         157
 C2:7C9CH         LINE#         159
 C2:7C9CH         LINE#         160
 C2:7CAFH         LINE#         161
 C2:7CB2H         LINE#         162
 C2:7CB5H         LINE#         164
 C2:7CB5H         LINE#         165
 C2:7CC8H         LINE#         166
 C2:7CCBH         LINE#         167
 C2:7CCEH         LINE#         169
 C2:7CCEH         LINE#         170
 C2:7CE1H         LINE#         171
 C2:7CE4H         LINE#         172
 C2:7CE7H         LINE#         174
 C2:7CE7H         LINE#         175
 C2:7CE7H         LINE#         176
 C2:7CE7H         LINE#         177
 C2:7CE7H         LINE#         178
 C2:7CF8H         LINE#         179
 C2:7D05H         LINE#         180
 C2:7D05H         LINE#         181
 C2:7D05H         LINE#         182
 C2:7D08H         LINE#         184
 C2:7D08H         LINE#         185
 C2:7D1BH         LINE#         186
 C2:7D1EH         LINE#         187
 C2:7D21H         LINE#         189
 C2:7D21H         LINE#         190
 C2:7D34H         LINE#         191
 C2:7D37H         LINE#         192
 C2:7D3AH         LINE#         194
 C2:7D3AH         LINE#         195
 C2:7D4DH         LINE#         196
 C2:7D50H         LINE#         197
 C2:7D53H         LINE#         199
 C2:7D53H         LINE#         200
 C2:7D53H         LINE#         201
 C2:7D64H         LINE#         202
 C2:7D71H         LINE#         203
 C2:7D71H         LINE#         204
 C2:7D71H         LINE#         205
 C2:7D73H         LINE#         207
 C2:7D73H         LINE#         208
 C2:7D73H         LINE#         209
 C2:7D84H         LINE#         210
 C2:7D91H         LINE#         211
BL51 BANKED LINKER/LOCATER V6.00                                                      11/05/2015  16:28:40  PAGE 129


 C2:7D91H         LINE#         212
 C2:7D91H         LINE#         213
 C2:7D93H         LINE#         215
 C2:7D93H         LINE#         216
 C2:7D93H         LINE#         217
 C2:7DA4H         LINE#         218
 C2:7DAEH         LINE#         219
 C2:7DAEH         LINE#         220
 C2:7DAEH         LINE#         221
 C2:7DB0H         LINE#         223
 C2:7DB0H         LINE#         224
 C2:7DB0H         LINE#         225
 C2:7DB0H         LINE#         226
 C2:7DC1H         LINE#         227
 C2:7DCBH         LINE#         228
 C2:7DE5H         LINE#         229
 C2:7DE5H         LINE#         230
 C2:7DE7H         LINE#         233
 C2:7DE7H         LINE#         234
 C2:7DFAH         LINE#         235
 C2:7E00H         LINE#         236
 C2:7E02H         LINE#         238
 C2:7E02H         LINE#         239
 C2:7E15H         LINE#         240
 C2:7E22H         LINE#         241
 C2:7E22H         LINE#         244
 C2:7E22H         LINE#         245
 C2:7E22H         LINE#         247
 C2:7E22H         LINE#         252
 C2:7E24H         LINE#         253
  -------         ENDPROC       _SSI_TELNET

  -------         PROC BANK=2   _CGI_TELNET
  X:35B3H         SYMBOL        cnt
  D:0001H         SYMBOL        vptr
  -------         DO            
  X:35B4H         SYMBOL        en_re_rf
  X:35B5H         SYMBOL        count
  X:35B6H         SYMBOL        eCMDStatus
  X:35B7H         SYMBOL        vp
  X:35BAH         SYMBOL        i
  -------         ENDDO         
 C2:6351H         LINE#         258
 C2:6356H         LINE#         259
 C2:6356H         LINE#         260
 C2:635BH         LINE#         261
 C2:635FH         LINE#         262
 C2:6368H         LINE#         265
 C2:6387H         LINE#         266
 C2:6387H         LINE#         267
 C2:63BAH         LINE#         268
 C2:63D2H         LINE#         269
 C2:6408H         LINE#         270
 C2:6421H         LINE#         271
 C2:6432H         LINE#         272
 C2:6453H         LINE#         273
 C2:6453H         LINE#         275
BL51 BANKED LINKER/LOCATER V6.00                                                      11/05/2015  16:28:40  PAGE 130


 C2:6473H         LINE#         276
 C2:6495H         LINE#         277
 C2:64A4H         LINE#         278
 C2:64A4H         LINE#         280
 C2:64C4H         LINE#         281
 C2:64E6H         LINE#         282
 C2:64F5H         LINE#         283
 C2:64F5H         LINE#         285
 C2:6515H         LINE#         286
 C2:6537H         LINE#         287
 C2:6546H         LINE#         288
 C2:6546H         LINE#         291
 C2:6566H         LINE#         292
 C2:6588H         LINE#         293
 C2:6597H         LINE#         294
 C2:6597H         LINE#         296
 C2:65B7H         LINE#         297
 C2:65D9H         LINE#         298
 C2:65E8H         LINE#         299
 C2:65E8H         LINE#         301
 C2:6608H         LINE#         302
 C2:662AH         LINE#         303
 C2:6639H         LINE#         304
 C2:6639H         LINE#         307
 C2:6659H         LINE#         308
 C2:667BH         LINE#         309
 C2:668AH         LINE#         310
 C2:668AH         LINE#         312
 C2:66AAH         LINE#         313
 C2:66CCH         LINE#         314
 C2:66DBH         LINE#         315
 C2:66DBH         LINE#         318
 C2:66FBH         LINE#         319
 C2:671DH         LINE#         320
 C2:672CH         LINE#         321
 C2:672CH         LINE#         323
 C2:674CH         LINE#         324
 C2:676EH         LINE#         325
 C2:677DH         LINE#         326
 C2:677DH         LINE#         328
 C2:679DH         LINE#         329
 C2:67BFH         LINE#         330
 C2:67CEH         LINE#         331
 C2:67CEH         LINE#         334
 C2:67EEH         LINE#         335
 C2:6810H         LINE#         336
 C2:681FH         LINE#         337
 C2:681FH         LINE#         339
 C2:683FH         LINE#         340
 C2:6874H         LINE#         341
 C2:6886H         LINE#         342
 C2:6886H         LINE#         344
 C2:68A6H         LINE#         345
 C2:68C0H         LINE#         346
 C2:68CAH         LINE#         347
 C2:68CEH         LINE#         348
 C2:68D1H         LINE#         350
BL51 BANKED LINKER/LOCATER V6.00                                                      11/05/2015  16:28:40  PAGE 131


 C2:68D1H         LINE#         353
 C2:68F1H         LINE#         354
 C2:690BH         LINE#         355
 C2:6915H         LINE#         356
 C2:6915H         LINE#         358
 C2:6935H         LINE#         359
 C2:694FH         LINE#         360
 C2:6959H         LINE#         361
 C2:6959H         LINE#         363
 C2:6979H         LINE#         364
 C2:6993H         LINE#         365
 C2:699DH         LINE#         366
 C2:699DH         LINE#         368
 C2:69BDH         LINE#         369
 C2:69D7H         LINE#         370
 C2:69E1H         LINE#         371
 C2:69E1H         LINE#         374
 C2:6A01H         LINE#         375
 C2:6A1BH         LINE#         376
 C2:6A25H         LINE#         377
 C2:6A25H         LINE#         379
 C2:6A45H         LINE#         380
 C2:6A4EH         LINE#         381
 C2:6A68H         LINE#         382
 C2:6A72H         LINE#         383
 C2:6A76H         LINE#         384
 C2:6A79H         LINE#         385
 C2:6A79H         LINE#         387
 C2:6A99H         LINE#         388
 C2:6AB3H         LINE#         389
 C2:6ABDH         LINE#         390
 C2:6ABDH         LINE#         392
 C2:6ADDH         LINE#         393
 C2:6AF7H         LINE#         394
 C2:6B01H         LINE#         395
 C2:6B01H         LINE#         397
 C2:6B21H         LINE#         398
 C2:6B3BH         LINE#         399
 C2:6B45H         LINE#         400
 C2:6B45H         LINE#         402
 C2:6B65H         LINE#         403
 C2:6B7FH         LINE#         404
 C2:6B89H         LINE#         405
 C2:6B89H         LINE#         407
 C2:6BA4H         LINE#         411
 C2:6BACH         LINE#         413
 C2:6BC9H         LINE#         415
 C2:6BCFH         LINE#         416
 C2:6BF0H         LINE#         417
 C2:6BF2H         LINE#         418
 C2:6BFCH         LINE#         419
 C2:6C1AH         LINE#         420
 C2:6C1CH         LINE#         421
 C2:6C1CH         LINE#         423
 C2:6C40H         LINE#         424
 C2:6C40H         LINE#         430
 C2:6C42H         LINE#         431
BL51 BANKED LINKER/LOCATER V6.00                                                      11/05/2015  16:28:40  PAGE 132


  -------         ENDPROC       _CGI_TELNET
  -------         ENDMOD        TELNETCBK

  -------         MODULE        SETDEFCBK
  C:0000H         SYMBOL        _ICE_DUMMY_
  D:0080H         PUBLIC        P0
  D:0090H         PUBLIC        P1
  D:00A0H         PUBLIC        P2
  D:00B0H         PUBLIC        P3
  D:00E8H         PUBLIC        P4
  D:00A8H         PUBLIC        IE
  D:00B8H         PUBLIC        IP
  D:0098H         PUBLIC        SCON
  D:0088H         PUBLIC        TCON
  D:00D8H         PUBLIC        WDTCON
 C5:7C7DH         PUBLIC        _cgi_setDef
  D:00C8H         PUBLIC        T2CON
  D:00D0H         PUBLIC        PSW

  -------         PROC BANK=5   _CGI_SETDEF
  X:3780H         SYMBOL        cnt
  X:3781H         SYMBOL        vp
 C5:7C7DH         LINE#         33
 C5:7C8BH         LINE#         34
 C5:7C8BH         LINE#         35
 C5:7C8BH         LINE#         37
 C5:7C93H         LINE#         38
 C5:7C93H         LINE#         39
 C5:7C98H         LINE#         40
 C5:7C9BH         LINE#         41
 C5:7CB8H         LINE#         42
 C5:7CBEH         LINE#         43
 C5:7CE5H         LINE#         44
 C5:7CE7H         LINE#         46
 C5:7CE7H         LINE#         47
 C5:7CEAH         LINE#         48
 C5:7CEAH         LINE#         49
 C5:7CECH         LINE#         50
  -------         ENDPROC       _CGI_SETDEF
  -------         ENDMOD        SETDEFCBK

  -------         MODULE        SETIPCBK
  C:0000H         SYMBOL        _ICE_DUMMY_
 C1:8B03H         PUBLIC        _cgi_setip
  X:3834H         PUBLIC        ip_chged
 C1:9F86H         PUBLIC        _ssi_setip
  C:3AA1H         SYMBOL        _?ix1000

  -------         PROC BANK=1   _SSI_SETIP
  X:354DH         SYMBOL        varid
  X:354EH         SYMBOL        vp
  -------         DO            
  X:3551H         SYMBOL        eep_val
  -------         DO            
  X:3552H         SYMBOL        buf
  X:3556H         SYMBOL        i
  -------         ENDDO         
BL51 BANKED LINKER/LOCATER V6.00                                                      11/05/2015  16:28:40  PAGE 133


  -------         ENDDO         
 C1:9F86H         LINE#         38
 C1:9F96H         LINE#         39
 C1:9F96H         LINE#         42
 C1:9F9CH         LINE#         45
 C1:9FA1H         LINE#         46
 C1:9FB0H         LINE#         47
 C1:9FB0H         LINE#         48
 C1:9FB7H         LINE#         49
 C1:9FB7H         LINE#         50
 C1:9FB8H         LINE#         51
 C1:9FBBH         LINE#         52
 C1:9FBBH         LINE#         53
 C1:9FBEH         LINE#         54
 C1:9FBEH         LINE#         55
 C1:9FC1H         LINE#         56
 C1:9FD0H         LINE#         57
 C1:9FD0H         LINE#         58
 C1:9FDAH         LINE#         59
 C1:9FDAH         LINE#         60
 C1:9FDBH         LINE#         61
 C1:9FDEH         LINE#         62
 C1:9FDEH         LINE#         63
 C1:9FDEH         LINE#         64
 C1:9FDEH         LINE#         65
 C1:9FE1H         LINE#         66
 C1:9FF0H         LINE#         67
 C1:9FF0H         LINE#         68
 C1:9FFAH         LINE#         69
 C1:9FFAH         LINE#         70
 C1:9FFBH         LINE#         71
 C1:9FFDH         LINE#         72
 C1:9FFDH         LINE#         73
 C1:9FFDH         LINE#         74
 C1:9FFDH         LINE#         75
 C1:9FFFH         LINE#         77
 C1:A007H         LINE#         78
 C1:A007H         LINE#         79
 C1:A015H         LINE#         80
 C1:A019H         LINE#         81
 C1:A01BH         LINE#         82
 C1:A01FH         LINE#         83
 C1:A01FH         LINE#         84
 C1:A02DH         LINE#         85
 C1:A045H         LINE#         86
 C1:A047H         LINE#         90
 C1:A056H         LINE#         91
 C1:A056H         LINE#         92
 C1:A060H         LINE#         93
 C1:A060H         LINE#         94
 C1:A06FH         LINE#         95
 C1:A071H         LINE#         96
 C1:A071H         LINE#         97
 C1:A080H         LINE#         98
 C1:A080H         LINE#         99
 C1:A080H         LINE#         101
 C1:A08DH         LINE#         102
BL51 BANKED LINKER/LOCATER V6.00                                                      11/05/2015  16:28:40  PAGE 134


 C1:A08DH         LINE#         103
 C1:A09DH         LINE#         104
 C1:A09FH         LINE#         106
 C1:A09FH         LINE#         107
 C1:A0B5H         LINE#         108
 C1:A0C8H         LINE#         109
 C1:A0C8H         LINE#         111
 C1:A0CFH         LINE#         112
 C1:A0CFH         LINE#         113
 C1:A0D8H         LINE#         114
 C1:A0DEH         LINE#         116
 C1:A0F6H         LINE#         117
 C1:A109H         LINE#         118
 C1:A109H         LINE#         119
 C1:A110H         LINE#         120
 C1:A110H         LINE#         121
 C1:A118H         LINE#         122
 C1:A11EH         LINE#         124
 C1:A136H         LINE#         125
 C1:A149H         LINE#         126
 C1:A149H         LINE#         127
 C1:A151H         LINE#         128
 C1:A151H         LINE#         129
 C1:A163H         LINE#         130
 C1:A172H         LINE#         131
 C1:A198H         LINE#         132
 C1:A1B2H         LINE#         133
 C1:A1C5H         LINE#         134
 C1:A1C5H         LINE#         136
 C1:A1C7H         LINE#         137
  -------         ENDPROC       _SSI_SETIP

  -------         PROC BANK=1   _CGI_SETIP
  X:350EH         SYMBOL        cnt
  X:350FH         SYMBOL        vp
  -------         DO            
  X:3512H         SYMBOL        i
  X:3513H         SYMBOL        chr
  X:3514H         SYMBOL        vp2
  -------         DO            
  X:3517H         SYMBOL        value
  -------         ENDDO         
  -------         ENDDO         
 C1:8B03H         LINE#         150
 C1:8B11H         LINE#         151
 C1:8B11H         LINE#         154
 C1:8B1CH         LINE#         155
 C1:8B27H         LINE#         156
 C1:8B27H         LINE#         158
 C1:8B3BH         LINE#         159
 C1:8B3BH         LINE#         160
 C1:8B5BH         LINE#         161
 C1:8B5BH         LINE#         162
 C1:8B7EH         LINE#         163
 C1:8B7EH         LINE#         164
 C1:8B84H         LINE#         165
 C1:8B84H         LINE#         166
BL51 BANKED LINKER/LOCATER V6.00                                                      11/05/2015  16:28:40  PAGE 135


 C1:8B86H         LINE#         168
 C1:8B86H         LINE#         169
 C1:8B86H         LINE#         170
 C1:8BA9H         LINE#         171
 C1:8BA9H         LINE#         172
 C1:8BAFH         LINE#         173
 C1:8BAFH         LINE#         174
 C1:8BB2H         LINE#         176
 C1:8BB2H         LINE#         177
 C1:8BB2H         LINE#         178
 C1:8BB2H         LINE#         180
 C1:8BD2H         LINE#         181
 C1:8BD2H         LINE#         182
 C1:8BF8H         LINE#         183
 C1:8BFBH         LINE#         185
 C1:8BFEH         LINE#         186
 C1:8BFEH         LINE#         187
 C1:8C1EH         LINE#         188
 C1:8C1EH         LINE#         189
 C1:8C24H         LINE#         190
 C1:8C40H         LINE#         191
 C1:8C4DH         LINE#         192
 C1:8C50H         LINE#         193
 C1:8C50H         LINE#         195
 C1:8C63H         LINE#         196
 C1:8C6FH         LINE#         198
 C1:8C7CH         LINE#         205
 C1:8C8EH         LINE#         206
 C1:8C8EH         LINE#         207
 C1:8CE2H         LINE#         208
 C1:8CE2H         LINE#         209
 C1:8D06H         LINE#         210
 C1:8D06H         LINE#         211
 C1:8D0FH         LINE#         212
 C1:8D16H         LINE#         215
 C1:8D25H         LINE#         216
 C1:8D5AH         LINE#         218
 C1:8D6CH         LINE#         219
 C1:8D6CH         LINE#         220
 C1:8D7BH         LINE#         221
 C1:8D94H         LINE#         222
 C1:8DBDH         LINE#         223
 C1:8DBDH         LINE#         224
 C1:8DDAH         LINE#         225
 C1:8DE0H         LINE#         226
 C1:8E07H         LINE#         227
 C1:8E0AH         LINE#         228
 C1:8E0AH         LINE#         229
 C1:8E13H         LINE#         232
 C1:8E1FH         LINE#         233
 C1:8E3CH         LINE#         234
 C1:8E42H         LINE#         235
 C1:8E69H         LINE#         236
 C1:8E6BH         LINE#         238
 C1:8E6BH         LINE#         239
 C1:8E6EH         LINE#         240
 C1:8E6EH         LINE#         241
BL51 BANKED LINKER/LOCATER V6.00                                                      11/05/2015  16:28:40  PAGE 136


 C1:8E70H         LINE#         242
  -------         ENDPROC       _CGI_SETIP
  -------         ENDMOD        SETIPCBK

  -------         MODULE        SETPASSCBK
  C:0000H         SYMBOL        _ICE_DUMMY_
  D:0080H         PUBLIC        P0
  D:0090H         PUBLIC        P1
  D:00A0H         PUBLIC        P2
  D:00B0H         PUBLIC        P3
  D:00E8H         PUBLIC        P4
  D:00A8H         PUBLIC        IE
 C1:C8AAH         PUBLIC        _ssi_setpass
  D:00B8H         PUBLIC        IP
  D:0098H         PUBLIC        SCON
  D:0088H         PUBLIC        TCON
  D:00D8H         PUBLIC        WDTCON
  D:00C8H         PUBLIC        T2CON
  D:00D0H         PUBLIC        PSW
 C1:91D2H         PUBLIC        _cgi_setpass

  -------         PROC BANK=1   _SSI_SETPASS
  D:0007H         SYMBOL        varid
  X:3273H         SYMBOL        vp
  -------         DO            
  X:3276H         SYMBOL        i
  X:3277H         SYMBOL        username
  X:3287H         SYMBOL        password
  -------         ENDDO         
 C1:C8AAH         LINE#         32
 C1:C8B5H         LINE#         33
 C1:C8B5H         LINE#         39
 C1:C8BAH         LINE#         40
 C1:C8BEH         LINE#         41
 C1:C8C8H         LINE#         42
 C1:C8C8H         LINE#         43
 C1:C8C8H         LINE#         44
 C1:C8D0H         LINE#         45
 C1:C8D0H         LINE#         46
 C1:C8D4H         LINE#         47
 C1:C8F7H         LINE#         48
 C1:C8FDH         LINE#         49
 C1:C8FFH         LINE#         51
 C1:C8FFH         LINE#         52
 C1:C905H         LINE#         53
 C1:C905H         LINE#         54
 C1:C907H         LINE#         55
 C1:C907H         LINE#         56
 C1:C90FH         LINE#         57
 C1:C90FH         LINE#         58
 C1:C913H         LINE#         59
 C1:C936H         LINE#         60
 C1:C93CH         LINE#         61
 C1:C93EH         LINE#         63
 C1:C93EH         LINE#         64
 C1:C944H         LINE#         65
 C1:C944H         LINE#         66
BL51 BANKED LINKER/LOCATER V6.00                                                      11/05/2015  16:28:40  PAGE 137


 C1:C946H         LINE#         68
 C1:C946H         LINE#         69
 C1:C960H         LINE#         70
 C1:C960H         LINE#         71
 C1:C960H         LINE#         72
 C1:C973H         LINE#         73
 C1:C975H         LINE#         74
  -------         ENDPROC       _SSI_SETPASS

  -------         PROC BANK=1   _CGI_SETPASS
  X:368FH         SYMBOL        cnt
  X:3690H         SYMBOL        vp
  -------         DO            
  X:3693H         SYMBOL        i
  X:3694H         SYMBOL        len
  X:3695H         SYMBOL        chr
  -------         ENDDO         
 C1:91D2H         LINE#         90
 C1:91E0H         LINE#         91
 C1:91E0H         LINE#         95
 C1:91E0H         LINE#         96
 C1:91EBH         LINE#         97
 C1:91EBH         LINE#         99
 C1:9225H         LINE#         100
 C1:9225H         LINE#         101
 C1:9249H         LINE#         102
 C1:9249H         LINE#         104
 C1:9250H         LINE#         107
 C1:9269H         LINE#         108
 C1:927BH         LINE#         109
 C1:92A7H         LINE#         110
 C1:92B1H         LINE#         111
 C1:92C4H         LINE#         114
 C1:92DDH         LINE#         115
 C1:92EFH         LINE#         116
 C1:931BH         LINE#         117
 C1:9325H         LINE#         118
 C1:9338H         LINE#         122
 C1:934EH         LINE#         123
 C1:934EH         LINE#         124
 C1:935DH         LINE#         125
 C1:9382H         LINE#         126
 C1:9382H         LINE#         127
 C1:939FH         LINE#         128
 C1:93A5H         LINE#         129
 C1:93C6H         LINE#         130
 C1:93C9H         LINE#         131
 C1:93C9H         LINE#         132
 C1:93D2H         LINE#         135
 C1:93EBH         LINE#         136
 C1:9401H         LINE#         137
 C1:9401H         LINE#         138
 C1:9410H         LINE#         139
 C1:9435H         LINE#         140
 C1:9435H         LINE#         141
 C1:9452H         LINE#         142
 C1:9458H         LINE#         143
BL51 BANKED LINKER/LOCATER V6.00                                                      11/05/2015  16:28:40  PAGE 138


 C1:947FH         LINE#         144
 C1:9482H         LINE#         145
 C1:9482H         LINE#         146
 C1:948BH         LINE#         149
 C1:9497H         LINE#         151
 C1:94B4H         LINE#         152
 C1:94BAH         LINE#         153
 C1:94E1H         LINE#         154
 C1:94E3H         LINE#         156
 C1:94E3H         LINE#         157
 C1:94E6H         LINE#         158
 C1:94E6H         LINE#         159
 C1:94E8H         LINE#         160
  -------         ENDPROC       _CGI_SETPASS
  -------         ENDMOD        SETPASSCBK

  -------         MODULE        STATUSCBK
  C:0000H         SYMBOL        _ICE_DUMMY_
  D:0080H         PUBLIC        P0
  D:0090H         PUBLIC        P1
  D:00A0H         PUBLIC        P2
  D:00B0H         PUBLIC        P3
  D:00E8H         PUBLIC        P4
  D:00A8H         PUBLIC        IE
  D:00B8H         PUBLIC        IP
 C1:C34BH         PUBLIC        _cgi_status
  D:0098H         PUBLIC        SCON
  D:0088H         PUBLIC        TCON
 C1:C166H         PUBLIC        _ssi_status
  D:00D8H         PUBLIC        WDTCON
  D:00C8H         PUBLIC        T2CON
  D:00D0H         PUBLIC        PSW

  -------         PROC BANK=1   _SSI_STATUS
  D:0007H         SYMBOL        varid
  X:3387H         SYMBOL        vp
  -------         DO            
  X:338AH         SYMBOL        i
  X:338BH         SYMBOL        MACAddr
  -------         ENDDO         
 C1:C166H         LINE#         34
 C1:C171H         LINE#         35
 C1:C171H         LINE#         38
 C1:C181H         LINE#         39
 C1:C181H         LINE#         40
 C1:C181H         LINE#         41
 C1:C190H         LINE#         42
 C1:C190H         LINE#         43
 C1:C1AEH         LINE#         44
 C1:C1C2H         LINE#         45
 C1:C1CAH         LINE#         46
 C1:C1DCH         LINE#         47
 C1:C1DCH         LINE#         48
 C1:C1DEH         LINE#         49
 C1:C1DEH         LINE#         50
 C1:C1E6H         LINE#         51
 C1:C1E6H         LINE#         52
BL51 BANKED LINKER/LOCATER V6.00                                                      11/05/2015  16:28:40  PAGE 139


 C1:C1EAH         LINE#         53
 C1:C1EAH         LINE#         54
 C1:C201H         LINE#         55
 C1:C20DH         LINE#         56
 C1:C212H         LINE#         57
 C1:C218H         LINE#         58
 C1:C21AH         LINE#         60
 C1:C220H         LINE#         61
 C1:C222H         LINE#         62
 C1:C222H         LINE#         63
 C1:C228H         LINE#         64
 C1:C22AH         LINE#         65
 C1:C22AH         LINE#         66
 C1:C244H         LINE#         67
 C1:C244H         LINE#         68
 C1:C244H         LINE#         69
 C1:C257H         LINE#         70
 C1:C259H         LINE#         71
  -------         ENDPROC       _SSI_STATUS

  -------         PROC BANK=1   _CGI_STATUS
  X:3707H         SYMBOL        cnt
  X:3708H         SYMBOL        vp
  -------         DO            
  X:370BH         SYMBOL        i
  X:370CH         SYMBOL        len
  -------         ENDDO         
 C1:C34BH         LINE#         83
 C1:C359H         LINE#         84
 C1:C359H         LINE#         86
 C1:C359H         LINE#         87
 C1:C364H         LINE#         88
 C1:C364H         LINE#         89
 C1:C393H         LINE#         90
 C1:C393H         LINE#         91
 C1:C3ACH         LINE#         92
 C1:C3BEH         LINE#         93
 C1:C3EAH         LINE#         94
 C1:C3F4H         LINE#         95
 C1:C407H         LINE#         97
 C1:C42EH         LINE#         98
 C1:C42EH         LINE#         100
 C1:C430H         LINE#         102
 C1:C430H         LINE#         103
 C1:C433H         LINE#         104
 C1:C433H         LINE#         105
 C1:C435H         LINE#         106
  -------         ENDPROC       _CGI_STATUS
  -------         ENDMOD        STATUSCBK

  -------         MODULE        SMTPCBK
  C:0000H         SYMBOL        _ICE_DUMMY_
 C1:BC36H         PUBLIC        _ReplaceDoubleQuotes
 C1:9D3DH         PUBLIC        _cgi_smtp
  C:37BCH         SYMBOL        _?ix1000
  C:37C8H         SYMBOL        _?ix1001
  C:3823H         SYMBOL        _?ix1002
BL51 BANKED LINKER/LOCATER V6.00                                                      11/05/2015  16:28:40  PAGE 140


 C1:D523H         PUBLIC        _ssi_smtp
 C1:AFFEH         PUBLIC        _CGIstrcpy

  -------         PROC BANK=1   _REPLACEDOUBLEQUOTES
  X:35BCH         SYMBOL        src
  X:35BFH         SYMBOL        des
  -------         DO            
  X:35C2H         SYMBOL        i
  X:35C3H         SYMBOL        j
  X:35C4H         SYMBOL        len
  -------         ENDDO         
 C1:BC36H         LINE#         26
 C1:BC41H         LINE#         27
 C1:BC41H         LINE#         28
 C1:BC49H         LINE#         29
 C1:BC60H         LINE#         30
 C1:BC60H         LINE#         31
 C1:BC63H         LINE#         32
 C1:BC7EH         LINE#         33
 C1:BC7EH         LINE#         34
 C1:BC99H         LINE#         35
 C1:BCAAH         LINE#         36
 C1:BCACH         LINE#         37
 C1:BCC7H         LINE#         38
 C1:BCC7H         LINE#         39
 C1:BCDFH         LINE#         40
 C1:BCF0H         LINE#         41
 C1:BD03H         LINE#         42
 C1:BD05H         LINE#         44
 C1:BD05H         LINE#         45
 C1:BD38H         LINE#         46
 C1:BD38H         LINE#         47
 C1:BD41H         LINE#         48
  -------         ENDPROC       _REPLACEDOUBLEQUOTES

  -------         PROC BANK=1   _CGISTRCPY
  X:340EH         SYMBOL        str
  X:3411H         SYMBOL        cgistr
  -------         DO            
  X:3414H         SYMBOL        buf
  X:3417H         SYMBOL        i
  X:3419H         SYMBOL        j
  X:341BH         SYMBOL        len
  -------         ENDDO         
 C1:AFFEH         LINE#         50
 C1:B009H         LINE#         51
 C1:B009H         LINE#         52
 C1:B01CH         LINE#         53
 C1:B032H         LINE#         55
 C1:B055H         LINE#         56
 C1:B055H         LINE#         57
 C1:B058H         LINE#         58
 C1:B075H         LINE#         59
 C1:B075H         LINE#         60
 C1:B093H         LINE#         61
 C1:B0B1H         LINE#         62
 C1:B0B4H         LINE#         63
BL51 BANKED LINKER/LOCATER V6.00                                                      11/05/2015  16:28:40  PAGE 141


 C1:B0EFH         LINE#         64
 C1:B0F7H         LINE#         65
 C1:B0F7H         LINE#         66
 C1:B113H         LINE#         67
 C1:B120H         LINE#         68
 C1:B12EH         LINE#         69
 C1:B137H         LINE#         70
 C1:B139H         LINE#         72
 C1:B139H         LINE#         73
 C1:B16EH         LINE#         74
 C1:B16EH         LINE#         75
 C1:B17FH         LINE#         76
  -------         ENDPROC       _CGISTRCPY

  -------         PROC BANK=1   _SSI_SMTP
  D:0007H         SYMBOL        varid
  X:2E8FH         SYMBOL        vp
  -------         DO            
  X:2E92H         SYMBOL        buf
  C:37BFH         SYMBOL        title
  -------         ENDDO         
 C1:D523H         LINE#         79
 C1:D52EH         LINE#         80
 C1:D52EH         LINE#         84
 C1:D547H         LINE#         85
 C1:D55AH         LINE#         86
 C1:D574H         LINE#         87
 C1:D577H         LINE#         88
 C1:D577H         LINE#         90
 C1:D577H         LINE#         91
 C1:D59BH         LINE#         92
 C1:D59BH         LINE#         93
 C1:D59BH         LINE#         98
 C1:D59DH         LINE#         99
  -------         ENDPROC       _SSI_SMTP

  -------         PROC BANK=1   _CGI_SMTP
  X:2DA9H         SYMBOL        cnt
  D:0001H         SYMBOL        vptr
  -------         DO            
  X:2DAAH         SYMBOL        vp
  X:2DADH         SYMBOL        i
  X:2DAEH         SYMBOL        j
  X:2DAFH         SYMBOL        smtp_cbk_cnt
  X:2DB0H         SYMBOL        totallen
  X:2DB2H         SYMBOL        NameArray
  X:2E0DH         SYMBOL        ValuePtrArray
  -------         ENDDO         
 C1:9D3DH         LINE#         101
 C1:9D42H         LINE#         102
 C1:9D42H         LINE#         104
 C1:9D4BH         LINE#         105
 C1:9D4EH         LINE#         106
 C1:9D50H         LINE#         107
 C1:9D52H         LINE#         108
 C1:9D56H         LINE#         109
 C1:9D68H         LINE#         118
BL51 BANKED LINKER/LOCATER V6.00                                                      11/05/2015  16:28:40  PAGE 142


 C1:9D7BH         LINE#         126
 C1:9D8AH         LINE#         127
 C1:9D9CH         LINE#         129
 C1:9DB1H         LINE#         130
 C1:9DB1H         LINE#         131
 C1:9DE1H         LINE#         132
 C1:9E14H         LINE#         133
 C1:9E5CH         LINE#         135
 C1:9E6EH         LINE#         136
 C1:9E6EH         LINE#         137
 C1:9EADH         LINE#         138
 C1:9EADH         LINE#         139
 C1:9ECFH         LINE#         140
 C1:9ED6H         LINE#         141
 C1:9ED6H         LINE#         142
 C1:9EE6H         LINE#         143
 C1:9EE8H         LINE#         144
 C1:9EEFH         LINE#         145
 C1:9EEFH         LINE#         146
 C1:9F2EH         LINE#         147
 C1:9F2EH         LINE#         148
 C1:9F2EH         LINE#         149
 C1:9F37H         LINE#         150
 C1:9F4AH         LINE#         151
 C1:9F5CH         LINE#         152
 C1:9F83H         LINE#         158
 C1:9F85H         LINE#         159
  -------         ENDPROC       _CGI_SMTP
  -------         ENDMOD        SMTPCBK

  -------         MODULE        FW_UPCBK
  C:0000H         SYMBOL        _ICE_DUMMY_
 C1:C602H         PUBLIC        _cgi_fu_up
 C1:C51CH         PUBLIC        _cgi_fw_up

  -------         PROC BANK=1   _CGI_FW_UP
  D:0007H         SYMBOL        cnt
  D:0001H         SYMBOL        vp
  -------         DO            
  X:3784H         SYMBOL        i
  X:3785H         SYMBOL        y
  -------         ENDDO         
 C1:C51CH         LINE#         23
 C1:C51CH         LINE#         24
 C1:C51CH         LINE#         25
 C1:C521H         LINE#         26
 C1:C52AH         LINE#         27
 C1:C52FH         LINE#         28
 C1:C52FH         LINE#         29
 C1:C548H         LINE#         30
 C1:C554H         LINE#         31
 C1:C559H         LINE#         32
 C1:C559H         LINE#         33
 C1:C572H         LINE#         34
 C1:C57EH         LINE#         35
 C1:C583H         LINE#         36
 C1:C583H         LINE#         37
BL51 BANKED LINKER/LOCATER V6.00                                                      11/05/2015  16:28:40  PAGE 143


 C1:C59CH         LINE#         38
 C1:C5A8H         LINE#         39
 C1:C5ADH         LINE#         40
 C1:C5ADH         LINE#         41
 C1:C5C6H         LINE#         42
 C1:C5D2H         LINE#         43
 C1:C5D8H         LINE#         44
 C1:C5FFH         LINE#         46
 C1:C601H         LINE#         47
  -------         ENDPROC       _CGI_FW_UP

  -------         PROC BANK=1   _CGI_FU_UP
  D:0007H         SYMBOL        cnt
  D:0001H         SYMBOL        vp
  -------         DO            
  X:3788H         SYMBOL        i
  X:3789H         SYMBOL        y
  -------         ENDDO         
 C1:C602H         LINE#         50
 C1:C602H         LINE#         51
 C1:C602H         LINE#         52
 C1:C607H         LINE#         53
 C1:C610H         LINE#         54
 C1:C615H         LINE#         55
 C1:C615H         LINE#         56
 C1:C62EH         LINE#         57
 C1:C63AH         LINE#         58
 C1:C63FH         LINE#         59
 C1:C63FH         LINE#         60
 C1:C658H         LINE#         61
 C1:C664H         LINE#         62
 C1:C669H         LINE#         63
 C1:C669H         LINE#         64
 C1:C682H         LINE#         65
 C1:C68EH         LINE#         66
 C1:C693H         LINE#         67
 C1:C693H         LINE#         68
 C1:C6ACH         LINE#         69
 C1:C6B8H         LINE#         72
 C1:C6BEH         LINE#         73
 C1:C6E5H         LINE#         75
 C1:C6E7H         LINE#         76
  -------         ENDPROC       _CGI_FU_UP
  -------         ENDMOD        FW_UPCBK

  -------         MODULE        ADCCBK
  C:0000H         SYMBOL        _ICE_DUMMY_
  D:0090H         PUBLIC        P1
  D:00B0H         PUBLIC        P3
  D:00A8H         PUBLIC        IE
 C5:760DH         PUBLIC        adc_convert
  D:00B8H         PUBLIC        IP
 C5:7337H         PUBLIC        _cgi_adc
  D:0098H         PUBLIC        SCON
  D:0088H         PUBLIC        TCON
 C5:8026H         PUBLIC        _ssi_adc
  X:381CH         PUBLIC        current_vrs
BL51 BANKED LINKER/LOCATER V6.00                                                      11/05/2015  16:28:40  PAGE 144


  X:381DH         PUBLIC        current_channel
  D:00D8H         PUBLIC        WDTCON
  D:00C8H         PUBLIC        T2CON
  D:00D0H         PUBLIC        PSW

  -------         PROC BANK=5   ADC_CONVERT
  -------         DO            
  D:0005H         SYMBOL        byte_data
  D:0007H         SYMBOL        adc_h
  D:0001H         SYMBOL        adc_l
  X:381AH         SYMBOL        adcValue
  -------         ENDDO         
 C5:760DH         LINE#         21
 C5:760DH         LINE#         22
 C5:760DH         LINE#         30
 C5:7611H         LINE#         31
 C5:7626H         LINE#         32
 C5:762AH         LINE#         35
 C5:762AH         LINE#         36
 C5:762FH         LINE#         37
 C5:7632H         LINE#         40
 C5:7633H         LINE#         41
 C5:7635H         LINE#         42
 C5:7636H         LINE#         45
 C5:7636H         LINE#         46
 C5:763BH         LINE#         47
 C5:763EH         LINE#         49
 C5:7641H         LINE#         50
 C5:7643H         LINE#         52
 C5:7646H         LINE#         54
 C5:7649H         LINE#         55
 C5:7649H         LINE#         77
 C5:764BH         LINE#         78
 C5:7658H         LINE#         79
 C5:766BH         LINE#         80
 C5:7676H         LINE#         81
 C5:7678H         LINE#         83
 C5:7678H         LINE#         85
 C5:768AH         LINE#         86
 C5:7695H         LINE#         87
 C5:7695H         LINE#         91
 C5:7699H         LINE#         92
 C5:769CH         LINE#         93
 C5:769DH         LINE#         95
 C5:76B6H         LINE#         97
 C5:76B6H         LINE#         98
  -------         ENDPROC       ADC_CONVERT

  -------         PROC BANK=5   _SSI_ADC
  D:0007H         SYMBOL        varid
  X:37E1H         SYMBOL        vp
 C5:8026H         LINE#         103
 C5:8031H         LINE#         104
 C5:8031H         LINE#         109
 C5:8038H         LINE#         110
 C5:8038H         LINE#         112
 C5:8038H         LINE#         116
BL51 BANKED LINKER/LOCATER V6.00                                                      11/05/2015  16:28:40  PAGE 145


 C5:8049H         LINE#         117
 C5:8049H         LINE#         118
 C5:804BH         LINE#         119
 C5:804BH         LINE#         123
 C5:805FH         LINE#         124
 C5:8072H         LINE#         128
 C5:8072H         LINE#         130
 C5:8072H         LINE#         131
 C5:8072H         LINE#         132
 C5:8072H         LINE#         133
 C5:8074H         LINE#         134
  -------         ENDPROC       _SSI_ADC

  -------         PROC BANK=5   _CGI_ADC
  X:3557H         SYMBOL        cnt
  X:3558H         SYMBOL        vptr
  -------         DO            
  X:355BH         SYMBOL        vp
  X:355EH         SYMBOL        temp_channel
  X:355FH         SYMBOL        i
  -------         ENDDO         
 C5:7337H         LINE#         135
 C5:7345H         LINE#         136
 C5:7345H         LINE#         137
 C5:734EH         LINE#         142
 C5:736DH         LINE#         143
 C5:736DH         LINE#         144
 C5:738AH         LINE#         148
 C5:73A4H         LINE#         149
 C5:73B7H         LINE#         151
 C5:73DAH         LINE#         152
 C5:73DAH         LINE#         156
 C5:73E2H         LINE#         160
 C5:73E2H         LINE#         161
 C5:73FFH         LINE#         162
 C5:73FFH         LINE#         166
 C5:73FFH         LINE#         168
 C5:7411H         LINE#         169
 C5:7438H         LINE#         171
 C5:743AH         LINE#         172
  -------         ENDPROC       _CGI_ADC
  -------         ENDMOD        ADCCBK

  -------         MODULE        UDP_TELCBK
  C:0000H         SYMBOL        _ICE_DUMMY_
  D:0080H         PUBLIC        P0
  D:0090H         PUBLIC        P1
  D:00A0H         PUBLIC        P2
 C5:790AH         PUBLIC        _ssi_udp_tel
  D:00B0H         PUBLIC        P3
  D:00E8H         PUBLIC        P4
  D:00A8H         PUBLIC        IE
  X:3835H         SYMBOL        m_hms_data
  D:00B8H         PUBLIC        IP
  D:0098H         PUBLIC        SCON
  D:0088H         PUBLIC        TCON
  C:3B52H         SYMBOL        _?ix1000
BL51 BANKED LINKER/LOCATER V6.00                                                      11/05/2015  16:28:40  PAGE 146


  D:00D8H         PUBLIC        WDTCON
 C5:6FDDH         PUBLIC        _cgi_udp_tel
  D:00C8H         PUBLIC        T2CON
  D:00D0H         PUBLIC        PSW

  -------         PROC BANK=5   _SSI_UDP_TEL
  X:31F8H         SYMBOL        varid
  X:31F9H         SYMBOL        vp
  -------         DO            
  X:31FCH         SYMBOL        index
  X:31FDH         SYMBOL        ee_value
  X:31FEH         SYMBOL        i
  X:31FFH         SYMBOL        ee_port
  X:3201H         SYMBOL        name_buf
  X:3220H         SYMBOL        peter_test
  -------         ENDDO         
 C5:790AH         LINE#         40
 C5:7918H         LINE#         41
 C5:7918H         LINE#         42
 C5:792EH         LINE#         43
 C5:7933H         LINE#         44
 C5:7937H         LINE#         45
 C5:7949H         LINE#         47
 C5:7962H         LINE#         48
 C5:7975H         LINE#         49
 C5:797BH         LINE#         50
 C5:797BH         LINE#         51
 C5:797BH         LINE#         52
 C5:7983H         LINE#         53
 C5:798EH         LINE#         54
 C5:798EH         LINE#         55
 C5:798EH         LINE#         56
 C5:7990H         LINE#         57
  -------         ENDPROC       _SSI_UDP_TEL

  -------         PROC BANK=5   _CGI_UDP_TEL
  X:34B0H         SYMBOL        cnt
  D:0001H         SYMBOL        vptr
  -------         DO            
  X:34B1H         SYMBOL        i
  X:34B2H         SYMBOL        begin
  X:34B3H         SYMBOL        j
  X:34B4H         SYMBOL        count
  X:34B5H         SYMBOL        ee_value
  X:34B6H         SYMBOL        ee_port
  X:34B8H         SYMBOL        vp
  X:34BBH         SYMBOL        eCMDStatus
  -------         ENDDO         
 C5:6FDDH         LINE#         59
 C5:6FE2H         LINE#         60
 C5:6FE2H         LINE#         61
 C5:6FEBH         LINE#         62
 C5:6FEDH         LINE#         63
 C5:6FF1H         LINE#         64
 C5:6FFAH         LINE#         65
 C5:6FFEH         LINE#         67
 C5:700EH         LINE#         68
BL51 BANKED LINKER/LOCATER V6.00                                                      11/05/2015  16:28:40  PAGE 147


 C5:700EH         LINE#         69
 C5:702EH         LINE#         70
 C5:7048H         LINE#         71
 C5:7052H         LINE#         72
 C5:7052H         LINE#         74
 C5:7064H         LINE#         85
 C5:706CH         LINE#         87
 C5:7089H         LINE#         89
 C5:708FH         LINE#         90
 C5:70B0H         LINE#         91
 C5:70B2H         LINE#         92
 C5:70BCH         LINE#         93
 C5:70DAH         LINE#         94
 C5:70DCH         LINE#         95
 C5:70DCH         LINE#         96
 C5:7100H         LINE#         97
 C5:7100H         LINE#         99
 C5:7102H         LINE#         100
  -------         ENDPROC       _CGI_UDP_TEL
  -------         ENDMOD        UDP_TELCBK

  -------         MODULE        DIDOCBK
  C:0000H         SYMBOL        _ICE_DUMMY_
  D:0080H         PUBLIC        P0
  D:0090H         PUBLIC        P1
  D:00A0H         PUBLIC        P2
  D:00B0H         PUBLIC        P3
  D:00E8H         PUBLIC        P4
  D:00A8H         PUBLIC        IE
 C1:801CH         PUBLIC        _cgi_dido
  D:00B8H         PUBLIC        IP
 C1:A409H         PUBLIC        _ssi_dido
  D:0098H         PUBLIC        SCON
  D:0088H         PUBLIC        TCON
  C:3BBEH         SYMBOL        _?ix1000
  D:00D8H         PUBLIC        WDTCON
  D:00C8H         PUBLIC        T2CON
  D:00D0H         PUBLIC        PSW

  -------         PROC BANK=1   _SSI_DIDO
  X:3519H         SYMBOL        varid
  X:351AH         SYMBOL        vp
  -------         DO            
  X:351DH         SYMBOL        name_buf
  X:3522H         SYMBOL        i
  X:3523H         SYMBOL        dido_value
  D:0007H         SYMBOL        direction
  -------         ENDDO         
 C1:A409H         LINE#         19
 C1:A417H         LINE#         20
 C1:A417H         LINE#         22
 C1:A42AH         LINE#         23
 C1:A42FH         LINE#         25
 C1:A432H         LINE#         26
 C1:A44CH         LINE#         27
 C1:A45FH         LINE#         29
 C1:A478H         LINE#         31
BL51 BANKED LINKER/LOCATER V6.00                                                      11/05/2015  16:28:40  PAGE 148


 C1:A47DH         LINE#         32
 C1:A4A4H         LINE#         33
 C1:A4ACH         LINE#         35
 C1:A4D2H         LINE#         36
 C1:A4D2H         LINE#         38
 C1:A4D2H         LINE#         39
 C1:A4E3H         LINE#         40
 C1:A4E3H         LINE#         41
 C1:A4E6H         LINE#         42
 C1:A4E6H         LINE#         43
 C1:A4F5H         LINE#         44
 C1:A4FAH         LINE#         45
 C1:A540H         LINE#         46
 C1:A55AH         LINE#         47
 C1:A56AH         LINE#         48
 C1:A56CH         LINE#         49
 C1:A56CH         LINE#         50
 C1:A584H         LINE#         51
 C1:A594H         LINE#         52
 C1:A596H         LINE#         54
 C1:A596H         LINE#         56
 C1:A5CBH         LINE#         60
 C1:A5DEH         LINE#         61
 C1:A5E0H         LINE#         68
 C1:A5E0H         LINE#         70
 C1:A5FFH         LINE#         71
 C1:A5FFH         LINE#         76
 C1:A601H         LINE#         77
 C1:A601H         LINE#         79
 C1:A61EH         LINE#         80
 C1:A638H         LINE#         85
 C1:A638H         LINE#         100
 C1:A638H         LINE#         101
 C1:A63AH         LINE#         102
  -------         ENDPROC       _SSI_DIDO

  -------         PROC BANK=1   _CGI_DIDO
  X:343AH         SYMBOL        cnt
  D:0001H         SYMBOL        vptr
  -------         DO            
  X:343BH         SYMBOL        vp
  X:343EH         SYMBOL        i
  X:3440H         SYMBOL        port_num
  X:3442H         SYMBOL        direction
  X:3443H         SYMBOL        port_flag
  X:3444H         SYMBOL        count
  X:3445H         SYMBOL        len
  X:3446H         SYMBOL        value
  X:3447H         SYMBOL        dido_value
  -------         ENDDO         
 C1:801CH         LINE#         103
 C1:8021H         LINE#         104
 C1:8021H         LINE#         105
 C1:802AH         LINE#         107
 C1:8031H         LINE#         108
 C1:8035H         LINE#         110
 C1:803BH         LINE#         112
BL51 BANKED LINKER/LOCATER V6.00                                                      11/05/2015  16:28:40  PAGE 149


 C1:803DH         LINE#         114
 C1:805BH         LINE#         115
 C1:805BH         LINE#         116
 C1:808DH         LINE#         117
 C1:808DH         LINE#         118
 C1:80B4H         LINE#         119
 C1:80B7H         LINE#         120
 C1:80B7H         LINE#         121
 C1:80C8H         LINE#         123
 C1:80E9H         LINE#         124
 C1:80E9H         LINE#         126
 C1:8112H         LINE#         127
 C1:8112H         LINE#         128
 C1:812BH         LINE#         129
 C1:8161H         LINE#         130
 C1:818EH         LINE#         131
 C1:818EH         LINE#         132
 C1:81B7H         LINE#         133
 C1:81B7H         LINE#         134
 C1:81DDH         LINE#         135
 C1:81DDH         LINE#         136
 C1:81EAH         LINE#         137
 C1:81ECH         LINE#         139
 C1:81ECH         LINE#         140
 C1:81F8H         LINE#         141
 C1:81F8H         LINE#         142
 C1:81FEH         LINE#         143
 C1:81FEH         LINE#         144
 C1:8227H         LINE#         145
 C1:8243H         LINE#         146
 C1:826CH         LINE#         147
 C1:8271H         LINE#         149
 C1:8291H         LINE#         150
 C1:8291H         LINE#         152
 C1:82ACH         LINE#         153
 C1:82C7H         LINE#         157
 C1:82C7H         LINE#         186
 C1:82E2H         LINE#         188
 C1:82E8H         LINE#         189
 C1:82E8H         LINE#         190
 C1:82F7H         LINE#         191
 C1:8304H         LINE#         192
 C1:8321H         LINE#         193
 C1:8327H         LINE#         194
 C1:8348H         LINE#         195
 C1:834BH         LINE#         198
 C1:834BH         LINE#         200
 C1:8353H         LINE#         201
 C1:836CH         LINE#         202
 C1:839DH         LINE#         203
 C1:83AAH         LINE#         204
 C1:83B7H         LINE#         205
 C1:83C4H         LINE#         206
 C1:83EBH         LINE#         207
 C1:83EBH         LINE#         208
 C1:83EDH         LINE#         210
  -------         ENDPROC       _CGI_DIDO
BL51 BANKED LINKER/LOCATER V6.00                                                      11/05/2015  16:28:40  PAGE 150


  -------         ENDMOD        DIDOCBK

  -------         MODULE        COMMANDLINE
  C:0000H         SYMBOL        _ICE_DUMMY_
  D:0080H         PUBLIC        P0
  D:0090H         PUBLIC        P1
  D:00A0H         PUBLIC        P2
  D:00B0H         PUBLIC        P3
  D:00E8H         PUBLIC        P4
  X:30AEH         PUBLIC        listen_back
 C6:806AH         PUBLIC        command_type
  D:00A8H         PUBLIC        IE
  B:00E8H.0       PUBLIC        P4_0
  B:00E8H.5       PUBLIC        P4_5
  D:00B8H         PUBLIC        IP
  X:30AFH         PUBLIC        code_flag
  X:30B0H         PUBLIC        flag
  X:30B1H         PUBLIC        echo_flag
  X:30B2H         PUBLIC        result
 C6:9D66H         PUBLIC        help
  X:30B3H         PUBLIC        cmd_flag
  D:0098H         PUBLIC        SCON
  D:0088H         PUBLIC        TCON
  C:26C2H         PUBLIC        car
 C6:8F59H         PUBLIC        CLI_Timer
  C:29C2H         SYMBOL        _?ix1000
  C:26D5H         PUBLIC        ans
  C:29C8H         SYMBOL        _?ix1001
  C:29CCH         SYMBOL        _?ix1002
  C:29EAH         SYMBOL        _?ix1003
  C:29EDH         SYMBOL        _?ix1004
 C6:500FH         PUBLIC        command_setting
  B:00A8H.1       PUBLIC        ET0
 C6:9C87H         PUBLIC        _up2lwr
 C6:992EH         PUBLIC        _hex_2_asc
  D:00D8H         PUBLIC        WDTCON
  X:30B4H         PUBLIC        tmp
  X:30E6H         PUBLIC        ATD_close
  X:30E7H         PUBLIC        CMD
  X:30EAH         PUBLIC        ATD_flag
  X:30EBH         PUBLIC        ATH_flag
  X:30ECH         PUBLIC        za
  X:30EDH         PUBLIC        ATD_timer
  X:30F1H         PUBLIC        back_2_CLI
  C:26E7H         PUBLIC        CLT
  C:26BCH         PUBLIC        rs
  X:30F2H         PUBLIC        cmd2
  D:00C8H         PUBLIC        T2CON
  X:30F5H         PUBLIC        ip_info
  C:26D0H         PUBLIC        car1
 C6:9C26H         PUBLIC        CLI_init
 C6:8CBAH         PUBLIC        command_info
  C:26E2H         PUBLIC        ans1
 C6:96B1H         PUBLIC        ATD_loop
  X:30F6H         PUBLIC        z
  D:00D0H         PUBLIC        PSW
 C6:9A61H         PUBLIC        re_rorn
BL51 BANKED LINKER/LOCATER V6.00                                                      11/05/2015  16:28:40  PAGE 151


 C6:9927H         SYMBOL        L?0960
  -------         PROC          L?0959
  -------         ENDPROC       L?0959
 C6:9927H         SYMBOL        L?0960

  -------         PROC BANK=6   _HEX_2_ASC
  X:3448H         SYMBOL        value
  -------         DO            
  X:344AH         SYMBOL        ipset
  X:3450H         SYMBOL        i
  X:3454H         SYMBOL        pos
  X:3455H         SYMBOL        loop
  -------         ENDDO         
 C6:992EH         LINE#         105
 C6:9936H         LINE#         106
 C6:9936H         LINE#         107
 C6:9949H         LINE#         109
 C6:9950H         LINE#         110
 C6:995AH         LINE#         111
 C6:9963H         LINE#         113
 C6:9963H         LINE#         114
 C6:998AH         LINE#         115
 C6:998AH         LINE#         116
 C6:99B4H         LINE#         117
 C6:99B4H         LINE#         118
 C6:99E3H         LINE#         119
 C6:9A09H         LINE#         120
 C6:9A0FH         LINE#         121
 C6:9A15H         LINE#         122
 C6:9A2FH         LINE#         123
 C6:9A2FH         LINE#         124
 C6:9A2FH         LINE#         125
 C6:9A4FH         LINE#         126
 C6:9A4FH         LINE#         127
 C6:9A60H         LINE#         129
  -------         ENDPROC       _HEX_2_ASC

  -------         PROC BANK=6   COMMAND_TYPE
  -------         DO            
  X:339DH         SYMBOL        cmd
  X:33A0H         SYMBOL        i
  X:33A1H         SYMBOL        tu
  X:33A2H         SYMBOL        len
  X:33A3H         SYMBOL        Kont
  X:33A4H         SYMBOL        Cont
  X:33A5H         SYMBOL        atd
  X:33A6H         SYMBOL        remote_ip
  X:33AAH         SYMBOL        rip
  X:33ACH         SYMBOL        loaddef
  -------         ENDDO         
 C6:806AH         LINE#         134
 C6:806AH         LINE#         135
 C6:806AH         LINE#         136
 C6:8078H         LINE#         137
 C6:8085H         LINE#         139
 C6:8097H         LINE#         141
 C6:809EH         LINE#         142
BL51 BANKED LINKER/LOCATER V6.00                                                      11/05/2015  16:28:40  PAGE 152


 C6:80AAH         LINE#         143
 C6:80B0H         LINE#         144
 C6:80B5H         LINE#         145
 C6:80BEH         LINE#         146
 C6:80BEH         LINE#         147
 C6:80D9H         LINE#         148
 C6:80EBH         LINE#         149
 C6:80EBH         LINE#         150
 C6:810DH         LINE#         151
 C6:8157H         LINE#         152
 C6:8157H         LINE#         153
 C6:8164H         LINE#         154
 C6:8164H         LINE#         156
 C6:816CH         LINE#         157
 C6:816CH         LINE#         158
 C6:8175H         LINE#         159
 C6:817EH         LINE#         160
 C6:817EH         LINE#         161
 C6:81C6H         LINE#         162
 C6:81C6H         LINE#         164
 C6:81C6H         LINE#         165
 C6:81D9H         LINE#         166
 C6:81E0H         LINE#         167
 C6:81E0H         LINE#         168
 C6:81E4H         LINE#         169
 C6:821AH         LINE#         170
 C6:8250H         LINE#         171
 C6:8255H         LINE#         172
 C6:825AH         LINE#         173
 C6:825EH         LINE#         174
 C6:8262H         LINE#         175
 C6:8267H         LINE#         176
 C6:826AH         LINE#         180
 C6:826AH         LINE#         181
 C6:8294H         LINE#         182
 C6:8294H         LINE#         183
 C6:82ACH         LINE#         184
 C6:82AFH         LINE#         185
 C6:82AFH         LINE#         186
 C6:82BCH         LINE#         187
 C6:82D0H         LINE#         188
 C6:82D0H         LINE#         189
 C6:82D3H         LINE#         191
 C6:82D3H         LINE#         192
 C6:82D6H         LINE#         194
 C6:82D6H         LINE#         195
 C6:82EEH         LINE#         196
 C6:82F7H         LINE#         197
 C6:82FAH         LINE#         199
 C6:8310H         LINE#         200
 C6:8310H         LINE#         201
 C6:8313H         LINE#         202
 C6:8313H         LINE#         203
 C6:833DH         LINE#         204
 C6:833DH         LINE#         205
 C6:8355H         LINE#         206
 C6:8358H         LINE#         207
BL51 BANKED LINKER/LOCATER V6.00                                                      11/05/2015  16:28:40  PAGE 153


 C6:8358H         LINE#         208
 C6:8365H         LINE#         209
 C6:8382H         LINE#         210
 C6:8382H         LINE#         211
 C6:8385H         LINE#         213
 C6:8385H         LINE#         214
 C6:8388H         LINE#         216
 C6:8388H         LINE#         217
 C6:83A0H         LINE#         218
 C6:83A9H         LINE#         219
 C6:83ACH         LINE#         221
 C6:83C8H         LINE#         222
 C6:83C8H         LINE#         223
 C6:83CBH         LINE#         224
 C6:83CBH         LINE#         225
 C6:83D3H         LINE#         226
 C6:83D3H         LINE#         227
 C6:83D8H         LINE#         228
 C6:83E8H         LINE#         229
 C6:83F3H         LINE#         230
 C6:83F8H         LINE#         231
 C6:83FCH         LINE#         232
 C6:8406H         LINE#         233
 C6:8409H         LINE#         252
 C6:8409H         LINE#         253
 C6:840CH         LINE#         254
 C6:840CH         LINE#         255
 C6:8427H         LINE#         256
 C6:8427H         LINE#         257
 C6:843FH         LINE#         258
 C6:8444H         LINE#         259
 C6:8447H         LINE#         261
 C6:8447H         LINE#         262
 C6:845DH         LINE#         263
 C6:845DH         LINE#         264
 C6:847FH         LINE#         265
 C6:847FH         LINE#         266
 C6:849DH         LINE#         267
 C6:84DFH         LINE#         268
 C6:8519H         LINE#         269
 C6:851BH         LINE#         270
 C6:851BH         LINE#         271
 C6:8524H         LINE#         272
 C6:8530H         LINE#         273
 C6:8530H         LINE#         274
 C6:8533H         LINE#         275
 C6:8533H         LINE#         276
 C6:855CH         LINE#         277
 C6:855CH         LINE#         278
 C6:8562H         LINE#         279
 C6:8566H         LINE#         280
 C6:8569H         LINE#         282
 C6:8569H         LINE#         283
 C6:8569H         LINE#         284
 C6:856CH         LINE#         286
 C6:856CH         LINE#         287
 C6:856FH         LINE#         288
BL51 BANKED LINKER/LOCATER V6.00                                                      11/05/2015  16:28:40  PAGE 154


 C6:856FH         LINE#         289
 C6:8587H         LINE#         290
 C6:858EH         LINE#         291
 C6:858EH         LINE#         292
 C6:85A3H         LINE#         293
 C6:85C4H         LINE#         294
 C6:85C4H         LINE#         295
 C6:85D5H         LINE#         296
 C6:85D5H         LINE#         297
 C6:85D8H         LINE#         298
 C6:85E0H         LINE#         299
 C6:85E0H         LINE#         300
 C6:85E2H         LINE#         302
 C6:85E2H         LINE#         303
 C6:85E5H         LINE#         304
 C6:85F2H         LINE#         305
 C6:85F8H         LINE#         306
 C6:85F8H         LINE#         307
 C6:85FAH         LINE#         308
 C6:8608H         LINE#         309
 C6:8611H         LINE#         311
 C6:8611H         LINE#         312
 C6:8630H         LINE#         313
 C6:8635H         LINE#         314
 C6:863EH         LINE#         315
 C6:863EH         LINE#         317
 C6:8654H         LINE#         318
 C6:8654H         LINE#         319
 C6:866CH         LINE#         320
 C6:8671H         LINE#         321
 C6:8671H         LINE#         323
 C6:867AH         LINE#         324
 C6:8692H         LINE#         325
 C6:8692H         LINE#         326
 C6:8695H         LINE#         328
 C6:8695H         LINE#         329
 C6:8698H         LINE#         331
 C6:8698H         LINE#         332
 C6:86ABH         LINE#         333
 C6:86AEH         LINE#         334
 C6:86B6H         LINE#         336
 C6:86BDH         LINE#         337
 C6:86C0H         LINE#         338
 C6:86C0H         LINE#         339
 C6:86D9H         LINE#         340
 C6:86DCH         LINE#         342
 C6:8705H         LINE#         347
 C6:8705H         LINE#         349
 C6:870AH         LINE#         350
 C6:8740H         LINE#         351
 C6:8776H         LINE#         352
 C6:877BH         LINE#         353
 C6:8780H         LINE#         355
 C6:879EH         LINE#         360
 C6:879EH         LINE#         361
 C6:87ECH         LINE#         362
 C6:87F3H         LINE#         363
BL51 BANKED LINKER/LOCATER V6.00                                                      11/05/2015  16:28:40  PAGE 155


 C6:87F7H         LINE#         364
 C6:87F7H         LINE#         366
 C6:87FAH         LINE#         367
 C6:87FCH         LINE#         369
 C6:87FFH         LINE#         370
 C6:8801H         LINE#         371
 C6:8801H         LINE#         372
 C6:8819H         LINE#         373
 C6:882EH         LINE#         374
 C6:8833H         LINE#         375
 C6:8838H         LINE#         376
 C6:8840H         LINE#         377
 C6:8840H         LINE#         378
 C6:8845H         LINE#         379
 C6:8845H         LINE#         380
 C6:8848H         LINE#         381
 C6:884CH         LINE#         382
 C6:884CH         LINE#         383
 C6:8852H         LINE#         384
 C6:8853H         LINE#         385
 C6:8856H         LINE#         387
 C6:885CH         LINE#         388
 C6:885FH         LINE#         389
 C6:885FH         LINE#         390
 C6:887FH         LINE#         391
 C6:8882H         LINE#         392
 C6:8888H         LINE#         393
 C6:8889H         LINE#         394
 C6:888CH         LINE#         395
 C6:888CH         LINE#         396
 C6:8893H         LINE#         397
 C6:8896H         LINE#         398
 C6:8896H         LINE#         399
 C6:88AEH         LINE#         400
 C6:88C3H         LINE#         401
 C6:88C8H         LINE#         402
 C6:88C8H         LINE#         403
 C6:88DDH         LINE#         404
 C6:88E6H         LINE#         405
 C6:88EFH         LINE#         406
 C6:88FBH         LINE#         408
 C6:890AH         LINE#         409
 C6:890CH         LINE#         411
 C6:8917H         LINE#         412
 C6:8919H         LINE#         413
 C6:8919H         LINE#         414
 C6:891CH         LINE#         415
 C6:891EH         LINE#         416
 C6:891EH         LINE#         417
 C6:8921H         LINE#         418
 C6:8923H         LINE#         419
 C6:8923H         LINE#         420
 C6:8928H         LINE#         421
 C6:892DH         LINE#         422
 C6:8946H         LINE#         423
 C6:8946H         LINE#         424
 C6:896CH         LINE#         425
BL51 BANKED LINKER/LOCATER V6.00                                                      11/05/2015  16:28:40  PAGE 156


 C6:896CH         LINE#         427
 C6:8972H         LINE#         428
 C6:8975H         LINE#         430
 C6:897AH         LINE#         431
 C6:897AH         LINE#         432
 C6:897AH         LINE#         433
 C6:897AH         LINE#         434
 C6:897AH         LINE#         435
 C6:8980H         LINE#         436
 C6:8985H         LINE#         438
 C6:8998H         LINE#         439
 C6:899DH         LINE#         440
 C6:899EH         LINE#         442
 C6:899EH         LINE#         443
 C6:89C0H         LINE#         444
 C6:89CDH         LINE#         445
 C6:89CDH         LINE#         446
 C6:89CDH         LINE#         447
  -------         ENDPROC       COMMAND_TYPE

  -------         PROC BANK=6   COMMAND_SETTING
  -------         DO            
  X:3063H         SYMBOL        i
  X:3064H         SYMBOL        Cont
  X:3065H         SYMBOL        Kont
  X:3066H         SYMBOL        len
  X:3067H         SYMBOL        c_name
  X:3068H         SYMBOL        tu
  X:3069H         SYMBOL        buf_udp
  X:3087H         SYMBOL        ipset
  X:308AH         SYMBOL        re_ip
  X:308EH         SYMBOL        re
  X:308FH         SYMBOL        re_num
  X:3090H         SYMBOL        eep_val
  X:3091H         SYMBOL        re_port
  X:3093H         SYMBOL        ser
  X:3096H         SYMBOL        cli
  X:3099H         SYMBOL        u_l
  X:309CH         SYMBOL        u_n
  X:309FH         SYMBOL        point
  X:30A2H         SYMBOL        on
  X:30A5H         SYMBOL        off
  X:30A8H         SYMBOL        ptr
  X:30ABH         SYMBOL        ptd
  -------         ENDDO         
 C6:500FH         LINE#         449
 C6:500FH         LINE#         450
 C6:500FH         LINE#         452
 C6:501EH         LINE#         453
 C6:5030H         LINE#         454
 C6:505DH         LINE#         456
 C6:5063H         LINE#         458
 C6:507BH         LINE#         460
 C6:5093H         LINE#         463
 C6:509FH         LINE#         464
 C6:50B7H         LINE#         466
 C6:50C3H         LINE#         467
BL51 BANKED LINKER/LOCATER V6.00                                                      11/05/2015  16:28:40  PAGE 157


 C6:50CFH         LINE#         469
 C6:50F1H         LINE#         470
 C6:5101H         LINE#         471
 C6:5101H         LINE#         472
 C6:5119H         LINE#         473
 C6:5122H         LINE#         474
 C6:5157H         LINE#         475
 C6:515EH         LINE#         476
 C6:5166H         LINE#         477
 C6:5175H         LINE#         478
 C6:5183H         LINE#         479
 C6:5196H         LINE#         480
 C6:519FH         LINE#         481
 C6:519FH         LINE#         482
 C6:51A5H         LINE#         483
 C6:522BH         LINE#         484
 C6:522BH         LINE#         485
 C6:522BH         LINE#         486
 C6:522EH         LINE#         487
 C6:5237H         LINE#         488
 C6:523AH         LINE#         489
 C6:525FH         LINE#         490
 C6:525FH         LINE#         491
 C6:5266H         LINE#         492
 C6:5266H         LINE#         493
 C6:5273H         LINE#         494
 C6:5279H         LINE#         495
 C6:527CH         LINE#         497
 C6:527CH         LINE#         498
 C6:527FH         LINE#         500
 C6:527FH         LINE#         501
 C6:5292H         LINE#         502
 C6:52C7H         LINE#         503
 C6:52C7H         LINE#         504
 C6:52C7H         LINE#         505
 C6:52CDH         LINE#         506
 C6:52D2H         LINE#         507
 C6:52D4H         LINE#         508
 C6:52D4H         LINE#         509
 C6:52DCH         LINE#         510
 C6:52E7H         LINE#         511
 C6:52E7H         LINE#         512
 C6:52E7H         LINE#         513
 C6:52F6H         LINE#         514
 C6:5311H         LINE#         515
 C6:5323H         LINE#         516
 C6:5349H         LINE#         517
 C6:5353H         LINE#         518
 C6:5366H         LINE#         519
 C6:5366H         LINE#         520
 C6:5366H         LINE#         521
 C6:5369H         LINE#         522
 C6:5369H         LINE#         523
 C6:536CH         LINE#         524
 C6:5375H         LINE#         525
 C6:5378H         LINE#         526
 C6:539DH         LINE#         527
BL51 BANKED LINKER/LOCATER V6.00                                                      11/05/2015  16:28:40  PAGE 158


 C6:539DH         LINE#         528
 C6:53A4H         LINE#         529
 C6:53A4H         LINE#         530
 C6:53B1H         LINE#         531
 C6:53B9H         LINE#         532
 C6:53BCH         LINE#         534
 C6:53BCH         LINE#         535
 C6:53BFH         LINE#         537
 C6:53BFH         LINE#         538
 C6:53D2H         LINE#         539
 C6:5407H         LINE#         540
 C6:5407H         LINE#         541
 C6:5407H         LINE#         542
 C6:540DH         LINE#         543
 C6:5412H         LINE#         544
 C6:5414H         LINE#         545
 C6:5414H         LINE#         546
 C6:541CH         LINE#         547
 C6:5427H         LINE#         548
 C6:5427H         LINE#         549
 C6:5427H         LINE#         550
 C6:5436H         LINE#         551
 C6:5451H         LINE#         552
 C6:5463H         LINE#         553
 C6:5489H         LINE#         554
 C6:5493H         LINE#         555
 C6:54A6H         LINE#         556
 C6:54A6H         LINE#         557
 C6:54A6H         LINE#         558
 C6:54A9H         LINE#         559
 C6:54A9H         LINE#         560
 C6:54AFH         LINE#         561
 C6:54B2H         LINE#         562
 C6:54DAH         LINE#         563
 C6:54DAH         LINE#         564
 C6:54E2H         LINE#         565
 C6:54E2H         LINE#         566
 C6:54EEH         LINE#         567
 C6:5500H         LINE#         568
 C6:5500H         LINE#         569
 C6:5507H         LINE#         570
 C6:5518H         LINE#         572
 C6:552AH         LINE#         573
 C6:552DH         LINE#         574
 C6:5555H         LINE#         575
 C6:555DH         LINE#         576
 C6:555DH         LINE#         578
 C6:555DH         LINE#         579
 C6:5560H         LINE#         580
 C6:5574H         LINE#         581
 C6:5577H         LINE#         583
 C6:5577H         LINE#         584
 C6:558AH         LINE#         585
 C6:55AEH         LINE#         586
 C6:55AEH         LINE#         587
 C6:55AEH         LINE#         588
 C6:55B4H         LINE#         589
BL51 BANKED LINKER/LOCATER V6.00                                                      11/05/2015  16:28:40  PAGE 159


 C6:55B9H         LINE#         590
 C6:55BBH         LINE#         591
 C6:55BBH         LINE#         592
 C6:55C3H         LINE#         593
 C6:55CEH         LINE#         594
 C6:55CEH         LINE#         595
 C6:55CEH         LINE#         596
 C6:55E3H         LINE#         597
 C6:55E3H         LINE#         598
 C6:55F2H         LINE#         599
 C6:5611H         LINE#         600
 C6:5611H         LINE#         601
 C6:5620H         LINE#         602
 C6:5626H         LINE#         603
 C6:5626H         LINE#         604
 C6:5656H         LINE#         605
 C6:565FH         LINE#         606
 C6:567FH         LINE#         607
 C6:5685H         LINE#         608
 C6:5687H         LINE#         609
 C6:5687H         LINE#         610
 C6:569FH         LINE#         611
 C6:56A5H         LINE#         612
 C6:56A5H         LINE#         613
 C6:56A5H         LINE#         614
 C6:56AEH         LINE#         615
 C6:56FAH         LINE#         616
 C6:5700H         LINE#         617
 C6:5702H         LINE#         618
 C6:5702H         LINE#         619
 C6:572CH         LINE#         620
 C6:572CH         LINE#         621
 C6:573AH         LINE#         622
 C6:573DH         LINE#         624
 C6:573DH         LINE#         625
 C6:5742H         LINE#         626
 C6:5767H         LINE#         627
 C6:5767H         LINE#         628
 C6:5767H         LINE#         629
 C6:5767H         LINE#         630
 C6:576AH         LINE#         631
 C6:576AH         LINE#         632
 C6:5770H         LINE#         633
 C6:5773H         LINE#         634
 C6:579BH         LINE#         635
 C6:579BH         LINE#         636
 C6:57A3H         LINE#         637
 C6:57A3H         LINE#         638
 C6:57AFH         LINE#         639
 C6:57C1H         LINE#         640
 C6:57C1H         LINE#         641
 C6:57C8H         LINE#         642
 C6:57D9H         LINE#         644
 C6:57EBH         LINE#         645
 C6:57EEH         LINE#         646
 C6:5816H         LINE#         647
 C6:581EH         LINE#         648
BL51 BANKED LINKER/LOCATER V6.00                                                      11/05/2015  16:28:40  PAGE 160


 C6:581EH         LINE#         650
 C6:581EH         LINE#         651
 C6:5821H         LINE#         652
 C6:5835H         LINE#         653
 C6:5838H         LINE#         655
 C6:5838H         LINE#         656
 C6:584BH         LINE#         657
 C6:586FH         LINE#         658
 C6:586FH         LINE#         659
 C6:586FH         LINE#         660
 C6:5875H         LINE#         661
 C6:587AH         LINE#         662
 C6:587CH         LINE#         663
 C6:587CH         LINE#         664
 C6:5884H         LINE#         665
 C6:5899H         LINE#         666
 C6:5899H         LINE#         667
 C6:58A8H         LINE#         668
 C6:58C7H         LINE#         669
 C6:58C7H         LINE#         670
 C6:58D6H         LINE#         671
 C6:58DCH         LINE#         672
 C6:58DCH         LINE#         673
 C6:590CH         LINE#         674
 C6:5915H         LINE#         675
 C6:5935H         LINE#         676
 C6:593BH         LINE#         677
 C6:593DH         LINE#         678
 C6:593DH         LINE#         679
 C6:5955H         LINE#         680
 C6:595BH         LINE#         681
 C6:595BH         LINE#         682
 C6:595BH         LINE#         683
 C6:5964H         LINE#         684
 C6:59B0H         LINE#         685
 C6:59B6H         LINE#         686
 C6:59B8H         LINE#         687
 C6:59B8H         LINE#         688
 C6:59E2H         LINE#         689
 C6:59E2H         LINE#         690
 C6:59F0H         LINE#         691
 C6:59F3H         LINE#         693
 C6:59F3H         LINE#         694
 C6:59F8H         LINE#         695
 C6:5A1DH         LINE#         696
 C6:5A1DH         LINE#         697
 C6:5A1DH         LINE#         698
 C6:5A1DH         LINE#         699
 C6:5A20H         LINE#         700
 C6:5A20H         LINE#         701
 C6:5A26H         LINE#         702
 C6:5A29H         LINE#         703
 C6:5A51H         LINE#         704
 C6:5A51H         LINE#         705
 C6:5A59H         LINE#         706
 C6:5A59H         LINE#         707
 C6:5A65H         LINE#         708
BL51 BANKED LINKER/LOCATER V6.00                                                      11/05/2015  16:28:40  PAGE 161


 C6:5A77H         LINE#         709
 C6:5A77H         LINE#         710
 C6:5A7EH         LINE#         711
 C6:5A8FH         LINE#         713
 C6:5AA1H         LINE#         714
 C6:5AA4H         LINE#         715
 C6:5ACCH         LINE#         716
 C6:5AD4H         LINE#         717
 C6:5AD4H         LINE#         719
 C6:5AD4H         LINE#         720
 C6:5AD7H         LINE#         721
 C6:5AEBH         LINE#         722
 C6:5AEEH         LINE#         724
 C6:5AEEH         LINE#         725
 C6:5B01H         LINE#         726
 C6:5B25H         LINE#         727
 C6:5B25H         LINE#         728
 C6:5B25H         LINE#         729
 C6:5B2BH         LINE#         730
 C6:5B30H         LINE#         731
 C6:5B32H         LINE#         732
 C6:5B32H         LINE#         733
 C6:5B3AH         LINE#         734
 C6:5B4FH         LINE#         735
 C6:5B4FH         LINE#         736
 C6:5B5EH         LINE#         737
 C6:5B7DH         LINE#         738
 C6:5B7DH         LINE#         739
 C6:5B8CH         LINE#         740
 C6:5B92H         LINE#         741
 C6:5B92H         LINE#         742
 C6:5BC2H         LINE#         743
 C6:5BCBH         LINE#         744
 C6:5BEBH         LINE#         745
 C6:5BF1H         LINE#         746
 C6:5BF3H         LINE#         747
 C6:5BF3H         LINE#         748
 C6:5C0BH         LINE#         749
 C6:5C11H         LINE#         750
 C6:5C11H         LINE#         751
 C6:5C11H         LINE#         752
 C6:5C1AH         LINE#         753
 C6:5C66H         LINE#         754
 C6:5C6CH         LINE#         755
 C6:5C6EH         LINE#         756
 C6:5C6EH         LINE#         757
 C6:5C98H         LINE#         758
 C6:5C98H         LINE#         759
 C6:5CA6H         LINE#         760
 C6:5CA9H         LINE#         762
 C6:5CA9H         LINE#         763
 C6:5CAEH         LINE#         764
 C6:5CD3H         LINE#         765
 C6:5CD3H         LINE#         766
 C6:5CD3H         LINE#         767
 C6:5CD3H         LINE#         768
 C6:5CD6H         LINE#         769
BL51 BANKED LINKER/LOCATER V6.00                                                      11/05/2015  16:28:40  PAGE 162


 C6:5CD6H         LINE#         770
 C6:5CDCH         LINE#         771
 C6:5CDFH         LINE#         772
 C6:5D07H         LINE#         773
 C6:5D07H         LINE#         774
 C6:5D0FH         LINE#         775
 C6:5D0FH         LINE#         776
 C6:5D1BH         LINE#         777
 C6:5D2DH         LINE#         778
 C6:5D2DH         LINE#         779
 C6:5D34H         LINE#         780
 C6:5D45H         LINE#         782
 C6:5D57H         LINE#         783
 C6:5D5AH         LINE#         784
 C6:5D82H         LINE#         785
 C6:5D8AH         LINE#         786
 C6:5D8AH         LINE#         788
 C6:5D8AH         LINE#         789
 C6:5D8DH         LINE#         790
 C6:5DA1H         LINE#         791
 C6:5DA4H         LINE#         793
 C6:5DA4H         LINE#         794
 C6:5DB7H         LINE#         795
 C6:5DDBH         LINE#         796
 C6:5DDBH         LINE#         797
 C6:5DDBH         LINE#         798
 C6:5DE1H         LINE#         799
 C6:5DE6H         LINE#         800
 C6:5DE8H         LINE#         801
 C6:5DE8H         LINE#         802
 C6:5DF0H         LINE#         803
 C6:5E05H         LINE#         804
 C6:5E05H         LINE#         805
 C6:5E14H         LINE#         806
 C6:5E33H         LINE#         807
 C6:5E33H         LINE#         808
 C6:5E42H         LINE#         809
 C6:5E48H         LINE#         810
 C6:5E48H         LINE#         811
 C6:5E78H         LINE#         812
 C6:5E81H         LINE#         813
 C6:5EA1H         LINE#         814
 C6:5EA7H         LINE#         815
 C6:5EA9H         LINE#         816
 C6:5EA9H         LINE#         817
 C6:5EC1H         LINE#         818
 C6:5EC7H         LINE#         819
 C6:5EC7H         LINE#         820
 C6:5EC7H         LINE#         821
 C6:5ED0H         LINE#         822
 C6:5F1CH         LINE#         823
 C6:5F22H         LINE#         824
 C6:5F24H         LINE#         825
 C6:5F24H         LINE#         826
 C6:5F4EH         LINE#         827
 C6:5F4EH         LINE#         828
 C6:5F5CH         LINE#         829
BL51 BANKED LINKER/LOCATER V6.00                                                      11/05/2015  16:28:40  PAGE 163


 C6:5F5FH         LINE#         831
 C6:5F5FH         LINE#         832
 C6:5F64H         LINE#         833
 C6:5F89H         LINE#         834
 C6:5F89H         LINE#         835
 C6:5F89H         LINE#         836
 C6:5F89H         LINE#         837
 C6:5F8CH         LINE#         838
 C6:5F8CH         LINE#         839
 C6:5F8FH         LINE#         840
 C6:5FB4H         LINE#         841
 C6:5FB4H         LINE#         842
 C6:5FBCH         LINE#         843
 C6:5FBCH         LINE#         844
 C6:5FC8H         LINE#         845
 C6:5FCEH         LINE#         846
 C6:5FE5H         LINE#         848
 C6:6002H         LINE#         849
 C6:6005H         LINE#         851
 C6:6005H         LINE#         852
 C6:6008H         LINE#         853
 C6:601CH         LINE#         854
 C6:601FH         LINE#         855
 C6:6045H         LINE#         856
 C6:6045H         LINE#         857
 C6:604CH         LINE#         858
 C6:604CH         LINE#         859
 C6:6052H         LINE#         860
 C6:605AH         LINE#         861
 C6:605FH         LINE#         862
 C6:6062H         LINE#         864
 C6:6069H         LINE#         865
 C6:606CH         LINE#         866
 C6:6092H         LINE#         867
 C6:6092H         LINE#         868
 C6:6099H         LINE#         869
 C6:6099H         LINE#         870
 C6:609EH         LINE#         871
 C6:60A5H         LINE#         872
 C6:60AAH         LINE#         873
 C6:60ACH         LINE#         875
 C6:60B3H         LINE#         876
 C6:60B6H         LINE#         878
 C6:60BDH         LINE#         879
 C6:60C0H         LINE#         880
 C6:60C0H         LINE#         881
 C6:60E5H         LINE#         882
 C6:60E5H         LINE#         883
 C6:60ECH         LINE#         884
 C6:60ECH         LINE#         885
 C6:60F9H         LINE#         886
 C6:6103H         LINE#         887
 C6:6106H         LINE#         889
 C6:610DH         LINE#         890
 C6:6110H         LINE#         891
 C6:6125H         LINE#         892
 C6:6125H         LINE#         893
BL51 BANKED LINKER/LOCATER V6.00                                                      11/05/2015  16:28:40  PAGE 164


 C6:6138H         LINE#         894
 C6:6179H         LINE#         895
 C6:6179H         LINE#         896
 C6:6179H         LINE#         897
 C6:617FH         LINE#         898
 C6:6184H         LINE#         899
 C6:6186H         LINE#         900
 C6:6186H         LINE#         901
 C6:618EH         LINE#         902
 C6:6199H         LINE#         903
 C6:6199H         LINE#         904
 C6:6199H         LINE#         905
 C6:61A8H         LINE#         906
 C6:61C3H         LINE#         907
 C6:61D5H         LINE#         908
 C6:61FBH         LINE#         909
 C6:6205H         LINE#         910
 C6:6218H         LINE#         911
 C6:621DH         LINE#         912
 C6:6220H         LINE#         914
 C6:6227H         LINE#         915
 C6:622AH         LINE#         917
 C6:622AH         LINE#         918
 C6:622DH         LINE#         919
 C6:6255H         LINE#         920
 C6:6255H         LINE#         921
 C6:6260H         LINE#         922
 C6:6260H         LINE#         923
 C6:626CH         LINE#         925
 C6:628AH         LINE#         930
 C6:62A1H         LINE#         932
 C6:62B8H         LINE#         933
 C6:62CFH         LINE#         934
 C6:62EAH         LINE#         935
 C6:630AH         LINE#         940
 C6:630DH         LINE#         944
 C6:6321H         LINE#         945
 C6:6324H         LINE#         946
 C6:634AH         LINE#         947
 C6:634AH         LINE#         948
 C6:6351H         LINE#         949
 C6:6367H         LINE#         950
 C6:636CH         LINE#         951
 C6:6370H         LINE#         952
 C6:6375H         LINE#         953
 C6:6378H         LINE#         954
 C6:6378H         LINE#         955
 C6:637BH         LINE#         957
 C6:63A1H         LINE#         958
 C6:63A1H         LINE#         959
 C6:63A8H         LINE#         960
 C6:63A8H         LINE#         961
 C6:63BBH         LINE#         962
 C6:63BBH         LINE#         963
 C6:63BBH         LINE#         964
 C6:63BBH         LINE#         965
 C6:63BDH         LINE#         966
BL51 BANKED LINKER/LOCATER V6.00                                                      11/05/2015  16:28:40  PAGE 165


 C6:63BDH         LINE#         967
 C6:63BFH         LINE#         968
 C6:63E5H         LINE#         969
 C6:63E5H         LINE#         970
 C6:63ECH         LINE#         971
 C6:63ECH         LINE#         972
 C6:6402H         LINE#         973
 C6:6408H         LINE#         974
 C6:640DH         LINE#         975
 C6:6412H         LINE#         976
 C6:6414H         LINE#         977
 C6:6414H         LINE#         978
 C6:6416H         LINE#         993
 C6:6421H         LINE#         994
 C6:642AH         LINE#         995
 C6:642AH         LINE#         996
 C6:642AH         LINE#         997
 C6:642DH         LINE#         999
 C6:642DH         LINE#         1000
 C6:6430H         LINE#         1001
 C6:6455H         LINE#         1002
 C6:6455H         LINE#         1003
 C6:6460H         LINE#         1004
 C6:6460H         LINE#         1005
 C6:646CH         LINE#         1006
 C6:6485H         LINE#         1007
 C6:6494H         LINE#         1009
 C6:64A6H         LINE#         1010
 C6:64A9H         LINE#         1014
 C6:64CFH         LINE#         1015
 C6:64CFH         LINE#         1016
 C6:64F6H         LINE#         1017
 C6:64FDH         LINE#         1018
 C6:64FFH         LINE#         1019
 C6:6525H         LINE#         1020
 C6:6525H         LINE#         1021
 C6:654BH         LINE#         1022
 C6:6552H         LINE#         1023
 C6:6554H         LINE#         1025
 C6:655FH         LINE#         1026
 C6:6568H         LINE#         1027
 C6:6568H         LINE#         1028
 C6:6568H         LINE#         1029
 C6:656BH         LINE#         1031
 C6:656BH         LINE#         1032
 C6:6590H         LINE#         1033
 C6:6590H         LINE#         1034
 C6:6597H         LINE#         1035
 C6:6597H         LINE#         1036
 C6:65A4H         LINE#         1037
 C6:65B8H         LINE#         1038
 C6:65BBH         LINE#         1040
 C6:65C2H         LINE#         1041
 C6:65C5H         LINE#         1042
 C6:65D9H         LINE#         1043
 C6:65E3H         LINE#         1044
 C6:65F8H         LINE#         1045
BL51 BANKED LINKER/LOCATER V6.00                                                      11/05/2015  16:28:40  PAGE 166


 C6:65F8H         LINE#         1046
 C6:660BH         LINE#         1047
 C6:662AH         LINE#         1048
 C6:662AH         LINE#         1049
 C6:662AH         LINE#         1050
 C6:6630H         LINE#         1051
 C6:6635H         LINE#         1052
 C6:6637H         LINE#         1053
 C6:6637H         LINE#         1054
 C6:663FH         LINE#         1055
 C6:6643H         LINE#         1056
 C6:6656H         LINE#         1057
 C6:665CH         LINE#         1058
 C6:6661H         LINE#         1059
 C6:6661H         LINE#         1060
 C6:6661H         LINE#         1061
 C6:668DH         LINE#         1062
 C6:6693H         LINE#         1063
 C6:6698H         LINE#         1064
 C6:6698H         LINE#         1065
 C6:66A3H         LINE#         1066
 C6:66A3H         LINE#         1067
 C6:66A3H         LINE#         1068
 C6:66CBH         LINE#         1069
 C6:66D4H         LINE#         1070
 C6:66D9H         LINE#         1071
 C6:66D9H         LINE#         1072
 C6:66D9H         LINE#         1073
 C6:66DCH         LINE#         1075
 C6:66E3H         LINE#         1076
 C6:66E6H         LINE#         1077
 C6:66E6H         LINE#         1078
 C6:670BH         LINE#         1079
 C6:670BH         LINE#         1080
 C6:6712H         LINE#         1081
 C6:6712H         LINE#         1082
 C6:671FH         LINE#         1083
 C6:6733H         LINE#         1084
 C6:6736H         LINE#         1086
 C6:673DH         LINE#         1087
 C6:6740H         LINE#         1088
 C6:6754H         LINE#         1089
 C6:675EH         LINE#         1090
 C6:6773H         LINE#         1091
 C6:6773H         LINE#         1092
 C6:6786H         LINE#         1093
 C6:67BAH         LINE#         1094
 C6:67BAH         LINE#         1095
 C6:67BAH         LINE#         1096
 C6:67C0H         LINE#         1097
 C6:67C5H         LINE#         1098
 C6:67C7H         LINE#         1099
 C6:67C7H         LINE#         1100
 C6:67CFH         LINE#         1101
 C6:67D6H         LINE#         1102
 C6:67E9H         LINE#         1103
 C6:67EFH         LINE#         1104
BL51 BANKED LINKER/LOCATER V6.00                                                      11/05/2015  16:28:40  PAGE 167


 C6:67F4H         LINE#         1105
 C6:67F4H         LINE#         1106
 C6:67F4H         LINE#         1107
 C6:6820H         LINE#         1108
 C6:6826H         LINE#         1109
 C6:682BH         LINE#         1110
 C6:682BH         LINE#         1111
 C6:6836H         LINE#         1112
 C6:6836H         LINE#         1113
 C6:6836H         LINE#         1114
 C6:685EH         LINE#         1115
 C6:6867H         LINE#         1116
 C6:686CH         LINE#         1117
 C6:686CH         LINE#         1118
 C6:686CH         LINE#         1119
 C6:686FH         LINE#         1121
 C6:6876H         LINE#         1122
 C6:6879H         LINE#         1123
 C6:6879H         LINE#         1124
 C6:68A1H         LINE#         1125
 C6:68A1H         LINE#         1126
 C6:68A9H         LINE#         1127
 C6:68A9H         LINE#         1128
 C6:68B5H         LINE#         1129
 C6:68C7H         LINE#         1130
 C6:68C7H         LINE#         1131
 C6:68EEH         LINE#         1132
 C6:68F3H         LINE#         1133
 C6:691BH         LINE#         1134
 C6:6923H         LINE#         1135
 C6:6923H         LINE#         1137
 C6:692AH         LINE#         1138
 C6:692DH         LINE#         1139
 C6:6941H         LINE#         1140
 C6:694BH         LINE#         1141
 C6:6951H         LINE#         1142
 C6:695AH         LINE#         1144
 C6:695AH         LINE#         1145
 C6:696DH         LINE#         1146
 C6:6991H         LINE#         1147
 C6:6991H         LINE#         1148
 C6:6991H         LINE#         1149
 C6:6997H         LINE#         1150
 C6:699CH         LINE#         1151
 C6:699EH         LINE#         1152
 C6:699EH         LINE#         1153
 C6:69A6H         LINE#         1154
 C6:69B1H         LINE#         1155
 C6:69B1H         LINE#         1156
 C6:69B1H         LINE#         1157
 C6:69C6H         LINE#         1158
 C6:69C6H         LINE#         1159
 C6:69D5H         LINE#         1160
 C6:69F4H         LINE#         1161
 C6:69F4H         LINE#         1162
 C6:6A03H         LINE#         1163
 C6:6A09H         LINE#         1164
BL51 BANKED LINKER/LOCATER V6.00                                                      11/05/2015  16:28:40  PAGE 168


 C6:6A09H         LINE#         1165
 C6:6A39H         LINE#         1166
 C6:6A42H         LINE#         1167
 C6:6A62H         LINE#         1168
 C6:6A68H         LINE#         1169
 C6:6A6AH         LINE#         1170
 C6:6A6AH         LINE#         1171
 C6:6A82H         LINE#         1172
 C6:6A88H         LINE#         1173
 C6:6A88H         LINE#         1174
 C6:6A88H         LINE#         1175
 C6:6A91H         LINE#         1176
 C6:6ADDH         LINE#         1177
 C6:6AE3H         LINE#         1178
 C6:6AE5H         LINE#         1179
 C6:6AE5H         LINE#         1180
 C6:6B0FH         LINE#         1181
 C6:6B0FH         LINE#         1182
 C6:6B1DH         LINE#         1183
 C6:6B26H         LINE#         1185
 C6:6B26H         LINE#         1186
 C6:6B2BH         LINE#         1187
 C6:6B69H         LINE#         1188
 C6:6B81H         LINE#         1189
 C6:6B8AH         LINE#         1190
 C6:6B8AH         LINE#         1191
 C6:6B93H         LINE#         1192
 C6:6B93H         LINE#         1193
 C6:6B93H         LINE#         1194
 C6:6B93H         LINE#         1195
 C6:6B96H         LINE#         1196
 C6:6B96H         LINE#         1197
 C6:6BBBH         LINE#         1198
 C6:6BBBH         LINE#         1199
 C6:6BC2H         LINE#         1200
 C6:6BC2H         LINE#         1201
 C6:6BCFH         LINE#         1202
 C6:6BE3H         LINE#         1203
 C6:6BE6H         LINE#         1205
 C6:6BEDH         LINE#         1206
 C6:6BF0H         LINE#         1207
 C6:6BF9H         LINE#         1208
 C6:6BF9H         LINE#         1209
 C6:6C21H         LINE#         1210
 C6:6C26H         LINE#         1211
 C6:6C2AH         LINE#         1212
 C6:6C2AH         LINE#         1213
 C6:6C2DH         LINE#         1215
 C6:6C34H         LINE#         1216
 C6:6C37H         LINE#         1217
 C6:6C37H         LINE#         1218
 C6:6C5CH         LINE#         1219
 C6:6C5CH         LINE#         1220
 C6:6C63H         LINE#         1221
 C6:6C63H         LINE#         1222
 C6:6C70H         LINE#         1223
 C6:6C8AH         LINE#         1224
BL51 BANKED LINKER/LOCATER V6.00                                                      11/05/2015  16:28:40  PAGE 169


 C6:6C8DH         LINE#         1226
 C6:6C94H         LINE#         1227
 C6:6C97H         LINE#         1228
 C6:6CA0H         LINE#         1229
 C6:6CA0H         LINE#         1230
 C6:6CC8H         LINE#         1231
 C6:6CCDH         LINE#         1232
 C6:6CD1H         LINE#         1233
 C6:6CDFH         LINE#         1234
 C6:6CE2H         LINE#         1236
 C6:6CE9H         LINE#         1237
 C6:6CECH         LINE#         1240
 C6:6CECH         LINE#         1241
 C6:6D11H         LINE#         1242
 C6:6D11H         LINE#         1243
 C6:6D18H         LINE#         1244
 C6:6D18H         LINE#         1245
 C6:6D25H         LINE#         1246
 C6:6D2DH         LINE#         1247
 C6:6D30H         LINE#         1249
 C6:6D37H         LINE#         1250
 C6:6D3AH         LINE#         1251
 C6:6D4EH         LINE#         1252
 C6:6D58H         LINE#         1253
 C6:6D6DH         LINE#         1254
 C6:6D6DH         LINE#         1255
 C6:6D80H         LINE#         1256
 C6:6DB4H         LINE#         1257
 C6:6DB4H         LINE#         1258
 C6:6DB4H         LINE#         1259
 C6:6DBAH         LINE#         1260
 C6:6DBFH         LINE#         1261
 C6:6DC1H         LINE#         1262
 C6:6DC1H         LINE#         1263
 C6:6DC9H         LINE#         1264
 C6:6DD0H         LINE#         1265
 C6:6DE3H         LINE#         1266
 C6:6DE9H         LINE#         1267
 C6:6DEEH         LINE#         1268
 C6:6DEEH         LINE#         1269
 C6:6DEEH         LINE#         1270
 C6:6E1AH         LINE#         1271
 C6:6E20H         LINE#         1272
 C6:6E25H         LINE#         1273
 C6:6E25H         LINE#         1274
 C6:6E30H         LINE#         1275
 C6:6E30H         LINE#         1276
 C6:6E30H         LINE#         1277
 C6:6E46H         LINE#         1278
 C6:6E53H         LINE#         1279
 C6:6E58H         LINE#         1280
 C6:6E58H         LINE#         1281
 C6:6E5BH         LINE#         1283
 C6:6E62H         LINE#         1284
 C6:6E65H         LINE#         1285
 C6:6E65H         LINE#         1286
 C6:6E68H         LINE#         1287
BL51 BANKED LINKER/LOCATER V6.00                                                      11/05/2015  16:28:40  PAGE 170


 C6:6E90H         LINE#         1288
 C6:6E90H         LINE#         1289
 C6:6E9BH         LINE#         1290
 C6:6E9BH         LINE#         1291
 C6:6EACH         LINE#         1292
 C6:6EACH         LINE#         1293
 C6:6EB7H         LINE#         1294
 C6:6EC4H         LINE#         1295
 C6:6ECBH         LINE#         1296
 C6:6ECBH         LINE#         1297
 C6:6ED8H         LINE#         1298
 C6:6EE0H         LINE#         1299
 C6:6EE2H         LINE#         1301
 C6:6EEFH         LINE#         1302
 C6:6F2CH         LINE#         1303
 C6:6F35H         LINE#         1304
 C6:6F35H         LINE#         1306
 C6:6F3CH         LINE#         1307
 C6:6F3FH         LINE#         1308
 C6:6F53H         LINE#         1309
 C6:6F5DH         LINE#         1310
 C6:6F63H         LINE#         1311
 C6:6F6CH         LINE#         1313
 C6:6F6CH         LINE#         1314
 C6:6F82H         LINE#         1315
 C6:6F82H         LINE#         1316
 C6:6F99H         LINE#         1317
 C6:6F99H         LINE#         1318
 C6:6FC0H         LINE#         1319
 C6:6FC6H         LINE#         1320
 C6:6FC6H         LINE#         1321
 C6:6FF4H         LINE#         1322
 C6:6FF6H         LINE#         1323
 C6:6FF6H         LINE#         1324
 C6:6FFFH         LINE#         1325
 C6:7012H         LINE#         1326
 C6:7018H         LINE#         1327
 C6:7019H         LINE#         1328
 C6:701CH         LINE#         1329
 C6:701CH         LINE#         1330
 C6:7032H         LINE#         1331
 C6:7032H         LINE#         1332
 C6:7059H         LINE#         1333
 C6:7093H         LINE#         1334
 C6:70B4H         LINE#         1335
 C6:70B9H         LINE#         1336
 C6:70BDH         LINE#         1337
 C6:70C7H         LINE#         1338
 C6:70CAH         LINE#         1340
 C6:70D1H         LINE#         1341
 C6:70D1H         LINE#         1342
 C6:70D4H         LINE#         1343
 C6:70D4H         LINE#         1344
 C6:70FCH         LINE#         1345
 C6:70FCH         LINE#         1346
 C6:7107H         LINE#         1347
 C6:7107H         LINE#         1348
BL51 BANKED LINKER/LOCATER V6.00                                                      11/05/2015  16:28:40  PAGE 171


 C6:7118H         LINE#         1349
 C6:7118H         LINE#         1350
 C6:7123H         LINE#         1351
 C6:7130H         LINE#         1352
 C6:7137H         LINE#         1353
 C6:7137H         LINE#         1354
 C6:7144H         LINE#         1355
 C6:714CH         LINE#         1356
 C6:714EH         LINE#         1358
 C6:715BH         LINE#         1359
 C6:7180H         LINE#         1360
 C6:7188H         LINE#         1361
 C6:7188H         LINE#         1363
 C6:718FH         LINE#         1364
 C6:7192H         LINE#         1365
 C6:71A6H         LINE#         1366
 C6:71B0H         LINE#         1367
 C6:71B9H         LINE#         1368
 C6:71C3H         LINE#         1370
 C6:71C3H         LINE#         1371
 C6:71D9H         LINE#         1372
 C6:71D9H         LINE#         1373
 C6:71F3H         LINE#         1374
 C6:71F3H         LINE#         1375
 C6:71F8H         LINE#         1376
 C6:720EH         LINE#         1377
 C6:7218H         LINE#         1378
 C6:721EH         LINE#         1379
 C6:721EH         LINE#         1380
 C6:7220H         LINE#         1381
 C6:7227H         LINE#         1382
 C6:7230H         LINE#         1383
 C6:7235H         LINE#         1384
 C6:7235H         LINE#         1385
 C6:7235H         LINE#         1386
 C6:7296H         LINE#         1387
 C6:72A7H         LINE#         1388
 C6:72A9H         LINE#         1389
 C6:72A9H         LINE#         1390
 C6:72AEH         LINE#         1391
 C6:72AEH         LINE#         1392
 C6:72B0H         LINE#         1393
 C6:72B0H         LINE#         1395
 C6:72B9H         LINE#         1396
 C6:72C9H         LINE#         1397
 C6:72CEH         LINE#         1398
 C6:72D4H         LINE#         1399
 C6:72D4H         LINE#         1400
 C6:72F5H         LINE#         1401
 C6:731FH         LINE#         1402
 C6:7324H         LINE#         1403
 C6:7328H         LINE#         1404
 C6:7331H         LINE#         1405
 C6:7334H         LINE#         1407
 C6:733BH         LINE#         1408
 C6:733BH         LINE#         1409
 C6:733EH         LINE#         1412
BL51 BANKED LINKER/LOCATER V6.00                                                      11/05/2015  16:28:40  PAGE 172


 C6:733EH         LINE#         1413
 C6:7363H         LINE#         1414
 C6:7363H         LINE#         1415
 C6:736EH         LINE#         1416
 C6:736EH         LINE#         1417
 C6:737AH         LINE#         1418
 C6:73A3H         LINE#         1419
 C6:73A6H         LINE#         1423
 C6:73CCH         LINE#         1424
 C6:73CCH         LINE#         1425
 C6:73D3H         LINE#         1426
 C6:73D3H         LINE#         1427
 C6:73E8H         LINE#         1428
 C6:73EAH         LINE#         1429
 C6:73ECH         LINE#         1430
 C6:73EEH         LINE#         1431
 C6:73F2H         LINE#         1432
 C6:73F5H         LINE#         1434
 C6:73FCH         LINE#         1435
 C6:73FFH         LINE#         1436
 C6:7425H         LINE#         1437
 C6:7425H         LINE#         1438
 C6:742CH         LINE#         1439
 C6:742CH         LINE#         1440
 C6:7442H         LINE#         1441
 C6:7444H         LINE#         1442
 C6:7446H         LINE#         1443
 C6:7448H         LINE#         1444
 C6:744DH         LINE#         1445
 C6:744FH         LINE#         1447
 C6:7456H         LINE#         1448
 C6:7458H         LINE#         1449
 C6:747EH         LINE#         1450
 C6:747EH         LINE#         1451
 C6:7485H         LINE#         1452
 C6:7485H         LINE#         1453
 C6:749BH         LINE#         1454
 C6:749DH         LINE#         1455
 C6:749FH         LINE#         1456
 C6:74A4H         LINE#         1457
 C6:74A6H         LINE#         1459
 C6:74ADH         LINE#         1460
 C6:74AFH         LINE#         1462
 C6:74BAH         LINE#         1463
 C6:74C3H         LINE#         1464
 C6:74D8H         LINE#         1465
 C6:74D8H         LINE#         1466
 C6:74DBH         LINE#         1467
 C6:74DBH         LINE#         1468
 C6:7500H         LINE#         1469
 C6:7500H         LINE#         1470
 C6:7508H         LINE#         1471
 C6:7508H         LINE#         1472
 C6:7514H         LINE#         1473
 C6:7556H         LINE#         1474
 C6:7559H         LINE#         1476
 C6:7560H         LINE#         1477
BL51 BANKED LINKER/LOCATER V6.00                                                      11/05/2015  16:28:40  PAGE 173


 C6:7563H         LINE#         1478
 C6:7577H         LINE#         1479
 C6:7581H         LINE#         1480
 C6:758DH         LINE#         1481
 C6:758DH         LINE#         1482
 C6:7598H         LINE#         1483
 C6:75A9H         LINE#         1484
 C6:75A9H         LINE#         1485
 C6:75D5H         LINE#         1486
 C6:75D5H         LINE#         1487
 C6:75F2H         LINE#         1488
 C6:761DH         LINE#         1489
 C6:7622H         LINE#         1490
 C6:763AH         LINE#         1491
 C6:763AH         LINE#         1492
 C6:7643H         LINE#         1493
 C6:7643H         LINE#         1495
 C6:764AH         LINE#         1496
 C6:764DH         LINE#         1497
 C6:764DH         LINE#         1498
 C6:7672H         LINE#         1499
 C6:7672H         LINE#         1500
 C6:767AH         LINE#         1501
 C6:767AH         LINE#         1502
 C6:7686H         LINE#         1503
 C6:76A6H         LINE#         1504
 C6:76A9H         LINE#         1506
 C6:76B0H         LINE#         1507
 C6:76B3H         LINE#         1508
 C6:76BCH         LINE#         1509
 C6:76C6H         LINE#         1511
 C6:76C6H         LINE#         1512
 C6:76D9H         LINE#         1513
 C6:76E6H         LINE#         1514
 C6:76E6H         LINE#         1515
 C6:7702H         LINE#         1516
 C6:7707H         LINE#         1517
 C6:7710H         LINE#         1518
 C6:7725H         LINE#         1519
 C6:7728H         LINE#         1521
 C6:772FH         LINE#         1522
 C6:772FH         LINE#         1523
 C6:7732H         LINE#         1524
 C6:7732H         LINE#         1525
 C6:7735H         LINE#         1526
 C6:775DH         LINE#         1527
 C6:775DH         LINE#         1528
 C6:7765H         LINE#         1529
 C6:7765H         LINE#         1530
 C6:7771H         LINE#         1531
 C6:7780H         LINE#         1532
 C6:77A8H         LINE#         1533
 C6:77D7H         LINE#         1534
 C6:77DAH         LINE#         1536
 C6:77E1H         LINE#         1537
 C6:77E4H         LINE#         1538
 C6:77F0H         LINE#         1539
BL51 BANKED LINKER/LOCATER V6.00                                                      11/05/2015  16:28:40  PAGE 174


 C6:77F0H         LINE#         1540
 C6:77FBH         LINE#         1541
 C6:7809H         LINE#         1542
 C6:7835H         LINE#         1543
 C6:783BH         LINE#         1544
 C6:7843H         LINE#         1545
 C6:784CH         LINE#         1546
 C6:784CH         LINE#         1547
 C6:786DH         LINE#         1548
 C6:7882H         LINE#         1549
 C6:7882H         LINE#         1550
 C6:7885H         LINE#         1552
 C6:788CH         LINE#         1553
 C6:788FH         LINE#         1554
 C6:788FH         LINE#         1555
 C6:7892H         LINE#         1556
 C6:78B7H         LINE#         1557
 C6:78B7H         LINE#         1558
 C6:78BFH         LINE#         1559
 C6:78BFH         LINE#         1560
 C6:78CBH         LINE#         1561
 C6:7910H         LINE#         1562
 C6:7913H         LINE#         1564
 C6:791AH         LINE#         1565
 C6:791DH         LINE#         1566
 C6:7925H         LINE#         1567
 C6:7925H         LINE#         1568
 C6:7938H         LINE#         1569
 C6:7943H         LINE#         1570
 C6:7943H         LINE#         1571
 C6:7961H         LINE#         1572
 C6:7966H         LINE#         1573
 C6:797EH         LINE#         1574
 C6:7983H         LINE#         1575
 C6:7986H         LINE#         1577
 C6:798DH         LINE#         1578
 C6:7990H         LINE#         1580
 C6:7997H         LINE#         1581
 C6:799AH         LINE#         1582
 C6:799AH         LINE#         1583
 C6:799DH         LINE#         1584
 C6:79C5H         LINE#         1585
 C6:79C5H         LINE#         1586
 C6:79D0H         LINE#         1587
 C6:79D0H         LINE#         1588
 C6:79DCH         LINE#         1589
 C6:79F0H         LINE#         1590
 C6:7A0FH         LINE#         1592
 C6:7A0FH         LINE#         1593
 C6:7A15H         LINE#         1594
 C6:7A35H         LINE#         1595
 C6:7A50H         LINE#         1596
 C6:7A5DH         LINE#         1597
 C6:7A5DH         LINE#         1598
 C6:7A60H         LINE#         1602
 C6:7A86H         LINE#         1603
 C6:7A86H         LINE#         1604
BL51 BANKED LINKER/LOCATER V6.00                                                      11/05/2015  16:28:40  PAGE 175


 C6:7A8DH         LINE#         1605
 C6:7AADH         LINE#         1607
 C6:7AB4H         LINE#         1608
 C6:7AB7H         LINE#         1609
 C6:7ADDH         LINE#         1610
 C6:7ADDH         LINE#         1611
 C6:7AECH         LINE#         1612
 C6:7AECH         LINE#         1613
 C6:7B04H         LINE#         1614
 C6:7B2EH         LINE#         1615
 C6:7B30H         LINE#         1617
 C6:7B37H         LINE#         1618
 C6:7B39H         LINE#         1620
 C6:7B44H         LINE#         1621
 C6:7B4DH         LINE#         1622
 C6:7B5CH         LINE#         1623
 C6:7B5CH         LINE#         1624
 C6:7B5FH         LINE#         1625
 C6:7B5FH         LINE#         1626
 C6:7B62H         LINE#         1627
 C6:7B8AH         LINE#         1628
 C6:7B8AH         LINE#         1629
 C6:7B95H         LINE#         1630
 C6:7B95H         LINE#         1631
 C6:7BA1H         LINE#         1632
 C6:7BB5H         LINE#         1633
 C6:7BC2H         LINE#         1635
 C6:7BC2H         LINE#         1636
 C6:7BC8H         LINE#         1637
 C6:7BE8H         LINE#         1638
 C6:7C03H         LINE#         1639
 C6:7C10H         LINE#         1640
 C6:7C10H         LINE#         1641
 C6:7C13H         LINE#         1645
 C6:7C39H         LINE#         1646
 C6:7C39H         LINE#         1647
 C6:7C40H         LINE#         1648
 C6:7C60H         LINE#         1650
 C6:7C67H         LINE#         1651
 C6:7C6AH         LINE#         1652
 C6:7C90H         LINE#         1653
 C6:7C90H         LINE#         1654
 C6:7C9FH         LINE#         1655
 C6:7C9FH         LINE#         1656
 C6:7CB7H         LINE#         1657
 C6:7CE1H         LINE#         1658
 C6:7CE3H         LINE#         1660
 C6:7CEAH         LINE#         1661
 C6:7CECH         LINE#         1663
 C6:7CF7H         LINE#         1664
 C6:7D00H         LINE#         1665
 C6:7D0FH         LINE#         1666
 C6:7D0FH         LINE#         1667
 C6:7D12H         LINE#         1668
 C6:7D12H         LINE#         1669
 C6:7D15H         LINE#         1670
 C6:7D3DH         LINE#         1671
BL51 BANKED LINKER/LOCATER V6.00                                                      11/05/2015  16:28:40  PAGE 176


 C6:7D3DH         LINE#         1672
 C6:7D48H         LINE#         1673
 C6:7D48H         LINE#         1674
 C6:7D54H         LINE#         1675
 C6:7D68H         LINE#         1676
 C6:7D8BH         LINE#         1678
 C6:7D8BH         LINE#         1679
 C6:7D91H         LINE#         1680
 C6:7DB1H         LINE#         1681
 C6:7DBEH         LINE#         1682
 C6:7DD5H         LINE#         1684
 C6:7DD5H         LINE#         1685
 C6:7DD8H         LINE#         1689
 C6:7DFEH         LINE#         1690
 C6:7DFEH         LINE#         1691
 C6:7E05H         LINE#         1692
 C6:7E25H         LINE#         1694
 C6:7E2CH         LINE#         1695
 C6:7E2FH         LINE#         1696
 C6:7E55H         LINE#         1697
 C6:7E55H         LINE#         1698
 C6:7E64H         LINE#         1699
 C6:7E64H         LINE#         1700
 C6:7E7CH         LINE#         1701
 C6:7E94H         LINE#         1702
 C6:7EA1H         LINE#         1703
 C6:7EBAH         LINE#         1705
 C6:7EC1H         LINE#         1706
 C6:7EC3H         LINE#         1708
 C6:7ECAH         LINE#         1709
 C6:7ECCH         LINE#         1711
 C6:7ED7H         LINE#         1712
 C6:7EE0H         LINE#         1713
 C6:7EEFH         LINE#         1714
 C6:7EEFH         LINE#         1715
 C6:7EF2H         LINE#         1716
 C6:7EF2H         LINE#         1717
 C6:7EF5H         LINE#         1718
 C6:7F1AH         LINE#         1719
 C6:7F1AH         LINE#         1720
 C6:7F25H         LINE#         1721
 C6:7F25H         LINE#         1722
 C6:7F31H         LINE#         1723
 C6:7F45H         LINE#         1724
 C6:7F5CH         LINE#         1726
 C6:7F7CH         LINE#         1727
 C6:7F7FH         LINE#         1731
 C6:7FA5H         LINE#         1732
 C6:7FA5H         LINE#         1733
 C6:7FACH         LINE#         1734
 C6:7FCBH         LINE#         1736
 C6:7FD2H         LINE#         1737
 C6:7FD4H         LINE#         1738
 C6:7FFAH         LINE#         1739
 C6:7FFAH         LINE#         1740
 C6:8001H         LINE#         1741
 C6:8020H         LINE#         1743
BL51 BANKED LINKER/LOCATER V6.00                                                      11/05/2015  16:28:40  PAGE 177


 C6:8027H         LINE#         1744
 C6:8029H         LINE#         1746
 C6:8034H         LINE#         1747
 C6:803AH         LINE#         1748
 C6:804CH         LINE#         1749
 C6:804CH         LINE#         1750
 C6:804EH         LINE#         1752
 C6:804EH         LINE#         1753
 C6:8059H         LINE#         1754
 C6:8059H         LINE#         1755
 C6:8059H         LINE#         1757
 C6:805CH         LINE#         1758
 C6:805FH         LINE#         1760
 C6:805FH         LINE#         1762
 C6:8069H         LINE#         1763
  -------         ENDPROC       COMMAND_SETTING

  -------         PROC BANK=6   COMMAND_INFO
  -------         DO            
  X:330DH         SYMBOL        c_name
  X:330EH         SYMBOL        tu
  X:330FH         SYMBOL        len
  X:3310H         SYMBOL        information
  X:3324H         SYMBOL        end
  -------         ENDDO         
 C6:8CBAH         LINE#         1765
 C6:8CBAH         LINE#         1766
 C6:8CBAH         LINE#         1767
 C6:8CC3H         LINE#         1769
 C6:8CD1H         LINE#         1770
 C6:8CE3H         LINE#         1771
 C6:8CE3H         LINE#         1772
 C6:8CE6H         LINE#         1774
 C6:8CE6H         LINE#         1775
 C6:8CF0H         LINE#         1776
 C6:8D02H         LINE#         1777
 C6:8D05H         LINE#         1778
 C6:8D15H         LINE#         1779
 C6:8D15H         LINE#         1780
 C6:8D2DH         LINE#         1781
 C6:8D3BH         LINE#         1782
 C6:8D76H         LINE#         1783
 C6:8D7DH         LINE#         1784
 C6:8D85H         LINE#         1785
 C6:8D8BH         LINE#         1786
 C6:8D9DH         LINE#         1787
 C6:8DB7H         LINE#         1788
 C6:8DC2H         LINE#         1789
 C6:8DCBH         LINE#         1790
 C6:8DCBH         LINE#         1791
 C6:8DF3H         LINE#         1792
 C6:8DF3H         LINE#         1793
 C6:8DF3H         LINE#         1794
 C6:8E40H         LINE#         1795
 C6:8E40H         LINE#         1796
 C6:8E43H         LINE#         1797
 C6:8E43H         LINE#         1798
BL51 BANKED LINKER/LOCATER V6.00                                                      11/05/2015  16:28:40  PAGE 178


 C6:8E90H         LINE#         1799
 C6:8E90H         LINE#         1800
 C6:8E93H         LINE#         1801
 C6:8E93H         LINE#         1802
 C6:8EE0H         LINE#         1803
 C6:8EE0H         LINE#         1804
 C6:8EE2H         LINE#         1805
 C6:8EE2H         LINE#         1806
 C6:8F42H         LINE#         1807
 C6:8F58H         LINE#         1808
 C6:8F58H         LINE#         1809
 C6:8F58H         LINE#         1810
 C6:8F58H         LINE#         1812
  -------         ENDPROC       COMMAND_INFO

  -------         PROC BANK=6   RE_RORN
  -------         DO            
  X:34BCH         SYMBOL        error
  X:34BFH         SYMBOL        ok
  X:34C2H         SYMBOL        ok1
  X:34C5H         SYMBOL        error1
  -------         ENDDO         
 C6:9A61H         LINE#         1814
 C6:9A61H         LINE#         1815
 C6:9A61H         LINE#         1816
 C6:9A6FH         LINE#         1817
 C6:9A7BH         LINE#         1818
 C6:9A87H         LINE#         1819
 C6:9A93H         LINE#         1821
 C6:9A99H         LINE#         1822
 C6:9A99H         LINE#         1823
 C6:9A9FH         LINE#         1824
 C6:9AB6H         LINE#         1826
 C6:9ACBH         LINE#         1827
 C6:9ACDH         LINE#         1829
 C6:9ACDH         LINE#         1830
 C6:9AD3H         LINE#         1831
 C6:9AEAH         LINE#         1833
 C6:9B0AH         LINE#         1834
 C6:9B0AH         LINE#         1835
  -------         ENDPROC       RE_RORN
 C6:9C77H         SYMBOL        L?0958
  -------         PROC          L?0957
  -------         ENDPROC       L?0957
 C6:9C77H         SYMBOL        L?0958

  -------         PROC BANK=6   _UP2LWR
  X:37E4H         SYMBOL        buf
  D:0005H         SYMBOL        len
  -------         DO            
  D:0007H         SYMBOL        i
  -------         ENDDO         
 C6:9C87H         LINE#         1837
 C6:9C92H         LINE#         1838
 C6:9C92H         LINE#         1839
 C6:9C94H         LINE#         1841
 C6:9C99H         LINE#         1842
BL51 BANKED LINKER/LOCATER V6.00                                                      11/05/2015  16:28:40  PAGE 179


 C6:9CB7H         LINE#         1843
 C6:9CC1H         LINE#         1844
 C6:9CC1H         LINE#         1845
 C6:9CC4H         LINE#         1846
  -------         ENDPROC       _UP2LWR

  -------         PROC BANK=6   ATD_LOOP
 C6:96B1H         LINE#         1849
 C6:96B1H         LINE#         1850
 C6:96B1H         LINE#         1852
 C6:96BAH         LINE#         1853
 C6:96BAH         LINE#         1854
 C6:96C5H         LINE#         1855
 C6:96C5H         LINE#         1856
 C6:96FAH         LINE#         1857
 C6:96FAH         LINE#         1858
 C6:96FFH         LINE#         1859
 C6:9703H         LINE#         1860
 C6:9707H         LINE#         1861
 C6:970BH         LINE#         1862
 C6:9741H         LINE#         1863
 C6:9777H         LINE#         1864
 C6:977CH         LINE#         1865
 C6:977CH         LINE#         1866
 C6:977CH         LINE#         1867
 C6:9781H         LINE#         1868
 C6:9785H         LINE#         1869
 C6:978AH         LINE#         1870
 C6:978EH         LINE#         1872
 C6:97B2H         LINE#         1873
 C6:97C6H         LINE#         1874
 C6:97ECH         LINE#         1875
 C6:97ECH         LINE#         1877
  -------         ENDPROC       ATD_LOOP

  -------         PROC BANK=6   HELP
 C6:9D66H         LINE#         1879
 C6:9D66H         LINE#         1880
 C6:9D66H         LINE#         1882
  -------         ENDPROC       HELP

  -------         PROC BANK=6   CLI_INIT
 C6:9C26H         LINE#         1884
 C6:9C26H         LINE#         1885
 C6:9C26H         LINE#         1888
 C6:9C3FH         LINE#         1890
 C6:9C3FH         LINE#         1892
 C6:9C5DH         LINE#         1897
 C6:9C5DH         LINE#         1898
 C6:9C62H         LINE#         1899
 C6:9C62H         LINE#         1900
 C6:9C62H         LINE#         1907
 C6:9C74H         LINE#         1908
  -------         ENDPROC       CLI_INIT

  -------         PROC BANK=6   CLI_TIMER
 C6:8F59H         LINE#         1912
BL51 BANKED LINKER/LOCATER V6.00                                                      11/05/2015  16:28:40  PAGE 180


 C6:8F59H         LINE#         1914
 C6:8F5CH         LINE#         1915
 C6:8F5FH         LINE#         1917
 C6:8F62H         LINE#         1922
 C6:8F6DH         LINE#         1923
 C6:8F6DH         LINE#         1924
 C6:8FDFH         LINE#         1925
 C6:8FDFH         LINE#         1926
 C6:8FE6H         LINE#         1927
 C6:8FE9H         LINE#         1929
 C6:8FE9H         LINE#         1930
 C6:8FF3H         LINE#         1931
 C6:8FFCH         LINE#         1932
 C6:9003H         LINE#         1933
 C6:9003H         LINE#         1934
 C6:9013H         LINE#         1935
 C6:901EH         LINE#         1936
 C6:9020H         LINE#         1938
 C6:9020H         LINE#         1939
 C6:9030H         LINE#         1940
 C6:903BH         LINE#         1941
 C6:9041H         LINE#         1942
 C6:9041H         LINE#         1943
 C6:904AH         LINE#         1944
 C6:904AH         LINE#         1945
 C6:904AH         LINE#         1946
 C6:904AH         LINE#         1947
 C6:904DH         LINE#         1949
 C6:9069H         LINE#         1953
 C6:9069H         LINE#         1955
 C6:906CH         LINE#         1960
 C6:9075H         LINE#         1961
 C6:9075H         LINE#         1963
 C6:909AH         LINE#         1967
 C6:90A1H         LINE#         1969
 C6:90A1H         LINE#         1970
 C6:90ABH         LINE#         1971
 C6:90B0H         LINE#         1972
 C6:90B6H         LINE#         1973
 C6:90B6H         LINE#         1974
 C6:90C6H         LINE#         1975
 C6:90D1H         LINE#         1976
 C6:90D7H         LINE#         1977
 C6:90D7H         LINE#         1978
 C6:90DDH         LINE#         1979
 C6:90FDH         LINE#         1980
 C6:90FDH         LINE#         1981
 C6:90FDH         LINE#         1982
 C6:90FDH         LINE#         1983
 C6:9106H         LINE#         1984
 C6:9106H         LINE#         1985
 C6:910CH         LINE#         1986
 C6:917BH         LINE#         1987
 C6:9184H         LINE#         1988
 C6:9184H         LINE#         1990
  -------         ENDPROC       CLI_TIMER
  -------         ENDMOD        COMMANDLINE
BL51 BANKED LINKER/LOCATER V6.00                                                      11/05/2015  16:28:40  PAGE 181



  -------         MODULE        UTILITY
  C:0000H         SYMBOL        _ICE_DUMMY_
 C1:E3C1H         PUBLIC        CPUInit
  D:0090H         PUBLIC        P1
  D:00B0H         PUBLIC        P3
 C1:DF73H         PUBLIC        _hex_to_asc
 C1:BE6BH         PUBLIC        _asc_to_hex
  B:00D8H.1       PUBLIC        WDTEN
  D:00A8H         PUBLIC        IE
  D:00B8H         PUBLIC        IP
  D:0098H         PUBLIC        SCON
  D:0088H         PUBLIC        TCON
 C1:E34CH         PUBLIC        IP210_SWReset
 C1:E2F7H         PUBLIC        _Delay
  D:00D8H         PUBLIC        WDTCON
  D:00C8H         PUBLIC        T2CON
  D:00D0H         PUBLIC        PSW

  -------         PROC BANK=1   IP210_SWRESET
  -------         DO            
  D:0007H         SYMBOL        i
  -------         ENDDO         
 C1:E34CH         LINE#         33
 C1:E34CH         LINE#         34
 C1:E34CH         LINE#         37
 C1:E352H         LINE#         38
 C1:E354H         LINE#         39
 C1:E35AH         LINE#         40
  -------         ENDPROC       IP210_SWRESET

  -------         PROC BANK=1   CPUINIT
 C1:E3C1H         LINE#         52
 C1:E3C1H         LINE#         53
 C1:E3C1H         LINE#         54
 C1:E3C3H         LINE#         55
 C1:E3C6H         LINE#         56
  -------         ENDPROC       CPUINIT

  -------         PROC BANK=1   _DELAY
  D:0006H         SYMBOL        delay
 C1:E2F7H         LINE#         70
 C1:E2F7H         LINE#         71
 C1:E2F7H         LINE#         72
 C1:E306H         LINE#         73
 C1:E309H         LINE#         74
  -------         ENDPROC       _DELAY

  -------         PROC BANK=1   _ASC_TO_HEX
  X:3696H         SYMBOL        asc
  -------         DO            
  X:3699H         SYMBOL        value
  X:369BH         SYMBOL        i
  X:369CH         SYMBOL        len
  -------         ENDDO         
 C1:BE6BH         LINE#         112
 C1:BE76H         LINE#         113
BL51 BANKED LINKER/LOCATER V6.00                                                      11/05/2015  16:28:40  PAGE 182


 C1:BE76H         LINE#         114
 C1:BE7BH         LINE#         117
 C1:BE83H         LINE#         118
 C1:BE8BH         LINE#         119
 C1:BEA1H         LINE#         120
 C1:BEA1H         LINE#         121
 C1:BEB5H         LINE#         122
 C1:BED8H         LINE#         123
 C1:BEE8H         LINE#         124
 C1:BF04H         LINE#         125
 C1:BF1FH         LINE#         126
 C1:BF46H         LINE#         127
 C1:BF60H         LINE#         129
 C1:BF64H         LINE#         130
 C1:BF6DH         LINE#         131
 C1:BF75H         LINE#         132
  -------         ENDPROC       _ASC_TO_HEX

  -------         PROC BANK=1   _HEX_TO_ASC
  D:0007H         SYMBOL        hex
  D:0001H         SYMBOL        buf
  -------         DO            
  D:0006H         SYMBOL        i
  -------         ENDDO         
 C1:DF73H         LINE#         145
 C1:DF73H         LINE#         146
 C1:DF73H         LINE#         149
 C1:DF78H         LINE#         150
 C1:DF8AH         LINE#         151
 C1:DF8EH         LINE#         152
  -------         ENDPROC       _HEX_TO_ASC
  -------         ENDMOD        UTILITY

  -------         MODULE        UDP
  C:0000H         SYMBOL        _ICE_DUMMY_
  D:0080H         PUBLIC        P0
  D:0090H         PUBLIC        P1
  D:00A0H         PUBLIC        P2
  D:00B0H         PUBLIC        P3
  D:00E8H         PUBLIC        P4
  D:00A8H         PUBLIC        IE
  D:00B8H         PUBLIC        IP
  X:3341H         PUBLIC        UdpData
 C2:CDF3H         PUBLIC        udp_process
  D:0098H         PUBLIC        SCON
  D:0088H         PUBLIC        TCON
 C2:A24AH         PUBLIC        _udp_send
 C2:CF3FH         PUBLIC        _udp_init
  D:00D8H         PUBLIC        WDTCON
  D:00C8H         PUBLIC        T2CON
 C2:D065H         PUBLIC        _udp_set_buf
  D:00D0H         PUBLIC        PSW

  -------         PROC BANK=2   _UDP_INIT
  D:0001H         SYMBOL        p_DataPkt
  X:35C8H         SYMBOL        p_uip_len
  X:35CBH         SYMBOL        hostaddr
BL51 BANKED LINKER/LOCATER V6.00                                                      11/05/2015  16:28:40  PAGE 183


 C2:CF3FH         LINE#         76
 C2:CF3FH         LINE#         77
 C2:CF3FH         LINE#         78
 C2:CF46H         LINE#         79
 C2:CF4FH         LINE#         80
 C2:CF64H         LINE#         81
 C2:CF7CH         LINE#         82
 C2:CF8CH         LINE#         83
  -------         ENDPROC       _UDP_INIT

  -------         PROC BANK=2   _UDP_SET_BUF
  X:37E7H         SYMBOL        p_DataPkt
 C2:D065H         LINE#         85
 C2:D070H         LINE#         86
 C2:D070H         LINE#         87
 C2:D085H         LINE#         88
 C2:D09AH         LINE#         89
 C2:D0A5H         LINE#         90
  -------         ENDPROC       _UDP_SET_BUF

  -------         PROC BANK=2   UDP_PROCESS
 C2:CDF3H         LINE#         102
 C2:CDF3H         LINE#         103
 C2:CDF3H         LINE#         104
 C2:CE08H         LINE#         105
 C2:CE08H         LINE#         126
 C2:CE24H         LINE#         127
 C2:CE35H         LINE#         128
 C2:CE38H         LINE#         129
 C2:CE38H         LINE#         131
 C2:CE38H         LINE#         132
 C2:CE49H         LINE#         133
 C2:CE49H         LINE#         134
  -------         ENDPROC       UDP_PROCESS

  -------         PROC BANK=2   _UDP_SEND
  X:381EH         SYMBOL        length
 C2:A24AH         LINE#         150
 C2:A252H         LINE#         151
 C2:A252H         LINE#         152
 C2:A255H         LINE#         153
 C2:A255H         LINE#         154
 C2:A266H         LINE#         156
 C2:A266H         LINE#         158
 C2:A269H         LINE#         163
 C2:A287H         LINE#         164
 C2:A2A3H         LINE#         165
 C2:A2B3H         LINE#         166
 C2:A2C3H         LINE#         167
 C2:A2D3H         LINE#         169
 C2:A2D8H         LINE#         170
 C2:A2EAH         LINE#         171
 C2:A2F8H         LINE#         172
 C2:A300H         LINE#         173
 C2:A30EH         LINE#         174
 C2:A328H         LINE#         175
 C2:A32FH         LINE#         176
BL51 BANKED LINKER/LOCATER V6.00                                                      11/05/2015  16:28:40  PAGE 184


 C2:A337H         LINE#         177
 C2:A347H         LINE#         178
 C2:A357H         LINE#         180
 C2:A35AH         LINE#         185
 C2:A37FH         LINE#         186
 C2:A386H         LINE#         188
 C2:A38FH         LINE#         195
 C2:A39EH         LINE#         196
 C2:A3BBH         LINE#         199
 C2:A3E5H         LINE#         201
 C2:A3EEH         LINE#         210
 C2:A3FDH         LINE#         211
 C2:A3FDH         LINE#         212
 C2:A41AH         LINE#         213
 C2:A424H         LINE#         214
 C2:A439H         LINE#         215
 C2:A439H         LINE#         219
  -------         ENDPROC       _UDP_SEND
  -------         ENDMOD        UDP

  -------         MODULE        DHCPC
  C:0000H         SYMBOL        _ICE_DUMMY_
  D:0080H         PUBLIC        P0
  D:0090H         PUBLIC        P1
  D:00A0H         PUBLIC        P2
  D:00B0H         PUBLIC        P3
  D:00E8H         PUBLIC        P4
 C2:CA08H         PUBLIC        DHCPCApplyIP
 C2:D3E7H         PUBLIC        DHCPCReceiveNAck
  D:00A8H         PUBLIC        IE
 C2:C38DH         PUBLIC        DHCPC_UDP_RECEIVE
  D:00B8H         PUBLIC        IP
  X:3222H         PUBLIC        dhcp_flag
 C2:D214H         PUBLIC        DHCPCReceiveOffer
  D:0098H         PUBLIC        SCON
  D:0088H         PUBLIC        TCON
 C2:BEE9H         PUBLIC        DHCPCSendDiscover
 C2:CBBEH         PUBLIC        DHCPCReceiveAck
 C2:B093H         PUBLIC        _DHCPCSendRequest
  C:001EH         SYMBOL        _?ix1000
  C:0038H         SYMBOL        _?ix1001
 C2:B1E4H         PUBLIC        DHCPCCltPktInit
  D:00D8H         PUBLIC        WDTCON
 C2:AE01H         PUBLIC        DHCPCCheckInfo
 C2:BE38H         PUBLIC        _DHCPCFoundTag
  D:00C8H         PUBLIC        T2CON
 C2:BB2FH         PUBLIC        DHCPCTimer
  X:3223H         PUBLIC        DHCPCInfo
  D:00D0H         PUBLIC        PSW
 C2:D18CH         PUBLIC        DHCPCInit
  X:324AH         PUBLIC        DHCP_get_ip

  -------         PROC BANK=2   DHCPCINIT
 C2:D18CH         LINE#         38
 C2:D18CH         LINE#         39
 C2:D18CH         LINE#         40
 C2:D195H         LINE#         41
BL51 BANKED LINKER/LOCATER V6.00                                                      11/05/2015  16:28:40  PAGE 185


 C2:D198H         LINE#         43
 C2:D19BH         LINE#         45
 C2:D1A5H         LINE#         46
 C2:D1AFH         LINE#         47
 C2:D1B9H         LINE#         48
  -------         ENDPROC       DHCPCINIT

  -------         PROC BANK=2   DHCPCAPPLYIP
 C2:CA08H         LINE#         61
 C2:CA08H         LINE#         62
 C2:CA08H         LINE#         63
 C2:CA1CH         LINE#         64
 C2:CA30H         LINE#         65
 C2:CA44H         LINE#         66
 C2:CA58H         LINE#         67
 C2:CA67H         LINE#         68
 C2:CA76H         LINE#         70
  -------         ENDPROC       DHCPCAPPLYIP

  -------         PROC BANK=2   _DHCPCFOUNDTAG
  X:378CH         SYMBOL        tag
  -------         DO            
  X:378DH         SYMBOL        Options
  D:0006H         SYMBOL        i
  -------         ENDDO         
 C2:BE38H         LINE#         88
 C2:BE3DH         LINE#         89
 C2:BE3DH         LINE#         90
 C2:BE5FH         LINE#         93
 C2:BE62H         LINE#         99
 C2:BE80H         LINE#         101
 C2:BE99H         LINE#         102
 C2:BE99H         LINE#         103
 C2:BEB1H         LINE#         104
 C2:BEC6H         LINE#         105
 C2:BEE0H         LINE#         106
 C2:BEE2H         LINE#         107
 C2:BEE8H         LINE#         109
  -------         ENDPROC       _DHCPCFOUNDTAG
  -------         PROC          L?0052
  -------         ENDPROC       L?0052

  -------         PROC BANK=2   DHCPCCLTPKTINIT
  -------         DO            
  X:37EAH         SYMBOL        DHCPPkt
  -------         ENDDO         
 C2:B1E4H         LINE#         122
 C2:B1E4H         LINE#         123
 C2:B1E4H         LINE#         124
 C2:B1FFH         LINE#         125
 C2:B20FH         LINE#         126
 C2:B222H         LINE#         127
 C2:B22AH         LINE#         128
 C2:B231H         LINE#         129
 C2:B23BH         LINE#         130
 C2:B245H         LINE#         131
 C2:B24EH         LINE#         132
BL51 BANKED LINKER/LOCATER V6.00                                                      11/05/2015  16:28:40  PAGE 186


 C2:B258H         LINE#         133
 C2:B262H         LINE#         134
 C2:B26CH         LINE#         135
 C2:B276H         LINE#         136
 C2:B280H         LINE#         137
 C2:B28AH         LINE#         138
 C2:B294H         LINE#         139
 C2:B29EH         LINE#         140
 C2:B2BFH         LINE#         141
 C2:B2D8H         LINE#         142
 C2:B2F1H         LINE#         144
 C2:B306H         LINE#         145
 C2:B30FH         LINE#         146
  -------         ENDPROC       DHCPCCLTPKTINIT

  -------         PROC BANK=2   DHCPCSENDDISCOVER
  -------         DO            
  X:32BBH         SYMBOL        DHCPPkt
  X:32BEH         SYMBOL        DiscoverTemplate
  -------         ENDDO         
 C2:BEE9H         LINE#         160
 C2:BEE9H         LINE#         161
 C2:BEE9H         LINE#         162
 C2:BF04H         LINE#         163
 C2:BF0EH         LINE#         170
 C2:BF11H         LINE#         171
 C2:BF27H         LINE#         172
 C2:BF54H         LINE#         173
 C2:BF62H         LINE#         177
 C2:BF69H         LINE#         178
 C2:BF6DH         LINE#         179
 C2:BF75H         LINE#         180
 C2:BF79H         LINE#         181
 C2:BF82H         LINE#         182
 C2:BF89H         LINE#         183
  -------         ENDPROC       DHCPCSENDDISCOVER

  -------         PROC BANK=2   _DHCPCSENDREQUEST
  X:32D8H         SYMBOL        reply_offer
  -------         DO            
  X:32D9H         SYMBOL        DHCPPkt
  X:32DCH         SYMBOL        len
  X:32DEH         SYMBOL        RequestTemplate
  -------         ENDDO         
 C2:B093H         LINE#         197
 C2:B098H         LINE#         198
 C2:B098H         LINE#         199
 C2:B0B3H         LINE#         201
 C2:B0BDH         LINE#         208
 C2:B0C0H         LINE#         209
 C2:B0C9H         LINE#         210
 C2:B0D2H         LINE#         211
 C2:B0D2H         LINE#         212
 C2:B0EEH         LINE#         213
 C2:B0F4H         LINE#         214
 C2:B102H         LINE#         215
 C2:B104H         LINE#         217
BL51 BANKED LINKER/LOCATER V6.00                                                      11/05/2015  16:28:40  PAGE 187


 C2:B104H         LINE#         218
 C2:B115H         LINE#         219
 C2:B129H         LINE#         220
 C2:B129H         LINE#         222
 C2:B156H         LINE#         223
 C2:B16AH         LINE#         227
 C2:B170H         LINE#         228
 C2:B170H         LINE#         229
 C2:B177H         LINE#         230
 C2:B17BH         LINE#         231
 C2:B183H         LINE#         232
 C2:B187H         LINE#         233
 C2:B189H         LINE#         235
 C2:B189H         LINE#         236
 C2:B19DH         LINE#         237
 C2:B1B1H         LINE#         238
 C2:B1B1H         LINE#         239
 C2:B1BAH         LINE#         240
 C2:B1C1H         LINE#         241
 C2:B1D2H         LINE#         243
 C2:B1D8H         LINE#         245
  -------         ENDPROC       _DHCPCSENDREQUEST

  -------         PROC BANK=2   DHCPCCHECKINFO
  -------         DO            
  X:370DH         SYMBOL        Tag
  X:3710H         SYMBOL        pValue32
  -------         ENDDO         
 C2:AE01H         LINE#         263
 C2:AE01H         LINE#         264
 C2:AE01H         LINE#         267
 C2:AE11H         LINE#         268
 C2:AE16H         LINE#         269
 C2:AE16H         LINE#         270
 C2:AE2FH         LINE#         271
 C2:AE38H         LINE#         272
 C2:AE38H         LINE#         273
 C2:AE48H         LINE#         274
 C2:AE4DH         LINE#         275
 C2:AE4DH         LINE#         276
 C2:AE66H         LINE#         277
 C2:AE6FH         LINE#         278
 C2:AE6FH         LINE#         279
 C2:AE7FH         LINE#         280
 C2:AE84H         LINE#         281
 C2:AE84H         LINE#         282
 C2:AE9DH         LINE#         283
 C2:AEA6H         LINE#         284
 C2:AEA6H         LINE#         285
 C2:AEB6H         LINE#         286
 C2:AEBBH         LINE#         287
 C2:AEBBH         LINE#         288
 C2:AED4H         LINE#         289
 C2:AF11H         LINE#         290
 C2:AF11H         LINE#         291
 C2:AF21H         LINE#         292
 C2:AF26H         LINE#         293
BL51 BANKED LINKER/LOCATER V6.00                                                      11/05/2015  16:28:40  PAGE 188


 C2:AF3FH         LINE#         294
 C2:AF48H         LINE#         295
 C2:AF48H         LINE#         297
  -------         ENDPROC       DHCPCCHECKINFO

  -------         PROC BANK=2   DHCPCRECEIVEOFFER
  -------         DO            
  D:0001H         SYMBOL        DHCPPkt
  -------         ENDDO         
 C2:D214H         LINE#         314
 C2:D214H         LINE#         315
 C2:D214H         LINE#         316
 C2:D224H         LINE#         318
 C2:D230H         LINE#         320
 C2:D23CH         LINE#         321
  -------         ENDPROC       DHCPCRECEIVEOFFER

  -------         PROC BANK=2   DHCPCRECEIVEACK
 C2:CBBEH         LINE#         336
 C2:CBBEH         LINE#         337
 C2:CBBEH         LINE#         346
 C2:CBC1H         LINE#         347
 C2:CBC7H         LINE#         348
 C2:CBCAH         LINE#         349
 C2:CBD0H         LINE#         350
 C2:CBD0H         LINE#         352
 C2:CBE8H         LINE#         354
 C2:CC04H         LINE#         355
 C2:CC12H         LINE#         356
 C2:CC18H         LINE#         357
 C2:CC21H         LINE#         358
 C2:CC21H         LINE#         359
  -------         ENDPROC       DHCPCRECEIVEACK

  -------         PROC BANK=2   DHCPCRECEIVENACK
 C2:D3E7H         LINE#         372
 C2:D3E7H         LINE#         373
 C2:D3E7H         LINE#         374
 C2:D3EDH         LINE#         375
  -------         ENDPROC       DHCPCRECEIVENACK

  -------         PROC BANK=2   DHCPCTIMER
 C2:BB2FH         LINE#         389
 C2:BB2FH         LINE#         390
 C2:BB2FH         LINE#         392
 C2:BB44H         LINE#         393
 C2:BB4EH         LINE#         395
 C2:BB62H         LINE#         396
 C2:BB62H         LINE#         397
 C2:BB62H         LINE#         398
 C2:BB65H         LINE#         399
 C2:BB65H         LINE#         400
 C2:BB65H         LINE#         401
 C2:BB84H         LINE#         402
 C2:BB8AH         LINE#         403
 C2:BB8AH         LINE#         404
 C2:BBB9H         LINE#         405
BL51 BANKED LINKER/LOCATER V6.00                                                      11/05/2015  16:28:40  PAGE 189


 C2:BBBEH         LINE#         406
 C2:BBBEH         LINE#         407
 C2:BBD8H         LINE#         408
 C2:BBDEH         LINE#         409
 C2:BBDFH         LINE#         410
 C2:BBDFH         LINE#         411
 C2:BBEDH         LINE#         412
 C2:BBEDH         LINE#         413
 C2:BBF1H         LINE#         414
 C2:BBF7H         LINE#         415
 C2:BBF7H         LINE#         416
 C2:BBF7H         LINE#         417
 C2:BBF7H         LINE#         418
  -------         ENDPROC       DHCPCTIMER

  -------         PROC BANK=2   DHCPC_UDP_RECEIVE
  -------         DO            
  X:37EDH         SYMBOL        DHCPPkt
  D:0001H         SYMBOL        Tag
  -------         ENDDO         
 C2:C38DH         LINE#         431
 C2:C38DH         LINE#         432
 C2:C38DH         LINE#         433
 C2:C3A8H         LINE#         435
 C2:C3DBH         LINE#         436
 C2:C3E0H         LINE#         437
 C2:C3E4H         LINE#         438
 C2:C3F5H         LINE#         439
 C2:C3F5H         LINE#         440
 C2:C3F5H         LINE#         441
 C2:C3FDH         LINE#         442
 C2:C400H         LINE#         443
 C2:C405H         LINE#         444
 C2:C405H         LINE#         445
 C2:C405H         LINE#         446
 C2:C40CH         LINE#         447
 C2:C40FH         LINE#         448
 C2:C412H         LINE#         449
 C2:C417H         LINE#         450
 C2:C421H         LINE#         451
 C2:C422H         LINE#         452
 C2:C422H         LINE#         453
 C2:C429H         LINE#         454
 C2:C42CH         LINE#         455
 C2:C42CH         LINE#         456
 C2:C42CH         LINE#         458
  -------         ENDPROC       DHCPC_UDP_RECEIVE
  -------         ENDMOD        DHCPC

  -------         MODULE        GPIO
  C:0000H         SYMBOL        _ICE_DUMMY_
  -------         ENDMOD        GPIO

  -------         MODULE        DNS
  C:0000H         SYMBOL        _ICE_DUMMY_
  D:0080H         PUBLIC        P0
  D:0090H         PUBLIC        P1
BL51 BANKED LINKER/LOCATER V6.00                                                      11/05/2015  16:28:40  PAGE 190


  D:00A0H         PUBLIC        P2
  D:00B0H         PUBLIC        P3
  D:00E8H         PUBLIC        P4
  D:00A8H         PUBLIC        IE
 C2:B310H         PUBLIC        DNS_UDP_RECEIVE
  D:00B8H         PUBLIC        IP
 C2:C830H         PUBLIC        _DNS_Result
  D:0098H         PUBLIC        SCON
  D:0088H         PUBLIC        TCON
 C2:8503H         PUBLIC        _DNS_Query
  C:3E4CH         SYMBOL        _?ix1000
  C:3E58H         SYMBOL        _?ix1001
  D:00D8H         PUBLIC        WDTCON
  D:00C8H         PUBLIC        T2CON
  X:35CEH         PUBLIC        DNSInfo
  D:00D0H         PUBLIC        PSW

  -------         PROC BANK=2   _DNS_QUERY
  X:3297H         SYMBOL        name
  X:329AH         SYMBOL        TimeOut
  -------         DO            
  X:329CH         SYMBOL        pData
  X:329FH         SYMBOL        i
  X:32A0H         SYMBOL        j
  X:32A1H         SYMBOL        IsIPAddrStr
  X:32A2H         SYMBOL        cnt
  X:32A3H         SYMBOL        pLastLen
  X:32A6H         SYMBOL        Len
  X:32A7H         SYMBOL        buf
  X:32ABH         SYMBOL        DNS_QUERY_TEMP
  X:32B7H         SYMBOL        DNS_QUERY_TEMP2
  -------         ENDDO         
 C2:8503H         LINE#         43
 C2:8514H         LINE#         44
 C2:8514H         LINE#         45
 C2:852FH         LINE#         46
 C2:8535H         LINE#         49
 C2:8547H         LINE#         57
 C2:855AH         LINE#         62
 C2:857CH         LINE#         63
 C2:857CH         LINE#         64
 C2:85A3H         LINE#         65
 C2:85A3H         LINE#         66
 C2:85ADH         LINE#         67
 C2:85ADH         LINE#         68
 C2:85B5H         LINE#         70
 C2:85B8H         LINE#         75
 C2:85CDH         LINE#         76
 C2:85D5H         LINE#         77
 C2:85E4H         LINE#         79
 C2:85EDH         LINE#         80
 C2:85EDH         LINE#         81
 C2:85F3H         LINE#         82
 C2:85F8H         LINE#         83
 C2:85F8H         LINE#         84
 C2:85FDH         LINE#         85
 C2:85FDH         LINE#         86
BL51 BANKED LINKER/LOCATER V6.00                                                      11/05/2015  16:28:40  PAGE 191


 C2:861CH         LINE#         87
 C2:861CH         LINE#         88
 C2:863BH         LINE#         89
 C2:863BH         LINE#         90
 C2:864AH         LINE#         91
 C2:864CH         LINE#         92
 C2:864CH         LINE#         94
 C2:864CH         LINE#         95
 C2:8677H         LINE#         96
 C2:8677H         LINE#         97
 C2:867FH         LINE#         98
 C2:869BH         LINE#         99
 C2:86AAH         LINE#         101
 C2:86ADH         LINE#         106
 C2:86ADH         LINE#         108
 C2:86ADH         LINE#         109
 C2:86C9H         LINE#         110
 C2:86D3H         LINE#         112
 C2:86EDH         LINE#         113
 C2:86F0H         LINE#         114
 C2:871BH         LINE#         115
 C2:871BH         LINE#         116
 C2:873AH         LINE#         117
 C2:873AH         LINE#         118
 C2:874EH         LINE#         119
 C2:8763H         LINE#         120
 C2:8766H         LINE#         121
 C2:8768H         LINE#         123
 C2:8768H         LINE#         124
 C2:876EH         LINE#         125
 C2:8795H         LINE#         126
 C2:8795H         LINE#         127
 C2:879FH         LINE#         128
 C2:87A8H         LINE#         129
 C2:87BAH         LINE#         130
 C2:87D6H         LINE#         132
 C2:87D9H         LINE#         138
 C2:87E8H         LINE#         139
 C2:87F7H         LINE#         140
 C2:8806H         LINE#         141
 C2:8815H         LINE#         142
 C2:881EH         LINE#         143
 C2:8826H         LINE#         144
 C2:883EH         LINE#         145
 C2:883EH         LINE#         146
  -------         ENDPROC       _DNS_QUERY

  -------         PROC BANK=2   DNS_UDP_RECEIVE
  -------         DO            
  X:3524H         SYMBOL        i
  X:3526H         SYMBOL        pDNSPacket
  X:3529H         SYMBOL        pAnswers
  X:352CH         SYMBOL        pAnswerFormat
  -------         ENDDO         
 C2:B310H         LINE#         159
 C2:B310H         LINE#         160
 C2:B310H         LINE#         162
BL51 BANKED LINKER/LOCATER V6.00                                                      11/05/2015  16:28:40  PAGE 192


 C2:B32BH         LINE#         163
 C2:B33AH         LINE#         165
 C2:B352H         LINE#         167
 C2:B379H         LINE#         168
 C2:B379H         LINE#         170
 C2:B37CH         LINE#         175
 C2:B398H         LINE#         176
 C2:B3A2H         LINE#         177
 C2:B3B2H         LINE#         178
 C2:B3D9H         LINE#         179
 C2:B3D9H         LINE#         181
 C2:B3DCH         LINE#         186
 C2:B3F0H         LINE#         187
 C2:B3FCH         LINE#         188
 C2:B3FCH         LINE#         189
 C2:B413H         LINE#         190
 C2:B413H         LINE#         191
 C2:B432H         LINE#         192
 C2:B443H         LINE#         193
  -------         ENDPROC       DNS_UDP_RECEIVE

  -------         PROC BANK=2   _DNS_RESULT
  D:0001H         SYMBOL        Name
  -------         DO            
  X:3790H         SYMBOL        result
  -------         ENDDO         
 C2:C830H         LINE#         206
 C2:C830H         LINE#         207
 C2:C830H         LINE#         208
 C2:C83AH         LINE#         209
 C2:C85EH         LINE#         210
 C2:C85EH         LINE#         211
 C2:C872H         LINE#         212
 C2:C87CH         LINE#         213
 C2:C87CH         LINE#         214
 C2:C89BH         LINE#         215
 C2:C8A9H         LINE#         216
  -------         ENDPROC       _DNS_RESULT
  -------         ENDMOD        DNS

  -------         MODULE        WDG
  C:0000H         SYMBOL        _ICE_DUMMY_
  D:0090H         PUBLIC        P1
  D:00B0H         PUBLIC        P3
  B:00D8H.1       PUBLIC        WDTEN
  X:3820H         PUBLIC        wdtwcyc
  D:00A8H         PUBLIC        IE
  X:3821H         PUBLIC        wdt_Setting
  D:00B8H         PUBLIC        IP
 C2:D3EEH         PUBLIC        WatchDogTimerReset
  D:00EFH         PUBLIC        WDTWCYC
 C2:D3F5H         PUBLIC        WatchDogTimerInit
  D:0098H         PUBLIC        SCON
  D:0088H         PUBLIC        TCON
  D:00D8H         PUBLIC        WDTCON
  B:00D8H.2       PUBLIC        WDTCLR
 C2:D402H         PUBLIC        WatchDogTimerDisable
BL51 BANKED LINKER/LOCATER V6.00                                                      11/05/2015  16:28:40  PAGE 193


 C2:D3C6H         PUBLIC        WatchDogTimerEnable
  D:00C8H         PUBLIC        T2CON
  B:00D8H.0       PUBLIC        WDTRST
  D:008EH         PUBLIC        CKCON
  D:00D0H         PUBLIC        PSW

  -------         PROC BANK=2   WATCHDOGTIMERENABLE
 C2:D3C6H         LINE#         18
 C2:D3C6H         LINE#         19
 C2:D3C6H         LINE#         20
 C2:D3CDH         LINE#         21
 C2:D3CDH         LINE#         22
 C2:D3CFH         LINE#         23
 C2:D3D0H         LINE#         25
 C2:D3D0H         LINE#         26
 C2:D3D2H         LINE#         27
 C2:D3D2H         LINE#         28
  -------         ENDPROC       WATCHDOGTIMERENABLE

  -------         PROC BANK=2   WATCHDOGTIMERDISABLE
 C2:D402H         LINE#         41
 C2:D402H         LINE#         42
 C2:D402H         LINE#         43
 C2:D404H         LINE#         44
  -------         ENDPROC       WATCHDOGTIMERDISABLE

  -------         PROC BANK=2   WATCHDOGTIMERRESET
 C2:D3EEH         LINE#         56
 C2:D3EEH         LINE#         57
 C2:D3EEH         LINE#         58
 C2:D3F0H         LINE#         59
 C2:D3F4H         LINE#         60
  -------         ENDPROC       WATCHDOGTIMERRESET

  -------         PROC BANK=2   WATCHDOGTIMERINIT
 C2:D3F5H         LINE#         72
 C2:D3F5H         LINE#         73
 C2:D3F5H         LINE#         75
 C2:D3F8H         LINE#         77
 C2:D3FBH         LINE#         78
  -------         ENDPROC       WATCHDOGTIMERINIT
  -------         ENDMOD        WDG

  -------         MODULE        NETUART_CTRL
  C:0000H         SYMBOL        _ICE_DUMMY_
  D:0080H         PUBLIC        P0
  D:0090H         PUBLIC        P1
  D:00A0H         PUBLIC        P2
  D:00B0H         PUBLIC        P3
  D:00E8H         PUBLIC        P4
 C2:D1E8H         PUBLIC        _nuc_chk_pw
  D:00A8H         PUBLIC        IE
  D:00B8H         PUBLIC        IP
  X:3757H         PUBLIC        netuart_ctrl
 C2:D15BH         PUBLIC        nuc_on_loop
 C2:A43AH         PUBLIC        _nuc_send
  D:0098H         PUBLIC        SCON
BL51 BANKED LINKER/LOCATER V6.00                                                      11/05/2015  16:28:40  PAGE 194


  D:0088H         PUBLIC        TCON
 C2:9B8BH         PUBLIC        nuc_process_cmd
  C:3E93H         SYMBOL        _?ix1000
  C:3E98H         SYMBOL        _?ix1001
  D:00D8H         PUBLIC        WDTCON
 C2:D362H         PUBLIC        nuc_init
  D:00C8H         PUBLIC        T2CON
 C2:D2D4H         PUBLIC        check_signal_change_op
 C2:C047H         PUBLIC        nuc_on_tcp_rx
  D:00D0H         PUBLIC        PSW

  -------         PROC BANK=2   NUC_INIT
 C2:D362H         LINE#         20
 C2:D362H         LINE#         21
 C2:D362H         LINE#         22
  -------         ENDPROC       NUC_INIT

  -------         PROC BANK=2   _NUC_CHK_PW
  X:37F0H         SYMBOL        pw
 C2:D1E8H         LINE#         25
 C2:D1F3H         LINE#         26
 C2:D1F3H         LINE#         27
 C2:D211H         LINE#         28
 C2:D213H         LINE#         29
  -------         ENDPROC       _NUC_CHK_PW

  -------         PROC BANK=2   _NUC_SEND
  X:341DH         SYMBOL        op
  -------         DO            
  D:0007H         SYMBOL        tmp
  X:341EH         SYMBOL        parity_value
  X:3423H         SYMBOL        conf
  X:3426H         SYMBOL        signal
  X:3429H         SYMBOL        result
  -------         ENDDO         
 C2:A43AH         LINE#         31
 C2:A43FH         LINE#         32
 C2:A43FH         LINE#         34
 C2:A452H         LINE#         35
 C2:A467H         LINE#         36
 C2:A47AH         LINE#         37
 C2:A48EH         LINE#         38
 C2:A495H         LINE#         39
 C2:A49CH         LINE#         40
 C2:A4C4H         LINE#         41
 C2:A4C4H         LINE#         42
 C2:A4C4H         LINE#         43
 C2:A4C4H         LINE#         44
 C2:A4C4H         LINE#         45
 C2:A4C7H         LINE#         46
 C2:A4C7H         LINE#         47
 C2:A4F1H         LINE#         48
 C2:A51DH         LINE#         49
 C2:A51FH         LINE#         50
 C2:A51FH         LINE#         51
 C2:A545H         LINE#         52
 C2:A545H         LINE#         53
BL51 BANKED LINKER/LOCATER V6.00                                                      11/05/2015  16:28:40  PAGE 195


 C2:A557H         LINE#         54
 C2:A557H         LINE#         55
 C2:A55CH         LINE#         56
 C2:A58CH         LINE#         57
 C2:A5BEH         LINE#         58
 C2:A5C7H         LINE#         59
 C2:A5C9H         LINE#         60
 C2:A5C9H         LINE#         61
 C2:A5C9H         LINE#         62
 C2:A5C9H         LINE#         63
 C2:A5CBH         LINE#         64
 C2:A5CBH         LINE#         65
 C2:A5E2H         LINE#         66
 C2:A5EBH         LINE#         67
 C2:A5EDH         LINE#         68
 C2:A604H         LINE#         70
 C2:A60DH         LINE#         71
 C2:A60FH         LINE#         72
 C2:A60FH         LINE#         73
 C2:A617H         LINE#         74
 C2:A617H         LINE#         75
 C2:A617H         LINE#         76
 C2:A626H         LINE#         88
  -------         ENDPROC       _NUC_SEND

  -------         PROC BANK=2   NUC_PROCESS_CMD
  -------         DO            
  X:33E0H         SYMBOL        is_my_cmd
  X:33E1H         SYMBOL        conf
  X:33E4H         SYMBOL        signal
  X:33E7H         SYMBOL        result
  X:33EAH         SYMBOL        parity_value
  X:33EFH         SYMBOL        tmp
  -------         ENDDO         
 C2:9B8BH         LINE#         90
 C2:9B8BH         LINE#         91
 C2:9B8BH         LINE#         92
 C2:9B91H         LINE#         93
 C2:9BA6H         LINE#         94
 C2:9BB9H         LINE#         95
 C2:9BCCH         LINE#         97
 C2:9BDFH         LINE#         109
 C2:9C10H         LINE#         110
 C2:9C10H         LINE#         111
 C2:9C10H         LINE#         113
 C2:9C16H         LINE#         116
 C2:9C40H         LINE#         117
 C2:9C6BH         LINE#         119
 C2:9C8CH         LINE#         120
 C2:9CA3H         LINE#         122
 C2:9CCCH         LINE#         123
 C2:9CEBH         LINE#         125
 C2:9CFDH         LINE#         126
 C2:9D17H         LINE#         127
 C2:9D1CH         LINE#         129
 C2:9D3BH         LINE#         130
 C2:9D55H         LINE#         131
BL51 BANKED LINKER/LOCATER V6.00                                                      11/05/2015  16:28:40  PAGE 196


 C2:9D5AH         LINE#         133
 C2:9D5DH         LINE#         134
 C2:9D62H         LINE#         136
 C2:9D74H         LINE#         137
 C2:9D76H         LINE#         138
 C2:9D78H         LINE#         139
 C2:9D78H         LINE#         141
 C2:9D7AH         LINE#         142
 C2:9D7CH         LINE#         143
 C2:9D7CH         LINE#         145
 C2:9D7EH         LINE#         146
 C2:9D80H         LINE#         147
 C2:9D80H         LINE#         149
 C2:9D86H         LINE#         152
 C2:9D90H         LINE#         153
 C2:9DBEH         LINE#         156
 C2:9DC2H         LINE#         157
 C2:9DC7H         LINE#         159
 C2:9DC9H         LINE#         160
 C2:9DCBH         LINE#         161
 C2:9DCBH         LINE#         169
 C2:9DD0H         LINE#         170
 C2:9DD2H         LINE#         171
 C2:9DD2H         LINE#         172
 C2:9DD7H         LINE#         173
 C2:9DD7H         LINE#         174
 C2:9DD7H         LINE#         175
 C2:9DDCH         LINE#         176
  -------         ENDPROC       NUC_PROCESS_CMD

  -------         PROC BANK=2   CHECK_SIGNAL_CHANGE_OP
 C2:D2D4H         LINE#         178
 C2:D2D4H         LINE#         179
 C2:D2D4H         LINE#         180
 C2:D2DAH         LINE#         181
 C2:D2DAH         LINE#         182
 C2:D2E0H         LINE#         183
 C2:D2E5H         LINE#         184
 C2:D2E5H         LINE#         185
 C2:D2ECH         LINE#         186
 C2:D2ECH         LINE#         187
 C2:D2F1H         LINE#         188
 C2:D2F1H         LINE#         189
  -------         ENDPROC       CHECK_SIGNAL_CHANGE_OP

  -------         PROC BANK=2   NUC_ON_TCP_RX
  -------         DO            
  X:3836H         SYMBOL        is_my_cmd
  -------         ENDDO         
 C2:C047H         LINE#         191
 C2:C047H         LINE#         192
 C2:C047H         LINE#         194
 C2:C061H         LINE#         195
 C2:C061H         LINE#         196
 C2:C08EH         LINE#         197
 C2:C08EH         LINE#         198
 C2:C091H         LINE#         199
BL51 BANKED LINKER/LOCATER V6.00                                                      11/05/2015  16:28:40  PAGE 197


 C2:C091H         LINE#         200
 C2:C091H         LINE#         202
 C2:C094H         LINE#         203
 C2:C099H         LINE#         204
 C2:C099H         LINE#         207
 C2:C099H         LINE#         208
 C2:C0A0H         LINE#         209
 C2:C0A0H         LINE#         210
 C2:C0A6H         LINE#         211
 C2:C0A6H         LINE#         212
 C2:C0A8H         LINE#         213
 C2:C0A8H         LINE#         214
 C2:C0A8H         LINE#         215
 C2:C0AFH         LINE#         216
 C2:C0AFH         LINE#         217
 C2:C0B7H         LINE#         218
 C2:C0B7H         LINE#         219
 C2:C0C2H         LINE#         220
 C2:C0C2H         LINE#         221
 C2:C0C8H         LINE#         222
 C2:C0C8H         LINE#         223
 C2:C0CBH         LINE#         224
 C2:C0CBH         LINE#         225
 C2:C0CDH         LINE#         226
 C2:C0D2H         LINE#         227
 C2:C0D2H         LINE#         228
 C2:C0D9H         LINE#         229
 C2:C0D9H         LINE#         230
 C2:C0DCH         LINE#         231
 C2:C0DCH         LINE#         233
 C2:C0DCH         LINE#         234
 C2:C0E3H         LINE#         235
 C2:C0E3H         LINE#         236
 C2:C0E6H         LINE#         237
 C2:C0E6H         LINE#         238
 C2:C0EEH         LINE#         239
 C2:C0EEH         LINE#         240
 C2:C0F0H         LINE#         241
  -------         ENDPROC       NUC_ON_TCP_RX

  -------         PROC BANK=2   NUC_ON_LOOP
  -------         DO            
  D:0007H         SYMBOL        msr
  D:0006H         SYMBOL        old
  -------         ENDDO         
 C2:D15BH         LINE#         243
 C2:D15BH         LINE#         244
 C2:D15BH         LINE#         245
 C2:D160H         LINE#         246
 C2:D165H         LINE#         247
 C2:D16AH         LINE#         249
 C2:D181H         LINE#         250
 C2:D185H         LINE#         251
 C2:D185H         LINE#         255
 C2:D18BH         LINE#         256
 C2:D18BH         LINE#         257
  -------         ENDPROC       NUC_ON_LOOP
BL51 BANKED LINKER/LOCATER V6.00                                                      11/05/2015  16:28:40  PAGE 198


  -------         ENDMOD        NETUART_CTRL

  -------         MODULE        DIDO
  C:0000H         SYMBOL        _ICE_DUMMY_
  D:0080H         PUBLIC        P0
 C5:7DBCH         PUBLIC        _dido_read
  D:0090H         PUBLIC        P1
  D:00A0H         PUBLIC        P2
  D:00B0H         PUBLIC        P3
  D:00E8H         PUBLIC        P4
  X:335AH         PUBLIC        TCPDIDO
  D:00A8H         PUBLIC        IE
 C5:7ED5H         PUBLIC        _dido_write
  B:0090H.2       PUBLIC        P1_2
  B:0090H.3       PUBLIC        P1_3
  B:00B0H.2       PUBLIC        P3_2
  B:00B0H.3       PUBLIC        P3_3
  B:0090H.5       PUBLIC        P1_5
  B:0090H.6       PUBLIC        P1_6
  C:36CDH         PUBLIC        TD
  D:00B8H         PUBLIC        IP
 C5:81F7H         PUBLIC        DIDO_send
  D:0098H         PUBLIC        SCON
  D:0088H         PUBLIC        TCON
 C5:8075H         PUBLIC        dido_init
  X:3366H         PUBLIC        dido_buf
 C5:63A1H         PUBLIC        dido_tcp_rx_fun
  C:3755H         SYMBOL        _?ix1000
  C:375EH         SYMBOL        _?ix1001
  C:3764H         SYMBOL        _?ix1002
  C:3771H         SYMBOL        _?ix1003
  C:377EH         SYMBOL        _?ix1004
  C:3787H         SYMBOL        _?ix1005
  D:00D8H         PUBLIC        WDTCON
  X:3370H         PUBLIC        dido_wi
  D:00C8H         PUBLIC        T2CON
 C5:5A05H         PUBLIC        DIDO_data_config
  D:00D0H         PUBLIC        PSW

  -------         PROC BANK=5   DIDO_INIT
  -------         DO            
  X:3837H         SYMBOL        mask
  -------         ENDDO         
 C5:8075H         LINE#         29
 C5:8075H         LINE#         30
 C5:8075H         LINE#         32
 C5:807AH         LINE#         33
 C5:8085H         LINE#         34
 C5:809AH         LINE#         35
 C5:80ADH         LINE#         36
 C5:80B5H         LINE#         37
  -------         ENDPROC       DIDO_INIT

  -------         PROC BANK=5   _DIDO_READ
  D:0007H         SYMBOL        mask
  -------         DO            
  D:0006H         SYMBOL        value
BL51 BANKED LINKER/LOCATER V6.00                                                      11/05/2015  16:28:40  PAGE 199


  D:0005H         SYMBOL        demo
  -------         ENDDO         
 C5:7DBCH         LINE#         40
 C5:7DBCH         LINE#         41
 C5:7DBCH         LINE#         42
 C5:7DBCH         LINE#         44
 C5:7DC2H         LINE#         45
 C5:7DC7H         LINE#         46
 C5:7DCDH         LINE#         47
 C5:7DD1H         LINE#         48
 C5:7DD7H         LINE#         49
 C5:7DDDH         LINE#         50
 C5:7DE1H         LINE#         51
 C5:7DE9H         LINE#         52
 C5:7DEFH         LINE#         53
 C5:7DF3H         LINE#         54
 C5:7DFCH         LINE#         55
 C5:7E02H         LINE#         56
 C5:7E06H         LINE#         57
 C5:7E0DH         LINE#         58
 C5:7E13H         LINE#         59
 C5:7E17H         LINE#         60
 C5:7E1EH         LINE#         69
 C5:7E1FH         LINE#         70
  -------         ENDPROC       _DIDO_READ

  -------         PROC BANK=5   _DIDO_WRITE
  D:0007H         SYMBOL        value
  D:0005H         SYMBOL        mask
 C5:7ED5H         LINE#         71
 C5:7ED5H         LINE#         72
 C5:7ED5H         LINE#         73
 C5:7EE3H         LINE#         74
 C5:7EF1H         LINE#         75
 C5:7EFFH         LINE#         76
 C5:7F0DH         LINE#         77
 C5:7F1BH         LINE#         78
 C5:7F29H         LINE#         83
  -------         ENDPROC       _DIDO_WRITE

  -------         PROC BANK=5   DIDO_TCP_RX_FUN
  -------         DO            
  X:3456H         SYMBOL        i
  X:3457H         SYMBOL        j
  X:3458H         SYMBOL        find
  X:3459H         SYMBOL        error
  X:3462H         SYMBOL        len
  X:3463H         SYMBOL        error_flag
  -------         ENDDO         
 C5:63A1H         LINE#         87
 C5:63A1H         LINE#         88
 C5:63A1H         LINE#         89
 C5:63AAH         LINE#         90
 C5:63BCH         LINE#         91
 C5:63C3H         LINE#         93
 C5:63E5H         LINE#         94
 C5:63ECH         LINE#         95
BL51 BANKED LINKER/LOCATER V6.00                                                      11/05/2015  16:28:40  PAGE 200


 C5:63ECH         LINE#         97
 C5:63F2H         LINE#         99
 C5:63F5H         LINE#         100
 C5:6404H         LINE#         101
 C5:6404H         LINE#         102
 C5:640BH         LINE#         103
 C5:640BH         LINE#         104
 C5:6410H         LINE#         105
 C5:6410H         LINE#         106
 C5:641AH         LINE#         107
 C5:641AH         LINE#         108
 C5:6420H         LINE#         109
 C5:6445H         LINE#         110
 C5:6452H         LINE#         112
 C5:6461H         LINE#         113
 C5:6482H         LINE#         115
 C5:648BH         LINE#         116
 C5:648BH         LINE#         117
 C5:6496H         LINE#         121
 C5:64A5H         LINE#         122
 C5:64A5H         LINE#         123
 C5:64D1H         LINE#         124
 C5:64D1H         LINE#         125
 C5:64D9H         LINE#         126
 C5:64E8H         LINE#         127
 C5:64FBH         LINE#         128
 C5:64FDH         LINE#         129
 C5:64FDH         LINE#         130
 C5:6505H         LINE#         131
 C5:6513H         LINE#         132
 C5:6522H         LINE#         133
 C5:6538H         LINE#         134
 C5:6554H         LINE#         135
 C5:656EH         LINE#         136
 C5:6578H         LINE#         137
 C5:6578H         LINE#         138
 C5:6581H         LINE#         139
 C5:6599H         LINE#         140
 C5:659FH         LINE#         141
 C5:659FH         LINE#         142
 C5:65A6H         LINE#         143
 C5:65A6H         LINE#         144
 C5:65C2H         LINE#         145
 C5:65CBH         LINE#         146
 C5:65DAH         LINE#         147
 C5:65DDH         LINE#         148
 C5:65DDH         LINE#         150
 C5:65DDH         LINE#         151
 C5:65E0H         LINE#         152
 C5:65EFH         LINE#         153
 C5:65EFH         LINE#         154
 C5:65F1H         LINE#         156
 C5:65F8H         LINE#         157
 C5:65F8H         LINE#         158
 C5:65FFH         LINE#         159
 C5:65FFH         LINE#         160
 C5:6602H         LINE#         161
BL51 BANKED LINKER/LOCATER V6.00                                                      11/05/2015  16:28:40  PAGE 201


 C5:6611H         LINE#         162
 C5:6611H         LINE#         163
 C5:661CH         LINE#         164
 C5:661CH         LINE#         165
 C5:6621H         LINE#         166
 C5:6621H         LINE#         178
 C5:6623H         LINE#         179
  -------         ENDPROC       DIDO_TCP_RX_FUN

  -------         PROC BANK=5   DIDO_DATA_CONFIG
  -------         DO            
  X:319AH         SYMBOL        i
  X:319BH         SYMBOL        value
  X:319CH         SYMBOL        count
  X:319DH         SYMBOL        j
  X:319EH         SYMBOL        pin
  X:31A4H         SYMBOL        pin_n
  X:31B1H         SYMBOL        pin_de
  X:31BEH         SYMBOL        error
  X:31C7H         SYMBOL        end
  X:31C9H         SYMBOL        dido_value
  -------         ENDDO         
 C5:5A05H         LINE#         182
 C5:5A05H         LINE#         183
 C5:5A05H         LINE#         184
 C5:5A10H         LINE#         185
 C5:5A22H         LINE#         186
 C5:5A35H         LINE#         187
 C5:5A48H         LINE#         188
 C5:5A5BH         LINE#         189
 C5:5A6EH         LINE#         190
 C5:5A73H         LINE#         192
 C5:5A79H         LINE#         194
 C5:5AB3H         LINE#         195
 C5:5AB3H         LINE#         196
 C5:5AB3H         LINE#         197
 C5:5AC7H         LINE#         198
 C5:5AC7H         LINE#         199
 C5:5ACEH         LINE#         200
 C5:5AD8H         LINE#         201
 C5:5AF4H         LINE#         202
 C5:5B0FH         LINE#         203
 C5:5B0FH         LINE#         204
 C5:5B0FH         LINE#         205
 C5:5B18H         LINE#         206
 C5:5B20H         LINE#         207
 C5:5B22H         LINE#         208
 C5:5B22H         LINE#         209
 C5:5B2BH         LINE#         210
 C5:5B35H         LINE#         211
 C5:5B37H         LINE#         212
 C5:5B37H         LINE#         213
 C5:5B40H         LINE#         214
 C5:5B4CH         LINE#         215
 C5:5B4EH         LINE#         216
 C5:5B4EH         LINE#         217
 C5:5B57H         LINE#         218
BL51 BANKED LINKER/LOCATER V6.00                                                      11/05/2015  16:28:40  PAGE 202


 C5:5B64H         LINE#         219
 C5:5B66H         LINE#         220
 C5:5B66H         LINE#         221
 C5:5B6FH         LINE#         222
 C5:5B7AH         LINE#         223
 C5:5B7CH         LINE#         224
 C5:5B7CH         LINE#         225
 C5:5B85H         LINE#         226
 C5:5B95H         LINE#         227
 C5:5B95H         LINE#         238
 C5:5B95H         LINE#         239
 C5:5B9DH         LINE#         240
 C5:5B9DH         LINE#         241
 C5:5B9FH         LINE#         248
 C5:5B9FH         LINE#         249
 C5:5BB2H         LINE#         250
 C5:5BB2H         LINE#         251
 C5:5BB9H         LINE#         252
 C5:5BCEH         LINE#         253
 C5:5BCEH         LINE#         254
 C5:5BCEH         LINE#         255
 C5:5BD0H         LINE#         256
 C5:5BD2H         LINE#         257
 C5:5BD2H         LINE#         258
 C5:5BD4H         LINE#         259
 C5:5BD6H         LINE#         260
 C5:5BD6H         LINE#         261
 C5:5BD8H         LINE#         262
 C5:5BDAH         LINE#         263
 C5:5BDAH         LINE#         264
 C5:5BDCH         LINE#         265
 C5:5BDEH         LINE#         266
 C5:5BDEH         LINE#         267
 C5:5BE0H         LINE#         268
 C5:5BE2H         LINE#         269
 C5:5BE2H         LINE#         270
 C5:5BEAH         LINE#         271
 C5:5BEAH         LINE#         280
 C5:5BEAH         LINE#         281
 C5:5BF4H         LINE#         282
 C5:5C10H         LINE#         283
 C5:5C19H         LINE#         284
 C5:5C1CH         LINE#         286
 C5:5C1CH         LINE#         287
 C5:5C1CH         LINE#         288
 C5:5C1CH         LINE#         289
 C5:5C1CH         LINE#         290
 C5:5C1FH         LINE#         291
 C5:5C1FH         LINE#         292
 C5:5C31H         LINE#         293
 C5:5C31H         LINE#         294
 C5:5C41H         LINE#         295
 C5:5C41H         LINE#         296
 C5:5C46H         LINE#         297
 C5:5C58H         LINE#         298
 C5:5C74H         LINE#         299
 C5:5C74H         LINE#         300
BL51 BANKED LINKER/LOCATER V6.00                                                      11/05/2015  16:28:40  PAGE 203


 C5:5C74H         LINE#         301
 C5:5C7DH         LINE#         302
 C5:5C85H         LINE#         303
 C5:5C87H         LINE#         304
 C5:5C87H         LINE#         305
 C5:5C90H         LINE#         306
 C5:5C9AH         LINE#         307
 C5:5C9CH         LINE#         308
 C5:5C9CH         LINE#         309
 C5:5CA5H         LINE#         310
 C5:5CB1H         LINE#         311
 C5:5CB3H         LINE#         312
 C5:5CB3H         LINE#         313
 C5:5CBCH         LINE#         314
 C5:5CC9H         LINE#         315
 C5:5CCBH         LINE#         316
 C5:5CCBH         LINE#         317
 C5:5CD4H         LINE#         318
 C5:5CDFH         LINE#         319
 C5:5CE1H         LINE#         320
 C5:5CE1H         LINE#         321
 C5:5CEAH         LINE#         322
 C5:5CFAH         LINE#         323
 C5:5CFAH         LINE#         334
 C5:5CFAH         LINE#         335
 C5:5CFAH         LINE#         336
 C5:5D03H         LINE#         337
 C5:5D0AH         LINE#         338
 C5:5D0AH         LINE#         339
 C5:5D12H         LINE#         340
 C5:5D2EH         LINE#         341
 C5:5D3EH         LINE#         342
 C5:5D3EH         LINE#         343
 C5:5D41H         LINE#         345
 C5:5D41H         LINE#         346
 C5:5D5DH         LINE#         347
 C5:5D6DH         LINE#         348
 C5:5D6DH         LINE#         349
 C5:5D6DH         LINE#         350
 C5:5D70H         LINE#         351
 C5:5D70H         LINE#         352
 C5:5D79H         LINE#         353
 C5:5D79H         LINE#         354
 C5:5D7EH         LINE#         355
 C5:5D7EH         LINE#         356
 C5:5DA9H         LINE#         357
 C5:5DB4H         LINE#         358
 C5:5DD0H         LINE#         359
 C5:5DFAH         LINE#         360
 C5:5E08H         LINE#         361
 C5:5E10H         LINE#         362
 C5:5E26H         LINE#         363
 C5:5E2EH         LINE#         364
 C5:5E37H         LINE#         365
 C5:5E3FH         LINE#         366
 C5:5E48H         LINE#         367
 C5:5E50H         LINE#         368
BL51 BANKED LINKER/LOCATER V6.00                                                      11/05/2015  16:28:40  PAGE 204


 C5:5E59H         LINE#         369
 C5:5E61H         LINE#         370
 C5:5E6AH         LINE#         371
 C5:5E72H         LINE#         372
 C5:5E7BH         LINE#         379
 C5:5E84H         LINE#         380
 C5:5E87H         LINE#         382
 C5:5E87H         LINE#         383
 C5:5E8CH         LINE#         384
 C5:5E8CH         LINE#         385
 C5:5E97H         LINE#         386
 C5:5EBEH         LINE#         387
 C5:5EC8H         LINE#         388
 C5:5EC8H         LINE#         389
 C5:5EC8H         LINE#         390
 C5:5EC8H         LINE#         391
 C5:5EC8H         LINE#         392
 C5:5EC8H         LINE#         393
 C5:5EC8H         LINE#         394
 C5:5EC8H         LINE#         395
 C5:5EC8H         LINE#         396
 C5:5EC8H         LINE#         397
 C5:5EC8H         LINE#         398
 C5:5EC8H         LINE#         399
 C5:5EC8H         LINE#         406
 C5:5EC8H         LINE#         407
 C5:5EC8H         LINE#         408
 C5:5ECBH         LINE#         409
 C5:5ECBH         LINE#         410
 C5:5EDAH         LINE#         411
 C5:5EDAH         LINE#         412
 C5:5EE2H         LINE#         413
 C5:5EF3H         LINE#         414
 C5:5F1AH         LINE#         415
 C5:5F22H         LINE#         416
 C5:5F2BH         LINE#         417
 C5:5F2EH         LINE#         418
 C5:5F2EH         LINE#         419
 C5:5F42H         LINE#         420
 C5:5F5EH         LINE#         421
 C5:5F6EH         LINE#         422
 C5:5F6EH         LINE#         423
 C5:5F70H         LINE#         424
 C5:5F70H         LINE#         425
 C5:5F78H         LINE#         426
 C5:5F7CH         LINE#         427
 C5:5F86H         LINE#         428
 C5:5F86H         LINE#         429
 C5:5FA2H         LINE#         430
 C5:5FB2H         LINE#         431
 C5:5FB2H         LINE#         432
 C5:5FB4H         LINE#         434
 C5:5FB4H         LINE#         435
 C5:5FD0H         LINE#         436
 C5:5FE3H         LINE#         437
 C5:5FECH         LINE#         438
 C5:5FECH         LINE#         439
BL51 BANKED LINKER/LOCATER V6.00                                                      11/05/2015  16:28:40  PAGE 205


 C5:5FEFH         LINE#         440
 C5:5FEFH         LINE#         441
 C5:5FF4H         LINE#         442
 C5:5FF4H         LINE#         443
 C5:5FFFH         LINE#         444
 C5:6026H         LINE#         445
 C5:6030H         LINE#         446
 C5:6038H         LINE#         447
 C5:604EH         LINE#         448
 C5:6056H         LINE#         449
 C5:605FH         LINE#         450
 C5:6067H         LINE#         451
 C5:6070H         LINE#         452
 C5:6078H         LINE#         453
 C5:6081H         LINE#         454
 C5:6089H         LINE#         455
 C5:6092H         LINE#         456
 C5:609AH         LINE#         457
 C5:60A3H         LINE#         464
 C5:60ACH         LINE#         465
 C5:60AEH         LINE#         466
 C5:60AEH         LINE#         467
 C5:60CAH         LINE#         468
 C5:60D3H         LINE#         469
 C5:60D3H         LINE#         470
 C5:60D3H         LINE#         471
  -------         ENDPROC       DIDO_DATA_CONFIG

  -------         PROC BANK=5   DIDO_SEND
 C5:81F7H         LINE#         474
 C5:81F7H         LINE#         475
 C5:81F7H         LINE#         476
 C5:81FDH         LINE#         477
  -------         ENDPROC       DIDO_SEND
  -------         ENDMOD        DIDO

  -------         MODULE        NET_UART
  C:0000H         SYMBOL        _ICE_DUMMY_
  D:0080H         PUBLIC        P0
  D:0090H         PUBLIC        P1
  D:00A0H         PUBLIC        P2
  D:00B0H         PUBLIC        P3
  X:2C9AH         PUBLIC        dtr_rts_flag
  D:00E8H         PUBLIC        P4
  X:2C9BH         PUBLIC        RFCPkt
  D:00A8H         PUBLIC        IE
  X:2C9EH         PUBLIC        BaudrateTable
  D:00B8H         PUBLIC        IP
  X:2D13H         PUBLIC        TelnetRFC2217
  X:2D1CH         PUBLIC        local_iac
 C2:8B75H         PUBLIC        telnet_rfc
  X:2D1EH         PUBLIC        local_len
 C2:D2B3H         PUBLIC        NetUartTelnetClose
  D:0098H         PUBLIC        SCON
  D:0088H         PUBLIC        TCON
 C2:BA5EH         PUBLIC        NetUartOnTCPRx
  C:3DCCH         SYMBOL        _?ix1000
BL51 BANKED LINKER/LOCATER V6.00                                                      11/05/2015  16:28:40  PAGE 206


  C:3DD1H         SYMBOL        _?ix1001
  X:2D20H         PUBLIC        local_end_len
 C2:C7B5H         PUBLIC        NetUartTimer
 C2:B98BH         PUBLIC        check_rfc2217_signal
  D:00D8H         PUBLIC        WDTCON
 C2:D3D3H         PUBLIC        CHECK_210
 C2:C56AH         PUBLIC        rfc_loop
 C2:D0A6H         PUBLIC        NetUartInit
  X:2D22H         PUBLIC        NetUARTData
 C2:D2F2H         PUBLIC        NetUartLoop
 C2:59E2H         PUBLIC        com_port_option
  D:00C8H         PUBLIC        T2CON
  D:00D0H         PUBLIC        PSW

  -------         PROC BANK=2   CHECK_210
  -------         DO            
  D:0007H         SYMBOL        value
  -------         ENDDO         
 C2:D3D3H         LINE#         57
 C2:D3D3H         LINE#         58
 C2:D3D3H         LINE#         59
 C2:D3D3H         LINE#         61
 C2:D3D7H         LINE#         62
 C2:D3DAH         LINE#         63
 C2:D3DCH         LINE#         64
  -------         ENDPROC       CHECK_210

  -------         PROC BANK=2   NETUARTINIT
 C2:D0A6H         LINE#         77
 C2:D0A6H         LINE#         78
 C2:D0A6H         LINE#         79
 C2:D0ABH         LINE#         80
 C2:D0B8H         LINE#         81
 C2:D0BBH         LINE#         82
 C2:D0DDH         LINE#         83
 C2:D0DDH         LINE#         84
 C2:D0DDH         LINE#         85
 C2:D0E0H         LINE#         86
 C2:D0E0H         LINE#         87
 C2:D0E0H         LINE#         88
 C2:D0E3H         LINE#         89
 C2:D0E3H         LINE#         92
 C2:D0E3H         LINE#         93
 C2:D0E3H         LINE#         97
 C2:D0E6H         LINE#         98
 C2:D0E6H         LINE#         100
 C2:D0E6H         LINE#         101
  -------         ENDPROC       NETUARTINIT

  -------         PROC BANK=2   NETUARTTELNETCLOSE
 C2:D2B3H         LINE#         114
 C2:D2B3H         LINE#         115
 C2:D2B3H         LINE#         116
 C2:D2CDH         LINE#         117
 C2:D2CDH         LINE#         118
 C2:D2CDH         LINE#         119
 C2:D2D0H         LINE#         120
BL51 BANKED LINKER/LOCATER V6.00                                                      11/05/2015  16:28:40  PAGE 207


 C2:D2D0H         LINE#         121
 C2:D2D0H         LINE#         122
 C2:D2D3H         LINE#         123
 C2:D2D3H         LINE#         124
 C2:D2D3H         LINE#         125
  -------         ENDPROC       NETUARTTELNETCLOSE

  -------         PROC BANK=2   NETUARTONTCPRX
 C2:BA5EH         LINE#         139
 C2:BA5EH         LINE#         140
 C2:BA5EH         LINE#         141
 C2:BA7CH         LINE#         142
 C2:BA7CH         LINE#         143
 C2:BA7CH         LINE#         144
 C2:BA7CH         LINE#         146
 C2:BA82H         LINE#         147
 C2:BA82H         LINE#         148
 C2:BAB5H         LINE#         149
 C2:BAB5H         LINE#         150
 C2:BAB8H         LINE#         151
 C2:BABBH         LINE#         152
 C2:BABBH         LINE#         153
 C2:BAEEH         LINE#         154
 C2:BAEEH         LINE#         155
 C2:BAEEH         LINE#         156
 C2:BAF0H         LINE#         157
 C2:BAF0H         LINE#         158
 C2:BAF0H         LINE#         160
 C2:BAF0H         LINE#         161
 C2:BB23H         LINE#         162
 C2:BB23H         LINE#         163
 C2:BB26H         LINE#         164
 C2:BB29H         LINE#         165
 C2:BB29H         LINE#         166
 C2:BB29H         LINE#         179
 C2:BB2CH         LINE#         180
 C2:BB2CH         LINE#         181
 C2:BB2EH         LINE#         182
 C2:BB2EH         LINE#         183
  -------         ENDPROC       NETUARTONTCPRX

  -------         PROC BANK=2   NETUARTLOOP
 C2:D2F2H         LINE#         196
 C2:D2F2H         LINE#         197
 C2:D2F2H         LINE#         217
 C2:D303H         LINE#         218
 C2:D303H         LINE#         219
 C2:D306H         LINE#         220
 C2:D306H         LINE#         223
 C2:D309H         LINE#         224
 C2:D30CH         LINE#         225
  -------         ENDPROC       NETUARTLOOP

  -------         PROC BANK=2   NETUARTTIMER
 C2:C7B5H         LINE#         242
 C2:C7B5H         LINE#         243
 C2:C7B5H         LINE#         255
BL51 BANKED LINKER/LOCATER V6.00                                                      11/05/2015  16:28:40  PAGE 208


 C2:C7CFH         LINE#         256
 C2:C7CFH         LINE#         257
 C2:C7CFH         LINE#         258
 C2:C7E8H         LINE#         259
 C2:C7E8H         LINE#         260
 C2:C7EEH         LINE#         261
 C2:C7F4H         LINE#         263
 C2:C7F4H         LINE#         264
 C2:C7FAH         LINE#         265
 C2:C7FEH         LINE#         266
 C2:C7FEH         LINE#         267
 C2:C7FEH         LINE#         268
 C2:C7FEH         LINE#         269
 C2:C800H         LINE#         270
 C2:C800H         LINE#         271
 C2:C813H         LINE#         273
 C2:C81AH         LINE#         274
 C2:C820H         LINE#         275
 C2:C826H         LINE#         276
 C2:C82BH         LINE#         277
 C2:C82BH         LINE#         278
 C2:C82CH         LINE#         281
 C2:C82CH         LINE#         282
 C2:C82FH         LINE#         283
 C2:C82FH         LINE#         284
 C2:C82FH         LINE#         285
 C2:C82FH         LINE#         286
 C2:C82FH         LINE#         287
  -------         ENDPROC       NETUARTTIMER

  -------         PROC BANK=2   TELNET_RFC
  -------         DO            
  X:37F3H         SYMBOL        flag
  X:37F4H         SYMBOL        i
  X:37F5H         SYMBOL        CMPflag
  -------         ENDDO         
 C2:8B75H         LINE#         304
 C2:8B75H         LINE#         305
 C2:8B75H         LINE#         306
 C2:8B80H         LINE#         308
 C2:8B9FH         LINE#         309
 C2:8B9FH         LINE#         310
 C2:8BB4H         LINE#         311
 C2:8BB4H         LINE#         312
 C2:8C13H         LINE#         314
 C2:8C1BH         LINE#         315
 C2:8C1BH         LINE#         316
 C2:8C2CH         LINE#         317
 C2:8C46H         LINE#         318
 C2:8C46H         LINE#         319
 C2:8C67H         LINE#         320
 C2:8C67H         LINE#         321
 C2:8C7FH         LINE#         322
 C2:8C7FH         LINE#         323
 C2:8CC6H         LINE#         325
 C2:8CC6H         LINE#         326
 C2:8CE8H         LINE#         327
BL51 BANKED LINKER/LOCATER V6.00                                                      11/05/2015  16:28:40  PAGE 209


 C2:8CE8H         LINE#         329
 C2:8CF0H         LINE#         330
 C2:8CF0H         LINE#         332
 C2:8CF0H         LINE#         333
 C2:8D14H         LINE#         334
 C2:8D14H         LINE#         335
 C2:8D29H         LINE#         336
 C2:8D29H         LINE#         337
 C2:8D40H         LINE#         338
 C2:8D50H         LINE#         339
 C2:8D50H         LINE#         340
 C2:8D50H         LINE#         341
 C2:8D50H         LINE#         342
 C2:8D61H         LINE#         343
 C2:8DA7H         LINE#         345
 C2:8DBCH         LINE#         346
 C2:8DC5H         LINE#         347
 C2:8DC5H         LINE#         348
 C2:8DE2H         LINE#         349
 C2:8DE2H         LINE#         350
 C2:8DE2H         LINE#         351
 C2:8DEEH         LINE#         352
 C2:8DF2H         LINE#         354
 C2:8DF4H         LINE#         355
 C2:8DF6H         LINE#         356
 C2:8DF6H         LINE#         357
 C2:8E05H         LINE#         358
 C2:8E0CH         LINE#         360
 C2:8E14H         LINE#         361
 C2:8E16H         LINE#         362
 C2:8E16H         LINE#         363
 C2:8E1CH         LINE#         364
 C2:8E21H         LINE#         365
 C2:8E21H         LINE#         366
 C2:8E21H         LINE#         367
 C2:8E27H         LINE#         368
 C2:8E27H         LINE#         369
 C2:8E49H         LINE#         370
 C2:8E4FH         LINE#         371
 C2:8E57H         LINE#         373
 C2:8E5DH         LINE#         374
 C2:8E5DH         LINE#         375
 C2:8E60H         LINE#         376
 C2:8E66H         LINE#         377
 C2:8E69H         LINE#         379
 C2:8E78H         LINE#         381
  -------         ENDPROC       TELNET_RFC

  -------         PROC BANK=2   COM_PORT_OPTION
  -------         DO            
  X:2D2CH         SYMBOL        cp_data
  X:2D2FH         SYMBOL        NetUART
  X:2D32H         SYMBOL        i
  X:2D33H         SYMBOL        coun
  X:2D34H         SYMBOL        j
  X:2D35H         SYMBOL        k
  X:2D37H         SYMBOL        tmp
BL51 BANKED LINKER/LOCATER V6.00                                                      11/05/2015  16:28:40  PAGE 210


  X:2D38H         SYMBOL        parity
  X:2D3DH         SYMBOL        cp_buff
  X:2DA1H         SYMBOL        baudrate
  X:2DA5H         SYMBOL        baudrate_table
  -------         ENDDO         
 C2:59E2H         LINE#         384
 C2:59E2H         LINE#         385
 C2:59E2H         LINE#         386
 C2:59F7H         LINE#         387
 C2:5A03H         LINE#         388
 C2:5A0AH         LINE#         389
 C2:5A0EH         LINE#         391
 C2:5A20H         LINE#         393
 C2:5A34H         LINE#         395
 C2:5A43H         LINE#         396
 C2:5A7AH         LINE#         398
 C2:5A9AH         LINE#         399
 C2:5A9AH         LINE#         400
 C2:5AE2H         LINE#         401
 C2:5AE2H         LINE#         402
 C2:5AE2H         LINE#         403
 C2:5AFDH         LINE#         404
 C2:5B03H         LINE#         405
 C2:5B14H         LINE#         406
 C2:5B32H         LINE#         407
 C2:5B86H         LINE#         408
 C2:5B89H         LINE#         409
 C2:5B89H         LINE#         410
 C2:5BAFH         LINE#         411
 C2:5BC5H         LINE#         412
 C2:5BCAH         LINE#         413
 C2:5BCAH         LINE#         414
 C2:5C3DH         LINE#         415
 C2:5C48H         LINE#         416
 C2:5C64H         LINE#         417
 C2:5C64H         LINE#         418
 C2:5C80H         LINE#         419
 C2:5CC1H         LINE#         420
 C2:5CC6H         LINE#         421
 C2:5CC6H         LINE#         422
 C2:5D12H         LINE#         423
 C2:5D1CH         LINE#         424
 C2:5D1CH         LINE#         425
 C2:5D2EH         LINE#         426
 C2:5D2EH         LINE#         427
 C2:5D5DH         LINE#         428
 C2:5D7DH         LINE#         429
 C2:5D7DH         LINE#         430
 C2:5D9AH         LINE#         431
 C2:5DB4H         LINE#         432
 C2:5DB4H         LINE#         433
 C2:5DBDH         LINE#         434
 C2:5DBDH         LINE#         435
 C2:5DBDH         LINE#         436
 C2:5DE3H         LINE#         437
 C2:5DF9H         LINE#         438
 C2:5E0EH         LINE#         439
BL51 BANKED LINKER/LOCATER V6.00                                                      11/05/2015  16:28:40  PAGE 211


 C2:5E0EH         LINE#         440
 C2:5E21H         LINE#         441
 C2:5E24H         LINE#         443
 C2:5E24H         LINE#         444
 C2:5E5FH         LINE#         445
 C2:5E77H         LINE#         446
 C2:5E77H         LINE#         447
 C2:5E7AH         LINE#         448
 C2:5E7AH         LINE#         449
 C2:5EA0H         LINE#         450
 C2:5EB6H         LINE#         451
 C2:5ECBH         LINE#         452
 C2:5ECBH         LINE#         453
 C2:5ED9H         LINE#         454
 C2:5ED9H         LINE#         455
 C2:5EF9H         LINE#         456
 C2:5EF9H         LINE#         457
 C2:5F01H         LINE#         458
 C2:5F06H         LINE#         459
 C2:5F09H         LINE#         461
 C2:5F09H         LINE#         462
 C2:5F18H         LINE#         463
 C2:5F18H         LINE#         464
 C2:5F4CH         LINE#         465
 C2:5F4CH         LINE#         466
 C2:5F54H         LINE#         467
 C2:5F97H         LINE#         468
 C2:5FB7H         LINE#         469
 C2:5FB7H         LINE#         470
 C2:5FBAH         LINE#         471
 C2:5FBAH         LINE#         472
 C2:5FE0H         LINE#         473
 C2:5FF6H         LINE#         474
 C2:600CH         LINE#         475
 C2:600CH         LINE#         476
 C2:6034H         LINE#         477
 C2:6037H         LINE#         479
 C2:6037H         LINE#         480
 C2:603EH         LINE#         481
 C2:6044H         LINE#         482
 C2:6061H         LINE#         483
 C2:6066H         LINE#         484
 C2:6066H         LINE#         485
 C2:6069H         LINE#         486
 C2:6069H         LINE#         487
 C2:608FH         LINE#         488
 C2:60A5H         LINE#         489
 C2:60FAH         LINE#         490
 C2:60FAH         LINE#         491
 C2:60FAH         LINE#         492
 C2:6116H         LINE#         493
 C2:6116H         LINE#         494
 C2:6118H         LINE#         495
 C2:6118H         LINE#         496
 C2:6122H         LINE#         497
 C2:6125H         LINE#         498
 C2:6127H         LINE#         499
BL51 BANKED LINKER/LOCATER V6.00                                                      11/05/2015  16:28:40  PAGE 212


 C2:6127H         LINE#         500
 C2:612DH         LINE#         501
 C2:612DH         LINE#         502
 C2:612FH         LINE#         503
 C2:612FH         LINE#         504
 C2:6135H         LINE#         505
 C2:6135H         LINE#         506
 C2:6137H         LINE#         507
 C2:6137H         LINE#         508
 C2:6141H         LINE#         509
 C2:6159H         LINE#         510
 C2:615CH         LINE#         511
 C2:615CH         LINE#         512
 C2:6162H         LINE#         513
 C2:6162H         LINE#         514
 C2:6164H         LINE#         515
 C2:6164H         LINE#         516
 C2:616EH         LINE#         517
 C2:6173H         LINE#         518
 C2:6176H         LINE#         519
 C2:6176H         LINE#         520
 C2:6176H         LINE#         521
 C2:6176H         LINE#         522
 C2:6176H         LINE#         523
 C2:6176H         LINE#         524
 C2:6176H         LINE#         525
 C2:618EH         LINE#         527
 C2:6193H         LINE#         528
 C2:6196H         LINE#         529
 C2:6196H         LINE#         530
 C2:6196H         LINE#         531
 C2:61AFH         LINE#         532
 C2:61B5H         LINE#         533
 C2:61B8H         LINE#         534
 C2:61B8H         LINE#         535
 C2:61B8H         LINE#         536
 C2:61B8H         LINE#         537
 C2:61DEH         LINE#         538
 C2:61F4H         LINE#         540
 C2:61F7H         LINE#         541
 C2:61F7H         LINE#         542
 C2:621DH         LINE#         543
 C2:6233H         LINE#         545
 C2:6236H         LINE#         546
 C2:6236H         LINE#         547
 C2:625CH         LINE#         548
 C2:6272H         LINE#         550
 C2:6274H         LINE#         551
 C2:6274H         LINE#         552
 C2:6297H         LINE#         553
 C2:62ADH         LINE#         555
 C2:62AFH         LINE#         556
 C2:62AFH         LINE#         557
 C2:62D1H         LINE#         558
 C2:62E7H         LINE#         560
 C2:62E7H         LINE#         561
 C2:62E7H         LINE#         562
BL51 BANKED LINKER/LOCATER V6.00                                                      11/05/2015  16:28:40  PAGE 213


 C2:62F8H         LINE#         563
 C2:62FBH         LINE#         564
 C2:6321H         LINE#         565
 C2:6341H         LINE#         566
 C2:6350H         LINE#         568
  -------         ENDPROC       COM_PORT_OPTION

  -------         PROC BANK=2   RFC_LOOP
  -------         DO            
  D:0007H         SYMBOL        value
  D:0006H         SYMBOL        old
  -------         ENDDO         
 C2:C56AH         LINE#         570
 C2:C56AH         LINE#         571
 C2:C56AH         LINE#         572
 C2:C56FH         LINE#         573
 C2:C574H         LINE#         575
 C2:C57AH         LINE#         576
 C2:C57BH         LINE#         577
 C2:C582H         LINE#         578
 C2:C582H         LINE#         579
 C2:C58CH         LINE#         580
 C2:C58CH         LINE#         581
 C2:C592H         LINE#         582
 C2:C596H         LINE#         583
 C2:C59BH         LINE#         585
 C2:C5A1H         LINE#         586
 C2:C5A1H         LINE#         587
 C2:C5AEH         LINE#         588
 C2:C5AEH         LINE#         589
 C2:C5B4H         LINE#         590
 C2:C5B8H         LINE#         591
 C2:C5BDH         LINE#         593
 C2:C5C3H         LINE#         594
 C2:C5C3H         LINE#         595
 C2:C5D0H         LINE#         596
 C2:C5D0H         LINE#         597
 C2:C5D6H         LINE#         598
 C2:C5DAH         LINE#         599
 C2:C5DFH         LINE#         601
 C2:C5E5H         LINE#         602
 C2:C5E5H         LINE#         603
 C2:C5F2H         LINE#         604
 C2:C5F2H         LINE#         605
 C2:C5F8H         LINE#         606
 C2:C5FCH         LINE#         607
 C2:C600H         LINE#         609
 C2:C606H         LINE#         610
 C2:C606H         LINE#         611
 C2:C606H         LINE#         612
  -------         ENDPROC       RFC_LOOP

  -------         PROC BANK=2   CHECK_RFC2217_SIGNAL
  -------         DO            
  X:369DH         SYMBOL        pkt_signal
  -------         ENDDO         
 C2:B98BH         LINE#         614
BL51 BANKED LINKER/LOCATER V6.00                                                      11/05/2015  16:28:40  PAGE 214


 C2:B98BH         LINE#         615
 C2:B98BH         LINE#         616
 C2:B99EH         LINE#         618
 C2:B9C2H         LINE#         619
 C2:B9C2H         LINE#         620
 C2:B9C8H         LINE#         621
 C2:B9CBH         LINE#         622
 C2:B9CBH         LINE#         623
 C2:B9D0H         LINE#         624
 C2:B9D9H         LINE#         625
 C2:B9DCH         LINE#         626
 C2:B9DCH         LINE#         627
 C2:B9E3H         LINE#         628
 C2:B9E3H         LINE#         629
 C2:B9E5H         LINE#         630
 C2:B9F2H         LINE#         631
 C2:B9F5H         LINE#         632
 C2:B9F5H         LINE#         633
 C2:B9FCH         LINE#         634
 C2:B9FCH         LINE#         635
 C2:B9FEH         LINE#         636
 C2:BA0BH         LINE#         637
 C2:BA0EH         LINE#         638
 C2:BA0EH         LINE#         639
 C2:BA15H         LINE#         640
 C2:BA15H         LINE#         641
 C2:BA17H         LINE#         642
 C2:BA26H         LINE#         643
 C2:BA29H         LINE#         644
 C2:BA29H         LINE#         645
 C2:BA45H         LINE#         646
 C2:BA4EH         LINE#         647
 C2:BA5DH         LINE#         648
 C2:BA5DH         LINE#         650
  -------         ENDPROC       CHECK_RFC2217_SIGNAL
  -------         ENDMOD        NET_UART

  -------         MODULE        UDP_TEL
  C:0000H         SYMBOL        _ICE_DUMMY_
  X:2FB9H         PUBLIC        udp_dns_count
  D:0080H         PUBLIC        P0
  D:0090H         PUBLIC        P1
  D:00A0H         PUBLIC        P2
  D:00B0H         PUBLIC        P3
  D:00E8H         PUBLIC        P4
  X:2FBAH         PUBLIC        udp_send_pkt
 C2:9405H         PUBLIC        udp_tel_init
  D:00A8H         PUBLIC        IE
 C2:96ACH         PUBLIC        udp_get_dns
 C2:D023H         PUBLIC        UDP_TEL_Timer
 C2:B78BH         PUBLIC        udp_tel_updata_ip_aval
 C2:A627H         PUBLIC        udp_tel_chk_send
  D:00B8H         PUBLIC        IP
  X:2FBBH         PUBLIC        udp_nor_brcst_port
  D:0098H         PUBLIC        SCON
  D:0088H         PUBLIC        TCON
  X:2FBDH         PUBLIC        port_learn
BL51 BANKED LINKER/LOCATER V6.00                                                      11/05/2015  16:28:40  PAGE 215


 C2:A02DH         PUBLIC        udp_tel_rx
 C2:D379H         PUBLIC        _get_bit
  C:3EABH         SYMBOL        _?ix1000
 C2:AB66H         PUBLIC        _udp_tel_getip
 C2:C434H         PUBLIC        _set_bit
 C2:BCC1H         PUBLIC        new_block_init
  D:00D8H         PUBLIC        WDTCON
 C2:81BCH         PUBLIC        udp_tel_send_one_pkt
  X:2FD1H         PUBLIC        udp_check_ip
  D:00C8H         PUBLIC        T2CON
  X:2FF9H         PUBLIC        udp_tel_data
  X:3011H         PUBLIC        udp_dns
 C2:BF9AH         PUBLIC        udp_learn_ip
  D:00D0H         PUBLIC        PSW
  X:3012H         PUBLIC        udp_nor_brcst

  -------         PROC BANK=2   _GET_BIT
  D:0001H         SYMBOL        value
  X:3838H         SYMBOL        offset
 C2:D379H         LINE#         63
 C2:D37EH         LINE#         64
 C2:D37EH         LINE#         65
 C2:D38EH         LINE#         66
  -------         ENDPROC       _GET_BIT
  -------         PROC          L?0163
  -------         ENDPROC       L?0163

  -------         PROC BANK=2   _SET_BIT
  X:35D7H         SYMBOL        value
  D:0005H         SYMBOL        offset
  X:35DBH         SYMBOL        set_value
  -------         DO            
  X:35DCH         SYMBOL        tmp
  -------         ENDDO         
 C2:C434H         LINE#         68
 C2:C43FH         LINE#         69
 C2:C43FH         LINE#         70
 C2:C45EH         LINE#         71
 C2:C467H         LINE#         72
 C2:C467H         LINE#         73
 C2:C492H         LINE#         74
 C2:C494H         LINE#         76
 C2:C494H         LINE#         77
 C2:C4CBH         LINE#         78
 C2:C4CBH         LINE#         79
  -------         ENDPROC       _SET_BIT

  -------         PROC BANK=2   UDP_TEL_UPDATA_IP_AVAL
  -------         DO            
  X:3713H         SYMBOL        i
  X:3714H         SYMBOL        valid
  X:3715H         SYMBOL        tmp
  -------         ENDDO         
 C2:B78BH         LINE#         81
 C2:B78BH         LINE#         82
 C2:B78BH         LINE#         83
 C2:B790H         LINE#         84
BL51 BANKED LINKER/LOCATER V6.00                                                      11/05/2015  16:28:40  PAGE 216


 C2:B798H         LINE#         85
 C2:B7A2H         LINE#         86
 C2:B7A7H         LINE#         87
 C2:B7A7H         LINE#         89
 C2:B7AAH         LINE#         95
 C2:B7D4H         LINE#         99
 C2:B7D4H         LINE#         100
 C2:B802H         LINE#         102
 C2:B819H         LINE#         103
 C2:B819H         LINE#         105
 C2:B841H         LINE#         109
 C2:B841H         LINE#         110
 C2:B85FH         LINE#         111
 C2:B865H         LINE#         112
 C2:B865H         LINE#         113
 C2:B865H         LINE#         115
 C2:B865H         LINE#         116
 C2:B87EH         LINE#         117
 C2:B88DH         LINE#         118
  -------         ENDPROC       UDP_TEL_UPDATA_IP_AVAL

  -------         PROC BANK=2   UDP_TEL_INIT
  -------         DO            
  X:3839H         SYMBOL        i
  -------         ENDDO         
 C2:9405H         LINE#         120
 C2:9405H         LINE#         121
 C2:9405H         LINE#         125
 C2:9413H         LINE#         126
 C2:942EH         LINE#         127
 C2:9447H         LINE#         129
 C2:944CH         LINE#         131
 C2:9450H         LINE#         132
 C2:9452H         LINE#         133
 C2:9454H         LINE#         135
 C2:9457H         LINE#         136
 C2:947DH         LINE#         137
 C2:9491H         LINE#         138
 C2:94A5H         LINE#         139
 C2:94AFH         LINE#         140
 C2:94B4H         LINE#         141
 C2:94C6H         LINE#         142
 C2:94D3H         LINE#         143
 C2:94DAH         LINE#         144
 C2:94E3H         LINE#         145
 C2:94EDH         LINE#         146
 C2:9518H         LINE#         147
 C2:9547H         LINE#         149
 C2:9567H         LINE#         150
 C2:9567H         LINE#         151
 C2:9579H         LINE#         152
 C2:9579H         LINE#         153
 C2:9598H         LINE#         154
 C2:95AFH         LINE#         155
 C2:95C2H         LINE#         156
 C2:95D5H         LINE#         157
 C2:95DDH         LINE#         158
BL51 BANKED LINKER/LOCATER V6.00                                                      11/05/2015  16:28:40  PAGE 217


 C2:95DDH         LINE#         160
 C2:95DDH         LINE#         161
 C2:95EFH         LINE#         162
 C2:95EFH         LINE#         163
 C2:9604H         LINE#         164
 C2:9604H         LINE#         165
 C2:9630H         LINE#         166
 C2:965CH         LINE#         167
 C2:96A2H         LINE#         168
 C2:96A2H         LINE#         169
 C2:96ABH         LINE#         170
 C2:96ABH         LINE#         180
  -------         ENDPROC       UDP_TEL_INIT

  -------         PROC BANK=2   _UDP_TEL_GETIP
  X:36A4H         SYMBOL        ip
  X:36A7H         SYMBOL        port
  -------         DO            
  X:36AAH         SYMBOL        result
  -------         ENDDO         
 C2:AB66H         LINE#         196
 C2:AB71H         LINE#         197
 C2:AB71H         LINE#         198
 C2:AB76H         LINE#         200
 C2:AB82H         LINE#         201
 C2:AB82H         LINE#         203
 C2:AB85H         LINE#         209
 C2:ABB7H         LINE#         210
 C2:ABE5H         LINE#         215
 C2:AC06H         LINE#         216
 C2:AC06H         LINE#         217
 C2:AC1DH         LINE#         218
 C2:AC3BH         LINE#         220
 C2:AC49H         LINE#         221
 C2:AC4BH         LINE#         223
 C2:AC7BH         LINE#         225
 C2:AC8DH         LINE#         226
 C2:AC8DH         LINE#         227
 C2:AC8DH         LINE#         228
 C2:AC8FH         LINE#         229
 C2:AC8FH         LINE#         230
 C2:ACA0H         LINE#         231
 C2:ACA0H         LINE#         232
 C2:ACA6H         LINE#         233
 C2:ACA9H         LINE#         234
 C2:ACA9H         LINE#         235
 C2:ACAFH         LINE#         236
 C2:ACAFH         LINE#         237
 C2:ACAFH         LINE#         238
 C2:ACB4H         LINE#         239
  -------         ENDPROC       _UDP_TEL_GETIP

  -------         PROC BANK=2   UDP_TEL_SEND_ONE_PKT
  -------         DO            
  X:375CH         SYMBOL        j
  X:375DH         SYMBOL        i
  X:375EH         SYMBOL        old_buf
BL51 BANKED LINKER/LOCATER V6.00                                                      11/05/2015  16:28:40  PAGE 218


  -------         ENDDO         
 C2:81BCH         LINE#         247
 C2:81BCH         LINE#         248
 C2:81BCH         LINE#         249
 C2:81C3H         LINE#         252
 C2:81C6H         LINE#         258
 C2:81CFH         LINE#         259
 C2:81CFH         LINE#         261
 C2:81DEH         LINE#         262
 C2:81EDH         LINE#         263
 C2:81F5H         LINE#         264
 C2:81F9H         LINE#         266
 C2:8203H         LINE#         267
 C2:821BH         LINE#         268
 C2:822AH         LINE#         269
 C2:8242H         LINE#         271
 C2:8250H         LINE#         273
 C2:8264H         LINE#         277
 C2:827AH         LINE#         279
 C2:8283H         LINE#         283
 C2:828DH         LINE#         284
 C2:828DH         LINE#         285
 C2:8290H         LINE#         287
 C2:8296H         LINE#         288
 C2:8296H         LINE#         289
 C2:829FH         LINE#         290
 C2:82B1H         LINE#         291
 C2:82B7H         LINE#         292
 C2:82B9H         LINE#         294
 C2:82CAH         LINE#         298
 C2:82D1H         LINE#         299
 C2:82D1H         LINE#         300
 C2:82D4H         LINE#         301
 C2:82E2H         LINE#         302
 C2:8330H         LINE#         303
 C2:8338H         LINE#         305
 C2:8338H         LINE#         307
 C2:8355H         LINE#         308
 C2:8355H         LINE#         310
 C2:83ACH         LINE#         312
 C2:83ACH         LINE#         313
 C2:83B0H         LINE#         314
 C2:83B0H         LINE#         316
 C2:83B3H         LINE#         321
 C2:83F5H         LINE#         322
 C2:83F5H         LINE#         323
 C2:8401H         LINE#         324
 C2:8401H         LINE#         327
 C2:8410H         LINE#         328
 C2:841FH         LINE#         330
 C2:842EH         LINE#         331
 C2:8446H         LINE#         333
 C2:8449H         LINE#         339
 C2:8449H         LINE#         342
 C2:845DH         LINE#         346
 C2:8473H         LINE#         348
 C2:847CH         LINE#         352
BL51 BANKED LINKER/LOCATER V6.00                                                      11/05/2015  16:28:40  PAGE 219


 C2:8486H         LINE#         353
 C2:8486H         LINE#         354
 C2:8489H         LINE#         356
 C2:848CH         LINE#         362
 C2:8492H         LINE#         363
 C2:8492H         LINE#         364
 C2:849BH         LINE#         365
 C2:84ADH         LINE#         366
 C2:84B3H         LINE#         367
 C2:84B5H         LINE#         369
 C2:84C6H         LINE#         374
 C2:84C9H         LINE#         379
 C2:84D1H         LINE#         380
 C2:84D1H         LINE#         381
 C2:84DEH         LINE#         382
 C2:84DEH         LINE#         383
 C2:84E4H         LINE#         384
 C2:84EBH         LINE#         385
 C2:84EBH         LINE#         386
 C2:84EEH         LINE#         387
 C2:84FCH         LINE#         392
 C2:84FFH         LINE#         397
 C2:84FFH         LINE#         399
 C2:8502H         LINE#         404
  -------         ENDPROC       UDP_TEL_SEND_ONE_PKT

  -------         PROC BANK=2   NEW_BLOCK_INIT
  -------         DO            
  X:37F6H         SYMBOL        old_buf
  -------         ENDDO         
 C2:BCC1H         LINE#         406
 C2:BCC1H         LINE#         407
 C2:BCC1H         LINE#         410
 C2:BCC4H         LINE#         415
 C2:BCC9H         LINE#         417
 C2:BCD6H         LINE#         420
 C2:BCE0H         LINE#         421
 C2:BCE5H         LINE#         422
 C2:BCEAH         LINE#         424
 C2:BCFDH         LINE#         429
 C2:BD00H         LINE#         434
 C2:BD1BH         LINE#         435
 C2:BD1EH         LINE#         436
 C2:BD2CH         LINE#         437
 C2:BD47H         LINE#         439
 C2:BD6DH         LINE#         440
 C2:BD81H         LINE#         441
  -------         ENDPROC       NEW_BLOCK_INIT

  -------         PROC BANK=2   UDP_TEL_CHK_SEND
 C2:A627H         LINE#         443
 C2:A627H         LINE#         444
 C2:A627H         LINE#         445
 C2:A62EH         LINE#         447
 C2:A63BH         LINE#         448
 C2:A63BH         LINE#         450
 C2:A63EH         LINE#         456
BL51 BANKED LINKER/LOCATER V6.00                                                      11/05/2015  16:28:40  PAGE 220


 C2:A644H         LINE#         457
 C2:A644H         LINE#         458
 C2:A64CH         LINE#         459
 C2:A64CH         LINE#         460
 C2:A65AH         LINE#         461
 C2:A660H         LINE#         462
 C2:A660H         LINE#         463
 C2:A660H         LINE#         466
 C2:A677H         LINE#         467
 C2:A677H         LINE#         469
 C2:A6A3H         LINE#         473
 C2:A6A3H         LINE#         475
 C2:A6A6H         LINE#         478
 C2:A6A6H         LINE#         479
 C2:A6A6H         LINE#         482
 C2:A6A9H         LINE#         487
 C2:A6AFH         LINE#         488
 C2:A6B2H         LINE#         490
 C2:A6B5H         LINE#         492
 C2:A6CCH         LINE#         493
 C2:A6CCH         LINE#         494
 C2:A6D2H         LINE#         495
 C2:A6D2H         LINE#         496
 C2:A6D5H         LINE#         498
 C2:A6DAH         LINE#         499
 C2:A6DDH         LINE#         502
 C2:A6DDH         LINE#         503
 C2:A6DDH         LINE#         505
 C2:A700H         LINE#         506
 C2:A700H         LINE#         507
 C2:A70CH         LINE#         508
 C2:A70CH         LINE#         509
 C2:A74EH         LINE#         510
 C2:A74EH         LINE#         511
 C2:A79CH         LINE#         512
 C2:A79CH         LINE#         513
 C2:A79CH         LINE#         514
 C2:A79EH         LINE#         516
 C2:A79EH         LINE#         517
 C2:A7A3H         LINE#         518
 C2:A7A3H         LINE#         519
 C2:A7A3H         LINE#         520
 C2:A7A5H         LINE#         522
 C2:A7A5H         LINE#         524
 C2:A7A8H         LINE#         529
 C2:A7ABH         LINE#         530
 C2:A7ABH         LINE#         531
 C2:A7ADH         LINE#         533
 C2:A7ADH         LINE#         534
 C2:A7FBH         LINE#         535
 C2:A802H         LINE#         536
 C2:A806H         LINE#         538
 C2:A806H         LINE#         540
 C2:A80BH         LINE#         541
 C2:A80FH         LINE#         543
 C2:A80FH         LINE#         544
  -------         ENDPROC       UDP_TEL_CHK_SEND
BL51 BANKED LINKER/LOCATER V6.00                                                      11/05/2015  16:28:40  PAGE 221



  -------         PROC BANK=2   UDP_TEL_RX
  -------         DO            
  X:3719H         SYMBOL        i
  X:371AH         SYMBOL        valid
  X:371BH         SYMBOL        ip
  -------         ENDDO         
 C2:A02DH         LINE#         547
 C2:A02DH         LINE#         548
 C2:A02DH         LINE#         549
 C2:A032H         LINE#         551
 C2:A044H         LINE#         554
 C2:A047H         LINE#         559
 C2:A074H         LINE#         560
 C2:A074H         LINE#         562
 C2:A074H         LINE#         564
 C2:A08BH         LINE#         565
 C2:A091H         LINE#         566
 C2:A0ACH         LINE#         567
 C2:A0ACH         LINE#         568
 C2:A0B2H         LINE#         569
 C2:A0B2H         LINE#         570
 C2:A0DDH         LINE#         571
 C2:A0DDH         LINE#         573
 C2:A0E0H         LINE#         575
 C2:A0E3H         LINE#         580
 C2:A0E6H         LINE#         582
 C2:A0E6H         LINE#         583
 C2:A0EBH         LINE#         584
 C2:A0EBH         LINE#         586
 C2:A0EEH         LINE#         592
 C2:A105H         LINE#         593
 C2:A105H         LINE#         594
 C2:A12BH         LINE#         595
 C2:A146H         LINE#         596
 C2:A148H         LINE#         598
 C2:A148H         LINE#         599
 C2:A171H         LINE#         600
 C2:A181H         LINE#         601
 C2:A181H         LINE#         602
 C2:A19FH         LINE#         603
 C2:A19FH         LINE#         604
 C2:A1B2H         LINE#         605
 C2:A1BAH         LINE#         606
 C2:A1BAH         LINE#         614
 C2:A1C9H         LINE#         615
 C2:A1CFH         LINE#         616
 C2:A1CFH         LINE#         617
 C2:A1FDH         LINE#         618
 C2:A211H         LINE#         619
 C2:A211H         LINE#         621
 C2:A211H         LINE#         622
 C2:A211H         LINE#         623
 C2:A211H         LINE#         665
 C2:A211H         LINE#         666
 C2:A220H         LINE#         668
 C2:A223H         LINE#         678
BL51 BANKED LINKER/LOCATER V6.00                                                      11/05/2015  16:28:40  PAGE 222


 C2:A22AH         LINE#         679
 C2:A22AH         LINE#         681
 C2:A233H         LINE#         683
 C2:A23AH         LINE#         684
 C2:A23AH         LINE#         685
 C2:A23DH         LINE#         686
 C2:A240H         LINE#         690
 C2:A242H         LINE#         691
 C2:A242H         LINE#         692
 C2:A249H         LINE#         693
  -------         ENDPROC       UDP_TEL_RX

  -------         PROC BANK=2   UDP_LEARN_IP
 C2:BF9AH         LINE#         695
 C2:BF9AH         LINE#         696
 C2:BF9AH         LINE#         698
 C2:BF9DH         LINE#         704
 C2:BFBAH         LINE#         705
 C2:BFD3H         LINE#         706
 C2:C014H         LINE#         711
 C2:C01CH         LINE#         712
 C2:C01CH         LINE#         713
 C2:C03CH         LINE#         714
 C2:C044H         LINE#         715
 C2:C044H         LINE#         717
  -------         ENDPROC       UDP_LEARN_IP

  -------         PROC BANK=2   UDP_TEL_TIMER
 C2:D023H         LINE#         724
 C2:D023H         LINE#         726
 C2:D040H         LINE#         731
 C2:D040H         LINE#         733
 C2:D044H         LINE#         734
 C2:D04AH         LINE#         735
 C2:D052H         LINE#         736
 C2:D052H         LINE#         737
 C2:D055H         LINE#         738
 C2:D058H         LINE#         739
 C2:D058H         LINE#         742
 C2:D058H         LINE#         744
 C2:D05BH         LINE#         749
 C2:D05EH         LINE#         750
 C2:D061H         LINE#         752
 C2:D064H         LINE#         757
 C2:D064H         LINE#         758
 C2:D064H         LINE#         759
  -------         ENDPROC       UDP_TEL_TIMER

  -------         PROC BANK=2   UDP_GET_DNS
  -------         DO            
  X:3761H         SYMBOL        result
  X:3762H         SYMBOL        get_ip
  -------         ENDDO         
 C2:96ACH         LINE#         766
 C2:96ACH         LINE#         767
 C2:96ACH         LINE#         768
 C2:96B2H         LINE#         769
BL51 BANKED LINKER/LOCATER V6.00                                                      11/05/2015  16:28:40  PAGE 223


 C2:96BAH         LINE#         772
 C2:96D5H         LINE#         776
 C2:96D5H         LINE#         777
 C2:96E2H         LINE#         778
 C2:96E2H         LINE#         779
 C2:96F9H         LINE#         780
 C2:96F9H         LINE#         781
 C2:971CH         LINE#         782
 C2:971CH         LINE#         783
 C2:9737H         LINE#         784
 C2:9751H         LINE#         785
 C2:9751H         LINE#         786
 C2:9761H         LINE#         787
 C2:9761H         LINE#         788
 C2:9763H         LINE#         789
 C2:976DH         LINE#         790
 C2:976DH         LINE#         791
 C2:9786H         LINE#         792
 C2:9788H         LINE#         793
 C2:9788H         LINE#         795
 C2:9788H         LINE#         796
 C2:978DH         LINE#         797
 C2:978DH         LINE#         798
 C2:978FH         LINE#         799
 C2:978FH         LINE#         800
 C2:978FH         LINE#         801
 C2:978FH         LINE#         802
 C2:97ABH         LINE#         803
 C2:97ABH         LINE#         804
 C2:97CDH         LINE#         805
 C2:97D2H         LINE#         807
 C2:97D8H         LINE#         808
 C2:97DAH         LINE#         809
 C2:97DAH         LINE#         810
 C2:97DAH         LINE#         812
 C2:97DAH         LINE#         813
 C2:97DCH         LINE#         815
 C2:97E2H         LINE#         816
 C2:97E5H         LINE#         817
 C2:97ECH         LINE#         818
 C2:97FCH         LINE#         819
 C2:97FFH         LINE#         820
 C2:9802H         LINE#         822
 C2:9802H         LINE#         824
 C2:9808H         LINE#         825
 C2:981EH         LINE#         828
 C2:981EH         LINE#         829
 C2:9831H         LINE#         830
 C2:983DH         LINE#         832
 C2:983DH         LINE#         833
 C2:985AH         LINE#         834
 C2:9873H         LINE#         835
 C2:98B4H         LINE#         836
 C2:98B4H         LINE#         837
 C2:98B4H         LINE#         838
 C2:98CEH         LINE#         839
 C2:98CEH         LINE#         841
BL51 BANKED LINKER/LOCATER V6.00                                                      11/05/2015  16:28:40  PAGE 224


 C2:98D7H         LINE#         842
 C2:98E2H         LINE#         845
 C2:98F6H         LINE#         846
 C2:98F8H         LINE#         847
 C2:9911H         LINE#         848
 C2:9911H         LINE#         849
 C2:9925H         LINE#         851
 C2:992AH         LINE#         852
 C2:992AH         LINE#         853
 C2:992AH         LINE#         854
 C2:992FH         LINE#         855
  -------         ENDPROC       UDP_GET_DNS
  -------         ENDMOD        UDP_TEL

  -------         MODULE        TELNET
  C:0000H         SYMBOL        _ICE_DUMMY_
 C2:883FH         PUBLIC        ReadEth2UARTTxBuf
 C2:8E79H         PUBLIC        ClearUARTRxBuf_ParityError
  X:2B4BH         PUBLIC        CLI_tmp_back
  D:0080H         PUBLIC        P0
  D:0090H         PUBLIC        P1
  D:00A0H         PUBLIC        P2
  D:00B0H         PUBLIC        P3
  D:00E8H         PUBLIC        P4
  X:2B4CH         PUBLIC        UartRxBuf
 C2:D3A5H         PUBLIC        telnet_close
  X:2B57H         PUBLIC        UartTxBuf
  X:2B62H         PUBLIC        CLI_tmp
 C2:D405H         PUBLIC        telnetd_init
  D:00A8H         PUBLIC        IE
 C2:D408H         PUBLIC        telnet
  X:2B65H         PUBLIC        reverse_telnet_len
 C2:500FH         PUBLIC        ClearUARTRxBuf
  B:00E8H.0       PUBLIC        P4_0
 C2:D3FCH         PUBLIC        _ip210_isr_ctrl
  B:00A0H.4       PUBLIC        P2_4
  B:00E8H.5       PUBLIC        P4_5
  D:00B8H         PUBLIC        IP
  X:2B67H         PUBLIC        s_con_timer
  X:2B6BH         PUBLIC        silent_total
 C2:D40BH         PUBLIC        ip210_uart_isr_process
 C2:721AH         PUBLIC        ReSendUARTRx2Eth
 C2:B88EH         PUBLIC        reverse_telnet_on_tcp_rx
 C2:D3B6H         PUBLIC        telnet_init
 C2:D38FH         PUBLIC        check_RS485
  X:2B6CH         PUBLIC        listen_wait
  X:2B6DH         PUBLIC        conn_flag
  X:2B6EH         PUBLIC        cmd_index
  X:2B70H         PUBLIC        char_delimiter_offset
  D:0098H         PUBLIC        SCON
  D:0088H         PUBLIC        TCON
  X:2B74H         PUBLIC        end
  X:2B78H         PUBLIC        silent_delimiter
  X:2B8CH         PUBLIC        UartBuf
 C2:C69AH         PUBLIC        telnet_connected_init
  X:2B8EH         PUBLIC        con
 C2:D3DDH         PUBLIC        UART_RS485_Update_TxControl
BL51 BANKED LINKER/LOCATER V6.00                                                      11/05/2015  16:28:40  PAGE 225


  C:1FF0H         SYMBOL        _?ix1000
  C:1FF8H         SYMBOL        _?ix1001
  X:2B91H         PUBLIC        CLI_local
 C2:A810H         PUBLIC        telnet_init_com
  X:2B93H         PUBLIC        lb_flag
 C2:7E25H         PUBLIC        _SendUARTRx2Eth
  D:008CH         PUBLIC        TH0
  X:2B94H         PUBLIC        silent_ri
  D:008AH         PUBLIC        TL0
  D:00D8H         PUBLIC        WDTCON
  X:2B95H         PUBLIC        CLI_read_flag
  X:2B96H         PUBLIC        silent_wi
  X:2B97H         PUBLIC        CLI_flag
  B:0088H.4       PUBLIC        TR0
  X:2B98H         PUBLIC        reverse_telnet_current
 C2:9149H         PUBLIC        ResendUARTRx2UART
 C2:B682H         PUBLIC        telnet_connect
  X:2B99H         PUBLIC        tcp_check_ip
 C2:C0F1H         PUBLIC        uart_auto_send
  D:00C8H         PUBLIC        T2CON
 C2:D23FH         PUBLIC        telnetd_listen
  X:2B9DH         PUBLIC        RxBuf
  X:2B9FH         PUBLIC        TxBuf
  X:2BA1H         PUBLIC        TelnetData
 C2:9930H         PUBLIC        WriteEthRx2UART
  X:2BD0H         PUBLIC        reverse_telnet_data
 C2:D269H         PUBLIC        telnetd_close
  X:2BEEH         PUBLIC        CLI_star_flag
  X:2BEFH         PUBLIC        max_uart_rx_buf_len
  X:2BF1H         PUBLIC        max_uart_tx_buf_len
 C2:6C43H         PUBLIC        telnetd
 C2:C607H         PUBLIC        telnet_server_timeout
  X:2BF3H         PUBLIC        CLI_tmp_local
  X:2BF4H         PUBLIC        CLI_con
  D:00D0H         PUBLIC        PSW

  -------         PROC BANK=2   REVERSE_TELNET_ON_TCP_RX
 C2:B88EH         LINE#         132
 C2:B88EH         LINE#         133
 C2:B88EH         LINE#         134
 C2:B895H         LINE#         135
 C2:B895H         LINE#         136
 C2:B898H         LINE#         137
 C2:B89DH         LINE#         138
 C2:B8CAH         LINE#         139
 C2:B8E1H         LINE#         140
 C2:B8F0H         LINE#         141
 C2:B8F0H         LINE#         143
 C2:B8F9H         LINE#         144
 C2:B8FCH         LINE#         146
 C2:B903H         LINE#         147
 C2:B903H         LINE#         148
 C2:B909H         LINE#         149
 C2:B910H         LINE#         150
 C2:B91FH         LINE#         151
 C2:B92BH         LINE#         152
 C2:B92BH         LINE#         155
BL51 BANKED LINKER/LOCATER V6.00                                                      11/05/2015  16:28:40  PAGE 226


 C2:B932H         LINE#         156
 C2:B932H         LINE#         157
 C2:B962H         LINE#         158
 C2:B979H         LINE#         159
 C2:B988H         LINE#         160
 C2:B988H         LINE#         161
 C2:B98AH         LINE#         162
  -------         ENDPROC       REVERSE_TELNET_ON_TCP_RX

  -------         PROC BANK=2   _IP210_ISR_CTRL
  X:383AH         SYMBOL        status
 C2:D3FCH         LINE#         168
 C2:D401H         LINE#         169
 C2:D401H         LINE#         193
  -------         ENDPROC       _IP210_ISR_CTRL

  -------         PROC BANK=2   IP210_UART_ISR_PROCESS
 C2:D40BH         LINE#         199
 C2:D40BH         LINE#         200
 C2:D40BH         LINE#         223
  -------         ENDPROC       IP210_UART_ISR_PROCESS

  -------         PROC BANK=2   TELNET_INIT_COM
 C2:A810H         LINE#         236
 C2:A810H         LINE#         237
 C2:A810H         LINE#         240
 C2:A81EH         LINE#         241
 C2:A82AH         LINE#         243
 C2:A82FH         LINE#         245
 C2:A833H         LINE#         247
 C2:A839H         LINE#         248
 C2:A83DH         LINE#         249
 C2:A845H         LINE#         250
 C2:A84FH         LINE#         252
 C2:A854H         LINE#         253
 C2:A85EH         LINE#         254
 C2:A878H         LINE#         256
 C2:A882H         LINE#         257
 C2:A891H         LINE#         259
 C2:A8A0H         LINE#         263
 C2:A8B2H         LINE#         264
 C2:A8BDH         LINE#         265
 C2:A8C7H         LINE#         266
 C2:A8CFH         LINE#         267
 C2:A8FBH         LINE#         268
 C2:A92BH         LINE#         269
 C2:A932H         LINE#         270
 C2:A93CH         LINE#         271
 C2:A941H         LINE#         272
 C2:A945H         LINE#         273
 C2:A949H         LINE#         274
 C2:A94EH         LINE#         275
 C2:A953H         LINE#         276
 C2:A97EH         LINE#         277
 C2:A983H         LINE#         278
 C2:A98DH         LINE#         279
 C2:A997H         LINE#         280
BL51 BANKED LINKER/LOCATER V6.00                                                      11/05/2015  16:28:40  PAGE 227


 C2:A9A1H         LINE#         281
 C2:A9ABH         LINE#         283
 C2:A9B8H         LINE#         284
 C2:A9B8H         LINE#         285
 C2:A9B8H         LINE#         286
 C2:A9BAH         LINE#         287
 C2:A9BCH         LINE#         288
 C2:A9BEH         LINE#         289
 C2:A9BEH         LINE#         290
 C2:A9BEH         LINE#         291
 C2:A9BEH         LINE#         292
 C2:A9BEH         LINE#         293
 C2:A9C0H         LINE#         295
 C2:A9C2H         LINE#         296
 C2:A9C2H         LINE#         297
 C2:A9C2H         LINE#         302
 C2:A9C5H         LINE#         303
 C2:A9DAH         LINE#         304
 C2:A9EDH         LINE#         316
  -------         ENDPROC       TELNET_INIT_COM

  -------         PROC BANK=2   TELNETD_CLOSE
 C2:D269H         LINE#         329
 C2:D269H         LINE#         330
 C2:D269H         LINE#         331
 C2:D280H         LINE#         332
 C2:D287H         LINE#         333
 C2:D28BH         LINE#         335
 C2:D290H         LINE#         336
  -------         ENDPROC       TELNETD_CLOSE

  -------         PROC BANK=2   TELNETD_INIT
 C2:D405H         LINE#         349
 C2:D405H         LINE#         350
 C2:D405H         LINE#         351
  -------         ENDPROC       TELNETD_INIT

  -------         PROC BANK=2   TELNETD_LISTEN
 C2:D23FH         LINE#         365
 C2:D23FH         LINE#         366
 C2:D23FH         LINE#         367
 C2:D256H         LINE#         368
  -------         ENDPROC       TELNETD_LISTEN

  -------         PROC BANK=2   TELNET_CONNECTED_INIT
  -------         DO            
  X:37F9H         SYMBOL        con1
  -------         ENDDO         
 C2:C69AH         LINE#         370
 C2:C69AH         LINE#         371
 C2:C69AH         LINE#         372
 C2:C6A8H         LINE#         373
 C2:C6AEH         LINE#         374
 C2:C6B5H         LINE#         376
 C2:C6B5H         LINE#         379
 C2:C6CAH         LINE#         380
 C2:C6D0H         LINE#         381
BL51 BANKED LINKER/LOCATER V6.00                                                      11/05/2015  16:28:40  PAGE 228


 C2:C6D5H         LINE#         382
 C2:C6DFH         LINE#         383
 C2:C6E5H         LINE#         385
 C2:C6EBH         LINE#         386
 C2:C6EBH         LINE#         387
 C2:C708H         LINE#         388
 C2:C728H         LINE#         389
 C2:C728H         LINE#         391
 C2:C728H         LINE#         392
  -------         ENDPROC       TELNET_CONNECTED_INIT

  -------         PROC BANK=2   TELNETD
  -------         DO            
  X:362BH         SYMBOL        cont
  -------         ENDDO         
 C2:6C43H         LINE#         404
 C2:6C43H         LINE#         405
 C2:6C43H         LINE#         407
 C2:6C56H         LINE#         409
 C2:6C59H         LINE#         414
 C2:6C73H         LINE#         415
 C2:6C73H         LINE#         416
 C2:6C7CH         LINE#         417
 C2:6C7CH         LINE#         419
 C2:6C86H         LINE#         420
 C2:6C86H         LINE#         422
 C2:6C8FH         LINE#         423
 C2:6C8FH         LINE#         424
 C2:6C9CH         LINE#         425
 C2:6CA2H         LINE#         426
 C2:6CC2H         LINE#         427
 C2:6CC8H         LINE#         428
 C2:6CECH         LINE#         429
 C2:6D00H         LINE#         430
 C2:6D26H         LINE#         431
 C2:6D26H         LINE#         432
 C2:6D29H         LINE#         436
 C2:6D29H         LINE#         437
 C2:6D3DH         LINE#         438
 C2:6D3DH         LINE#         439
 C2:6D64H         LINE#         440
 C2:6D64H         LINE#         441
 C2:6D67H         LINE#         443
 C2:6D67H         LINE#         444
 C2:6D67H         LINE#         445
 C2:6D6EH         LINE#         446
 C2:6D6EH         LINE#         447
 C2:6D74H         LINE#         448
 C2:6D74H         LINE#         449
 C2:6D7AH         LINE#         450
 C2:6D7AH         LINE#         451
 C2:6D7FH         LINE#         452
 C2:6DCAH         LINE#         453
 C2:6DCFH         LINE#         454
 C2:6DD6H         LINE#         455
 C2:6DD6H         LINE#         456
 C2:6DDBH         LINE#         457
BL51 BANKED LINKER/LOCATER V6.00                                                      11/05/2015  16:28:40  PAGE 229


 C2:6DDBH         LINE#         458
 C2:6DDEH         LINE#         462
 C2:6DDEH         LINE#         463
 C2:6DE8H         LINE#         464
 C2:6DE8H         LINE#         465
 C2:6DEBH         LINE#         470
 C2:6E05H         LINE#         471
 C2:6E05H         LINE#         472
 C2:6E08H         LINE#         473
 C2:6E0FH         LINE#         474
 C2:6E0FH         LINE#         475
 C2:6E15H         LINE#         476
 C2:6E18H         LINE#         477
 C2:6E18H         LINE#         478
 C2:6E18H         LINE#         481
 C2:6E3EH         LINE#         482
 C2:6E52H         LINE#         483
 C2:6E78H         LINE#         484
 C2:6E7EH         LINE#         500
 C2:6E7EH         LINE#         501
 C2:6E85H         LINE#         502
 C2:6E85H         LINE#         506
 C2:6E8CH         LINE#         507
 C2:6E8CH         LINE#         508
 C2:6E8FH         LINE#         509
 C2:6E92H         LINE#         513
 C2:6E94H         LINE#         520
 C2:6E97H         LINE#         523
 C2:6EAFH         LINE#         524
 C2:6EAFH         LINE#         525
 C2:6EAFH         LINE#         526
 C2:6EAFH         LINE#         527
 C2:6EAFH         LINE#         528
 C2:6EB6H         LINE#         529
 C2:6EB6H         LINE#         530
 C2:6EB9H         LINE#         534
 C2:6EC6H         LINE#         535
 C2:6EC6H         LINE#         536
 C2:6EC8H         LINE#         537
 C2:6ED9H         LINE#         538
 C2:6ED9H         LINE#         539
 C2:6EDEH         LINE#         540
 C2:6EE4H         LINE#         541
 C2:6EE4H         LINE#         542
 C2:6EE4H         LINE#         543
 C2:6EE7H         LINE#         544
 C2:6EE7H         LINE#         546
 C2:6EF5H         LINE#         547
 C2:6EF5H         LINE#         548
 C2:6EF8H         LINE#         552
 C2:6EFBH         LINE#         554
 C2:6F21H         LINE#         555
 C2:6F35H         LINE#         556
 C2:6F5BH         LINE#         557
 C2:6F61H         LINE#         560
 C2:6F7BH         LINE#         561
 C2:6F7BH         LINE#         562
BL51 BANKED LINKER/LOCATER V6.00                                                      11/05/2015  16:28:40  PAGE 230


 C2:6F7EH         LINE#         563
 C2:6F85H         LINE#         564
 C2:6F85H         LINE#         565
 C2:6F8BH         LINE#         566
 C2:6F8EH         LINE#         567
 C2:6F8EH         LINE#         568
 C2:6F8EH         LINE#         570
 C2:6F93H         LINE#         571
 C2:6FA3H         LINE#         572
 C2:6FA3H         LINE#         573
 C2:6FA8H         LINE#         575
 C2:6FAEH         LINE#         577
 C2:6FAEH         LINE#         578
 C2:6FC3H         LINE#         579
 C2:6FC3H         LINE#         580
 C2:6FC6H         LINE#         581
 C2:6FCCH         LINE#         582
 C2:6FCCH         LINE#         583
 C2:6FCCH         LINE#         584
 C2:6FCCH         LINE#         585
 C2:6FD6H         LINE#         586
 C2:6FD9H         LINE#         587
 C2:6FE3H         LINE#         588
 C2:6FE3H         LINE#         589
 C2:6FE6H         LINE#         593
 C2:6FE9H         LINE#         595
 C2:6FEFH         LINE#         596
 C2:6FEFH         LINE#         597
 C2:6FF5H         LINE#         598
 C2:6FF5H         LINE#         599
 C2:6FF9H         LINE#         600
 C2:6FFFH         LINE#         601
 C2:6FFFH         LINE#         602
 C2:7004H         LINE#         603
 C2:7014H         LINE#         605
 C2:7014H         LINE#         606
 C2:7014H         LINE#         607
 C2:7014H         LINE#         608
 C2:701AH         LINE#         609
 C2:702FH         LINE#         612
 C2:7049H         LINE#         613
 C2:7049H         LINE#         614
 C2:7050H         LINE#         615
 C2:7050H         LINE#         616
 C2:7056H         LINE#         617
 C2:7059H         LINE#         618
 C2:7059H         LINE#         619
 C2:7059H         LINE#         621
 C2:7069H         LINE#         622
 C2:7069H         LINE#         623
 C2:706EH         LINE#         625
 C2:7074H         LINE#         627
 C2:7074H         LINE#         628
 C2:7089H         LINE#         629
 C2:7089H         LINE#         630
 C2:708CH         LINE#         631
 C2:7092H         LINE#         632
BL51 BANKED LINKER/LOCATER V6.00                                                      11/05/2015  16:28:40  PAGE 231


 C2:7092H         LINE#         633
 C2:7092H         LINE#         634
 C2:7092H         LINE#         635
 C2:70A9H         LINE#         636
 C2:70A9H         LINE#         637
 C2:70D7H         LINE#         638
 C2:70D7H         LINE#         639
 C2:70E1H         LINE#         640
 C2:70F2H         LINE#         641
 C2:70F2H         LINE#         642
 C2:70F7H         LINE#         643
 C2:70FDH         LINE#         644
 C2:70FDH         LINE#         645
 C2:70FDH         LINE#         646
 C2:70FDH         LINE#         647
 C2:70FDH         LINE#         648
 C2:7104H         LINE#         649
 C2:7104H         LINE#         650
 C2:7109H         LINE#         651
 C2:713EH         LINE#         652
 C2:7174H         LINE#         653
 C2:717AH         LINE#         654
 C2:717AH         LINE#         655
 C2:7188H         LINE#         656
 C2:7188H         LINE#         657
 C2:71BAH         LINE#         658
 C2:71BAH         LINE#         659
 C2:71BEH         LINE#         660
 C2:71C2H         LINE#         661
 C2:71C6H         LINE#         662
 C2:71CAH         LINE#         663
 C2:71CEH         LINE#         666
 C2:71D2H         LINE#         667
 C2:7203H         LINE#         668
 C2:7207H         LINE#         669
 C2:7207H         LINE#         670
 C2:7207H         LINE#         671
 C2:720EH         LINE#         672
 C2:720EH         LINE#         673
 C2:7213H         LINE#         674
 C2:7219H         LINE#         675
 C2:7219H         LINE#         676
  -------         ENDPROC       TELNETD

  -------         PROC BANK=2   TELNET_INIT
 C2:D3B6H         LINE#         690
 C2:D3B6H         LINE#         691
 C2:D3B6H         LINE#         692
  -------         ENDPROC       TELNET_INIT

  -------         PROC BANK=2   TELNET_CLOSE
 C2:D3A5H         LINE#         706
 C2:D3A5H         LINE#         707
 C2:D3A5H         LINE#         708
 C2:D3ACH         LINE#         709
 C2:D3B0H         LINE#         711
 C2:D3B5H         LINE#         712
BL51 BANKED LINKER/LOCATER V6.00                                                      11/05/2015  16:28:40  PAGE 232


  -------         ENDPROC       TELNET_CLOSE

  -------         PROC BANK=2   TELNET_CONNECT
  -------         DO            
  X:3766H         SYMBOL        result
  X:3767H         SYMBOL        ip
  -------         ENDDO         
 C2:B682H         LINE#         726
 C2:B682H         LINE#         727
 C2:B682H         LINE#         728
 C2:B688H         LINE#         730
 C2:B69AH         LINE#         732
 C2:B6B3H         LINE#         733
 C2:B6BBH         LINE#         734
 C2:B6BDH         LINE#         735
 C2:B6C2H         LINE#         737
 C2:B6CAH         LINE#         738
 C2:B6CBH         LINE#         740
 C2:B6E6H         LINE#         741
 C2:B6F8H         LINE#         744
 C2:B711H         LINE#         745
 C2:B711H         LINE#         747
 C2:B728H         LINE#         748
 C2:B728H         LINE#         749
 C2:B72EH         LINE#         750
 C2:B72EH         LINE#         751
 C2:B734H         LINE#         752
 C2:B737H         LINE#         753
 C2:B73FH         LINE#         754
 C2:B747H         LINE#         755
 C2:B74DH         LINE#         756
 C2:B74DH         LINE#         757
 C2:B74DH         LINE#         759
 C2:B756H         LINE#         760
 C2:B763H         LINE#         762
 C2:B788H         LINE#         763
 C2:B788H         LINE#         799
 C2:B78AH         LINE#         800
  -------         ENDPROC       TELNET_CONNECT

  -------         PROC BANK=2   TELNET
 C2:D408H         LINE#         813
 C2:D408H         LINE#         814
 C2:D408H         LINE#         815
  -------         ENDPROC       TELNET

  -------         PROC BANK=2   CLEARUARTRXBUF
  -------         DO            
  X:3633H         SYMBOL        i
  X:3634H         SYMBOL        con1
  X:3637H         SYMBOL        UART_newdata_len
  -------         DO            
  X:3639H         SYMBOL        last_wi
  -------         ENDDO         
  -------         DO            
  X:3639H         SYMBOL        WB
  -------         ENDDO         
BL51 BANKED LINKER/LOCATER V6.00                                                      11/05/2015  16:28:40  PAGE 233


  -------         ENDDO         
 C2:500FH         LINE#         836
 C2:500FH         LINE#         837
 C2:500FH         LINE#         840
 C2:501DH         LINE#         843
 C2:5022H         LINE#         844
 C2:5048H         LINE#         846
 C2:5057H         LINE#         847
 C2:505BH         LINE#         851
 C2:5068H         LINE#         852
 C2:5068H         LINE#         853
 C2:507FH         LINE#         854
 C2:507FH         LINE#         855
 C2:50DEH         LINE#         856
 C2:50DEH         LINE#         857
 C2:50E7H         LINE#         858
 C2:50E7H         LINE#         859
 C2:50F4H         LINE#         860
 C2:50F4H         LINE#         862
 C2:5108H         LINE#         863
 C2:511CH         LINE#         865
 C2:5148H         LINE#         866
 C2:5148H         LINE#         867
 C2:515FH         LINE#         868
 C2:515FH         LINE#         869
 C2:5173H         LINE#         870
 C2:5175H         LINE#         872
 C2:5175H         LINE#         873
 C2:5193H         LINE#         874
 C2:5193H         LINE#         875
 C2:5199H         LINE#         876
 C2:519FH         LINE#         877
 C2:51AAH         LINE#         878
 C2:51AAH         LINE#         879
 C2:51AAH         LINE#         880
 C2:51AAH         LINE#         881
 C2:51AAH         LINE#         882
 C2:51AAH         LINE#         883
 C2:51AAH         LINE#         885
 C2:51B0H         LINE#         886
 C2:51B0H         LINE#         887
 C2:51B3H         LINE#         888
 C2:51B6H         LINE#         890
 C2:51B6H         LINE#         892
 C2:51BCH         LINE#         894
 C2:51C7H         LINE#         909
 C2:51CDH         LINE#         910
 C2:51CDH         LINE#         912
 C2:51EBH         LINE#         913
 C2:51EBH         LINE#         915
 C2:51EEH         LINE#         916
 C2:51F0H         LINE#         918
 C2:51F0H         LINE#         920
 C2:51F3H         LINE#         921
 C2:51F3H         LINE#         922
 C2:51F3H         LINE#         926
 C2:520FH         LINE#         928
BL51 BANKED LINKER/LOCATER V6.00                                                      11/05/2015  16:28:40  PAGE 234


 C2:520FH         LINE#         929
 C2:521AH         LINE#         930
 C2:521AH         LINE#         932
 C2:5238H         LINE#         937
 C2:5238H         LINE#         938
 C2:523DH         LINE#         939
 C2:5249H         LINE#         940
 C2:5266H         LINE#         941
 C2:5286H         LINE#         942
 C2:528FH         LINE#         943
 C2:5292H         LINE#         945
 C2:5292H         LINE#         946
 C2:5297H         LINE#         947
 C2:52A1H         LINE#         948
 C2:52A5H         LINE#         949
 C2:52DBH         LINE#         950
 C2:52EBH         LINE#         951
 C2:52F1H         LINE#         952
 C2:52F1H         LINE#         953
 C2:52FEH         LINE#         954
 C2:531EH         LINE#         955
 C2:531EH         LINE#         956
 C2:5325H         LINE#         957
 C2:5369H         LINE#         958
 C2:5369H         LINE#         959
 C2:5369H         LINE#         960
 C2:5369H         LINE#         964
 C2:537CH         LINE#         965
 C2:537CH         LINE#         966
 C2:539AH         LINE#         967
 C2:539AH         LINE#         968
 C2:53C5H         LINE#         969
 C2:53D9H         LINE#         970
 C2:53F8H         LINE#         971
 C2:53F8H         LINE#         972
 C2:541AH         LINE#         985
 C2:5441H         LINE#         989
 C2:5441H         LINE#         990
 C2:545CH         LINE#         991
 C2:545CH         LINE#         992
 C2:5465H         LINE#         993
 C2:5465H         LINE#         994
 C2:548AH         LINE#         995
 C2:548AH         LINE#         996
 C2:54AAH         LINE#         997
 C2:54AAH         LINE#         998
 C2:54E5H         LINE#         999
 C2:54FAH         LINE#         1000
 C2:54FDH         LINE#         1001
 C2:54FDH         LINE#         1003
 C2:54FDH         LINE#         1004
 C2:5528H         LINE#         1005
 C2:5528H         LINE#         1006
 C2:5528H         LINE#         1007
 C2:5528H         LINE#         1008
 C2:552BH         LINE#         1010
 C2:552BH         LINE#         1011
BL51 BANKED LINKER/LOCATER V6.00                                                      11/05/2015  16:28:40  PAGE 235


 C2:5546H         LINE#         1012
 C2:5546H         LINE#         1013
 C2:557DH         LINE#         1014
 C2:5592H         LINE#         1015
 C2:5594H         LINE#         1017
 C2:5594H         LINE#         1018
 C2:55CFH         LINE#         1019
 C2:55D5H         LINE#         1020
 C2:55D5H         LINE#         1021
 C2:55D5H         LINE#         1022
 C2:55E0H         LINE#         1023
 C2:55E0H         LINE#         1024
 C2:5604H         LINE#         1025
 C2:5604H         LINE#         1026
 C2:5611H         LINE#         1027
 C2:5616H         LINE#         1028
 C2:5620H         LINE#         1029
 C2:5655H         LINE#         1030
 C2:568BH         LINE#         1031
 C2:5690H         LINE#         1032
 C2:5696H         LINE#         1033
 C2:5696H         LINE#         1034
 C2:5699H         LINE#         1035
 C2:56B9H         LINE#         1036
 C2:56BBH         LINE#         1038
 C2:56BEH         LINE#         1039
 C2:56C5H         LINE#         1040
 C2:56C7H         LINE#         1041
 C2:56C7H         LINE#         1043
 C2:56CCH         LINE#         1044
 C2:56CCH         LINE#         1045
 C2:56D5H         LINE#         1046
 C2:56D5H         LINE#         1049
 C2:56E7H         LINE#         1050
 C2:5703H         LINE#         1051
 C2:5713H         LINE#         1052
 C2:572DH         LINE#         1053
 C2:574EH         LINE#         1054
 C2:575CH         LINE#         1055
 C2:575FH         LINE#         1056
 C2:575FH         LINE#         1057
 C2:575FH         LINE#         1058
 C2:575FH         LINE#         1059
 C2:5762H         LINE#         1060
 C2:5789H         LINE#         1061
 C2:5797H         LINE#         1062
 C2:5799H         LINE#         1063
 C2:5799H         LINE#         1064
 C2:5799H         LINE#         1065
 C2:5799H         LINE#         1066
 C2:579BH         LINE#         1067
 C2:57C2H         LINE#         1068
 C2:57D0H         LINE#         1069
 C2:57D2H         LINE#         1070
 C2:57D2H         LINE#         1071
 C2:57D2H         LINE#         1072
 C2:57D2H         LINE#         1073
BL51 BANKED LINKER/LOCATER V6.00                                                      11/05/2015  16:28:40  PAGE 236


 C2:57D4H         LINE#         1074
 C2:57FBH         LINE#         1075
 C2:5809H         LINE#         1076
 C2:580BH         LINE#         1077
 C2:580BH         LINE#         1078
 C2:5812H         LINE#         1079
 C2:5812H         LINE#         1080
 C2:5812H         LINE#         1081
 C2:5812H         LINE#         1082
 C2:5812H         LINE#         1083
 C2:581BH         LINE#         1084
 C2:581BH         LINE#         1087
 C2:5833H         LINE#         1088
 C2:583FH         LINE#         1089
 C2:5848H         LINE#         1090
 C2:584FH         LINE#         1091
 C2:5851H         LINE#         1092
 C2:585BH         LINE#         1094
 C2:5873H         LINE#         1095
 C2:58BDH         LINE#         1096
 C2:58BDH         LINE#         1099
 C2:58C6H         LINE#         1100
 C2:58D8H         LINE#         1105
 C2:58DBH         LINE#         1107
 C2:58DBH         LINE#         1108
 C2:58F6H         LINE#         1109
 C2:5916H         LINE#         1124
 C2:591DH         LINE#         1125
 C2:593EH         LINE#         1135
 C2:5960H         LINE#         1136
 C2:596CH         LINE#         1137
 C2:596CH         LINE#         1138
 C2:596EH         LINE#         1140
 C2:596EH         LINE#         1141
 C2:5974H         LINE#         1142
 C2:5988H         LINE#         1143
 C2:598EH         LINE#         1144
 C2:598EH         LINE#         1145
 C2:599AH         LINE#         1146
 C2:59A8H         LINE#         1147
 C2:59A8H         LINE#         1148
 C2:59B1H         LINE#         1149
 C2:59B1H         LINE#         1150
 C2:59BDH         LINE#         1151
 C2:59DCH         LINE#         1152
 C2:59DCH         LINE#         1156
 C2:59DCH         LINE#         1157
 C2:59DCH         LINE#         1158
 C2:59DCH         LINE#         1159
 C2:59E1H         LINE#         1160
  -------         ENDPROC       CLEARUARTRXBUF

  -------         PROC BANK=2   _SENDUARTRX2ETH
  X:347EH         SYMBOL        protocol
  -------         DO            
  X:347FH         SYMBOL        check
  X:3481H         SYMBOL        mss
BL51 BANKED LINKER/LOCATER V6.00                                                      11/05/2015  16:28:40  PAGE 237


  X:3483H         SYMBOL        i
  X:3485H         SYMBOL        current_pos
  D:0006H         SYMBOL        current_pos2
  D:0006H         SYMBOL        len
  X:3487H         SYMBOL        wrap
  -------         ENDDO         
 C2:7E25H         LINE#         1173
 C2:7E2AH         LINE#         1174
 C2:7E2AH         LINE#         1176
 C2:7E46H         LINE#         1178
 C2:7E50H         LINE#         1179
 C2:7E55H         LINE#         1183
 C2:7E78H         LINE#         1189
 C2:7E81H         LINE#         1193
 C2:7E92H         LINE#         1194
 C2:7EA8H         LINE#         1195
 C2:7EA8H         LINE#         1197
 C2:7EC8H         LINE#         1198
 C2:7EC8H         LINE#         1199
 C2:7ED3H         LINE#         1200
 C2:7ED3H         LINE#         1201
 C2:7ED6H         LINE#         1205
 C2:7ED6H         LINE#         1206
 C2:7F01H         LINE#         1207
 C2:7F0EH         LINE#         1208
 C2:7F0EH         LINE#         1209
 C2:7F2BH         LINE#         1210
 C2:7F32H         LINE#         1211
 C2:7F32H         LINE#         1212
 C2:7F49H         LINE#         1213
 C2:7F49H         LINE#         1214
 C2:7F5DH         LINE#         1215
 C2:7F5DH         LINE#         1216
 C2:7F74H         LINE#         1217
 C2:7F74H         LINE#         1218
 C2:7F84H         LINE#         1219
 C2:7F98H         LINE#         1220
 C2:7F9BH         LINE#         1221
 C2:7F9BH         LINE#         1222
 C2:7F9BH         LINE#         1223
 C2:7FA9H         LINE#         1224
 C2:7FB6H         LINE#         1225
 C2:7FB6H         LINE#         1226
 C2:7FB9H         LINE#         1227
 C2:7FB9H         LINE#         1228
 C2:7FD9H         LINE#         1229
 C2:7FD9H         LINE#         1230
 C2:7FE4H         LINE#         1231
 C2:7FFCH         LINE#         1232
 C2:7FFCH         LINE#         1233
 C2:8002H         LINE#         1234
 C2:8008H         LINE#         1235
 C2:8016H         LINE#         1236
 C2:8016H         LINE#         1237
 C2:8019H         LINE#         1238
 C2:8019H         LINE#         1239
 C2:8019H         LINE#         1240
BL51 BANKED LINKER/LOCATER V6.00                                                      11/05/2015  16:28:40  PAGE 238


 C2:802DH         LINE#         1241
 C2:802DH         LINE#         1242
 C2:805BH         LINE#         1243
 C2:805BH         LINE#         1244
 C2:805BH         LINE#         1245
 C2:805DH         LINE#         1246
 C2:805DH         LINE#         1247
 C2:805DH         LINE#         1248
 C2:8071H         LINE#         1249
 C2:8071H         LINE#         1250
 C2:809FH         LINE#         1251
 C2:809FH         LINE#         1252
 C2:80B1H         LINE#         1253
 C2:80B3H         LINE#         1254
 C2:80B3H         LINE#         1255
 C2:80B3H         LINE#         1256
 C2:80C4H         LINE#         1257
 C2:80DBH         LINE#         1258
 C2:80DBH         LINE#         1259
 C2:80EAH         LINE#         1260
 C2:80F1H         LINE#         1261
 C2:80F3H         LINE#         1263
 C2:80F3H         LINE#         1264
 C2:80FAH         LINE#         1265
 C2:810EH         LINE#         1266
 C2:810EH         LINE#         1268
 C2:8110H         LINE#         1270
 C2:8110H         LINE#         1271
 C2:8134H         LINE#         1274
 C2:8134H         LINE#         1276
 C2:815EH         LINE#         1277
 C2:815EH         LINE#         1278
 C2:8164H         LINE#         1279
 C2:8164H         LINE#         1280
 C2:816DH         LINE#         1281
 C2:816DH         LINE#         1282
 C2:817DH         LINE#         1283
 C2:81BBH         LINE#         1284
 C2:81BBH         LINE#         1285
  -------         ENDPROC       _SENDUARTRX2ETH

  -------         PROC BANK=2   RESENDUARTRX2ETH
  -------         DO            
  X:35E0H         SYMBOL        mss
  X:35E2H         SYMBOL        len
  -------         DO            
  X:35E4H         SYMBOL        i
  X:35E5H         SYMBOL        remain_len
  X:35E7H         SYMBOL        old_ri
  -------         ENDDO         
  -------         ENDDO         
 C2:721AH         LINE#         1298
 C2:721AH         LINE#         1299
 C2:721AH         LINE#         1300
 C2:7235H         LINE#         1301
 C2:723AH         LINE#         1304
 C2:7243H         LINE#         1307
BL51 BANKED LINKER/LOCATER V6.00                                                      11/05/2015  16:28:40  PAGE 239


 C2:7260H         LINE#         1309
 C2:726AH         LINE#         1311
 C2:726AH         LINE#         1324
 C2:726AH         LINE#         1328
 C2:728EH         LINE#         1331
 C2:7291H         LINE#         1336
 C2:72B3H         LINE#         1337
 C2:72B3H         LINE#         1340
 C2:72E8H         LINE#         1341
 C2:72EBH         LINE#         1343
 C2:72EBH         LINE#         1346
 C2:7333H         LINE#         1347
 C2:738BH         LINE#         1348
 C2:738BH         LINE#         1350
 C2:738EH         LINE#         1355
 C2:73A4H         LINE#         1356
 C2:73A4H         LINE#         1357
 C2:73B5H         LINE#         1360
 C2:73B7H         LINE#         1362
 C2:73B7H         LINE#         1363
 C2:73C6H         LINE#         1366
 C2:73C6H         LINE#         1367
 C2:73D5H         LINE#         1369
 C2:73F9H         LINE#         1374
 C2:73F9H         LINE#         1377
 C2:73F9H         LINE#         1379
 C2:73FEH         LINE#         1380
 C2:7401H         LINE#         1384
 C2:7406H         LINE#         1385
 C2:741FH         LINE#         1386
 C2:741FH         LINE#         1388
 C2:7433H         LINE#         1389
 C2:7442H         LINE#         1391
 C2:7448H         LINE#         1393
 C2:7464H         LINE#         1395
 C2:747DH         LINE#         1397
 C2:7492H         LINE#         1399
 C2:74A7H         LINE#         1400
 C2:74A7H         LINE#         1402
 C2:74AAH         LINE#         1406
 C2:74BEH         LINE#         1407
 C2:74E0H         LINE#         1409
 C2:7504H         LINE#         1411
 C2:7510H         LINE#         1412
 C2:7536H         LINE#         1414
 C2:7550H         LINE#         1416
 C2:7565H         LINE#         1418
 C2:7581H         LINE#         1419
 C2:7581H         LINE#         1421
 C2:75BCH         LINE#         1425
 C2:75BFH         LINE#         1427
 C2:75BFH         LINE#         1429
 C2:7616H         LINE#         1430
 C2:7683H         LINE#         1435
 C2:7683H         LINE#         1436
 C2:768CH         LINE#         1437
 C2:769BH         LINE#         1438
BL51 BANKED LINKER/LOCATER V6.00                                                      11/05/2015  16:28:40  PAGE 240


 C2:76B0H         LINE#         1439
 C2:76B0H         LINE#         1440
 C2:76B4H         LINE#         1441
 C2:76B8H         LINE#         1442
 C2:76B8H         LINE#         1444
 C2:76B8H         LINE#         1445
 C2:76BDH         LINE#         1446
 C2:76C0H         LINE#         1451
  -------         ENDPROC       RESENDUARTRX2ETH

  -------         PROC BANK=2   WRITEETHRX2UART
  -------         DO            
  X:3794H         SYMBOL        len
  D:0006H         SYMBOL        tx_fifo_space
  -------         DO            
  X:3796H         SYMBOL        RB
  -------         ENDDO         
  -------         ENDDO         
 C2:9930H         LINE#         1464
 C2:9930H         LINE#         1465
 C2:9930H         LINE#         1468
 C2:9939H         LINE#         1471
 C2:9957H         LINE#         1472
 C2:9957H         LINE#         1474
 C2:996BH         LINE#         1475
 C2:996BH         LINE#         1478
 C2:9981H         LINE#         1479
 C2:9981H         LINE#         1480
 C2:9981H         LINE#         1481
 C2:9993H         LINE#         1482
 C2:9993H         LINE#         1484
 C2:99A4H         LINE#         1485
 C2:99A4H         LINE#         1486
 C2:99A6H         LINE#         1487
 C2:99A6H         LINE#         1489
 C2:99ABH         LINE#         1493
 C2:99B8H         LINE#         1494
 C2:99B8H         LINE#         1495
 C2:99C8H         LINE#         1496
 C2:99C8H         LINE#         1497
 C2:99CDH         LINE#         1498
 C2:99CFH         LINE#         1500
 C2:99CFH         LINE#         1501
 C2:99D4H         LINE#         1502
 C2:99D4H         LINE#         1504
 C2:99F7H         LINE#         1505
 C2:99F7H         LINE#         1506
 C2:9A13H         LINE#         1507
 C2:9A51H         LINE#         1508
 C2:9A54H         LINE#         1510
 C2:9A54H         LINE#         1511
 C2:9A71H         LINE#         1512
 C2:9A8DH         LINE#         1513
 C2:9AD8H         LINE#         1514
 C2:9B09H         LINE#         1515
 C2:9B6EH         LINE#         1516
 C2:9B6EH         LINE#         1517
BL51 BANKED LINKER/LOCATER V6.00                                                      11/05/2015  16:28:40  PAGE 241


 C2:9B6EH         LINE#         1518
 C2:9B6EH         LINE#         1519
 C2:9B74H         LINE#         1520
 C2:9B83H         LINE#         1521
 C2:9B83H         LINE#         1522
 C2:9B8AH         LINE#         1523
 C2:9B8AH         LINE#         1525
  -------         ENDPROC       WRITEETHRX2UART

  -------         PROC BANK=2   RESENDUARTRX2UART
  -------         DO            
  X:3798H         SYMBOL        i
  X:3799H         SYMBOL        back
  -------         ENDDO         
 C2:9149H         LINE#         1540
 C2:9149H         LINE#         1541
 C2:9149H         LINE#         1543
 C2:9157H         LINE#         1545
 C2:916FH         LINE#         1546
 C2:916FH         LINE#         1547
 C2:9199H         LINE#         1548
 C2:9199H         LINE#         1549
 C2:91BEH         LINE#         1550
 C2:91BEH         LINE#         1551
 C2:91CDH         LINE#         1552
 C2:91D0H         LINE#         1553
 C2:91DFH         LINE#         1554
 C2:91E4H         LINE#         1555
 C2:91E8H         LINE#         1556
 C2:91F7H         LINE#         1557
 C2:9202H         LINE#         1558
 C2:9202H         LINE#         1559
 C2:9206H         LINE#         1560
 C2:923CH         LINE#         1561
 C2:9272H         LINE#         1562
 C2:9277H         LINE#         1563
 C2:927CH         LINE#         1564
 C2:9282H         LINE#         1565
 C2:9285H         LINE#         1566
 C2:9285H         LINE#         1568
 C2:9285H         LINE#         1569
 C2:928EH         LINE#         1570
 C2:92ABH         LINE#         1571
 C2:92ABH         LINE#         1572
 C2:92AEH         LINE#         1573
 C2:92DAH         LINE#         1574
 C2:92DAH         LINE#         1575
 C2:92DEH         LINE#         1576
 C2:92DEH         LINE#         1577
 C2:92EAH         LINE#         1578
 C2:9316H         LINE#         1579
 C2:9318H         LINE#         1581
 C2:9318H         LINE#         1582
 C2:931EH         LINE#         1583
 C2:9359H         LINE#         1585
 C2:9362H         LINE#         1586
 C2:9365H         LINE#         1587
BL51 BANKED LINKER/LOCATER V6.00                                                      11/05/2015  16:28:40  PAGE 242


 C2:936BH         LINE#         1588
 C2:9393H         LINE#         1589
 C2:9393H         LINE#         1590
 C2:939CH         LINE#         1591
 C2:93A2H         LINE#         1592
 C2:9404H         LINE#         1593
 C2:9404H         LINE#         1594
  -------         ENDPROC       RESENDUARTRX2UART

  -------         PROC BANK=2   READETH2UARTTXBUF
  -------         DO            
  X:3822H         SYMBOL        WB
  X:3822H         SYMBOL        WB
  -------         ENDDO         
  -------         DO            
  X:3822H         SYMBOL        WB
  -------         ENDDO         
 C2:883FH         LINE#         1608
 C2:883FH         LINE#         1609
 C2:883FH         LINE#         1614
 C2:8848H         LINE#         1626
 C2:884BH         LINE#         1631
 C2:8854H         LINE#         1632
 C2:8854H         LINE#         1633
 C2:8878H         LINE#         1634
 C2:8878H         LINE#         1635
 C2:8894H         LINE#         1636
 C2:8894H         LINE#         1637
 C2:88C9H         LINE#         1638
 C2:88FFH         LINE#         1639
 C2:8902H         LINE#         1641
 C2:8902H         LINE#         1642
 C2:891DH         LINE#         1643
 C2:8952H         LINE#         1644
 C2:8959H         LINE#         1645
 C2:89A0H         LINE#         1646
 C2:89C1H         LINE#         1647
 C2:89D2H         LINE#         1648
 C2:89D2H         LINE#         1649
 C2:89D5H         LINE#         1652
 C2:89D5H         LINE#         1655
 C2:89D5H         LINE#         1656
 C2:89F9H         LINE#         1657
 C2:89F9H         LINE#         1658
 C2:8A18H         LINE#         1659
 C2:8A18H         LINE#         1662
 C2:8A4DH         LINE#         1663
 C2:8A94H         LINE#         1664
 C2:8A97H         LINE#         1666
 C2:8A97H         LINE#         1667
 C2:8AB2H         LINE#         1668
 C2:8AE7H         LINE#         1669
 C2:8AEEH         LINE#         1670
 C2:8B35H         LINE#         1671
 C2:8B56H         LINE#         1672
 C2:8B6AH         LINE#         1674
 C2:8B6AH         LINE#         1675
BL51 BANKED LINKER/LOCATER V6.00                                                      11/05/2015  16:28:40  PAGE 243


 C2:8B6CH         LINE#         1677
 C2:8B6CH         LINE#         1678
 C2:8B70H         LINE#         1679
 C2:8B70H         LINE#         1680
 C2:8B70H         LINE#         1681
 C2:8B74H         LINE#         1682
  -------         ENDPROC       READETH2UARTTXBUF

  -------         PROC BANK=2   CLEARUARTRXBUF_PARITYERROR
  -------         DO            
  X:363BH         SYMBOL        i
  X:363CH         SYMBOL        rx_status
  X:363DH         SYMBOL        reg_data
  X:363EH         SYMBOL        Rx_data
  X:363FH         SYMBOL        ring_space
  X:3641H         SYMBOL        write_boundary
  -------         ENDDO         
 C2:8E79H         LINE#         1684
 C2:8E79H         LINE#         1685
 C2:8E79H         LINE#         1691
 C2:8E81H         LINE#         1693
 C2:8E8BH         LINE#         1694
 C2:8E8BH         LINE#         1696
 C2:8EA6H         LINE#         1698
 C2:8EB4H         LINE#         1699
 C2:8EB4H         LINE#         1700
 C2:8EC8H         LINE#         1701
 C2:8EE4H         LINE#         1703
 C2:8EEDH         LINE#         1704
 C2:8EEDH         LINE#         1705
 C2:8EEDH         LINE#         1706
 C2:8EEFH         LINE#         1707
 C2:8EF6H         LINE#         1708
 C2:8EF6H         LINE#         1711
 C2:8F13H         LINE#         1713
 C2:8F21H         LINE#         1714
 C2:8F2FH         LINE#         1715
 C2:8F3DH         LINE#         1716
 C2:8F43H         LINE#         1720
 C2:8F4AH         LINE#         1721
 C2:8F4AH         LINE#         1722
 C2:8F4AH         LINE#         1723
 C2:8F4AH         LINE#         1724
 C2:8F4CH         LINE#         1726
 C2:8F4CH         LINE#         1728
 C2:8F4FH         LINE#         1729
 C2:8F4FH         LINE#         1730
 C2:8F4FH         LINE#         1731
 C2:8F4FH         LINE#         1733
 C2:8F4FH         LINE#         1734
 C2:8F57H         LINE#         1735
 C2:8F5FH         LINE#         1736
 C2:8F5FH         LINE#         1737
 C2:8F5FH         LINE#         1738
 C2:8F61H         LINE#         1740
 C2:8F6DH         LINE#         1741
 C2:8F6DH         LINE#         1742
BL51 BANKED LINKER/LOCATER V6.00                                                      11/05/2015  16:28:40  PAGE 244


 C2:8F70H         LINE#         1744
 C2:8F83H         LINE#         1745
 C2:8F93H         LINE#         1749
 C2:8F9FH         LINE#         1750
 C2:8F9FH         LINE#         1751
 C2:8FA4H         LINE#         1752
 C2:8FACH         LINE#         1753
 C2:8FAEH         LINE#         1754
 C2:8FAEH         LINE#         1755
 C2:8FAEH         LINE#         1760
 C2:8FB8H         LINE#         1761
 C2:8FB8H         LINE#         1764
 C2:8FC2H         LINE#         1765
 C2:8FC2H         LINE#         1766
 C2:8FD6H         LINE#         1767
 C2:8FDEH         LINE#         1768
 C2:8FECH         LINE#         1769
 C2:9007H         LINE#         1770
 C2:9009H         LINE#         1772
 C2:9009H         LINE#         1773
 C2:9028H         LINE#         1774
 C2:9036H         LINE#         1775
 C2:9044H         LINE#         1776
 C2:9052H         LINE#         1777
 C2:9052H         LINE#         1778
 C2:9058H         LINE#         1779
 C2:905FH         LINE#         1780
 C2:905FH         LINE#         1781
 C2:905FH         LINE#         1782
 C2:905FH         LINE#         1783
 C2:9061H         LINE#         1785
 C2:9061H         LINE#         1787
 C2:9064H         LINE#         1788
 C2:9064H         LINE#         1789
 C2:9064H         LINE#         1790
 C2:9064H         LINE#         1792
 C2:9064H         LINE#         1793
 C2:906CH         LINE#         1794
 C2:9074H         LINE#         1795
 C2:9074H         LINE#         1796
 C2:9074H         LINE#         1797
 C2:9077H         LINE#         1799
 C2:9083H         LINE#         1800
 C2:9083H         LINE#         1801
 C2:9086H         LINE#         1803
 C2:9099H         LINE#         1804
 C2:90A9H         LINE#         1808
 C2:90B2H         LINE#         1809
 C2:90B2H         LINE#         1810
 C2:90B7H         LINE#         1811
 C2:90BFH         LINE#         1812
 C2:90C1H         LINE#         1813
 C2:90C1H         LINE#         1815
 C2:90C1H         LINE#         1816
 C2:90C1H         LINE#         1818
 C2:90C1H         LINE#         1819
 C2:90C7H         LINE#         1822
BL51 BANKED LINKER/LOCATER V6.00                                                      11/05/2015  16:28:40  PAGE 245


 C2:90D9H         LINE#         1823
 C2:90DFH         LINE#         1824
 C2:90DFH         LINE#         1825
 C2:90EBH         LINE#         1826
 C2:90F9H         LINE#         1827
 C2:90F9H         LINE#         1828
 C2:9102H         LINE#         1829
 C2:9102H         LINE#         1830
 C2:910EH         LINE#         1831
 C2:912DH         LINE#         1832
 C2:912DH         LINE#         1836
 C2:912DH         LINE#         1837
 C2:912DH         LINE#         1839
 C2:9133H         LINE#         1840
 C2:9133H         LINE#         1842
 C2:9142H         LINE#         1843
 C2:9142H         LINE#         1845
 C2:9145H         LINE#         1846
 C2:9145H         LINE#         1848
 C2:9145H         LINE#         1850
 C2:9148H         LINE#         1851
 C2:9148H         LINE#         1852
 C2:9148H         LINE#         1853
 C2:9148H         LINE#         1855
  -------         ENDPROC       CLEARUARTRXBUF_PARITYERROR

  -------         PROC BANK=2   UART_RS485_UPDATE_TXCONTROL
  -------         DO            
  D:0007H         SYMBOL        reg_data
  -------         ENDDO         
 C2:D3DDH         LINE#         1857
 C2:D3DDH         LINE#         1858
 C2:D3DDH         LINE#         1859
 C2:D3DDH         LINE#         1861
 C2:D3E1H         LINE#         1862
 C2:D3E4H         LINE#         1863
 C2:D3E4H         LINE#         1864
 C2:D3E6H         LINE#         1865
 C2:D3E6H         LINE#         1866
  -------         ENDPROC       UART_RS485_UPDATE_TXCONTROL

  -------         PROC BANK=2   UART_AUTO_SEND
  -------         DO            
  X:3824H         SYMBOL        timer0_tick
  -------         ENDDO         
 C2:C0F1H         LINE#         1880
 C2:C0F1H         LINE#         1881
 C2:C0F1H         LINE#         1882
 C2:C0F8H         LINE#         1884
 C2:C111H         LINE#         1885
 C2:C111H         LINE#         1886
 C2:C114H         LINE#         1891
 C2:C12FH         LINE#         1896
 C2:C12FH         LINE#         1897
 C2:C131H         LINE#         1898
 C2:C145H         LINE#         1900
 C2:C151H         LINE#         1901
BL51 BANKED LINKER/LOCATER V6.00                                                      11/05/2015  16:28:40  PAGE 246


 C2:C151H         LINE#         1902
 C2:C161H         LINE#         1903
 C2:C167H         LINE#         1911
 C2:C167H         LINE#         1913
 C2:C16AH         LINE#         1914
 C2:C16CH         LINE#         1915
 C2:C16CH         LINE#         1916
 C2:C16EH         LINE#         1917
 C2:C16EH         LINE#         1918
 C2:C16EH         LINE#         1919
 C2:C174H         LINE#         1920
 C2:C174H         LINE#         1921
 C2:C189H         LINE#         1922
 C2:C18EH         LINE#         1923
 C2:C191H         LINE#         1925
 C2:C194H         LINE#         1927
 C2:C199H         LINE#         1928
 C2:C199H         LINE#         1929
  -------         ENDPROC       UART_AUTO_SEND

  -------         PROC BANK=2   CHECK_RS485
 C2:D38FH         LINE#         1931
 C2:D38FH         LINE#         1932
 C2:D39FH         LINE#         1933
 C2:D3A2H         LINE#         1935
 C2:D3A4H         LINE#         1936
  -------         ENDPROC       CHECK_RS485

  -------         PROC BANK=2   TELNET_SERVER_TIMEOUT
 C2:C607H         LINE#         1938
 C2:C607H         LINE#         1939
 C2:C610H         LINE#         1940
 C2:C610H         LINE#         1941
 C2:C62DH         LINE#         1942
 C2:C62FH         LINE#         1943
 C2:C635H         LINE#         1944
 C2:C635H         LINE#         1945
 C2:C694H         LINE#         1946
 C2:C699H         LINE#         1947
 C2:C699H         LINE#         1948
 C2:C699H         LINE#         1949
  -------         ENDPROC       TELNET_SERVER_TIMEOUT
  -------         ENDMOD        TELNET

  -------         MODULE        NET_CMD
  C:0000H         SYMBOL        _ICE_DUMMY_
 C5:7B91H         PUBLIC        CheckConnID
  D:0080H         PUBLIC        P0
  D:0090H         PUBLIC        P1
 C5:6624H         PUBLIC        MPProcess
  D:00A0H         PUBLIC        P2
  D:00B0H         PUBLIC        P3
  D:00E8H         PUBLIC        P4
 C5:7D57H         PUBLIC        LocalCmd
 C5:7991H         PUBLIC        en_loopback
 C5:6EA9H         PUBLIC        udp_net_cmd
  X:2A74H         PUBLIC        SearchAckOP
BL51 BANKED LINKER/LOCATER V6.00                                                      11/05/2015  16:28:40  PAGE 247


 C5:7E7BH         PUBLIC        OnchannelRequest
 C5:6840H         PUBLIC        OnLoginAccount
  D:00A8H         PUBLIC        IE
 C5:752DH         PUBLIC        CRC_operation
  B:00B0H.2       PUBLIC        P3_2
  B:00B0H.3       PUBLIC        P3_3
 C5:743BH         PUBLIC        _crc
  D:00B8H         PUBLIC        IP
  X:2A77H         PUBLIC        MP_flag
 C5:7880H         PUBLIC        AgingNetCmdConnTable
 C5:7F7FH         PUBLIC        reset_device_req
 C5:8201H         PUBLIC        SendAccessGPIOAck
 C5:6D63H         PUBLIC        OnLoginRequest
 C5:7FD4H         PUBLIC        NetCmdOnTCPRx
  D:0098H         PUBLIC        SCON
  D:0088H         PUBLIC        TCON
 C5:77ECH         PUBLIC        GenConnID
  X:2A78H         PUBLIC        NetCmdData
 C5:500FH         PUBLIC        NetCmd
  C:3C2DH         SYMBOL        _?ix1000
 C5:81FEH         PUBLIC        NetCmdTimer
  C:3C31H         SYMBOL        _?ix1001
 C5:76B7H         PUBLIC        LocalCmdTxPrefix
  C:3C35H         SYMBOL        _?ix1002
  C:3C54H         SYMBOL        _?ix1003
 C5:7A14H         PUBLIC        NetCmdSend
 C5:816DH         PUBLIC        _OngpioRequestAck
  D:00D8H         PUBLIC        WDTCON
 C5:8142H         PUBLIC        NetCmdInit
  X:2B3AH         PUBLIC        crc_buf
 C5:7E20H         PUBLIC        _SendLoginMD5Key
 C5:7756H         PUBLIC        OngpioRequest
 C5:7103H         PUBLIC        eep_read_req
 C5:7B14H         PUBLIC        CRC_info
  D:00C8H         PUBLIC        T2CON
 C5:81DCH         PUBLIC        SearchEmptyConnTable
 C5:7CEDH         PUBLIC        _SendLoginResult
  X:2B4AH         PUBLIC        borcast_flag
 C5:8202H         PUBLIC        OnAccessGPIOReq
 C5:7A94H         PUBLIC        dis_loopback
 C5:7222H         PUBLIC        eep_write_req
 C5:7F2AH         PUBLIC        _FindSA
  D:00D0H         PUBLIC        PSW
 C5:810AH         PUBLIC        _OnchannelRequestAck

  -------         PROC BANK=5   NETCMDINIT
  -------         DO            
  D:0003H         SYMBOL        i
  -------         ENDDO         
 C5:8142H         LINE#         103
 C5:8142H         LINE#         104
 C5:8142H         LINE#         106
 C5:8144H         LINE#         107
 C5:8144H         LINE#         108
 C5:8159H         LINE#         109
 C5:815EH         LINE#         110
 C5:8167H         LINE#         111
BL51 BANKED LINKER/LOCATER V6.00                                                      11/05/2015  16:28:40  PAGE 248


  -------         ENDPROC       NETCMDINIT

  -------         PROC BANK=5   _FINDSA
  X:37FCH         SYMBOL        SA
  D:0005H         SYMBOL        StartIdx
  -------         DO            
  D:0007H         SYMBOL        i
  D:0006H         SYMBOL        j
  -------         ENDDO         
 C5:7F2AH         LINE#         128
 C5:7F35H         LINE#         129
 C5:7F35H         LINE#         131
 C5:7F3DH         LINE#         132
 C5:7F3DH         LINE#         133
 C5:7F3FH         LINE#         134
 C5:7F3FH         LINE#         135
 C5:7F6FH         LINE#         136
 C5:7F74H         LINE#         137
 C5:7F79H         LINE#         138
 C5:7F7CH         LINE#         139
 C5:7F7EH         LINE#         140
  -------         ENDPROC       _FINDSA

  -------         PROC BANK=5   CHECKCONNID
  -------         DO            
  X:383BH         SYMBOL        ConnIdx
  -------         ENDDO         
 C5:7B91H         LINE#         153
 C5:7B91H         LINE#         154
 C5:7B91H         LINE#         155
 C5:7B96H         LINE#         156
 C5:7BA9H         LINE#         157
 C5:7BB0H         LINE#         158
 C5:7BB0H         LINE#         159
 C5:7BE3H         LINE#         160
 C5:7BE3H         LINE#         161
 C5:7BE9H         LINE#         162
 C5:7BE9H         LINE#         163
 C5:7C07H         LINE#         164
 C5:7C09H         LINE#         165
 C5:7C0BH         LINE#         166
  -------         ENDPROC       CHECKCONNID

  -------         PROC BANK=5   LOCALCMDTXPREFIX
  -------         DO            
  X:383CH         SYMBOL        i
  -------         ENDDO         
 C5:76B7H         LINE#         179
 C5:76B7H         LINE#         180
 C5:76B7H         LINE#         182
 C5:76C6H         LINE#         183
 C5:76C6H         LINE#         184
 C5:76F9H         LINE#         185
 C5:7716H         LINE#         186
 C5:771EH         LINE#         187
 C5:7734H         LINE#         188
 C5:773FH         LINE#         189
BL51 BANKED LINKER/LOCATER V6.00                                                      11/05/2015  16:28:40  PAGE 249


 C5:7749H         LINE#         191
 C5:774CH         LINE#         196
 C5:7755H         LINE#         197
  -------         ENDPROC       LOCALCMDTXPREFIX

  -------         PROC BANK=5   LOCALCMD
  -------         DO            
  X:3826H         SYMBOL        pkt_len
  -------         ENDDO         
 C5:7D57H         LINE#         210
 C5:7D57H         LINE#         211
 C5:7D57H         LINE#         212
 C5:7D66H         LINE#         213
 C5:7D6DH         LINE#         214
 C5:7D87H         LINE#         215
 C5:7D95H         LINE#         216
 C5:7DA1H         LINE#         218
 C5:7DA6H         LINE#         219
 C5:7DB8H         LINE#         220
 C5:7DBBH         LINE#         221
  -------         ENDPROC       LOCALCMD

  -------         PROC BANK=5   NETCMDONTCPRX
 C5:7FD4H         LINE#         235
 C5:7FD4H         LINE#         236
 C5:7FD4H         LINE#         237
 C5:7FF3H         LINE#         238
 C5:7FF3H         LINE#         239
 C5:7FF8H         LINE#         240
 C5:800DH         LINE#         251
 C5:8014H         LINE#         252
 C5:801DH         LINE#         253
 C5:8020H         LINE#         254
 C5:8020H         LINE#         275
 C5:8023H         LINE#         276
 C5:8023H         LINE#         277
 C5:8025H         LINE#         278
  -------         ENDPROC       NETCMDONTCPRX

  -------         PROC BANK=5   NETCMDSEND
 C5:7A14H         LINE#         291
 C5:7A14H         LINE#         292
 C5:7A14H         LINE#         293
 C5:7A1AH         LINE#         294
 C5:7A1AH         LINE#         295
 C5:7A24H         LINE#         296
 C5:7A24H         LINE#         297
 C5:7A33H         LINE#         298
 C5:7A42H         LINE#         299
 C5:7A42H         LINE#         300
 C5:7A42H         LINE#         301
 C5:7A5EH         LINE#         302
 C5:7A70H         LINE#         303
 C5:7A84H         LINE#         304
 C5:7A93H         LINE#         305
  -------         ENDPROC       NETCMDSEND

BL51 BANKED LINKER/LOCATER V6.00                                                      11/05/2015  16:28:40  PAGE 250


  -------         PROC BANK=5   CRC_OPERATION
  -------         DO            
  X:34C8H         SYMBOL        i
  X:34C9H         SYMBOL        key
  X:34CDH         SYMBOL        vendor
  X:34D1H         SYMBOL        CRCcheck
  -------         ENDDO         
 C5:752DH         LINE#         323
 C5:752DH         LINE#         324
 C5:752DH         LINE#         325
 C5:7532H         LINE#         326
 C5:753AH         LINE#         327
 C5:754DH         LINE#         337
 C5:7568H         LINE#         339
 C5:7575H         LINE#         340
 C5:7575H         LINE#         341
 C5:7579H         LINE#         342
 C5:7579H         LINE#         343
 C5:75D0H         LINE#         344
 C5:75DAH         LINE#         345
 C5:75DDH         LINE#         347
 C5:75F0H         LINE#         349
 C5:7607H         LINE#         350
 C5:7607H         LINE#         351
 C5:760CH         LINE#         352
  -------         ENDPROC       CRC_OPERATION

  -------         PROC BANK=5   _CRC
  X:348BH         SYMBOL        ip
  X:348EH         SYMBOL        AuthenticKey
  -------         DO            
  X:3492H         SYMBOL        i
  X:3493H         SYMBOL        j
  X:3494H         SYMBOL        remainder
  -------         ENDDO         
 C5:743BH         LINE#         354
 C5:744AH         LINE#         355
 C5:744AH         LINE#         357
 C5:745EH         LINE#         359
 C5:7463H         LINE#         360
 C5:7463H         LINE#         361
 C5:74B4H         LINE#         362
 C5:74BAH         LINE#         363
 C5:74BAH         LINE#         364
 C5:74C7H         LINE#         365
 C5:74F1H         LINE#         367
 C5:7507H         LINE#         368
 C5:7510H         LINE#         369
 C5:751EH         LINE#         370
 C5:752CH         LINE#         371
  -------         ENDPROC       _CRC

  -------         PROC BANK=5   CRC_INFO
  -------         DO            
  D:0007H         SYMBOL        i
  -------         ENDDO         
 C5:7B14H         LINE#         383
BL51 BANKED LINKER/LOCATER V6.00                                                      11/05/2015  16:28:40  PAGE 251


 C5:7B14H         LINE#         384
 C5:7B14H         LINE#         387
 C5:7B16H         LINE#         388
 C5:7B33H         LINE#         390
 C5:7B35H         LINE#         391
 C5:7B52H         LINE#         393
 C5:7B54H         LINE#         394
 C5:7B71H         LINE#         396
 C5:7B73H         LINE#         397
 C5:7B90H         LINE#         398
  -------         ENDPROC       CRC_INFO

  -------         PROC BANK=5   NETCMD
  -------         DO            
  X:30F7H         SYMBOL        i
  D:0007H         SYMBOL        ConnIndex
  X:30F8H         SYMBOL        j
  X:30F9H         SYMBOL        count
  X:30FAH         SYMBOL        index
  X:30FBH         SYMBOL        offset
  X:30FCH         SYMBOL        ptr
  X:30FFH         SYMBOL        re_ip
  X:3103H         SYMBOL        v_info
  X:3106H         SYMBOL        v_len
  X:3107H         SYMBOL        name_buff
  X:3126H         SYMBOL        ee_value
  X:3127H         SYMBOL        result
  -------         DO            
  X:312BH         SYMBOL        ProjectName
  X:312EH         SYMBOL        option
  X:3131H         SYMBOL        SearchDevAck
  -------         ENDDO         
  -------         ENDDO         
 C5:500FH         LINE#         417
 C5:500FH         LINE#         418
 C5:500FH         LINE#         419
 C5:501AH         LINE#         420
 C5:5025H         LINE#         421
 C5:5038H         LINE#         422
 C5:5046H         LINE#         423
 C5:5049H         LINE#         425
 C5:505BH         LINE#         428
 C5:5065H         LINE#         431
 C5:506EH         LINE#         433
 C5:5088H         LINE#         434
 C5:5088H         LINE#         435
 C5:508BH         LINE#         436
 C5:508FH         LINE#         437
 C5:508FH         LINE#         439
 C5:50A3H         LINE#         440
 C5:50ACH         LINE#         441
 C5:50AFH         LINE#         443
 C5:50AFH         LINE#         444
 C5:50AFH         LINE#         446
 C5:50B2H         LINE#         451
 C5:50FAH         LINE#         452
 C5:50FAH         LINE#         453
BL51 BANKED LINKER/LOCATER V6.00                                                      11/05/2015  16:28:40  PAGE 252


 C5:50FAH         LINE#         454
 C5:5103H         LINE#         455
 C5:510BH         LINE#         456
 C5:510EH         LINE#         457
 C5:510EH         LINE#         459
 C5:5129H         LINE#         460
 C5:513CH         LINE#         461
 C5:5141H         LINE#         462
 C5:5153H         LINE#         463
 C5:5167H         LINE#         464
 C5:51A2H         LINE#         466
 C5:51A5H         LINE#         471
 C5:51C1H         LINE#         472
 C5:51D1H         LINE#         473
 C5:51E1H         LINE#         474
 C5:51F1H         LINE#         475
 C5:5201H         LINE#         476
 C5:5211H         LINE#         477
 C5:521FH         LINE#         478
 C5:523CH         LINE#         479
 C5:5262H         LINE#         480
 C5:5296H         LINE#         481
 C5:52AEH         LINE#         482
 C5:52CFH         LINE#         483
 C5:52FCH         LINE#         485
 C5:5311H         LINE#         487
 C5:5314H         LINE#         492
 C5:5327H         LINE#         493
 C5:532FH         LINE#         494
 C5:5350H         LINE#         496
 C5:5358H         LINE#         497
 C5:5360H         LINE#         498
 C5:538DH         LINE#         501
 C5:5395H         LINE#         502
 C5:539DH         LINE#         503
 C5:53A7H         LINE#         504
 C5:53B1H         LINE#         505
 C5:53BBH         LINE#         507
 C5:53C3H         LINE#         508
 C5:53CBH         LINE#         509
 C5:53DBH         LINE#         511
 C5:53E3H         LINE#         512
 C5:53EBH         LINE#         513
 C5:5418H         LINE#         515
 C5:5420H         LINE#         516
 C5:5430H         LINE#         518
 C5:5437H         LINE#         519
 C5:543CH         LINE#         520
 C5:543CH         LINE#         522
 C5:543FH         LINE#         527
 C5:5457H         LINE#         528
 C5:5457H         LINE#         529
 C5:545BH         LINE#         530
 C5:545FH         LINE#         531
 C5:545FH         LINE#         533
 C5:5462H         LINE#         538
 C5:5480H         LINE#         539
BL51 BANKED LINKER/LOCATER V6.00                                                      11/05/2015  16:28:40  PAGE 253


 C5:54AFH         LINE#         540
 C5:54B8H         LINE#         541
 C5:54C4H         LINE#         542
 C5:54E9H         LINE#         543
 C5:5503H         LINE#         544
 C5:5529H         LINE#         545
 C5:5543H         LINE#         546
 C5:5569H         LINE#         547
 C5:5574H         LINE#         548
 C5:5574H         LINE#         549
 C5:5587H         LINE#         550
 C5:558DH         LINE#         551
 C5:558DH         LINE#         552
 C5:5590H         LINE#         554
 C5:5590H         LINE#         555
 C5:559FH         LINE#         556
 C5:55A4H         LINE#         557
 C5:55A4H         LINE#         559
 C5:55A7H         LINE#         564
 C5:55D2H         LINE#         565
 C5:55DEH         LINE#         566
 C5:55F5H         LINE#         567
 C5:55F5H         LINE#         568
 C5:561BH         LINE#         569
 C5:5651H         LINE#         570
 C5:5681H         LINE#         571
 C5:56A0H         LINE#         572
 C5:56BAH         LINE#         573
 C5:56E4H         LINE#         574
 C5:56FEH         LINE#         575
 C5:5724H         LINE#         576
 C5:5737H         LINE#         577
 C5:573DH         LINE#         578
 C5:573DH         LINE#         580
 C5:5740H         LINE#         585
 C5:5740H         LINE#         586
 C5:574FH         LINE#         587
 C5:5768H         LINE#         623
 C5:5783H         LINE#         624
 C5:5796H         LINE#         625
 C5:57B9H         LINE#         626
 C5:57CCH         LINE#         627
 C5:5816H         LINE#         628
 C5:5844H         LINE#         629
 C5:584BH         LINE#         632
 C5:584EH         LINE#         638
 C5:586AH         LINE#         639
 C5:586AH         LINE#         640
 C5:587AH         LINE#         641
 C5:58AAH         LINE#         642
 C5:58D2H         LINE#         643
 C5:58D7H         LINE#         644
 C5:5938H         LINE#         646
 C5:594BH         LINE#         647
 C5:594BH         LINE#         648
 C5:594DH         LINE#         650
 C5:594DH         LINE#         651
BL51 BANKED LINKER/LOCATER V6.00                                                      11/05/2015  16:28:40  PAGE 254


 C5:595DH         LINE#         653
 C5:5984H         LINE#         654
 C5:598CH         LINE#         655
 C5:598CH         LINE#         658
 C5:599CH         LINE#         660
 C5:59B8H         LINE#         662
 C5:59C0H         LINE#         663
 C5:59D5H         LINE#         664
 C5:59D5H         LINE#         666
 C5:59D8H         LINE#         671
 C5:59E0H         LINE#         672
 C5:59E3H         LINE#         673
 C5:59E3H         LINE#         674
 C5:59E3H         LINE#         675
 C5:59E6H         LINE#         676
 C5:59E6H         LINE#         677
 C5:59E6H         LINE#         678
 C5:59E9H         LINE#         679
 C5:59E9H         LINE#         680
 C5:59E9H         LINE#         681
 C5:59ECH         LINE#         682
 C5:59ECH         LINE#         683
 C5:59ECH         LINE#         684
 C5:59EFH         LINE#         685
 C5:59EFH         LINE#         692
 C5:59EFH         LINE#         693
 C5:59F2H         LINE#         694
 C5:59F2H         LINE#         695
 C5:59F2H         LINE#         696
 C5:59F5H         LINE#         697
 C5:59F5H         LINE#         700
 C5:59F5H         LINE#         701
 C5:59F8H         LINE#         702
 C5:59F8H         LINE#         703
 C5:59F8H         LINE#         704
 C5:59FBH         LINE#         705
 C5:59FBH         LINE#         707
 C5:59FBH         LINE#         708
 C5:59FEH         LINE#         709
 C5:59FEH         LINE#         712
 C5:59FEH         LINE#         713
 C5:5A01H         LINE#         714
 C5:5A01H         LINE#         715
 C5:5A01H         LINE#         716
 C5:5A04H         LINE#         717
 C5:5A04H         LINE#         719
 C5:5A04H         LINE#         720
  -------         ENDPROC       NETCMD

  -------         PROC BANK=5   SEARCHEMPTYCONNTABLE
  -------         DO            
  X:371FH         SYMBOL        SA
  -------         ENDDO         
 C5:81DCH         LINE#         734
 C5:81DCH         LINE#         735
 C5:81DCH         LINE#         737
 C5:81EBH         LINE#         738
BL51 BANKED LINKER/LOCATER V6.00                                                      11/05/2015  16:28:40  PAGE 255


 C5:81F6H         LINE#         739
  -------         ENDPROC       SEARCHEMPTYCONNTABLE

  -------         PROC BANK=5   ONLOGINREQUEST
  -------         DO            
  X:3828H         SYMBOL        ConnIdx
  X:3829H         SYMBOL        Result
  -------         ENDDO         
 C5:6D63H         LINE#         752
 C5:6D63H         LINE#         753
 C5:6D63H         LINE#         754
 C5:6D68H         LINE#         755
 C5:6D6AH         LINE#         757
 C5:6D7DH         LINE#         758
 C5:6D84H         LINE#         759
 C5:6D84H         LINE#         760
 C5:6DB7H         LINE#         761
 C5:6DD5H         LINE#         762
 C5:6DD7H         LINE#         763
 C5:6DDEH         LINE#         764
 C5:6DDEH         LINE#         766
 C5:6DE6H         LINE#         767
 C5:6DFDH         LINE#         768
 C5:6DFDH         LINE#         769
 C5:6E02H         LINE#         770
 C5:6E05H         LINE#         772
 C5:6E05H         LINE#         774
 C5:6E34H         LINE#         776
 C5:6E34H         LINE#         778
 C5:6E34H         LINE#         779
 C5:6E34H         LINE#         780
 C5:6E34H         LINE#         781
 C5:6E36H         LINE#         783
 C5:6E36H         LINE#         786
 C5:6E5CH         LINE#         788
 C5:6E82H         LINE#         789
 C5:6EA1H         LINE#         790
 C5:6EA1H         LINE#         792
  -------         ENDPROC       ONLOGINREQUEST

  -------         PROC BANK=5   _SENDLOGINMD5KEY
  D:0007H         SYMBOL        Result
  -------         DO            
  X:37FFH         SYMBOL        MD5Pkt
  -------         ENDDO         
 C5:7E20H         LINE#         806
 C5:7E20H         LINE#         807
 C5:7E20H         LINE#         815
 C5:7E3BH         LINE#         816
 C5:7E4EH         LINE#         817
 C5:7E60H         LINE#         818
 C5:7E67H         LINE#         819
 C5:7E78H         LINE#         820
  -------         ENDPROC       _SENDLOGINMD5KEY

  -------         PROC BANK=5   GENCONNID
  -------         DO            
BL51 BANKED LINKER/LOCATER V6.00                                                      11/05/2015  16:28:40  PAGE 256


  X:3643H         SYMBOL        ConnID
  X:3647H         SYMBOL        p16ConnID
  X:364AH         SYMBOL        i
  -------         ENDDO         
 C5:77ECH         LINE#         834
 C5:77ECH         LINE#         835
 C5:77ECH         LINE#         837
 C5:77FAH         LINE#         839
 C5:77FAH         LINE#         840
 C5:77FAH         LINE#         841
 C5:780EH         LINE#         842
 C5:7825H         LINE#         843
 C5:7834H         LINE#         844
 C5:7834H         LINE#         845
 C5:7861H         LINE#         846
 C5:7869H         LINE#         847
 C5:787FH         LINE#         848
 C5:787FH         LINE#         849
  -------         ENDPROC       GENCONNID

  -------         PROC BANK=5   _SENDLOGINRESULT
  X:364BH         SYMBOL        result
  X:364CH         SYMBOL        ConnID
  -------         DO            
  X:3650H         SYMBOL        LoginResult
  -------         ENDDO         
 C5:7CEDH         LINE#         862
 C5:7CF2H         LINE#         863
 C5:7CF2H         LINE#         869
 C5:7D0DH         LINE#         870
 C5:7D2AH         LINE#         871
 C5:7D34H         LINE#         872
 C5:7D4BH         LINE#         873
 C5:7D54H         LINE#         874
  -------         ENDPROC       _SENDLOGINRESULT

  -------         PROC BANK=5   ONLOGINACCOUNT
  -------         DO            
  X:3327H         SYMBOL        buf
  X:333CH         SYMBOL        result
  X:333DH         SYMBOL        ConnIdx
  X:333EH         SYMBOL        Account
  -------         ENDDO         
 C5:6840H         LINE#         888
 C5:6840H         LINE#         889
 C5:6840H         LINE#         898
 C5:6845H         LINE#         899
 C5:6847H         LINE#         901
 C5:6862H         LINE#         902
 C5:6889H         LINE#         903
 C5:68A5H         LINE#         904
 C5:68BDH         LINE#         906
 C5:68F5H         LINE#         907
 C5:6911H         LINE#         908
 C5:6929H         LINE#         910
 C5:6932H         LINE#         911
 C5:6932H         LINE#         912
BL51 BANKED LINKER/LOCATER V6.00                                                      11/05/2015  16:28:40  PAGE 257


 C5:6934H         LINE#         914
 C5:6947H         LINE#         915
 C5:694EH         LINE#         916
 C5:694EH         LINE#         917
 C5:697CH         LINE#         918
 C5:699AH         LINE#         919
 C5:699CH         LINE#         921
 C5:69A3H         LINE#         922
 C5:69A3H         LINE#         924
 C5:69BBH         LINE#         926
 C5:69E1H         LINE#         927
 C5:6A00H         LINE#         928
 C5:6A02H         LINE#         930
 C5:6A02H         LINE#         931
 C5:6A08H         LINE#         932
 C5:6A08H         LINE#         933
 C5:6A08H         LINE#         935
  -------         ENDPROC       ONLOGINACCOUNT

  -------         PROC BANK=5   AGINGNETCMDCONNTABLE
  -------         DO            
  X:383DH         SYMBOL        i
  -------         ENDDO         
 C5:7880H         LINE#         937
 C5:7880H         LINE#         938
 C5:7880H         LINE#         940
 C5:788FH         LINE#         941
 C5:78DDH         LINE#         942
 C5:7909H         LINE#         943
  -------         ENDPROC       AGINGNETCMDCONNTABLE

  -------         PROC BANK=5   NETCMDTIMER
 C5:81FEH         LINE#         944
 C5:81FEH         LINE#         945
 C5:81FEH         LINE#         946
  -------         ENDPROC       NETCMDTIMER

  -------         PROC BANK=5   SENDACCESSGPIOACK
 C5:8201H         LINE#         963
 C5:8201H         LINE#         964
 C5:8201H         LINE#         965
  -------         ENDPROC       SENDACCESSGPIOACK

  -------         PROC BANK=5   ONACCESSGPIOREQ
 C5:8202H         LINE#         978
 C5:8202H         LINE#         979
 C5:8202H         LINE#         1036
  -------         ENDPROC       ONACCESSGPIOREQ

  -------         PROC BANK=5   MPPROCESS
  -------         DO            
  X:34D4H         SYMBOL        i
  X:34D6H         SYMBOL        TargetMACID
  X:34DCH         SYMBOL        update_status
  X:34DDH         SYMBOL        NetCMD_Frame
  D:0001H         SYMBOL        pMACIDentry
  -------         ENDDO         
BL51 BANKED LINKER/LOCATER V6.00                                                      11/05/2015  16:28:40  PAGE 258


 C5:6624H         LINE#         1052
 C5:6624H         LINE#         1053
 C5:6624H         LINE#         1056
 C5:6629H         LINE#         1057
 C5:663EH         LINE#         1064
 C5:664AH         LINE#         1065
 C5:664AH         LINE#         1066
 C5:6652H         LINE#         1071
 C5:6652H         LINE#         1072
 C5:667EH         LINE#         1073
 C5:669FH         LINE#         1075
 C5:66AFH         LINE#         1077
 C5:66B8H         LINE#         1078
 C5:66CFH         LINE#         1079
 C5:66EBH         LINE#         1088
 C5:66FBH         LINE#         1089
 C5:66FBH         LINE#         1090
 C5:6703H         LINE#         1091
 C5:6706H         LINE#         1095
 C5:6706H         LINE#         1099
 C5:6713H         LINE#         1100
 C5:6713H         LINE#         1101
 C5:6728H         LINE#         1102
 C5:672FH         LINE#         1104
 C5:672FH         LINE#         1105
 C5:6734H         LINE#         1107
 C5:6751H         LINE#         1110
 C5:6754H         LINE#         1112
 C5:675BH         LINE#         1113
 C5:675BH         LINE#         1114
 C5:677BH         LINE#         1115
 C5:677BH         LINE#         1116
 C5:677BH         LINE#         1117
 C5:677BH         LINE#         1118
 C5:6798H         LINE#         1119
 C5:67A4H         LINE#         1120
 C5:67A4H         LINE#         1121
 C5:67AAH         LINE#         1122
 C5:67AAH         LINE#         1125
 C5:67B1H         LINE#         1126
 C5:67B1H         LINE#         1127
 C5:67CCH         LINE#         1128
 C5:67FBH         LINE#         1129
 C5:67FBH         LINE#         1130
 C5:6801H         LINE#         1131
 C5:6803H         LINE#         1132
 C5:6803H         LINE#         1133
 C5:6820H         LINE#         1136
 C5:6835H         LINE#         1137
 C5:683FH         LINE#         1142
  -------         ENDPROC       MPPROCESS

  -------         PROC BANK=5   ONGPIOREQUEST
  -------         DO            
  D:0006H         SYMBOL        value
  D:0007H         SYMBOL        gping
  X:382AH         SYMBOL        common
BL51 BANKED LINKER/LOCATER V6.00                                                      11/05/2015  16:28:40  PAGE 259


  X:382BH         SYMBOL        result
  -------         ENDDO         
 C5:7756H         LINE#         1159
 C5:7756H         LINE#         1160
 C5:7756H         LINE#         1161
 C5:775DH         LINE#         1163
 C5:7779H         LINE#         1164
 C5:7780H         LINE#         1165
 C5:7789H         LINE#         1166
 C5:7794H         LINE#         1168
 C5:779BH         LINE#         1169
 C5:779BH         LINE#         1170
 C5:77A1H         LINE#         1171
 C5:77A4H         LINE#         1172
 C5:77A8H         LINE#         1173
 C5:77ACH         LINE#         1175
 C5:77B1H         LINE#         1176
 C5:77B3H         LINE#         1178
 C5:77B3H         LINE#         1179
 C5:77B9H         LINE#         1180
 C5:77C1H         LINE#         1181
 C5:77C5H         LINE#         1182
 C5:77CCH         LINE#         1184
 C5:77D1H         LINE#         1185
 C5:77D1H         LINE#         1186
 C5:77E2H         LINE#         1187
  -------         ENDPROC       ONGPIOREQUEST

  -------         PROC BANK=5   _ONGPIOREQUESTACK
  D:0007H         SYMBOL        gpioresult
  D:0005H         SYMBOL        gpiovalue
  -------         DO            
  D:0001H         SYMBOL        USERGPIO
  -------         ENDDO         
 C5:816DH         LINE#         1202
 C5:816DH         LINE#         1203
 C5:816DH         LINE#         1210
 C5:817DH         LINE#         1211
 C5:8181H         LINE#         1212
 C5:8188H         LINE#         1213
 C5:8191H         LINE#         1214
  -------         ENDPROC       _ONGPIOREQUESTACK

  -------         PROC BANK=5   ONCHANNELREQUEST
  -------         DO            
  X:379CH         SYMBOL        result
  X:379DH         SYMBOL        value
  X:379EH         SYMBOL        chan_value
  -------         ENDDO         
 C5:7E7BH         LINE#         1229
 C5:7E7BH         LINE#         1230
 C5:7E7BH         LINE#         1231
 C5:7E82H         LINE#         1232
 C5:7E86H         LINE#         1233
 C5:7E9CH         LINE#         1234
 C5:7EA6H         LINE#         1235
 C5:7EAFH         LINE#         1236
BL51 BANKED LINKER/LOCATER V6.00                                                      11/05/2015  16:28:40  PAGE 260


 C5:7EB5H         LINE#         1237
 C5:7EBDH         LINE#         1238
 C5:7ECAH         LINE#         1239
  -------         ENDPROC       ONCHANNELREQUEST

  -------         PROC BANK=5   _ONCHANNELREQUESTACK
  D:0007H         SYMBOL        channel_result
  D:0006H         SYMBOL        old_value
  D:0004H         SYMBOL        channel_value
  -------         DO            
  D:0001H         SYMBOL        USERADC
  -------         ENDDO         
 C5:810AH         LINE#         1254
 C5:8110H         LINE#         1255
 C5:8110H         LINE#         1263
 C5:8120H         LINE#         1264
 C5:8124H         LINE#         1265
 C5:812BH         LINE#         1266
 C5:8136H         LINE#         1267
 C5:813FH         LINE#         1268
  -------         ENDPROC       _ONCHANNELREQUESTACK

  -------         PROC BANK=5   EEP_READ_REQ
  -------         DO            
  X:3725H         SYMBOL        result
  X:3726H         SYMBOL        i
  X:3728H         SYMBOL        EEPREAD
  -------         ENDDO         
 C5:7103H         LINE#         1286
 C5:7103H         LINE#         1287
 C5:7103H         LINE#         1298
 C5:711EH         LINE#         1300
 C5:7132H         LINE#         1301
 C5:714FH         LINE#         1302
 C5:714FH         LINE#         1303
 C5:7186H         LINE#         1304
 C5:7186H         LINE#         1305
 C5:7189H         LINE#         1306
 C5:71CEH         LINE#         1307
 C5:71CEH         LINE#         1309
 C5:71D4H         LINE#         1310
 C5:71E5H         LINE#         1311
 C5:71EBH         LINE#         1312
 C5:71EBH         LINE#         1313
 C5:71EDH         LINE#         1315
 C5:7201H         LINE#         1317
 C5:721FH         LINE#         1318
  -------         ENDPROC       EEP_READ_REQ

  -------         PROC BANK=5   EEP_WRITE_REQ
  -------         DO            
  X:372BH         SYMBOL        an
  X:372CH         SYMBOL        i
  X:372EH         SYMBOL        EEPWRITE
  -------         ENDDO         
 C5:7222H         LINE#         1334
 C5:7222H         LINE#         1335
BL51 BANKED LINKER/LOCATER V6.00                                                      11/05/2015  16:28:40  PAGE 261


 C5:7222H         LINE#         1336
 C5:7228H         LINE#         1346
 C5:7243H         LINE#         1348
 C5:7257H         LINE#         1349
 C5:7299H         LINE#         1350
 C5:7299H         LINE#         1351
 C5:729CH         LINE#         1352
 C5:72E5H         LINE#         1353
 C5:72E5H         LINE#         1355
 C5:72FFH         LINE#         1356
 C5:7313H         LINE#         1357
 C5:731AH         LINE#         1358
 C5:732BH         LINE#         1360
 C5:7334H         LINE#         1361
  -------         ENDPROC       EEP_WRITE_REQ

  -------         PROC BANK=5   RESET_DEVICE_REQ
 C5:7F7FH         LINE#         1376
 C5:7F7FH         LINE#         1377
 C5:7F7FH         LINE#         1378
 C5:7F95H         LINE#         1379
 C5:7FA1H         LINE#         1380
 C5:7FA1H         LINE#         1381
 C5:7FB0H         LINE#         1382
 C5:7FB6H         LINE#         1383
 C5:7FB8H         LINE#         1385
 C5:7FC8H         LINE#         1386
 C5:7FD1H         LINE#         1387
  -------         ENDPROC       RESET_DEVICE_REQ

  -------         PROC BANK=5   EN_LOOPBACK
 C5:7991H         LINE#         1401
 C5:7991H         LINE#         1402
 C5:7991H         LINE#         1403
 C5:79A7H         LINE#         1405
 C5:79ADH         LINE#         1406
 C5:79E3H         LINE#         1408
 C5:79EAH         LINE#         1409
 C5:79F8H         LINE#         1411
 C5:7A08H         LINE#         1413
 C5:7A11H         LINE#         1414
  -------         ENDPROC       EN_LOOPBACK

  -------         PROC BANK=5   DIS_LOOPBACK
 C5:7A94H         LINE#         1428
 C5:7A94H         LINE#         1429
 C5:7A94H         LINE#         1430
 C5:7AAAH         LINE#         1432
 C5:7AAFH         LINE#         1433
 C5:7AE4H         LINE#         1435
 C5:7AEAH         LINE#         1436
 C5:7AF9H         LINE#         1438
 C5:7B08H         LINE#         1440
 C5:7B11H         LINE#         1441
  -------         ENDPROC       DIS_LOOPBACK

  -------         PROC BANK=5   UDP_NET_CMD
BL51 BANKED LINKER/LOCATER V6.00                                                      11/05/2015  16:28:40  PAGE 262


  -------         DO            
  X:3731H         SYMBOL        borcast
  D:0007H         SYMBOL        i
  -------         ENDDO         
 C5:6EA9H         LINE#         1456
 C5:6EA9H         LINE#         1457
 C5:6EA9H         LINE#         1458
 C5:6EBCH         LINE#         1459
 C5:6EBCH         LINE#         1462
 C5:6EE6H         LINE#         1467
 C5:6EE8H         LINE#         1468
 C5:6F0FH         LINE#         1470
 C5:6F2AH         LINE#         1471
 C5:6F3AH         LINE#         1485
 C5:6F3EH         LINE#         1486
 C5:6F44H         LINE#         1488
 C5:6F5FH         LINE#         1489
 C5:6F6FH         LINE#         1490
 C5:6F75H         LINE#         1491
 C5:6F8CH         LINE#         1493
 C5:6FA4H         LINE#         1494
 C5:6FA6H         LINE#         1495
 C5:6FD9H         LINE#         1499
 C5:6FDCH         LINE#         1504
  -------         ENDPROC       UDP_NET_CMD
  -------         ENDMOD        NET_CMD

  -------         MODULE        SMTP
  C:0000H         SYMBOL        _ICE_DUMMY_
 C2:CD96H         PUBLIC        smtp_send_cmd_auth
  D:0080H         PUBLIC        P0
  D:0090H         PUBLIC        P1
  D:00A0H         PUBLIC        P2
  D:00B0H         PUBLIC        P3
  D:00E8H         PUBLIC        P4
 C2:C729H         PUBLIC        smtp_send_cmd_rcpt
 C2:76C1H         PUBLIC        smtp_send_mailbody
  D:00A8H         PUBLIC        IE
 C2:CD39H         PUBLIC        smtp_send_cmd_quit
 C2:BD82H         PUBLIC        smtp_chk_MailToTotal
  B:00B0H.2       PUBLIC        P3_2
 C2:D30FH         PUBLIC        smtp_connect
  B:00B0H.3       PUBLIC        P3_3
  D:00B8H         PUBLIC        IP
 C2:C8AAH         PUBLIC        smtp_send_mailbody_end
  X:281FH         PUBLIC        ehlo_flag
 C2:CF8DH         PUBLIC        smtp_check_mail
 C2:C996H         PUBLIC        smtp_send_packet
  D:0098H         PUBLIC        SCON
  D:0088H         PUBLIC        TCON
  X:2820H         PUBLIC        ehlo_count
 C2:D125H         PUBLIC        SMTPOnTCPRx
 C2:D1BAH         PUBLIC        _smtp_send_mail
 C2:CC7FH         PUBLIC        smtp_send_starttls
 C2:C19AH         PUBLIC        _smtp_send_auth_id_pw
 C2:C243H         PUBLIC        _strcat_mail_to
  X:2821H         PUBLIC        last_status
BL51 BANKED LINKER/LOCATER V6.00                                                      11/05/2015  16:28:40  PAGE 263


  X:2822H         PUBLIC        SMTPData
  C:31A3H         SYMBOL        _?ix1000
 C2:9DDDH         PUBLIC        smtp
 C2:BBF8H         PUBLIC        smtp_timer
  D:00D8H         PUBLIC        WDTCON
 C2:CC22H         PUBLIC        _ModifyMail
  X:2972H         PUBLIC        gpio_cnt
 C2:C923H         PUBLIC        smtp_init
 C2:CCDCH         PUBLIC        smtp_send_cmd_data
  D:00C8H         PUBLIC        T2CON
 C2:C2EAH         PUBLIC        smtp_send_cmd_mail
 C2:C4CCH         PUBLIC        smtp_send_cmd_helo
  D:00D0H         PUBLIC        PSW

  -------         PROC BANK=2   SMTP_CHK_MAILTOTOTAL
  -------         DO            
  X:382CH         SYMBOL        i
  D:0007H         SYMBOL        fount_at_symble
  -------         ENDDO         
 C2:BD82H         LINE#         43
 C2:BD82H         LINE#         44
 C2:BD82H         LINE#         46
 C2:BD84H         LINE#         47
 C2:BD88H         LINE#         48
 C2:BD8AH         LINE#         49
 C2:BDA3H         LINE#         50
 C2:BDA3H         LINE#         51
 C2:BDC6H         LINE#         52
 C2:BDC6H         LINE#         53
 C2:BDC6H         LINE#         54
 C2:BDC8H         LINE#         55
 C2:BDCAH         LINE#         56
 C2:BDCAH         LINE#         57
 C2:BDCDH         LINE#         58
 C2:BDE5H         LINE#         59
 C2:BDEBH         LINE#         60
 C2:BDEBH         LINE#         61
 C2:BDF1H         LINE#         63
 C2:BE00H         LINE#         64
 C2:BE00H         LINE#         65
 C2:BE02H         LINE#         66
 C2:BE04H         LINE#         67
 C2:BE04H         LINE#         68
 C2:BE07H         LINE#         69
 C2:BE1CH         LINE#         70
 C2:BE23H         LINE#         73
 C2:BE23H         LINE#         74
 C2:BE37H         LINE#         75
  -------         ENDPROC       SMTP_CHK_MAILTOTOTAL

  -------         PROC BANK=2   _STRCAT_MAIL_TO
  X:3653H         SYMBOL        dest
  X:3656H         SYMBOL        index
  -------         DO            
  D:0007H         SYMBOL        i
  X:3657H         SYMBOL        j
  X:3658H         SYMBOL        dest2
BL51 BANKED LINKER/LOCATER V6.00                                                      11/05/2015  16:28:40  PAGE 264


  -------         ENDDO         
 C2:C243H         LINE#         77
 C2:C253H         LINE#         78
 C2:C253H         LINE#         79
 C2:C258H         LINE#         80
 C2:C275H         LINE#         81
 C2:C298H         LINE#         82
 C2:C298H         LINE#         83
 C2:C2CFH         LINE#         84
 C2:C2D2H         LINE#         85
  -------         ENDPROC       _STRCAT_MAIL_TO

  -------         PROC BANK=2   _MODIFYMAIL
  D:0001H         SYMBOL        sub
  X:36AEH         SYMBOL        msg
  X:36B1H         SYMBOL        MailNo
 C2:CC22H         LINE#         99
 C2:CC22H         LINE#         100
 C2:CC22H         LINE#         101
 C2:CC2EH         LINE#         102
 C2:CC41H         LINE#         103
 C2:CC5CH         LINE#         104
 C2:CC7EH         LINE#         105
 C2:CC7EH         LINE#         106
  -------         ENDPROC       _MODIFYMAIL

  -------         PROC BANK=2   SMTP_INIT
 C2:C923H         LINE#         119
 C2:C923H         LINE#         120
 C2:C923H         LINE#         121
 C2:C931H         LINE#         122
 C2:C94CH         LINE#         123
 C2:C967H         LINE#         124
 C2:C982H         LINE#         125
 C2:C987H         LINE#         126
 C2:C98BH         LINE#         127
 C2:C98FH         LINE#         128
 C2:C995H         LINE#         129
  -------         ENDPROC       SMTP_INIT

  -------         PROC BANK=2   SMTP_CONNECT
 C2:D30FH         LINE#         142
 C2:D30FH         LINE#         143
 C2:D30FH         LINE#         144
  -------         ENDPROC       SMTP_CONNECT

  -------         PROC BANK=2   _SMTP_SEND_MAIL
  D:0007H         SYMBOL        MailNo
 C2:D1BAH         LINE#         158
 C2:D1BAH         LINE#         159
 C2:D1BAH         LINE#         160
 C2:D1CCH         LINE#         161
 C2:D1D2H         LINE#         162
 C2:D1D2H         LINE#         163
 C2:D1D4H         LINE#         164
 C2:D1D6H         LINE#         165
 C2:D1D9H         LINE#         167
BL51 BANKED LINKER/LOCATER V6.00                                                      11/05/2015  16:28:40  PAGE 265


 C2:D1DEH         LINE#         168
 C2:D1E3H         LINE#         169
 C2:D1E5H         LINE#         170
 C2:D1E7H         LINE#         171
  -------         ENDPROC       _SMTP_SEND_MAIL

  -------         PROC BANK=2   SMTP_TIMER
 C2:BBF8H         LINE#         184
 C2:BBF8H         LINE#         185
 C2:BBF8H         LINE#         186
 C2:BC10H         LINE#         187
 C2:BC10H         LINE#         188
 C2:BC10H         LINE#         189
 C2:BC29H         LINE#         190
 C2:BC43H         LINE#         191
 C2:BC43H         LINE#         192
 C2:BC50H         LINE#         193
 C2:BC50H         LINE#         194
 C2:BC52H         LINE#         195
 C2:BC5EH         LINE#         196
 C2:BC5EH         LINE#         197
 C2:BC75H         LINE#         198
 C2:BC75H         LINE#         205
 C2:BC8EH         LINE#         206
 C2:BC8EH         LINE#         207
 C2:BC94H         LINE#         208
 C2:BC94H         LINE#         209
 C2:BC95H         LINE#         210
 C2:BC95H         LINE#         211
 C2:BC9BH         LINE#         212
 C2:BC9BH         LINE#         213
 C2:BC9DH         LINE#         214
 C2:BC9DH         LINE#         215
 C2:BCAAH         LINE#         216
 C2:BCAAH         LINE#         217
 C2:BCACH         LINE#         218
 C2:BCB8H         LINE#         219
 C2:BCB8H         LINE#         220
 C2:BCBBH         LINE#         221
 C2:BCBBH         LINE#         223
 C2:BCBBH         LINE#         224
 C2:BCC0H         LINE#         225
 C2:BCC0H         LINE#         226
 C2:BCC0H         LINE#         227
 C2:BCC0H         LINE#         228
 C2:BCC0H         LINE#         229
  -------         ENDPROC       SMTP_TIMER

  -------         PROC BANK=2   SMTP_SEND_CMD_HELO
 C2:C4CCH         LINE#         242
 C2:C4CCH         LINE#         243
 C2:C4CCH         LINE#         245
 C2:C4CFH         LINE#         250
 C2:C4D6H         LINE#         251
 C2:C4EDH         LINE#         252
 C2:C4F4H         LINE#         253
 C2:C50CH         LINE#         254
BL51 BANKED LINKER/LOCATER V6.00                                                      11/05/2015  16:28:40  PAGE 266


 C2:C528H         LINE#         255
 C2:C544H         LINE#         256
 C2:C55AH         LINE#         257
 C2:C569H         LINE#         258
  -------         ENDPROC       SMTP_SEND_CMD_HELO

  -------         PROC BANK=2   SMTP_SEND_STARTTLS
 C2:CC7FH         LINE#         260
 C2:CC7FH         LINE#         261
 C2:CC7FH         LINE#         263
 C2:CC82H         LINE#         268
 C2:CC9AH         LINE#         269
 C2:CCB6H         LINE#         270
 C2:CCCCH         LINE#         271
 C2:CCDBH         LINE#         272
  -------         ENDPROC       SMTP_SEND_STARTTLS

  -------         PROC BANK=2   SMTP_SEND_CMD_MAIL
 C2:C2EAH         LINE#         285
 C2:C2EAH         LINE#         286
 C2:C2EAH         LINE#         288
 C2:C2EDH         LINE#         293
 C2:C305H         LINE#         294
 C2:C32FH         LINE#         295
 C2:C34BH         LINE#         296
 C2:C367H         LINE#         297
 C2:C37DH         LINE#         298
 C2:C38CH         LINE#         299
  -------         ENDPROC       SMTP_SEND_CMD_MAIL

  -------         PROC BANK=2   SMTP_SEND_CMD_RCPT
 C2:C729H         LINE#         312
 C2:C729H         LINE#         313
 C2:C729H         LINE#         315
 C2:C72CH         LINE#         320
 C2:C744H         LINE#         322
 C2:C757H         LINE#         323
 C2:C773H         LINE#         324
 C2:C78FH         LINE#         325
 C2:C7A5H         LINE#         326
 C2:C7B4H         LINE#         327
  -------         ENDPROC       SMTP_SEND_CMD_RCPT

  -------         PROC BANK=2   SMTP_SEND_CMD_DATA
 C2:CCDCH         LINE#         340
 C2:CCDCH         LINE#         341
 C2:CCDCH         LINE#         343
 C2:CCDFH         LINE#         348
 C2:CCF7H         LINE#         349
 C2:CD13H         LINE#         350
 C2:CD29H         LINE#         351
 C2:CD38H         LINE#         352
  -------         ENDPROC       SMTP_SEND_CMD_DATA

  -------         PROC BANK=2   SMTP_SEND_CMD_QUIT
 C2:CD39H         LINE#         365
 C2:CD39H         LINE#         366
BL51 BANKED LINKER/LOCATER V6.00                                                      11/05/2015  16:28:40  PAGE 267


 C2:CD39H         LINE#         368
 C2:CD3CH         LINE#         373
 C2:CD54H         LINE#         374
 C2:CD70H         LINE#         375
 C2:CD86H         LINE#         376
 C2:CD95H         LINE#         377
  -------         ENDPROC       SMTP_SEND_CMD_QUIT

  -------         PROC BANK=2   SMTP_SEND_MAILBODY
  -------         DO            
  X:2F5DH         SYMBOL        i
  X:2F5FH         SYMBOL        buf
  X:2F69H         SYMBOL        message_body
  -------         ENDDO         
 C2:76C1H         LINE#         390
 C2:76C1H         LINE#         391
 C2:76C1H         LINE#         392
 C2:76C8H         LINE#         394
 C2:76DAH         LINE#         396
 C2:76F2H         LINE#         397
 C2:76F9H         LINE#         398
 C2:76F9H         LINE#         399
 C2:770EH         LINE#         400
 C2:772AH         LINE#         401
 C2:7747H         LINE#         403
 C2:774AH         LINE#         408
 C2:7774H         LINE#         409
 C2:7790H         LINE#         410
 C2:77ACH         LINE#         411
 C2:77C8H         LINE#         412
 C2:77F2H         LINE#         413
 C2:780EH         LINE#         415
 C2:7828H         LINE#         416
 C2:7828H         LINE#         418
 C2:782BH         LINE#         423
 C2:7847H         LINE#         425
 C2:785BH         LINE#         426
 C2:7877H         LINE#         427
 C2:7887H         LINE#         428
 C2:7896H         LINE#         429
 C2:78C1H         LINE#         430
 C2:78DDH         LINE#         431
 C2:78F9H         LINE#         432
 C2:7915H         LINE#         433
 C2:7931H         LINE#         434
 C2:794DH         LINE#         435
 C2:7969H         LINE#         436
 C2:7985H         LINE#         437
 C2:79A1H         LINE#         438
 C2:79BDH         LINE#         439
 C2:79D9H         LINE#         441
 C2:79DCH         LINE#         446
 C2:79EBH         LINE#         447
 C2:7A16H         LINE#         448
 C2:7A32H         LINE#         449
 C2:7A4EH         LINE#         451
 C2:7A51H         LINE#         462
BL51 BANKED LINKER/LOCATER V6.00                                                      11/05/2015  16:28:40  PAGE 268


 C2:7A67H         LINE#         463
 C2:7A76H         LINE#         464
  -------         ENDPROC       SMTP_SEND_MAILBODY

  -------         PROC BANK=2   SMTP_SEND_MAILBODY_END
 C2:C8AAH         LINE#         477
 C2:C8AAH         LINE#         478
 C2:C8AAH         LINE#         480
 C2:C8ADH         LINE#         486
 C2:C8C5H         LINE#         487
 C2:C8E1H         LINE#         488
 C2:C8FDH         LINE#         489
 C2:C913H         LINE#         490
 C2:C922H         LINE#         491
  -------         ENDPROC       SMTP_SEND_MAILBODY_END

  -------         PROC BANK=2   SMTP_SEND_CMD_AUTH
 C2:CD96H         LINE#         504
 C2:CD96H         LINE#         505
 C2:CD96H         LINE#         511
 C2:CD99H         LINE#         516
 C2:CDB1H         LINE#         518
 C2:CDCDH         LINE#         519
 C2:CDE3H         LINE#         520
 C2:CDF2H         LINE#         521
  -------         ENDPROC       SMTP_SEND_CMD_AUTH

  -------         PROC BANK=2   _SMTP_SEND_AUTH_ID_PW
  D:0007H         SYMBOL        is_id
  -------         DO            
  X:2EF6H         SYMBOL        encoded
  X:2F5AH         SYMBOL        ori
  -------         ENDDO         
 C2:C19AH         LINE#         534
 C2:C19AH         LINE#         535
 C2:C19AH         LINE#         537
 C2:C19EH         LINE#         538
 C2:C1ACH         LINE#         539
 C2:C1AFH         LINE#         540
 C2:C1CAH         LINE#         542
 C2:C1CDH         LINE#         547
 C2:C1E9H         LINE#         548
 C2:C201H         LINE#         549
 C2:C21DH         LINE#         550
 C2:C233H         LINE#         551
 C2:C242H         LINE#         552
  -------         ENDPROC       _SMTP_SEND_AUTH_ID_PW

  -------         PROC BANK=2   SMTP_SEND_PACKET
 C2:C996H         LINE#         565
 C2:C996H         LINE#         566
 C2:C996H         LINE#         568
 C2:C999H         LINE#         573
 C2:C9D9H         LINE#         574
 C2:C9D9H         LINE#         575
 C2:C9D9H         LINE#         576
 C2:C9D9H         LINE#         577
BL51 BANKED LINKER/LOCATER V6.00                                                      11/05/2015  16:28:40  PAGE 269


 C2:C9DCH         LINE#         578
 C2:C9DCH         LINE#         581
 C2:C9DFH         LINE#         582
 C2:C9E3H         LINE#         583
 C2:C9E8H         LINE#         586
 C2:C9EBH         LINE#         587
 C2:C9EBH         LINE#         588
 C2:C9F1H         LINE#         589
 C2:C9F4H         LINE#         590
 C2:C9FAH         LINE#         591
 C2:C9FBH         LINE#         592
 C2:C9FEH         LINE#         593
 C2:CA01H         LINE#         594
 C2:CA04H         LINE#         595
 C2:CA07H         LINE#         599
 C2:CA07H         LINE#         600
  -------         ENDPROC       SMTP_SEND_PACKET

  -------         PROC BANK=2   SMTP
  -------         DO            
  X:37A0H         SYMBOL        buf
  -------         ENDDO         
 C2:9DDDH         LINE#         615
 C2:9DDDH         LINE#         616
 C2:9DDDH         LINE#         617
 C2:9DE4H         LINE#         619
 C2:9DE7H         LINE#         624
 C2:9DEDH         LINE#         625
 C2:9DEDH         LINE#         626
 C2:9DF4H         LINE#         628
 C2:9DF7H         LINE#         633
 C2:9DF7H         LINE#         635
 C2:9E01H         LINE#         637
 C2:9E19H         LINE#         638
 C2:9E1EH         LINE#         640
 C2:9E21H         LINE#         645
 C2:9E54H         LINE#         646
 C2:9E54H         LINE#         647
 C2:9E54H         LINE#         648
 C2:9E5AH         LINE#         649
 C2:9E5DH         LINE#         650
 C2:9E5DH         LINE#         651
 C2:9E62H         LINE#         652
 C2:9E65H         LINE#         654
 C2:9E65H         LINE#         655
 C2:9E68H         LINE#         656
 C2:9E6BH         LINE#         658
 C2:9E6BH         LINE#         659
 C2:9E71H         LINE#         660
 C2:9E74H         LINE#         662
 C2:9E74H         LINE#         663
 C2:9E77H         LINE#         664
 C2:9E7AH         LINE#         666
 C2:9E7AH         LINE#         667
 C2:9EA4H         LINE#         668
 C2:9EA4H         LINE#         669
 C2:9EA4H         LINE#         670
BL51 BANKED LINKER/LOCATER V6.00                                                      11/05/2015  16:28:40  PAGE 270


 C2:9EA4H         LINE#         671
 C2:9EC7H         LINE#         672
 C2:9EC7H         LINE#         673
 C2:9EE2H         LINE#         674
 C2:9EE2H         LINE#         675
 C2:9EE6H         LINE#         676
 C2:9EE9H         LINE#         677
 C2:9EFFH         LINE#         678
 C2:9F01H         LINE#         680
 C2:9F01H         LINE#         681
 C2:9F01H         LINE#         682
 C2:9F03H         LINE#         684
 C2:9F03H         LINE#         685
 C2:9F09H         LINE#         686
 C2:9F0FH         LINE#         687
 C2:9F27H         LINE#         688
 C2:9F27H         LINE#         689
 C2:9F29H         LINE#         690
 C2:9F29H         LINE#         692
 C2:9F3FH         LINE#         693
 C2:9F44H         LINE#         695
 C2:9F47H         LINE#         699
 C2:9F49H         LINE#         700
 C2:9F49H         LINE#         701
 C2:9F4FH         LINE#         702
 C2:9F54H         LINE#         703
 C2:9F57H         LINE#         704
 C2:9F5DH         LINE#         705
 C2:9F5FH         LINE#         706
 C2:9F5FH         LINE#         707
 C2:9F76H         LINE#         708
 C2:9F78H         LINE#         709
 C2:9F78H         LINE#         710
 C2:9F7EH         LINE#         711
 C2:9F80H         LINE#         712
 C2:9F80H         LINE#         713
 C2:9F80H         LINE#         715
 C2:9F80H         LINE#         716
 C2:9F8AH         LINE#         717
 C2:9F94H         LINE#         718
 C2:9F96H         LINE#         720
 C2:9F96H         LINE#         721
 C2:9F9CH         LINE#         722
 C2:9F9CH         LINE#         723
 C2:9F9CH         LINE#         724
 C2:9F9CH         LINE#         725
 C2:9FA7H         LINE#         727
 C2:9FAAH         LINE#         732
 C2:9FAAH         LINE#         733
 C2:9FB3H         LINE#         734
 C2:9FBAH         LINE#         735
 C2:9FBAH         LINE#         736
 C2:9FBDH         LINE#         737
 C2:9FC0H         LINE#         738
 C2:9FC0H         LINE#         739
 C2:9FC0H         LINE#         740
 C2:9FC7H         LINE#         742
BL51 BANKED LINKER/LOCATER V6.00                                                      11/05/2015  16:28:40  PAGE 271


 C2:9FCAH         LINE#         747
 C2:9FD7H         LINE#         748
 C2:9FD7H         LINE#         749
 C2:9FDCH         LINE#         750
 C2:9FDCH         LINE#         751
 C2:9FE2H         LINE#         752
 C2:9FE2H         LINE#         753
 C2:9FE6H         LINE#         754
 C2:9FECH         LINE#         755
 C2:9FECH         LINE#         756
 C2:9FF1H         LINE#         757
 C2:9FF4H         LINE#         758
 C2:A00AH         LINE#         759
 C2:A00FH         LINE#         761
 C2:A012H         LINE#         762
 C2:A015H         LINE#         763
 C2:A015H         LINE#         764
 C2:A015H         LINE#         765
 C2:A017H         LINE#         767
 C2:A017H         LINE#         768
 C2:A01CH         LINE#         769
 C2:A01CH         LINE#         770
 C2:A027H         LINE#         771
 C2:A027H         LINE#         772
 C2:A02CH         LINE#         773
 C2:A02CH         LINE#         775
  -------         ENDPROC       SMTP

  -------         PROC BANK=2   SMTPONTCPRX
 C2:D125H         LINE#         788
 C2:D125H         LINE#         789
 C2:D125H         LINE#         790
 C2:D152H         LINE#         791
 C2:D152H         LINE#         792
 C2:D155H         LINE#         793
 C2:D158H         LINE#         794
 C2:D158H         LINE#         795
 C2:D15AH         LINE#         796
  -------         ENDPROC       SMTPONTCPRX

  -------         PROC BANK=2   SMTP_CHECK_MAIL
  -------         DO            
  D:0006H         SYMBOL        j
  -------         ENDDO         
 C2:CF8DH         LINE#         798
 C2:CF8DH         LINE#         799
 C2:CF8FH         LINE#         802
 C2:CF92H         LINE#         807
 C2:CF96H         LINE#         808
 C2:CF99H         LINE#         809
 C2:CF9FH         LINE#         810
 C2:CFB4H         LINE#         811
 C2:CFB4H         LINE#         812
 C2:CFB7H         LINE#         813
 C2:CFBCH         LINE#         814
 C2:CFBCH         LINE#         815
 C2:CFBCH         LINE#         816
BL51 BANKED LINKER/LOCATER V6.00                                                      11/05/2015  16:28:40  PAGE 272


 C2:CFBEH         LINE#         818
 C2:CFBEH         LINE#         820
 C2:CFC1H         LINE#         821
 C2:CFC1H         LINE#         822
 C2:CFC8H         LINE#         823
 C2:CFC8H         LINE#         824
 C2:CFCEH         LINE#         825
 C2:CFD5H         LINE#         826
 C2:CFD5H         LINE#         827
 C2:CFD5H         LINE#         828
 C2:CFD5H         LINE#         829
 C2:CFDAH         LINE#         830
  -------         ENDPROC       SMTP_CHECK_MAIL
  -------         ENDMOD        SMTP

  -------         MODULE        BASE64
  C:0000H         SYMBOL        _ICE_DUMMY_
 C2:CEF0H         PUBLIC        _b64decode_alloc
 C2:CB59H         PUBLIC        _b64encode_alloc
 C2:CAE9H         PUBLIC        _b64decode
 C2:CA79H         PUBLIC        _b64encode
  X:2526H         SYMBOL        b64d
  X:25A6H         SYMBOL        b64e
 C2:D349H         PUBLIC        _b64decode_len
 C2:D32CH         PUBLIC        _b64encode_len
 C2:B444H         SYMBOL        _b64dec
 C2:ACB5H         SYMBOL        _b64enc
  X:25E6H         PUBLIC        buf_de
  X:264AH         PUBLIC        buf_en

  -------         PROC BANK=2   _B64ENC
  D:0001H         SYMBOL        in
  X:3564H         SYMBOL        inlen
  X:3566H         SYMBOL        out
  -------         DO            
  D:0007H         SYMBOL        t0
  X:3569H         SYMBOL        t1
  X:356AH         SYMBOL        t2
  -------         ENDDO         
 C2:ACB5H         LINE#         41
 C2:ACBDH         LINE#         42
 C2:ACBDH         LINE#         43
 C2:ACCFH         LINE#         44
 C2:ACF0H         LINE#         45
 C2:AD11H         LINE#         47
 C2:AD25H         LINE#         48
 C2:AD48H         LINE#         49
 C2:AD78H         LINE#         51
 C2:AD89H         LINE#         52
 C2:AD91H         LINE#         53
 C2:AD93H         LINE#         55
 C2:AD93H         LINE#         56
 C2:ADBAH         LINE#         58
 C2:ADCBH         LINE#         59
 C2:ADDDH         LINE#         61
 C2:ADDDH         LINE#         62
 C2:AE00H         LINE#         63
BL51 BANKED LINKER/LOCATER V6.00                                                      11/05/2015  16:28:40  PAGE 273


  -------         ENDPROC       _B64ENC

  -------         PROC BANK=2   _B64DEC
  D:0001H         SYMBOL        in
  D:0004H         SYMBOL        inlen
  X:34E5H         SYMBOL        out
  -------         DO            
  X:34E8H         SYMBOL        t0
  X:34E9H         SYMBOL        t1
  X:34EAH         SYMBOL        t2
  X:34EBH         SYMBOL        t3
  -------         ENDDO         
 C2:B444H         LINE#         65
 C2:B444H         LINE#         66
 C2:B444H         LINE#         67
 C2:B468H         LINE#         68
 C2:B48FH         LINE#         69
 C2:B4B6H         LINE#         70
 C2:B4DDH         LINE#         72
 C2:B4EBH         LINE#         73
 C2:B50AH         LINE#         74
 C2:B515H         LINE#         75
 C2:B525H         LINE#         77
 C2:B525H         LINE#         78
 C2:B54BH         LINE#         79
 C2:B556H         LINE#         80
 C2:B55CH         LINE#         82
 C2:B55CH         LINE#         83
 C2:B56FH         LINE#         84
  -------         ENDPROC       _B64DEC

  -------         PROC BANK=2   _B64ENCODE_LEN
  D:0001H         SYMBOL        in
  -------         DO            
  D:0006H         SYMBOL        l
  -------         ENDDO         
 C2:D32CH         LINE#         86
 C2:D32CH         LINE#         87
 C2:D32CH         LINE#         88
 C2:D32FH         LINE#         89
 C2:D348H         LINE#         90
  -------         ENDPROC       _B64ENCODE_LEN

  -------         PROC BANK=2   _B64DECODE_LEN
  D:0001H         SYMBOL        in
  -------         DO            
  D:0006H         SYMBOL        l
  -------         ENDDO         
 C2:D349H         LINE#         92
 C2:D349H         LINE#         93
 C2:D349H         LINE#         94
 C2:D34CH         LINE#         95
 C2:D361H         LINE#         96
  -------         ENDPROC       _B64DECODE_LEN

  -------         PROC BANK=2   _B64ENCODE_ALLOC
  D:0001H         SYMBOL        in
BL51 BANKED LINKER/LOCATER V6.00                                                      11/05/2015  16:28:40  PAGE 274


  -------         DO            
  D:0006H         SYMBOL        l
  X:3802H         SYMBOL        n
  -------         ENDDO         
 C2:CB59H         LINE#         98
 C2:CB59H         LINE#         99
 C2:CB59H         LINE#         100
 C2:CB5CH         LINE#         101
 C2:CB6AH         LINE#         102
 C2:CB78H         LINE#         103
 C2:CB8DH         LINE#         104
 C2:CB95H         LINE#         105
 C2:CBB0H         LINE#         106
 C2:CBB2H         LINE#         107
 C2:CBB2H         LINE#         108
 C2:CBBDH         LINE#         109
  -------         ENDPROC       _B64ENCODE_ALLOC

  -------         PROC BANK=2   _B64ENCODE
  X:365BH         SYMBOL        in
  X:365EH         SYMBOL        out
  -------         DO            
  X:3661H         SYMBOL        inlen
  -------         ENDDO         
 C2:CA79H         LINE#         111
 C2:CA84H         LINE#         112
 C2:CA84H         LINE#         113
 C2:CA8FH         LINE#         114
 C2:CAA1H         LINE#         115
 C2:CAC4H         LINE#         116
 C2:CAD2H         LINE#         117
 C2:CADCH         LINE#         118
 C2:CAE6H         LINE#         119
 C2:CAE8H         LINE#         120
  -------         ENDPROC       _B64ENCODE

  -------         PROC BANK=2   _B64DECODE_ALLOC
  D:0001H         SYMBOL        in
  -------         DO            
  D:0006H         SYMBOL        l
  X:3805H         SYMBOL        n
  -------         ENDDO         
 C2:CEF0H         LINE#         122
 C2:CEF0H         LINE#         123
 C2:CEF0H         LINE#         124
 C2:CEF3H         LINE#         125
 C2:CF01H         LINE#         126
 C2:CF0FH         LINE#         127
 C2:CF17H         LINE#         128
 C2:CF31H         LINE#         129
 C2:CF33H         LINE#         130
 C2:CF33H         LINE#         131
 C2:CF3EH         LINE#         132
  -------         ENDPROC       _B64DECODE_ALLOC

  -------         PROC BANK=2   _B64DECODE
  X:3663H         SYMBOL        in
BL51 BANKED LINKER/LOCATER V6.00                                                      11/05/2015  16:28:40  PAGE 275


  X:3666H         SYMBOL        out
  -------         DO            
  X:3669H         SYMBOL        inlen
  -------         ENDDO         
 C2:CAE9H         LINE#         134
 C2:CAF4H         LINE#         135
 C2:CAFFH         LINE#         136
 C2:CB11H         LINE#         137
 C2:CB34H         LINE#         138
 C2:CB42H         LINE#         139
 C2:CB4CH         LINE#         140
 C2:CB56H         LINE#         141
 C2:CB58H         LINE#         142
  -------         ENDPROC       _B64DECODE
  -------         ENDMOD        BASE64

  -------         MODULE        CRAM_MD5
  C:0000H         SYMBOL        _ICE_DUMMY_
  X:2E1CH         PUBLIC        buf_md5
 C2:CE4AH         PUBLIC        _cram_md5_decode
 C2:D0E7H         PUBLIC        _cram_md5_encode
  X:2E80H         PUBLIC        _cram_md5_param
 C2:B57BH         PUBLIC        _cram_md5
  -------         PROC          L?0004
  -------         ENDPROC       L?0004

  -------         PROC BANK=2   _CRAM_MD5
  X:34ECH         SYMBOL        cram_md5_param
  -------         DO            
  X:34EFH         SYMBOL        challenge
  X:34F2H         SYMBOL        decoded
  X:34F5H         SYMBOL        encoded
  -------         ENDDO         
 C2:B57BH         LINE#         20
 C2:B586H         LINE#         21
 C2:B586H         LINE#         26
 C2:B59AH         LINE#         27
 C2:B5CBH         LINE#         29
 C2:B5EDH         LINE#         31
 C2:B5FBH         LINE#         33
 C2:B623H         LINE#         35
 C2:B63CH         LINE#         36
 C2:B65FH         LINE#         37
 C2:B681H         LINE#         38
  -------         ENDPROC       _CRAM_MD5

  -------         PROC BANK=2   _CRAM_MD5_ENCODE
  D:0001H         SYMBOL        in
  X:373AH         SYMBOL        out
 C2:D0E7H         LINE#         39
 C2:D0E7H         LINE#         40
 C2:D0E7H         LINE#         41
 C2:D0F2H         LINE#         42
 C2:D0FEH         LINE#         43
 C2:D105H         LINE#         44
 C2:D108H         LINE#         45
  -------         ENDPROC       _CRAM_MD5_ENCODE
BL51 BANKED LINKER/LOCATER V6.00                                                      11/05/2015  16:28:40  PAGE 276



  -------         PROC BANK=2   _CRAM_MD5_DECODE
  X:373DH         SYMBOL        in
  X:3740H         SYMBOL        out
 C2:CE4AH         LINE#         48
 C2:CE55H         LINE#         49
 C2:CE55H         LINE#         50
 C2:CE63H         LINE#         51
 C2:CE6FH         LINE#         52
 C2:CE7FH         LINE#         53
 C2:CE82H         LINE#         54
  -------         ENDPROC       _CRAM_MD5_DECODE
  -------         ENDMOD        CRAM_MD5

  -------         MODULE        SNMP_TRAP
  C:0000H         SYMBOL        _ICE_DUMMY_
  -------         ENDMOD        SNMP_TRAP

  -------         MODULE        ?C?COPY
  C:0185H         PUBLIC        ?C?COPY
  -------         ENDMOD        ?C?COPY

  -------         MODULE        ?C?CLDPTR
  C:01ABH         PUBLIC        ?C?CLDPTR
  -------         ENDMOD        ?C?CLDPTR

  -------         MODULE        ?C?CLDOPTR
  C:01C4H         PUBLIC        ?C?CLDOPTR
  -------         ENDMOD        ?C?CLDOPTR

  -------         MODULE        ?C?CLDIOPTR
  C:01F1H         PUBLIC        ?C?CLDIOPTR
  -------         ENDMOD        ?C?CLDIOPTR

  -------         MODULE        ?C?CILDPTR
  C:0228H         PUBLIC        ?C?CILDPTR
  -------         ENDMOD        ?C?CILDPTR

  -------         MODULE        ?C?CILDOPTR
  C:024AH         PUBLIC        ?C?CILDOPTR
  -------         ENDMOD        ?C?CILDOPTR

  -------         MODULE        ?C?CSTPTR
  C:027DH         PUBLIC        ?C?CSTPTR
  -------         ENDMOD        ?C?CSTPTR

  -------         MODULE        ?C?CSTOPTR
  C:028FH         PUBLIC        ?C?CSTOPTR
  -------         ENDMOD        ?C?CSTOPTR

  -------         MODULE        ?C?IMUL
  C:02B1H         PUBLIC        ?C?IMUL
  -------         ENDMOD        ?C?IMUL

  -------         MODULE        ?C?UIDIV
  C:02C3H         PUBLIC        ?C?UIDIV
  -------         ENDMOD        ?C?UIDIV
BL51 BANKED LINKER/LOCATER V6.00                                                      11/05/2015  16:28:40  PAGE 277



  -------         MODULE        ?C?SIDIV
  C:0318H         PUBLIC        ?C?SIDIV
  -------         ENDMOD        ?C?SIDIV

  -------         MODULE        ?C?IILDX
  C:034EH         PUBLIC        ?C?IILDX
  -------         ENDMOD        ?C?IILDX

  -------         MODULE        ?C?ILDIX
  C:0364H         PUBLIC        ?C?ILDIX
  -------         ENDMOD        ?C?ILDIX

  -------         MODULE        ?C?ILDPTR
  C:037AH         PUBLIC        ?C?ILDPTR
  -------         ENDMOD        ?C?ILDPTR

  -------         MODULE        ?C?ILDOPTR
  C:03A5H         PUBLIC        ?C?ILDOPTR
  -------         ENDMOD        ?C?ILDOPTR

  -------         MODULE        ?C?IILDPTR
  C:03DDH         PUBLIC        ?C?IILDPTR
  -------         ENDMOD        ?C?IILDPTR

  -------         MODULE        ?C?IILDOPTR
  C:0415H         PUBLIC        ?C?IILDOPTR
  -------         ENDMOD        ?C?IILDOPTR

  -------         MODULE        ?C?ISTPTR
  C:0462H         PUBLIC        ?C?ISTPTR
  -------         ENDMOD        ?C?ISTPTR

  -------         MODULE        ?C?ISTOPTR
  C:0481H         PUBLIC        ?C?ISTOPTR
  -------         ENDMOD        ?C?ISTOPTR

  -------         MODULE        ?C?LMUL
  C:04AEH         PUBLIC        ?C?LMUL
  -------         ENDMOD        ?C?LMUL

  -------         MODULE        ?C?ULDIV
  C:0539H         PUBLIC        ?C?ULDIV
  -------         ENDMOD        ?C?ULDIV

  -------         MODULE        ?C?LNOT
  C:05CBH         PUBLIC        ?C?LNOT
  -------         ENDMOD        ?C?LNOT

  -------         MODULE        ?C?SLCMP
  C:05D8H         PUBLIC        ?C?SLCMP
  -------         ENDMOD        ?C?SLCMP

  -------         MODULE        ?C?ULCMP
  C:05EEH         PUBLIC        ?C?ULCMP
  -------         ENDMOD        ?C?ULCMP

BL51 BANKED LINKER/LOCATER V6.00                                                      11/05/2015  16:28:40  PAGE 278


  -------         MODULE        ?C?ULSHR
  C:05FFH         PUBLIC        ?C?ULSHR
  -------         ENDMOD        ?C?ULSHR

  -------         MODULE        ?C?LSHL
  C:0612H         PUBLIC        ?C?LSHL
  -------         ENDMOD        ?C?LSHL

  -------         MODULE        ?C?LLDPTR
  C:0625H         PUBLIC        ?C?LLDPTR
  -------         ENDMOD        ?C?LLDPTR

  -------         MODULE        ?C?LLDOPTR
  C:0645H         PUBLIC        ?C?LLDOPTR
  -------         ENDMOD        ?C?LLDOPTR

  -------         MODULE        ?C?LSTPTR
  C:0675H         PUBLIC        ?C?LSTPTR
  -------         ENDMOD        ?C?LSTPTR

  -------         MODULE        ?C?LSTOPTR
  C:068FH         PUBLIC        ?C?LSTOPTR
  -------         ENDMOD        ?C?LSTOPTR

  -------         MODULE        ?C?LLDPTR0
  C:06B3H         PUBLIC        ?C?LLDPTR0
  -------         ENDMOD        ?C?LLDPTR0

  -------         MODULE        ?C?LLDIXDATA
  C:06DCH         PUBLIC        ?C?LLDIXDATA
  C:06D3H         PUBLIC        ?C?LLDIXDATA1
  C:06D5H         PUBLIC        ?C?LLDIXDATA8
  -------         ENDMOD        ?C?LLDIXDATA

  -------         MODULE        ?C?LSTXDATA
  C:0708H         PUBLIC        ?C?LSTXDATA
  -------         ENDMOD        ?C?LSTXDATA

  -------         MODULE        ?C?LSTKXDATA
  C:0714H         PUBLIC        ?C?LSTKXDATA
  -------         ENDMOD        ?C?LSTKXDATA

  -------         MODULE        ?C?LSTKOPTR
  C:0745H         PUBLIC        ?C?LSTKOPTR
  -------         ENDMOD        ?C?LSTKOPTR

  -------         MODULE        ?C?OFFX256
  C:0769H         PUBLIC        ?C?OFFX256
  -------         ENDMOD        ?C?OFFX256

  -------         MODULE        ?C?OFFXADD
  C:077AH         PUBLIC        ?C?OFFXADD
  -------         ENDMOD        ?C?OFFXADD

  -------         MODULE        ?C?PLDPTR
  C:0786H         PUBLIC        ?C?PLDPTR
  -------         ENDMOD        ?C?PLDPTR
BL51 BANKED LINKER/LOCATER V6.00                                                      11/05/2015  16:28:40  PAGE 279



  -------         MODULE        ?C?PSTPTR
  C:07A6H         PUBLIC        ?C?PSTPTR
  -------         ENDMOD        ?C?PSTPTR

  -------         MODULE        ?C?PLDOPTR
  C:07F5H         PUBLIC        ?C?PLDOPTR
  -------         ENDMOD        ?C?PLDOPTR

  -------         MODULE        ?C?PSTOPTR
  C:0825H         PUBLIC        ?C?PSTOPTR
  -------         ENDMOD        ?C?PSTOPTR

  -------         MODULE        ?C?CCASE
  C:087EH         PUBLIC        ?C?CCASE
  -------         ENDMOD        ?C?CCASE

  -------         MODULE        ?C?ICASE
  C:08A4H         PUBLIC        ?C?ICASE
  -------         ENDMOD        ?C?ICASE

  -------         MODULE        ?C?ICALL
  C:08D1H         PUBLIC        ?C?ICALL
  C:08D5H         PUBLIC        ?C?ICALL2
  -------         ENDMOD        ?C?ICALL

  -------         MODULE        PRINTF
  X:324BH         PUBLIC        ?_PRINTF517?BYTE
  X:324BH         PUBLIC        ?_PRINTF?BYTE
  X:324BH         PUBLIC        ?_SPRINTF517?BYTE
  X:324BH         PUBLIC        ?_SPRINTF?BYTE
  C:1CABH         PUBLIC        _PRINTF
  C:1CABH         PUBLIC        _PRINTF517
  C:1CA5H         PUBLIC        _SPRINTF
  C:1CA5H         PUBLIC        _SPRINTF517
  -------         ENDMOD        PRINTF

  -------         MODULE        RAND
  X:37A4H         PUBLIC        ?SRAND?BYTE
  C:3BC3H         PUBLIC        RAND
  C:3C01H         PUBLIC        _SRAND
  -------         ENDMOD        RAND

  -------         MODULE        SCANF
  X:31CAH         PUBLIC        ?_SCANF517?BYTE
  X:31CAH         PUBLIC        ?_SCANF?BYTE
  X:31CAH         PUBLIC        ?_SSCANF517?BYTE
  X:31CAH         PUBLIC        ?_SSCANF?BYTE
  C:2A7EH         PUBLIC        _SCANF
  C:2A7EH         PUBLIC        _SCANF517
  C:2A7AH         PUBLIC        _SSCANF
  C:2A7AH         PUBLIC        _SSCANF517
  -------         ENDMOD        SCANF

  -------         MODULE        STRCAT
  X:35E9H         PUBLIC        ?_strcat?BYTE
  C:3AA5H         PUBLIC        _strcat
BL51 BANKED LINKER/LOCATER V6.00                                                      11/05/2015  16:28:40  PAGE 280


  -------         ENDMOD        STRCAT

  -------         MODULE        ?C?STRCMP
  C:0A5FH         PUBLIC        ?C?STRCMP
  -------         ENDMOD        ?C?STRCMP

  -------         MODULE        STRNCMP
  X:366BH         PUBLIC        ?_strncmp?BYTE
  C:3953H         PUBLIC        _strncmp
  -------         ENDMOD        STRNCMP

  -------         MODULE        ?C?STRCPY
  C:0B48H         PUBLIC        ?C?STRCPY
  -------         ENDMOD        ?C?STRCPY

  -------         MODULE        STRLEN
  C:3DD8H         PUBLIC        _STRLEN
  -------         ENDMOD        STRLEN

  -------         MODULE        STRCHR
  C:3D8BH         PUBLIC        _STRCHR
  -------         ENDMOD        STRCHR

  -------         MODULE        STRCSPN
  X:35F2H         PUBLIC        ?_strcspn?BYTE
  C:38D2H         PUBLIC        _strcspn
  -------         ENDMOD        STRCSPN

  -------         MODULE        ATOL
  C:3306H         PUBLIC        _atol
  -------         ENDMOD        ATOL

  -------         MODULE        ATOI
  C:35F2H         PUBLIC        _atoi
  -------         ENDMOD        ATOI

  -------         MODULE        ?C?MEMCMP
  C:0CEBH         PUBLIC        ?C?MEMCMP
  -------         ENDMOD        ?C?MEMCMP

  -------         MODULE        ?C?MEMSET
  C:0D0FH         PUBLIC        ?C?MEMSET
  -------         ENDMOD        ?C?MEMSET

  -------         MODULE        ?C?LNEG
  C:0D3BH         PUBLIC        ?C?LNEG
  -------         ENDMOD        ?C?LNEG

  -------         MODULE        ?C?LLDIDATA
  C:0D49H         PUBLIC        ?C?LLDIDATA
  -------         ENDMOD        ?C?LLDIDATA

  -------         MODULE        ?C?LLDXDATA
  C:0D55H         PUBLIC        ?C?LLDXDATA
  -------         ENDMOD        ?C?LLDXDATA

  -------         MODULE        ?C?LLDPDATA
BL51 BANKED LINKER/LOCATER V6.00                                                      11/05/2015  16:28:40  PAGE 281


  C:0D61H         PUBLIC        ?C?LLDPDATA
  -------         ENDMOD        ?C?LLDPDATA

  -------         MODULE        ?C?LLDCODE
  C:0D6DH         PUBLIC        ?C?LLDCODE
  -------         ENDMOD        ?C?LLDCODE

  -------         MODULE        ?C?LLDIDATA0
  C:0D7DH         PUBLIC        ?C?LLDIDATA0
  -------         ENDMOD        ?C?LLDIDATA0

  -------         MODULE        ?C?LLDXDATA0
  C:0D8AH         PUBLIC        ?C?LLDXDATA0
  -------         ENDMOD        ?C?LLDXDATA0

  -------         MODULE        ?C?LLDPDATA0
  C:0D96H         PUBLIC        ?C?LLDPDATA0
  -------         ENDMOD        ?C?LLDPDATA0

  -------         MODULE        ?C?LLDCODE0
  C:0DA3H         PUBLIC        ?C?LLDCODE0
  -------         ENDMOD        ?C?LLDCODE0

  -------         MODULE        ?C?LSTIDATA
  C:0DB3H         PUBLIC        ?C?LSTIDATA
  -------         ENDMOD        ?C?LSTIDATA

  -------         MODULE        ?C?LSTPDATA
  C:0DBFH         PUBLIC        ?C?LSTPDATA
  -------         ENDMOD        ?C?LSTPDATA

  -------         MODULE        ?C?LSTKIDATA
  C:0DCBH         PUBLIC        ?C?LSTKIDATA
  -------         ENDMOD        ?C?LSTKIDATA

  -------         MODULE        ?C?LSTKPDATA
  C:0DE4H         PUBLIC        ?C?LSTKPDATA
  -------         ENDMOD        ?C?LSTKPDATA

  -------         MODULE        ?C?PLDIDATA
  C:0DFDH         PUBLIC        ?C?PLDIDATA
  -------         ENDMOD        ?C?PLDIDATA

  -------         MODULE        ?C?PSTIDATA
  C:0E06H         PUBLIC        ?C?PSTIDATA
  -------         ENDMOD        ?C?PSTIDATA

  -------         MODULE        ?C?PLDXDATA
  C:0E0FH         PUBLIC        ?C?PLDXDATA
  -------         ENDMOD        ?C?PLDXDATA

  -------         MODULE        ?C?PLDIXDATA
  C:0E18H         PUBLIC        ?C?PLDIXDATA
  -------         ENDMOD        ?C?PLDIXDATA

  -------         MODULE        ?C?PILDXDATA
  C:0E2FH         PUBLIC        ?C?PILDXDATA
BL51 BANKED LINKER/LOCATER V6.00                                                      11/05/2015  16:28:40  PAGE 282


  -------         ENDMOD        ?C?PILDXDATA

  -------         MODULE        ?C?PSTXDATA
  C:0E46H         PUBLIC        ?C?PSTXDATA
  -------         ENDMOD        ?C?PSTXDATA

  -------         MODULE        ?C?PLDPDATA
  C:0E4FH         PUBLIC        ?C?PLDPDATA
  -------         ENDMOD        ?C?PLDPDATA

  -------         MODULE        ?C?PSTPDATA
  C:0E58H         PUBLIC        ?C?PSTPDATA
  -------         ENDMOD        ?C?PSTPDATA

  -------         MODULE        ?C?PLDCODE
  C:0E61H         PUBLIC        ?C?PLDCODE
  -------         ENDMOD        ?C?PLDCODE

  -------         MODULE        PUTCHAR
  C:3D18H         PUBLIC        _PUTCHAR
  -------         ENDMOD        PUTCHAR

  -------         MODULE        GETCHAR
  B:0027H.1       PUBLIC        ?C?CHARLOADED
  X:383EH         PUBLIC        ?_UNGETCHAR?BYTE
  C:3E01H         PUBLIC        GETCHAR
  -------         ENDMOD        GETCHAR

  -------         MODULE        UNGETC
  C:3EAFH         PUBLIC        _UNGETCHAR
  -------         ENDMOD        UNGETC

  -------         MODULE        ISDIGIT
  C:3E6BH         PUBLIC        _isdigit
  -------         ENDMOD        ISDIGIT

  -------         MODULE        ISSPACE
  C:3E15H         PUBLIC        _isspace
  -------         ENDMOD        ISSPACE

  -------         MODULE        _GETKEY
  C:3E9DH         PUBLIC        _GETKEY
  -------         ENDMOD        _GETKEY

Program Size: data=99.2 xdata=14399 code=199583
LINK/LOCATE RUN COMPLETE.  0 WARNING(S),  0 ERROR(S)
